
FAC firmware.elf:     file format elf32-littlearm

Sections:
Idx Name          Size      VMA       LMA       File off  Algn
  0 .isr_vector   000000c0  08000000  08000000  00001000  2**0
                  CONTENTS, ALLOC, LOAD, READONLY, DATA
  1 .text         00008f8c  080000c0  080000c0  000010c0  2**2
                  CONTENTS, ALLOC, LOAD, READONLY, CODE
  2 .rodata       000004a4  0800904c  0800904c  0000a04c  2**2
                  CONTENTS, ALLOC, LOAD, READONLY, DATA
  3 .ARM.extab    00000000  080094f0  080094f0  0000b1ec  2**0
                  CONTENTS
  4 .ARM          00000000  080094f0  080094f0  0000b1ec  2**0
                  CONTENTS
  5 .preinit_array 00000000  080094f0  080094f0  0000b1ec  2**0
                  CONTENTS, ALLOC, LOAD, DATA
  6 .init_array   00000004  080094f0  080094f0  0000a4f0  2**2
                  CONTENTS, ALLOC, LOAD, READONLY, DATA
  7 .fini_array   00000004  080094f4  080094f4  0000a4f4  2**2
                  CONTENTS, ALLOC, LOAD, READONLY, DATA
  8 .data         000001ec  20000000  080094f8  0000b000  2**2
                  CONTENTS, ALLOC, LOAD, DATA
  9 .bss          0000357c  200001ec  080096e4  0000b1ec  2**2
                  ALLOC
 10 ._user_heap_stack 00000600  20003768  080096e4  0000b768  2**0
                  ALLOC
 11 .ARM.attributes 00000028  00000000  00000000  0000b1ec  2**0
                  CONTENTS, READONLY
 12 .comment      00000043  00000000  00000000  0000b214  2**0
                  CONTENTS, READONLY
 13 .debug_frame  00000c88  00000000  00000000  0000b258  2**2
                  CONTENTS, READONLY, DEBUGGING, OCTETS

Disassembly of section .text:

080000c0 <__do_global_dtors_aux>:
 80000c0:	b510      	push	{r4, lr}
 80000c2:	4c06      	ldr	r4, [pc, #24]	@ (80000dc <__do_global_dtors_aux+0x1c>)
 80000c4:	7823      	ldrb	r3, [r4, #0]
 80000c6:	2b00      	cmp	r3, #0
 80000c8:	d107      	bne.n	80000da <__do_global_dtors_aux+0x1a>
 80000ca:	4b05      	ldr	r3, [pc, #20]	@ (80000e0 <__do_global_dtors_aux+0x20>)
 80000cc:	2b00      	cmp	r3, #0
 80000ce:	d002      	beq.n	80000d6 <__do_global_dtors_aux+0x16>
 80000d0:	4804      	ldr	r0, [pc, #16]	@ (80000e4 <__do_global_dtors_aux+0x24>)
 80000d2:	e000      	b.n	80000d6 <__do_global_dtors_aux+0x16>
 80000d4:	bf00      	nop
 80000d6:	2301      	movs	r3, #1
 80000d8:	7023      	strb	r3, [r4, #0]
 80000da:	bd10      	pop	{r4, pc}
 80000dc:	200001ec 	.word	0x200001ec
 80000e0:	00000000 	.word	0x00000000
 80000e4:	08009034 	.word	0x08009034

080000e8 <frame_dummy>:
 80000e8:	4b04      	ldr	r3, [pc, #16]	@ (80000fc <frame_dummy+0x14>)
 80000ea:	b510      	push	{r4, lr}
 80000ec:	2b00      	cmp	r3, #0
 80000ee:	d003      	beq.n	80000f8 <frame_dummy+0x10>
 80000f0:	4903      	ldr	r1, [pc, #12]	@ (8000100 <frame_dummy+0x18>)
 80000f2:	4804      	ldr	r0, [pc, #16]	@ (8000104 <frame_dummy+0x1c>)
 80000f4:	e000      	b.n	80000f8 <frame_dummy+0x10>
 80000f6:	bf00      	nop
 80000f8:	bd10      	pop	{r4, pc}
 80000fa:	46c0      	nop			@ (mov r8, r8)
 80000fc:	00000000 	.word	0x00000000
 8000100:	200001f0 	.word	0x200001f0
 8000104:	08009034 	.word	0x08009034

08000108 <strlen>:
 8000108:	2300      	movs	r3, #0
 800010a:	5cc2      	ldrb	r2, [r0, r3]
 800010c:	3301      	adds	r3, #1
 800010e:	2a00      	cmp	r2, #0
 8000110:	d1fb      	bne.n	800010a <strlen+0x2>
 8000112:	1e58      	subs	r0, r3, #1
 8000114:	4770      	bx	lr
	...

08000118 <__gnu_thumb1_case_shi>:
 8000118:	b403      	push	{r0, r1}
 800011a:	4671      	mov	r1, lr
 800011c:	0849      	lsrs	r1, r1, #1
 800011e:	0040      	lsls	r0, r0, #1
 8000120:	0049      	lsls	r1, r1, #1
 8000122:	5e09      	ldrsh	r1, [r1, r0]
 8000124:	0049      	lsls	r1, r1, #1
 8000126:	448e      	add	lr, r1
 8000128:	bc03      	pop	{r0, r1}
 800012a:	4770      	bx	lr

0800012c <__udivsi3>:
 800012c:	2200      	movs	r2, #0
 800012e:	0843      	lsrs	r3, r0, #1
 8000130:	428b      	cmp	r3, r1
 8000132:	d374      	bcc.n	800021e <__udivsi3+0xf2>
 8000134:	0903      	lsrs	r3, r0, #4
 8000136:	428b      	cmp	r3, r1
 8000138:	d35f      	bcc.n	80001fa <__udivsi3+0xce>
 800013a:	0a03      	lsrs	r3, r0, #8
 800013c:	428b      	cmp	r3, r1
 800013e:	d344      	bcc.n	80001ca <__udivsi3+0x9e>
 8000140:	0b03      	lsrs	r3, r0, #12
 8000142:	428b      	cmp	r3, r1
 8000144:	d328      	bcc.n	8000198 <__udivsi3+0x6c>
 8000146:	0c03      	lsrs	r3, r0, #16
 8000148:	428b      	cmp	r3, r1
 800014a:	d30d      	bcc.n	8000168 <__udivsi3+0x3c>
 800014c:	22ff      	movs	r2, #255	@ 0xff
 800014e:	0209      	lsls	r1, r1, #8
 8000150:	ba12      	rev	r2, r2
 8000152:	0c03      	lsrs	r3, r0, #16
 8000154:	428b      	cmp	r3, r1
 8000156:	d302      	bcc.n	800015e <__udivsi3+0x32>
 8000158:	1212      	asrs	r2, r2, #8
 800015a:	0209      	lsls	r1, r1, #8
 800015c:	d065      	beq.n	800022a <__udivsi3+0xfe>
 800015e:	0b03      	lsrs	r3, r0, #12
 8000160:	428b      	cmp	r3, r1
 8000162:	d319      	bcc.n	8000198 <__udivsi3+0x6c>
 8000164:	e000      	b.n	8000168 <__udivsi3+0x3c>
 8000166:	0a09      	lsrs	r1, r1, #8
 8000168:	0bc3      	lsrs	r3, r0, #15
 800016a:	428b      	cmp	r3, r1
 800016c:	d301      	bcc.n	8000172 <__udivsi3+0x46>
 800016e:	03cb      	lsls	r3, r1, #15
 8000170:	1ac0      	subs	r0, r0, r3
 8000172:	4152      	adcs	r2, r2
 8000174:	0b83      	lsrs	r3, r0, #14
 8000176:	428b      	cmp	r3, r1
 8000178:	d301      	bcc.n	800017e <__udivsi3+0x52>
 800017a:	038b      	lsls	r3, r1, #14
 800017c:	1ac0      	subs	r0, r0, r3
 800017e:	4152      	adcs	r2, r2
 8000180:	0b43      	lsrs	r3, r0, #13
 8000182:	428b      	cmp	r3, r1
 8000184:	d301      	bcc.n	800018a <__udivsi3+0x5e>
 8000186:	034b      	lsls	r3, r1, #13
 8000188:	1ac0      	subs	r0, r0, r3
 800018a:	4152      	adcs	r2, r2
 800018c:	0b03      	lsrs	r3, r0, #12
 800018e:	428b      	cmp	r3, r1
 8000190:	d301      	bcc.n	8000196 <__udivsi3+0x6a>
 8000192:	030b      	lsls	r3, r1, #12
 8000194:	1ac0      	subs	r0, r0, r3
 8000196:	4152      	adcs	r2, r2
 8000198:	0ac3      	lsrs	r3, r0, #11
 800019a:	428b      	cmp	r3, r1
 800019c:	d301      	bcc.n	80001a2 <__udivsi3+0x76>
 800019e:	02cb      	lsls	r3, r1, #11
 80001a0:	1ac0      	subs	r0, r0, r3
 80001a2:	4152      	adcs	r2, r2
 80001a4:	0a83      	lsrs	r3, r0, #10
 80001a6:	428b      	cmp	r3, r1
 80001a8:	d301      	bcc.n	80001ae <__udivsi3+0x82>
 80001aa:	028b      	lsls	r3, r1, #10
 80001ac:	1ac0      	subs	r0, r0, r3
 80001ae:	4152      	adcs	r2, r2
 80001b0:	0a43      	lsrs	r3, r0, #9
 80001b2:	428b      	cmp	r3, r1
 80001b4:	d301      	bcc.n	80001ba <__udivsi3+0x8e>
 80001b6:	024b      	lsls	r3, r1, #9
 80001b8:	1ac0      	subs	r0, r0, r3
 80001ba:	4152      	adcs	r2, r2
 80001bc:	0a03      	lsrs	r3, r0, #8
 80001be:	428b      	cmp	r3, r1
 80001c0:	d301      	bcc.n	80001c6 <__udivsi3+0x9a>
 80001c2:	020b      	lsls	r3, r1, #8
 80001c4:	1ac0      	subs	r0, r0, r3
 80001c6:	4152      	adcs	r2, r2
 80001c8:	d2cd      	bcs.n	8000166 <__udivsi3+0x3a>
 80001ca:	09c3      	lsrs	r3, r0, #7
 80001cc:	428b      	cmp	r3, r1
 80001ce:	d301      	bcc.n	80001d4 <__udivsi3+0xa8>
 80001d0:	01cb      	lsls	r3, r1, #7
 80001d2:	1ac0      	subs	r0, r0, r3
 80001d4:	4152      	adcs	r2, r2
 80001d6:	0983      	lsrs	r3, r0, #6
 80001d8:	428b      	cmp	r3, r1
 80001da:	d301      	bcc.n	80001e0 <__udivsi3+0xb4>
 80001dc:	018b      	lsls	r3, r1, #6
 80001de:	1ac0      	subs	r0, r0, r3
 80001e0:	4152      	adcs	r2, r2
 80001e2:	0943      	lsrs	r3, r0, #5
 80001e4:	428b      	cmp	r3, r1
 80001e6:	d301      	bcc.n	80001ec <__udivsi3+0xc0>
 80001e8:	014b      	lsls	r3, r1, #5
 80001ea:	1ac0      	subs	r0, r0, r3
 80001ec:	4152      	adcs	r2, r2
 80001ee:	0903      	lsrs	r3, r0, #4
 80001f0:	428b      	cmp	r3, r1
 80001f2:	d301      	bcc.n	80001f8 <__udivsi3+0xcc>
 80001f4:	010b      	lsls	r3, r1, #4
 80001f6:	1ac0      	subs	r0, r0, r3
 80001f8:	4152      	adcs	r2, r2
 80001fa:	08c3      	lsrs	r3, r0, #3
 80001fc:	428b      	cmp	r3, r1
 80001fe:	d301      	bcc.n	8000204 <__udivsi3+0xd8>
 8000200:	00cb      	lsls	r3, r1, #3
 8000202:	1ac0      	subs	r0, r0, r3
 8000204:	4152      	adcs	r2, r2
 8000206:	0883      	lsrs	r3, r0, #2
 8000208:	428b      	cmp	r3, r1
 800020a:	d301      	bcc.n	8000210 <__udivsi3+0xe4>
 800020c:	008b      	lsls	r3, r1, #2
 800020e:	1ac0      	subs	r0, r0, r3
 8000210:	4152      	adcs	r2, r2
 8000212:	0843      	lsrs	r3, r0, #1
 8000214:	428b      	cmp	r3, r1
 8000216:	d301      	bcc.n	800021c <__udivsi3+0xf0>
 8000218:	004b      	lsls	r3, r1, #1
 800021a:	1ac0      	subs	r0, r0, r3
 800021c:	4152      	adcs	r2, r2
 800021e:	1a41      	subs	r1, r0, r1
 8000220:	d200      	bcs.n	8000224 <__udivsi3+0xf8>
 8000222:	4601      	mov	r1, r0
 8000224:	4152      	adcs	r2, r2
 8000226:	4610      	mov	r0, r2
 8000228:	4770      	bx	lr
 800022a:	e7ff      	b.n	800022c <__udivsi3+0x100>
 800022c:	b501      	push	{r0, lr}
 800022e:	2000      	movs	r0, #0
 8000230:	f000 f8f0 	bl	8000414 <__aeabi_idiv0>
 8000234:	bd02      	pop	{r1, pc}
 8000236:	46c0      	nop			@ (mov r8, r8)

08000238 <__aeabi_uidivmod>:
 8000238:	2900      	cmp	r1, #0
 800023a:	d0f7      	beq.n	800022c <__udivsi3+0x100>
 800023c:	e776      	b.n	800012c <__udivsi3>
 800023e:	4770      	bx	lr

08000240 <__divsi3>:
 8000240:	4603      	mov	r3, r0
 8000242:	430b      	orrs	r3, r1
 8000244:	d47f      	bmi.n	8000346 <__divsi3+0x106>
 8000246:	2200      	movs	r2, #0
 8000248:	0843      	lsrs	r3, r0, #1
 800024a:	428b      	cmp	r3, r1
 800024c:	d374      	bcc.n	8000338 <__divsi3+0xf8>
 800024e:	0903      	lsrs	r3, r0, #4
 8000250:	428b      	cmp	r3, r1
 8000252:	d35f      	bcc.n	8000314 <__divsi3+0xd4>
 8000254:	0a03      	lsrs	r3, r0, #8
 8000256:	428b      	cmp	r3, r1
 8000258:	d344      	bcc.n	80002e4 <__divsi3+0xa4>
 800025a:	0b03      	lsrs	r3, r0, #12
 800025c:	428b      	cmp	r3, r1
 800025e:	d328      	bcc.n	80002b2 <__divsi3+0x72>
 8000260:	0c03      	lsrs	r3, r0, #16
 8000262:	428b      	cmp	r3, r1
 8000264:	d30d      	bcc.n	8000282 <__divsi3+0x42>
 8000266:	22ff      	movs	r2, #255	@ 0xff
 8000268:	0209      	lsls	r1, r1, #8
 800026a:	ba12      	rev	r2, r2
 800026c:	0c03      	lsrs	r3, r0, #16
 800026e:	428b      	cmp	r3, r1
 8000270:	d302      	bcc.n	8000278 <__divsi3+0x38>
 8000272:	1212      	asrs	r2, r2, #8
 8000274:	0209      	lsls	r1, r1, #8
 8000276:	d065      	beq.n	8000344 <__divsi3+0x104>
 8000278:	0b03      	lsrs	r3, r0, #12
 800027a:	428b      	cmp	r3, r1
 800027c:	d319      	bcc.n	80002b2 <__divsi3+0x72>
 800027e:	e000      	b.n	8000282 <__divsi3+0x42>
 8000280:	0a09      	lsrs	r1, r1, #8
 8000282:	0bc3      	lsrs	r3, r0, #15
 8000284:	428b      	cmp	r3, r1
 8000286:	d301      	bcc.n	800028c <__divsi3+0x4c>
 8000288:	03cb      	lsls	r3, r1, #15
 800028a:	1ac0      	subs	r0, r0, r3
 800028c:	4152      	adcs	r2, r2
 800028e:	0b83      	lsrs	r3, r0, #14
 8000290:	428b      	cmp	r3, r1
 8000292:	d301      	bcc.n	8000298 <__divsi3+0x58>
 8000294:	038b      	lsls	r3, r1, #14
 8000296:	1ac0      	subs	r0, r0, r3
 8000298:	4152      	adcs	r2, r2
 800029a:	0b43      	lsrs	r3, r0, #13
 800029c:	428b      	cmp	r3, r1
 800029e:	d301      	bcc.n	80002a4 <__divsi3+0x64>
 80002a0:	034b      	lsls	r3, r1, #13
 80002a2:	1ac0      	subs	r0, r0, r3
 80002a4:	4152      	adcs	r2, r2
 80002a6:	0b03      	lsrs	r3, r0, #12
 80002a8:	428b      	cmp	r3, r1
 80002aa:	d301      	bcc.n	80002b0 <__divsi3+0x70>
 80002ac:	030b      	lsls	r3, r1, #12
 80002ae:	1ac0      	subs	r0, r0, r3
 80002b0:	4152      	adcs	r2, r2
 80002b2:	0ac3      	lsrs	r3, r0, #11
 80002b4:	428b      	cmp	r3, r1
 80002b6:	d301      	bcc.n	80002bc <__divsi3+0x7c>
 80002b8:	02cb      	lsls	r3, r1, #11
 80002ba:	1ac0      	subs	r0, r0, r3
 80002bc:	4152      	adcs	r2, r2
 80002be:	0a83      	lsrs	r3, r0, #10
 80002c0:	428b      	cmp	r3, r1
 80002c2:	d301      	bcc.n	80002c8 <__divsi3+0x88>
 80002c4:	028b      	lsls	r3, r1, #10
 80002c6:	1ac0      	subs	r0, r0, r3
 80002c8:	4152      	adcs	r2, r2
 80002ca:	0a43      	lsrs	r3, r0, #9
 80002cc:	428b      	cmp	r3, r1
 80002ce:	d301      	bcc.n	80002d4 <__divsi3+0x94>
 80002d0:	024b      	lsls	r3, r1, #9
 80002d2:	1ac0      	subs	r0, r0, r3
 80002d4:	4152      	adcs	r2, r2
 80002d6:	0a03      	lsrs	r3, r0, #8
 80002d8:	428b      	cmp	r3, r1
 80002da:	d301      	bcc.n	80002e0 <__divsi3+0xa0>
 80002dc:	020b      	lsls	r3, r1, #8
 80002de:	1ac0      	subs	r0, r0, r3
 80002e0:	4152      	adcs	r2, r2
 80002e2:	d2cd      	bcs.n	8000280 <__divsi3+0x40>
 80002e4:	09c3      	lsrs	r3, r0, #7
 80002e6:	428b      	cmp	r3, r1
 80002e8:	d301      	bcc.n	80002ee <__divsi3+0xae>
 80002ea:	01cb      	lsls	r3, r1, #7
 80002ec:	1ac0      	subs	r0, r0, r3
 80002ee:	4152      	adcs	r2, r2
 80002f0:	0983      	lsrs	r3, r0, #6
 80002f2:	428b      	cmp	r3, r1
 80002f4:	d301      	bcc.n	80002fa <__divsi3+0xba>
 80002f6:	018b      	lsls	r3, r1, #6
 80002f8:	1ac0      	subs	r0, r0, r3
 80002fa:	4152      	adcs	r2, r2
 80002fc:	0943      	lsrs	r3, r0, #5
 80002fe:	428b      	cmp	r3, r1
 8000300:	d301      	bcc.n	8000306 <__divsi3+0xc6>
 8000302:	014b      	lsls	r3, r1, #5
 8000304:	1ac0      	subs	r0, r0, r3
 8000306:	4152      	adcs	r2, r2
 8000308:	0903      	lsrs	r3, r0, #4
 800030a:	428b      	cmp	r3, r1
 800030c:	d301      	bcc.n	8000312 <__divsi3+0xd2>
 800030e:	010b      	lsls	r3, r1, #4
 8000310:	1ac0      	subs	r0, r0, r3
 8000312:	4152      	adcs	r2, r2
 8000314:	08c3      	lsrs	r3, r0, #3
 8000316:	428b      	cmp	r3, r1
 8000318:	d301      	bcc.n	800031e <__divsi3+0xde>
 800031a:	00cb      	lsls	r3, r1, #3
 800031c:	1ac0      	subs	r0, r0, r3
 800031e:	4152      	adcs	r2, r2
 8000320:	0883      	lsrs	r3, r0, #2
 8000322:	428b      	cmp	r3, r1
 8000324:	d301      	bcc.n	800032a <__divsi3+0xea>
 8000326:	008b      	lsls	r3, r1, #2
 8000328:	1ac0      	subs	r0, r0, r3
 800032a:	4152      	adcs	r2, r2
 800032c:	0843      	lsrs	r3, r0, #1
 800032e:	428b      	cmp	r3, r1
 8000330:	d301      	bcc.n	8000336 <__divsi3+0xf6>
 8000332:	004b      	lsls	r3, r1, #1
 8000334:	1ac0      	subs	r0, r0, r3
 8000336:	4152      	adcs	r2, r2
 8000338:	1a41      	subs	r1, r0, r1
 800033a:	d200      	bcs.n	800033e <__divsi3+0xfe>
 800033c:	4601      	mov	r1, r0
 800033e:	4152      	adcs	r2, r2
 8000340:	4610      	mov	r0, r2
 8000342:	4770      	bx	lr
 8000344:	e05d      	b.n	8000402 <__divsi3+0x1c2>
 8000346:	0fca      	lsrs	r2, r1, #31
 8000348:	d000      	beq.n	800034c <__divsi3+0x10c>
 800034a:	4249      	negs	r1, r1
 800034c:	1003      	asrs	r3, r0, #32
 800034e:	d300      	bcc.n	8000352 <__divsi3+0x112>
 8000350:	4240      	negs	r0, r0
 8000352:	4053      	eors	r3, r2
 8000354:	2200      	movs	r2, #0
 8000356:	469c      	mov	ip, r3
 8000358:	0903      	lsrs	r3, r0, #4
 800035a:	428b      	cmp	r3, r1
 800035c:	d32d      	bcc.n	80003ba <__divsi3+0x17a>
 800035e:	0a03      	lsrs	r3, r0, #8
 8000360:	428b      	cmp	r3, r1
 8000362:	d312      	bcc.n	800038a <__divsi3+0x14a>
 8000364:	22fc      	movs	r2, #252	@ 0xfc
 8000366:	0189      	lsls	r1, r1, #6
 8000368:	ba12      	rev	r2, r2
 800036a:	0a03      	lsrs	r3, r0, #8
 800036c:	428b      	cmp	r3, r1
 800036e:	d30c      	bcc.n	800038a <__divsi3+0x14a>
 8000370:	0189      	lsls	r1, r1, #6
 8000372:	1192      	asrs	r2, r2, #6
 8000374:	428b      	cmp	r3, r1
 8000376:	d308      	bcc.n	800038a <__divsi3+0x14a>
 8000378:	0189      	lsls	r1, r1, #6
 800037a:	1192      	asrs	r2, r2, #6
 800037c:	428b      	cmp	r3, r1
 800037e:	d304      	bcc.n	800038a <__divsi3+0x14a>
 8000380:	0189      	lsls	r1, r1, #6
 8000382:	d03a      	beq.n	80003fa <__divsi3+0x1ba>
 8000384:	1192      	asrs	r2, r2, #6
 8000386:	e000      	b.n	800038a <__divsi3+0x14a>
 8000388:	0989      	lsrs	r1, r1, #6
 800038a:	09c3      	lsrs	r3, r0, #7
 800038c:	428b      	cmp	r3, r1
 800038e:	d301      	bcc.n	8000394 <__divsi3+0x154>
 8000390:	01cb      	lsls	r3, r1, #7
 8000392:	1ac0      	subs	r0, r0, r3
 8000394:	4152      	adcs	r2, r2
 8000396:	0983      	lsrs	r3, r0, #6
 8000398:	428b      	cmp	r3, r1
 800039a:	d301      	bcc.n	80003a0 <__divsi3+0x160>
 800039c:	018b      	lsls	r3, r1, #6
 800039e:	1ac0      	subs	r0, r0, r3
 80003a0:	4152      	adcs	r2, r2
 80003a2:	0943      	lsrs	r3, r0, #5
 80003a4:	428b      	cmp	r3, r1
 80003a6:	d301      	bcc.n	80003ac <__divsi3+0x16c>
 80003a8:	014b      	lsls	r3, r1, #5
 80003aa:	1ac0      	subs	r0, r0, r3
 80003ac:	4152      	adcs	r2, r2
 80003ae:	0903      	lsrs	r3, r0, #4
 80003b0:	428b      	cmp	r3, r1
 80003b2:	d301      	bcc.n	80003b8 <__divsi3+0x178>
 80003b4:	010b      	lsls	r3, r1, #4
 80003b6:	1ac0      	subs	r0, r0, r3
 80003b8:	4152      	adcs	r2, r2
 80003ba:	08c3      	lsrs	r3, r0, #3
 80003bc:	428b      	cmp	r3, r1
 80003be:	d301      	bcc.n	80003c4 <__divsi3+0x184>
 80003c0:	00cb      	lsls	r3, r1, #3
 80003c2:	1ac0      	subs	r0, r0, r3
 80003c4:	4152      	adcs	r2, r2
 80003c6:	0883      	lsrs	r3, r0, #2
 80003c8:	428b      	cmp	r3, r1
 80003ca:	d301      	bcc.n	80003d0 <__divsi3+0x190>
 80003cc:	008b      	lsls	r3, r1, #2
 80003ce:	1ac0      	subs	r0, r0, r3
 80003d0:	4152      	adcs	r2, r2
 80003d2:	d2d9      	bcs.n	8000388 <__divsi3+0x148>
 80003d4:	0843      	lsrs	r3, r0, #1
 80003d6:	428b      	cmp	r3, r1
 80003d8:	d301      	bcc.n	80003de <__divsi3+0x19e>
 80003da:	004b      	lsls	r3, r1, #1
 80003dc:	1ac0      	subs	r0, r0, r3
 80003de:	4152      	adcs	r2, r2
 80003e0:	1a41      	subs	r1, r0, r1
 80003e2:	d200      	bcs.n	80003e6 <__divsi3+0x1a6>
 80003e4:	4601      	mov	r1, r0
 80003e6:	4663      	mov	r3, ip
 80003e8:	4152      	adcs	r2, r2
 80003ea:	105b      	asrs	r3, r3, #1
 80003ec:	4610      	mov	r0, r2
 80003ee:	d301      	bcc.n	80003f4 <__divsi3+0x1b4>
 80003f0:	4240      	negs	r0, r0
 80003f2:	2b00      	cmp	r3, #0
 80003f4:	d500      	bpl.n	80003f8 <__divsi3+0x1b8>
 80003f6:	4249      	negs	r1, r1
 80003f8:	4770      	bx	lr
 80003fa:	4663      	mov	r3, ip
 80003fc:	105b      	asrs	r3, r3, #1
 80003fe:	d300      	bcc.n	8000402 <__divsi3+0x1c2>
 8000400:	4240      	negs	r0, r0
 8000402:	b501      	push	{r0, lr}
 8000404:	2000      	movs	r0, #0
 8000406:	f000 f805 	bl	8000414 <__aeabi_idiv0>
 800040a:	bd02      	pop	{r1, pc}

0800040c <__aeabi_idivmod>:
 800040c:	2900      	cmp	r1, #0
 800040e:	d0f8      	beq.n	8000402 <__divsi3+0x1c2>
 8000410:	e716      	b.n	8000240 <__divsi3>
 8000412:	4770      	bx	lr

08000414 <__aeabi_idiv0>:
 8000414:	4770      	bx	lr
 8000416:	46c0      	nop			@ (mov r8, r8)

08000418 <initDMApwm>:
 8000418:	b5f8      	push	{r3, r4, r5, r6, r7, lr}
 800041a:	232f      	movs	r3, #47	@ 0x2f
 800041c:	25fa      	movs	r5, #250	@ 0xfa
 800041e:	4f1a      	ldr	r7, [pc, #104]	@ (8000488 <initDMApwm+0x70>)
 8000420:	4c1a      	ldr	r4, [pc, #104]	@ (800048c <initDMApwm+0x74>)
 8000422:	4a1b      	ldr	r2, [pc, #108]	@ (8000490 <initDMApwm+0x78>)
 8000424:	6821      	ldr	r1, [r4, #0]
 8000426:	60fa      	str	r2, [r7, #12]
 8000428:	60e2      	str	r2, [r4, #12]
 800042a:	683a      	ldr	r2, [r7, #0]
 800042c:	62cb      	str	r3, [r1, #44]	@ 0x2c
 800042e:	0020      	movs	r0, r4
 8000430:	62d3      	str	r3, [r2, #44]	@ 0x2c
 8000432:	f005 f961 	bl	80056f8 <HAL_TIM_Base_Start>
 8000436:	0038      	movs	r0, r7
 8000438:	f005 f95e 	bl	80056f8 <HAL_TIM_Base_Start>
 800043c:	4e15      	ldr	r6, [pc, #84]	@ (8000494 <initDMApwm+0x7c>)
 800043e:	00ad      	lsls	r5, r5, #2
 8000440:	0031      	movs	r1, r6
 8000442:	002b      	movs	r3, r5
 8000444:	4a14      	ldr	r2, [pc, #80]	@ (8000498 <initDMApwm+0x80>)
 8000446:	4815      	ldr	r0, [pc, #84]	@ (800049c <initDMApwm+0x84>)
 8000448:	f002 fd18 	bl	8002e7c <HAL_DMA_Start>
 800044c:	4914      	ldr	r1, [pc, #80]	@ (80004a0 <initDMApwm+0x88>)
 800044e:	002b      	movs	r3, r5
 8000450:	4a14      	ldr	r2, [pc, #80]	@ (80004a4 <initDMApwm+0x8c>)
 8000452:	4815      	ldr	r0, [pc, #84]	@ (80004a8 <initDMApwm+0x90>)
 8000454:	000d      	movs	r5, r1
 8000456:	f002 fd11 	bl	8002e7c <HAL_DMA_Start>
 800045a:	2380      	movs	r3, #128	@ 0x80
 800045c:	6821      	ldr	r1, [r4, #0]
 800045e:	24fa      	movs	r4, #250	@ 0xfa
 8000460:	68ca      	ldr	r2, [r1, #12]
 8000462:	005b      	lsls	r3, r3, #1
 8000464:	431a      	orrs	r2, r3
 8000466:	60ca      	str	r2, [r1, #12]
 8000468:	683a      	ldr	r2, [r7, #0]
 800046a:	0124      	lsls	r4, r4, #4
 800046c:	68d1      	ldr	r1, [r2, #12]
 800046e:	0030      	movs	r0, r6
 8000470:	430b      	orrs	r3, r1
 8000472:	60d3      	str	r3, [r2, #12]
 8000474:	2100      	movs	r1, #0
 8000476:	0022      	movs	r2, r4
 8000478:	f007 fcfa 	bl	8007e70 <memset>
 800047c:	0028      	movs	r0, r5
 800047e:	0022      	movs	r2, r4
 8000480:	2100      	movs	r1, #0
 8000482:	f007 fcf5 	bl	8007e70 <memset>
 8000486:	bdf8      	pop	{r3, r4, r5, r6, r7, pc}
 8000488:	200022d4 	.word	0x200022d4
 800048c:	2000231c 	.word	0x2000231c
 8000490:	02dc6bff 	.word	0x02dc6bff
 8000494:	200011a8 	.word	0x200011a8
 8000498:	48000018 	.word	0x48000018
 800049c:	200021b8 	.word	0x200021b8
 80004a0:	20000208 	.word	0x20000208
 80004a4:	48000418 	.word	0x48000418
 80004a8:	20002174 	.word	0x20002174

080004ac <setDMApwmDuty>:
 80004ac:	b5f0      	push	{r4, r5, r6, r7, lr}
 80004ae:	0003      	movs	r3, r0
 80004b0:	46c6      	mov	lr, r8
 80004b2:	2090      	movs	r0, #144	@ 0x90
 80004b4:	4688      	mov	r8, r1
 80004b6:	b500      	push	{lr}
 80004b8:	05c0      	lsls	r0, r0, #23
 80004ba:	4283      	cmp	r3, r0
 80004bc:	d006      	beq.n	80004cc <setDMApwmDuty+0x20>
 80004be:	4c20      	ldr	r4, [pc, #128]	@ (8000540 <setDMApwmDuty+0x94>)
 80004c0:	2000      	movs	r0, #0
 80004c2:	42a3      	cmp	r3, r4
 80004c4:	d01f      	beq.n	8000506 <setDMApwmDuty+0x5a>
 80004c6:	bc80      	pop	{r7}
 80004c8:	46b8      	mov	r8, r7
 80004ca:	bdf0      	pop	{r4, r5, r6, r7, pc}
 80004cc:	040e      	lsls	r6, r1, #16
 80004ce:	43f3      	mvns	r3, r6
 80004d0:	25fa      	movs	r5, #250	@ 0xfa
 80004d2:	469c      	mov	ip, r3
 80004d4:	2000      	movs	r0, #0
 80004d6:	43cf      	mvns	r7, r1
 80004d8:	4c1a      	ldr	r4, [pc, #104]	@ (8000544 <setDMApwmDuty+0x98>)
 80004da:	00ad      	lsls	r5, r5, #2
 80004dc:	6823      	ldr	r3, [r4, #0]
 80004de:	4282      	cmp	r2, r0
 80004e0:	d909      	bls.n	80004f6 <setDMApwmDuty+0x4a>
 80004e2:	4661      	mov	r1, ip
 80004e4:	400b      	ands	r3, r1
 80004e6:	4641      	mov	r1, r8
 80004e8:	3001      	adds	r0, #1
 80004ea:	430b      	orrs	r3, r1
 80004ec:	c408      	stmia	r4!, {r3}
 80004ee:	42a8      	cmp	r0, r5
 80004f0:	d1f4      	bne.n	80004dc <setDMApwmDuty+0x30>
 80004f2:	2001      	movs	r0, #1
 80004f4:	e7e7      	b.n	80004c6 <setDMApwmDuty+0x1a>
 80004f6:	403b      	ands	r3, r7
 80004f8:	4333      	orrs	r3, r6
 80004fa:	3001      	adds	r0, #1
 80004fc:	c408      	stmia	r4!, {r3}
 80004fe:	42a8      	cmp	r0, r5
 8000500:	d1ec      	bne.n	80004dc <setDMApwmDuty+0x30>
 8000502:	2001      	movs	r0, #1
 8000504:	e7df      	b.n	80004c6 <setDMApwmDuty+0x1a>
 8000506:	040e      	lsls	r6, r1, #16
 8000508:	43f3      	mvns	r3, r6
 800050a:	25fa      	movs	r5, #250	@ 0xfa
 800050c:	469c      	mov	ip, r3
 800050e:	43cf      	mvns	r7, r1
 8000510:	4c0d      	ldr	r4, [pc, #52]	@ (8000548 <setDMApwmDuty+0x9c>)
 8000512:	00ad      	lsls	r5, r5, #2
 8000514:	6823      	ldr	r3, [r4, #0]
 8000516:	4282      	cmp	r2, r0
 8000518:	d90a      	bls.n	8000530 <setDMApwmDuty+0x84>
 800051a:	4661      	mov	r1, ip
 800051c:	400b      	ands	r3, r1
 800051e:	4641      	mov	r1, r8
 8000520:	3001      	adds	r0, #1
 8000522:	430b      	orrs	r3, r1
 8000524:	c408      	stmia	r4!, {r3}
 8000526:	42a8      	cmp	r0, r5
 8000528:	d0e3      	beq.n	80004f2 <setDMApwmDuty+0x46>
 800052a:	6823      	ldr	r3, [r4, #0]
 800052c:	4282      	cmp	r2, r0
 800052e:	d8f4      	bhi.n	800051a <setDMApwmDuty+0x6e>
 8000530:	403b      	ands	r3, r7
 8000532:	4333      	orrs	r3, r6
 8000534:	3001      	adds	r0, #1
 8000536:	c408      	stmia	r4!, {r3}
 8000538:	42a8      	cmp	r0, r5
 800053a:	d1eb      	bne.n	8000514 <setDMApwmDuty+0x68>
 800053c:	2001      	movs	r0, #1
 800053e:	e7c2      	b.n	80004c6 <setDMApwmDuty+0x1a>
 8000540:	48000400 	.word	0x48000400
 8000544:	200011a8 	.word	0x200011a8
 8000548:	20000208 	.word	0x20000208

0800054c <initBattery>:
 800054c:	b510      	push	{r4, lr}
 800054e:	4c0a      	ldr	r4, [pc, #40]	@ (8000578 <initBattery+0x2c>)
 8000550:	0020      	movs	r0, r4
 8000552:	f002 fbb5 	bl	8002cc0 <HAL_ADCEx_Calibration_Start>
 8000556:	2032      	movs	r0, #50	@ 0x32
 8000558:	f002 f95c 	bl	8002814 <HAL_Delay>
 800055c:	0020      	movs	r0, r4
 800055e:	f002 fa3b 	bl	80029d8 <HAL_ADC_Init>
 8000562:	0020      	movs	r0, r4
 8000564:	f002 fadc 	bl	8002b20 <HAL_ADC_Start>
 8000568:	0020      	movs	r0, r4
 800056a:	f002 fb25 	bl	8002bb8 <HAL_ADC_GetValue>
 800056e:	0020      	movs	r0, r4
 8000570:	f002 fb02 	bl	8002b78 <HAL_ADC_Stop>
 8000574:	bd10      	pop	{r4, pc}
 8000576:	46c0      	nop			@ (mov r8, r8)
 8000578:	200023b8 	.word	0x200023b8

0800057c <getBatteryConfiguration>:
 800057c:	b570      	push	{r4, r5, r6, lr}
 800057e:	4d16      	ldr	r5, [pc, #88]	@ (80005d8 <getBatteryConfiguration+0x5c>)
 8000580:	0028      	movs	r0, r5
 8000582:	f002 facd 	bl	8002b20 <HAL_ADC_Start>
 8000586:	0028      	movs	r0, r5
 8000588:	f002 fb16 	bl	8002bb8 <HAL_ADC_GetValue>
 800058c:	0004      	movs	r4, r0
 800058e:	0028      	movs	r0, r5
 8000590:	f002 faf2 	bl	8002b78 <HAL_ADC_Stop>
 8000594:	21fa      	movs	r1, #250	@ 0xfa
 8000596:	0423      	lsls	r3, r4, #16
 8000598:	0c1a      	lsrs	r2, r3, #16
 800059a:	0b9b      	lsrs	r3, r3, #14
 800059c:	189b      	adds	r3, r3, r2
 800059e:	015b      	lsls	r3, r3, #5
 80005a0:	189b      	adds	r3, r3, r2
 80005a2:	0118      	lsls	r0, r3, #4
 80005a4:	1ac0      	subs	r0, r0, r3
 80005a6:	0089      	lsls	r1, r1, #2
 80005a8:	f7ff fdc0 	bl	800012c <__udivsi3>
 80005ac:	22af      	movs	r2, #175	@ 0xaf
 80005ae:	4b0b      	ldr	r3, [pc, #44]	@ (80005dc <getBatteryConfiguration+0x60>)
 80005b0:	b280      	uxth	r0, r0
 80005b2:	18c3      	adds	r3, r0, r3
 80005b4:	b29b      	uxth	r3, r3
 80005b6:	00d2      	lsls	r2, r2, #3
 80005b8:	4293      	cmp	r3, r2
 80005ba:	d90a      	bls.n	80005d2 <getBatteryConfiguration+0x56>
 80005bc:	4b08      	ldr	r3, [pc, #32]	@ (80005e0 <getBatteryConfiguration+0x64>)
 80005be:	22af      	movs	r2, #175	@ 0xaf
 80005c0:	469c      	mov	ip, r3
 80005c2:	4460      	add	r0, ip
 80005c4:	b283      	uxth	r3, r0
 80005c6:	2000      	movs	r0, #0
 80005c8:	0112      	lsls	r2, r2, #4
 80005ca:	429a      	cmp	r2, r3
 80005cc:	4140      	adcs	r0, r0
 80005ce:	0040      	lsls	r0, r0, #1
 80005d0:	bd70      	pop	{r4, r5, r6, pc}
 80005d2:	2001      	movs	r0, #1
 80005d4:	e7fc      	b.n	80005d0 <getBatteryConfiguration+0x54>
 80005d6:	46c0      	nop			@ (mov r8, r8)
 80005d8:	200023b8 	.word	0x200023b8
 80005dc:	fffff574 	.word	0xfffff574
 80005e0:	ffffea84 	.word	0xffffea84

080005e4 <getBattVoltage>:
 80005e4:	b570      	push	{r4, r5, r6, lr}
 80005e6:	4d0d      	ldr	r5, [pc, #52]	@ (800061c <getBattVoltage+0x38>)
 80005e8:	0028      	movs	r0, r5
 80005ea:	f002 fa99 	bl	8002b20 <HAL_ADC_Start>
 80005ee:	0028      	movs	r0, r5
 80005f0:	f002 fae2 	bl	8002bb8 <HAL_ADC_GetValue>
 80005f4:	0004      	movs	r4, r0
 80005f6:	0028      	movs	r0, r5
 80005f8:	f002 fabe 	bl	8002b78 <HAL_ADC_Stop>
 80005fc:	21fa      	movs	r1, #250	@ 0xfa
 80005fe:	0423      	lsls	r3, r4, #16
 8000600:	0c1a      	lsrs	r2, r3, #16
 8000602:	0b9b      	lsrs	r3, r3, #14
 8000604:	189b      	adds	r3, r3, r2
 8000606:	015b      	lsls	r3, r3, #5
 8000608:	189b      	adds	r3, r3, r2
 800060a:	0118      	lsls	r0, r3, #4
 800060c:	1ac0      	subs	r0, r0, r3
 800060e:	0089      	lsls	r1, r1, #2
 8000610:	f7ff fd8c 	bl	800012c <__udivsi3>
 8000614:	3064      	adds	r0, #100	@ 0x64
 8000616:	b280      	uxth	r0, r0
 8000618:	bd70      	pop	{r4, r5, r6, pc}
 800061a:	46c0      	nop			@ (mov r8, r8)
 800061c:	200023b8 	.word	0x200023b8

08000620 <SystemClock_Config>:
 8000620:	b510      	push	{r4, lr}
 8000622:	b096      	sub	sp, #88	@ 0x58
 8000624:	2228      	movs	r2, #40	@ 0x28
 8000626:	2100      	movs	r1, #0
 8000628:	a80c      	add	r0, sp, #48	@ 0x30
 800062a:	f007 fc21 	bl	8007e70 <memset>
 800062e:	2210      	movs	r2, #16
 8000630:	2100      	movs	r1, #0
 8000632:	a801      	add	r0, sp, #4
 8000634:	f007 fc1c 	bl	8007e70 <memset>
 8000638:	2214      	movs	r2, #20
 800063a:	2100      	movs	r1, #0
 800063c:	a805      	add	r0, sp, #20
 800063e:	f007 fc17 	bl	8007e70 <memset>
 8000642:	2213      	movs	r2, #19
 8000644:	2301      	movs	r3, #1
 8000646:	920a      	str	r2, [sp, #40]	@ 0x28
 8000648:	930b      	str	r3, [sp, #44]	@ 0x2c
 800064a:	2301      	movs	r3, #1
 800064c:	930d      	str	r3, [sp, #52]	@ 0x34
 800064e:	930f      	str	r3, [sp, #60]	@ 0x3c
 8000650:	2380      	movs	r3, #128	@ 0x80
 8000652:	2202      	movs	r2, #2
 8000654:	025b      	lsls	r3, r3, #9
 8000656:	9212      	str	r2, [sp, #72]	@ 0x48
 8000658:	9313      	str	r3, [sp, #76]	@ 0x4c
 800065a:	2380      	movs	r3, #128	@ 0x80
 800065c:	2410      	movs	r4, #16
 800065e:	035b      	lsls	r3, r3, #13
 8000660:	a80a      	add	r0, sp, #40	@ 0x28
 8000662:	940e      	str	r4, [sp, #56]	@ 0x38
 8000664:	9410      	str	r4, [sp, #64]	@ 0x40
 8000666:	9314      	str	r3, [sp, #80]	@ 0x50
 8000668:	f004 fbe2 	bl	8004e30 <HAL_RCC_OscConfig>
 800066c:	2800      	cmp	r0, #0
 800066e:	d001      	beq.n	8000674 <SystemClock_Config+0x54>
 8000670:	b672      	cpsid	i
 8000672:	e7fe      	b.n	8000672 <SystemClock_Config+0x52>
 8000674:	2307      	movs	r3, #7
 8000676:	9003      	str	r0, [sp, #12]
 8000678:	9301      	str	r3, [sp, #4]
 800067a:	9004      	str	r0, [sp, #16]
 800067c:	3b05      	subs	r3, #5
 800067e:	2101      	movs	r1, #1
 8000680:	a801      	add	r0, sp, #4
 8000682:	9302      	str	r3, [sp, #8]
 8000684:	f004 fe38 	bl	80052f8 <HAL_RCC_ClockConfig>
 8000688:	2800      	cmp	r0, #0
 800068a:	d001      	beq.n	8000690 <SystemClock_Config+0x70>
 800068c:	b672      	cpsid	i
 800068e:	e7fe      	b.n	800068e <SystemClock_Config+0x6e>
 8000690:	4b06      	ldr	r3, [pc, #24]	@ (80006ac <SystemClock_Config+0x8c>)
 8000692:	9008      	str	r0, [sp, #32]
 8000694:	9305      	str	r3, [sp, #20]
 8000696:	2380      	movs	r3, #128	@ 0x80
 8000698:	a805      	add	r0, sp, #20
 800069a:	9309      	str	r3, [sp, #36]	@ 0x24
 800069c:	f004 fed2 	bl	8005444 <HAL_RCCEx_PeriphCLKConfig>
 80006a0:	2800      	cmp	r0, #0
 80006a2:	d001      	beq.n	80006a8 <SystemClock_Config+0x88>
 80006a4:	b672      	cpsid	i
 80006a6:	e7fe      	b.n	80006a6 <SystemClock_Config+0x86>
 80006a8:	b016      	add	sp, #88	@ 0x58
 80006aa:	bd10      	pop	{r4, pc}
 80006ac:	00020020 	.word	0x00020020

080006b0 <main>:
 80006b0:	b5f0      	push	{r4, r5, r6, r7, lr}
 80006b2:	46de      	mov	lr, fp
 80006b4:	464e      	mov	r6, r9
 80006b6:	4645      	mov	r5, r8
 80006b8:	4657      	mov	r7, sl
 80006ba:	b5e0      	push	{r5, r6, r7, lr}
 80006bc:	b0af      	sub	sp, #188	@ 0xbc
 80006be:	ac26      	add	r4, sp, #152	@ 0x98
 80006c0:	f002 f886 	bl	80027d0 <HAL_Init>
 80006c4:	f7ff ffac 	bl	8000620 <SystemClock_Config>
 80006c8:	2214      	movs	r2, #20
 80006ca:	2100      	movs	r1, #0
 80006cc:	0020      	movs	r0, r4
 80006ce:	f007 fbcf 	bl	8007e70 <memset>
 80006d2:	2280      	movs	r2, #128	@ 0x80
 80006d4:	4dd6      	ldr	r5, [pc, #856]	@ (8000a30 <main+0x380>)
 80006d6:	0312      	lsls	r2, r2, #12
 80006d8:	696b      	ldr	r3, [r5, #20]
 80006da:	2680      	movs	r6, #128	@ 0x80
 80006dc:	4313      	orrs	r3, r2
 80006de:	616b      	str	r3, [r5, #20]
 80006e0:	696b      	ldr	r3, [r5, #20]
 80006e2:	0236      	lsls	r6, r6, #8
 80006e4:	4013      	ands	r3, r2
 80006e6:	2280      	movs	r2, #128	@ 0x80
 80006e8:	931b      	str	r3, [sp, #108]	@ 0x6c
 80006ea:	9b1b      	ldr	r3, [sp, #108]	@ 0x6c
 80006ec:	696b      	ldr	r3, [r5, #20]
 80006ee:	03d2      	lsls	r2, r2, #15
 80006f0:	4313      	orrs	r3, r2
 80006f2:	616b      	str	r3, [r5, #20]
 80006f4:	696b      	ldr	r3, [r5, #20]
 80006f6:	0031      	movs	r1, r6
 80006f8:	4013      	ands	r3, r2
 80006fa:	2280      	movs	r2, #128	@ 0x80
 80006fc:	931c      	str	r3, [sp, #112]	@ 0x70
 80006fe:	9b1c      	ldr	r3, [sp, #112]	@ 0x70
 8000700:	696b      	ldr	r3, [r5, #20]
 8000702:	0292      	lsls	r2, r2, #10
 8000704:	4313      	orrs	r3, r2
 8000706:	616b      	str	r3, [r5, #20]
 8000708:	696b      	ldr	r3, [r5, #20]
 800070a:	48ca      	ldr	r0, [pc, #808]	@ (8000a34 <main+0x384>)
 800070c:	4013      	ands	r3, r2
 800070e:	2280      	movs	r2, #128	@ 0x80
 8000710:	931d      	str	r3, [sp, #116]	@ 0x74
 8000712:	9b1d      	ldr	r3, [sp, #116]	@ 0x74
 8000714:	696b      	ldr	r3, [r5, #20]
 8000716:	02d2      	lsls	r2, r2, #11
 8000718:	4313      	orrs	r3, r2
 800071a:	616b      	str	r3, [r5, #20]
 800071c:	696b      	ldr	r3, [r5, #20]
 800071e:	2701      	movs	r7, #1
 8000720:	4013      	ands	r3, r2
 8000722:	931e      	str	r3, [sp, #120]	@ 0x78
 8000724:	2200      	movs	r2, #0
 8000726:	9b1e      	ldr	r3, [sp, #120]	@ 0x78
 8000728:	f002 fd2a 	bl	8003180 <HAL_GPIO_WritePin>
 800072c:	23fc      	movs	r3, #252	@ 0xfc
 800072e:	021b      	lsls	r3, r3, #8
 8000730:	0019      	movs	r1, r3
 8000732:	2200      	movs	r2, #0
 8000734:	48c0      	ldr	r0, [pc, #768]	@ (8000a38 <main+0x388>)
 8000736:	4699      	mov	r9, r3
 8000738:	f002 fd22 	bl	8003180 <HAL_GPIO_WritePin>
 800073c:	23e0      	movs	r3, #224	@ 0xe0
 800073e:	2090      	movs	r0, #144	@ 0x90
 8000740:	00db      	lsls	r3, r3, #3
 8000742:	2200      	movs	r2, #0
 8000744:	0019      	movs	r1, r3
 8000746:	05c0      	lsls	r0, r0, #23
 8000748:	4698      	mov	r8, r3
 800074a:	f002 fd19 	bl	8003180 <HAL_GPIO_WritePin>
 800074e:	9626      	str	r6, [sp, #152]	@ 0x98
 8000750:	2600      	movs	r6, #0
 8000752:	0021      	movs	r1, r4
 8000754:	48b7      	ldr	r0, [pc, #732]	@ (8000a34 <main+0x384>)
 8000756:	6067      	str	r7, [r4, #4]
 8000758:	60a6      	str	r6, [r4, #8]
 800075a:	60e6      	str	r6, [r4, #12]
 800075c:	f002 fc08 	bl	8002f70 <HAL_GPIO_Init>
 8000760:	23c4      	movs	r3, #196	@ 0xc4
 8000762:	0021      	movs	r1, r4
 8000764:	039b      	lsls	r3, r3, #14
 8000766:	48b4      	ldr	r0, [pc, #720]	@ (8000a38 <main+0x388>)
 8000768:	9726      	str	r7, [sp, #152]	@ 0x98
 800076a:	6063      	str	r3, [r4, #4]
 800076c:	60a7      	str	r7, [r4, #8]
 800076e:	f002 fbff 	bl	8002f70 <HAL_GPIO_Init>
 8000772:	230e      	movs	r3, #14
 8000774:	9326      	str	r3, [sp, #152]	@ 0x98
 8000776:	2384      	movs	r3, #132	@ 0x84
 8000778:	0021      	movs	r1, r4
 800077a:	039b      	lsls	r3, r3, #14
 800077c:	48ae      	ldr	r0, [pc, #696]	@ (8000a38 <main+0x388>)
 800077e:	6063      	str	r3, [r4, #4]
 8000780:	60a7      	str	r7, [r4, #8]
 8000782:	f002 fbf5 	bl	8002f70 <HAL_GPIO_Init>
 8000786:	464b      	mov	r3, r9
 8000788:	0021      	movs	r1, r4
 800078a:	48ab      	ldr	r0, [pc, #684]	@ (8000a38 <main+0x388>)
 800078c:	9326      	str	r3, [sp, #152]	@ 0x98
 800078e:	6067      	str	r7, [r4, #4]
 8000790:	60a6      	str	r6, [r4, #8]
 8000792:	60e6      	str	r6, [r4, #12]
 8000794:	f002 fbec 	bl	8002f70 <HAL_GPIO_Init>
 8000798:	2090      	movs	r0, #144	@ 0x90
 800079a:	4643      	mov	r3, r8
 800079c:	0021      	movs	r1, r4
 800079e:	05c0      	lsls	r0, r0, #23
 80007a0:	9326      	str	r3, [sp, #152]	@ 0x98
 80007a2:	6067      	str	r7, [r4, #4]
 80007a4:	60a6      	str	r6, [r4, #8]
 80007a6:	60e6      	str	r6, [r4, #12]
 80007a8:	f002 fbe2 	bl	8002f70 <HAL_GPIO_Init>
 80007ac:	2200      	movs	r2, #0
 80007ae:	2100      	movs	r1, #0
 80007b0:	2005      	movs	r0, #5
 80007b2:	f002 fadf 	bl	8002d74 <HAL_NVIC_SetPriority>
 80007b6:	2005      	movs	r0, #5
 80007b8:	f002 fb06 	bl	8002dc8 <HAL_NVIC_EnableIRQ>
 80007bc:	2200      	movs	r2, #0
 80007be:	2100      	movs	r1, #0
 80007c0:	2006      	movs	r0, #6
 80007c2:	f002 fad7 	bl	8002d74 <HAL_NVIC_SetPriority>
 80007c6:	2006      	movs	r0, #6
 80007c8:	f002 fafe 	bl	8002dc8 <HAL_NVIC_EnableIRQ>
 80007cc:	696b      	ldr	r3, [r5, #20]
 80007ce:	2200      	movs	r2, #0
 80007d0:	433b      	orrs	r3, r7
 80007d2:	616b      	str	r3, [r5, #20]
 80007d4:	696b      	ldr	r3, [r5, #20]
 80007d6:	2100      	movs	r1, #0
 80007d8:	401f      	ands	r7, r3
 80007da:	971a      	str	r7, [sp, #104]	@ 0x68
 80007dc:	200a      	movs	r0, #10
 80007de:	9b1a      	ldr	r3, [sp, #104]	@ 0x68
 80007e0:	f002 fac8 	bl	8002d74 <HAL_NVIC_SetPriority>
 80007e4:	200a      	movs	r0, #10
 80007e6:	f002 faef 	bl	8002dc8 <HAL_NVIC_EnableIRQ>
 80007ea:	2200      	movs	r2, #0
 80007ec:	2100      	movs	r1, #0
 80007ee:	200b      	movs	r0, #11
 80007f0:	f002 fac0 	bl	8002d74 <HAL_NVIC_SetPriority>
 80007f4:	200b      	movs	r0, #11
 80007f6:	f002 fae7 	bl	8002dc8 <HAL_NVIC_EnableIRQ>
 80007fa:	221c      	movs	r2, #28
 80007fc:	2100      	movs	r1, #0
 80007fe:	a81f      	add	r0, sp, #124	@ 0x7c
 8000800:	f007 fb36 	bl	8007e70 <memset>
 8000804:	2220      	movs	r2, #32
 8000806:	2100      	movs	r1, #0
 8000808:	0020      	movs	r0, r4
 800080a:	f007 fb31 	bl	8007e70 <memset>
 800080e:	4d8b      	ldr	r5, [pc, #556]	@ (8000a3c <main+0x38c>)
 8000810:	4b8b      	ldr	r3, [pc, #556]	@ (8000a40 <main+0x390>)
 8000812:	4f8c      	ldr	r7, [pc, #560]	@ (8000a44 <main+0x394>)
 8000814:	602b      	str	r3, [r5, #0]
 8000816:	2317      	movs	r3, #23
 8000818:	0028      	movs	r0, r5
 800081a:	4698      	mov	r8, r3
 800081c:	606b      	str	r3, [r5, #4]
 800081e:	60ae      	str	r6, [r5, #8]
 8000820:	60ef      	str	r7, [r5, #12]
 8000822:	612e      	str	r6, [r5, #16]
 8000824:	616e      	str	r6, [r5, #20]
 8000826:	61ae      	str	r6, [r5, #24]
 8000828:	f004 fee4 	bl	80055f4 <HAL_TIM_Base_Init>
 800082c:	2800      	cmp	r0, #0
 800082e:	d001      	beq.n	8000834 <main+0x184>
 8000830:	b672      	cpsid	i
 8000832:	e7fe      	b.n	8000832 <main+0x182>
 8000834:	0028      	movs	r0, r5
 8000836:	f004 ff8b 	bl	8005750 <HAL_TIM_PWM_Init>
 800083a:	1e02      	subs	r2, r0, #0
 800083c:	d001      	beq.n	8000842 <main+0x192>
 800083e:	b672      	cpsid	i
 8000840:	e7fe      	b.n	8000840 <main+0x190>
 8000842:	2360      	movs	r3, #96	@ 0x60
 8000844:	9020      	str	r0, [sp, #128]	@ 0x80
 8000846:	9021      	str	r0, [sp, #132]	@ 0x84
 8000848:	9022      	str	r0, [sp, #136]	@ 0x88
 800084a:	9023      	str	r0, [sp, #140]	@ 0x8c
 800084c:	9024      	str	r0, [sp, #144]	@ 0x90
 800084e:	9025      	str	r0, [sp, #148]	@ 0x94
 8000850:	a91f      	add	r1, sp, #124	@ 0x7c
 8000852:	0028      	movs	r0, r5
 8000854:	469b      	mov	fp, r3
 8000856:	931f      	str	r3, [sp, #124]	@ 0x7c
 8000858:	f004 fffc 	bl	8005854 <HAL_TIM_PWM_ConfigChannel>
 800085c:	2800      	cmp	r0, #0
 800085e:	d001      	beq.n	8000864 <main+0x1b4>
 8000860:	b672      	cpsid	i
 8000862:	e7fe      	b.n	8000862 <main+0x1b2>
 8000864:	2380      	movs	r3, #128	@ 0x80
 8000866:	9026      	str	r0, [sp, #152]	@ 0x98
 8000868:	019b      	lsls	r3, r3, #6
 800086a:	6060      	str	r0, [r4, #4]
 800086c:	60a0      	str	r0, [r4, #8]
 800086e:	60e0      	str	r0, [r4, #12]
 8000870:	6120      	str	r0, [r4, #16]
 8000872:	61e0      	str	r0, [r4, #28]
 8000874:	0021      	movs	r1, r4
 8000876:	0028      	movs	r0, r5
 8000878:	4699      	mov	r9, r3
 800087a:	6163      	str	r3, [r4, #20]
 800087c:	f005 fa5e 	bl	8005d3c <HAL_TIMEx_ConfigBreakDeadTime>
 8000880:	1e06      	subs	r6, r0, #0
 8000882:	d001      	beq.n	8000888 <main+0x1d8>
 8000884:	b672      	cpsid	i
 8000886:	e7fe      	b.n	8000886 <main+0x1d6>
 8000888:	0028      	movs	r0, r5
 800088a:	f001 fe85 	bl	8002598 <HAL_TIM_MspPostInit>
 800088e:	221c      	movs	r2, #28
 8000890:	0031      	movs	r1, r6
 8000892:	a81f      	add	r0, sp, #124	@ 0x7c
 8000894:	f007 faec 	bl	8007e70 <memset>
 8000898:	2220      	movs	r2, #32
 800089a:	0031      	movs	r1, r6
 800089c:	0020      	movs	r0, r4
 800089e:	f007 fae7 	bl	8007e70 <memset>
 80008a2:	4b69      	ldr	r3, [pc, #420]	@ (8000a48 <main+0x398>)
 80008a4:	469a      	mov	sl, r3
 80008a6:	4652      	mov	r2, sl
 80008a8:	4b68      	ldr	r3, [pc, #416]	@ (8000a4c <main+0x39c>)
 80008aa:	4650      	mov	r0, sl
 80008ac:	6013      	str	r3, [r2, #0]
 80008ae:	4653      	mov	r3, sl
 80008b0:	4642      	mov	r2, r8
 80008b2:	609e      	str	r6, [r3, #8]
 80008b4:	605a      	str	r2, [r3, #4]
 80008b6:	60df      	str	r7, [r3, #12]
 80008b8:	611e      	str	r6, [r3, #16]
 80008ba:	615e      	str	r6, [r3, #20]
 80008bc:	619e      	str	r6, [r3, #24]
 80008be:	f004 fe99 	bl	80055f4 <HAL_TIM_Base_Init>
 80008c2:	2800      	cmp	r0, #0
 80008c4:	d001      	beq.n	80008ca <main+0x21a>
 80008c6:	b672      	cpsid	i
 80008c8:	e7fe      	b.n	80008c8 <main+0x218>
 80008ca:	4650      	mov	r0, sl
 80008cc:	f004 ff40 	bl	8005750 <HAL_TIM_PWM_Init>
 80008d0:	1e02      	subs	r2, r0, #0
 80008d2:	d001      	beq.n	80008d8 <main+0x228>
 80008d4:	b672      	cpsid	i
 80008d6:	e7fe      	b.n	80008d6 <main+0x226>
 80008d8:	465b      	mov	r3, fp
 80008da:	9020      	str	r0, [sp, #128]	@ 0x80
 80008dc:	9021      	str	r0, [sp, #132]	@ 0x84
 80008de:	9022      	str	r0, [sp, #136]	@ 0x88
 80008e0:	9023      	str	r0, [sp, #140]	@ 0x8c
 80008e2:	9024      	str	r0, [sp, #144]	@ 0x90
 80008e4:	9025      	str	r0, [sp, #148]	@ 0x94
 80008e6:	a91f      	add	r1, sp, #124	@ 0x7c
 80008e8:	4650      	mov	r0, sl
 80008ea:	931f      	str	r3, [sp, #124]	@ 0x7c
 80008ec:	f004 ffb2 	bl	8005854 <HAL_TIM_PWM_ConfigChannel>
 80008f0:	2800      	cmp	r0, #0
 80008f2:	d001      	beq.n	80008f8 <main+0x248>
 80008f4:	b672      	cpsid	i
 80008f6:	e7fe      	b.n	80008f6 <main+0x246>
 80008f8:	464b      	mov	r3, r9
 80008fa:	9026      	str	r0, [sp, #152]	@ 0x98
 80008fc:	0021      	movs	r1, r4
 80008fe:	6060      	str	r0, [r4, #4]
 8000900:	60a0      	str	r0, [r4, #8]
 8000902:	60e0      	str	r0, [r4, #12]
 8000904:	6120      	str	r0, [r4, #16]
 8000906:	61e0      	str	r0, [r4, #28]
 8000908:	4650      	mov	r0, sl
 800090a:	6163      	str	r3, [r4, #20]
 800090c:	f005 fa16 	bl	8005d3c <HAL_TIMEx_ConfigBreakDeadTime>
 8000910:	1e07      	subs	r7, r0, #0
 8000912:	d001      	beq.n	8000918 <main+0x268>
 8000914:	b672      	cpsid	i
 8000916:	e7fe      	b.n	8000916 <main+0x266>
 8000918:	4650      	mov	r0, sl
 800091a:	f001 fe3d 	bl	8002598 <HAL_TIM_MspPostInit>
 800091e:	2210      	movs	r2, #16
 8000920:	0039      	movs	r1, r7
 8000922:	0020      	movs	r0, r4
 8000924:	f007 faa4 	bl	8007e70 <memset>
 8000928:	2208      	movs	r2, #8
 800092a:	0039      	movs	r1, r7
 800092c:	a81f      	add	r0, sp, #124	@ 0x7c
 800092e:	f007 fa9f 	bl	8007e70 <memset>
 8000932:	4e47      	ldr	r6, [pc, #284]	@ (8000a50 <main+0x3a0>)
 8000934:	4b47      	ldr	r3, [pc, #284]	@ (8000a54 <main+0x3a4>)
 8000936:	0030      	movs	r0, r6
 8000938:	6033      	str	r3, [r6, #0]
 800093a:	2363      	movs	r3, #99	@ 0x63
 800093c:	6077      	str	r7, [r6, #4]
 800093e:	60b7      	str	r7, [r6, #8]
 8000940:	60f3      	str	r3, [r6, #12]
 8000942:	6137      	str	r7, [r6, #16]
 8000944:	6177      	str	r7, [r6, #20]
 8000946:	61b7      	str	r7, [r6, #24]
 8000948:	f004 fe54 	bl	80055f4 <HAL_TIM_Base_Init>
 800094c:	2800      	cmp	r0, #0
 800094e:	d001      	beq.n	8000954 <main+0x2a4>
 8000950:	b672      	cpsid	i
 8000952:	e7fe      	b.n	8000952 <main+0x2a2>
 8000954:	2380      	movs	r3, #128	@ 0x80
 8000956:	0021      	movs	r1, r4
 8000958:	015b      	lsls	r3, r3, #5
 800095a:	0030      	movs	r0, r6
 800095c:	9326      	str	r3, [sp, #152]	@ 0x98
 800095e:	f005 f87f 	bl	8005a60 <HAL_TIM_ConfigClockSource>
 8000962:	2800      	cmp	r0, #0
 8000964:	d001      	beq.n	800096a <main+0x2ba>
 8000966:	b672      	cpsid	i
 8000968:	e7fe      	b.n	8000968 <main+0x2b8>
 800096a:	2320      	movs	r3, #32
 800096c:	469b      	mov	fp, r3
 800096e:	931f      	str	r3, [sp, #124]	@ 0x7c
 8000970:	2300      	movs	r3, #0
 8000972:	0030      	movs	r0, r6
 8000974:	a91f      	add	r1, sp, #124	@ 0x7c
 8000976:	9320      	str	r3, [sp, #128]	@ 0x80
 8000978:	f005 f9b2 	bl	8005ce0 <HAL_TIMEx_MasterConfigSynchronization>
 800097c:	2800      	cmp	r0, #0
 800097e:	d001      	beq.n	8000984 <main+0x2d4>
 8000980:	b672      	cpsid	i
 8000982:	e7fe      	b.n	8000982 <main+0x2d2>
 8000984:	4e34      	ldr	r6, [pc, #208]	@ (8000a58 <main+0x3a8>)
 8000986:	4b35      	ldr	r3, [pc, #212]	@ (8000a5c <main+0x3ac>)
 8000988:	60b0      	str	r0, [r6, #8]
 800098a:	6033      	str	r3, [r6, #0]
 800098c:	4b34      	ldr	r3, [pc, #208]	@ (8000a60 <main+0x3b0>)
 800098e:	6130      	str	r0, [r6, #16]
 8000990:	6073      	str	r3, [r6, #4]
 8000992:	2301      	movs	r3, #1
 8000994:	6170      	str	r0, [r6, #20]
 8000996:	61b0      	str	r0, [r6, #24]
 8000998:	61f0      	str	r0, [r6, #28]
 800099a:	6230      	str	r0, [r6, #32]
 800099c:	0030      	movs	r0, r6
 800099e:	4698      	mov	r8, r3
 80009a0:	60f3      	str	r3, [r6, #12]
 80009a2:	f002 ff77 	bl	8003894 <HAL_I2C_Init>
 80009a6:	1e01      	subs	r1, r0, #0
 80009a8:	d001      	beq.n	80009ae <main+0x2fe>
 80009aa:	b672      	cpsid	i
 80009ac:	e7fe      	b.n	80009ac <main+0x2fc>
 80009ae:	0030      	movs	r0, r6
 80009b0:	f003 f9c6 	bl	8003d40 <HAL_I2CEx_ConfigAnalogFilter>
 80009b4:	1e01      	subs	r1, r0, #0
 80009b6:	d001      	beq.n	80009bc <main+0x30c>
 80009b8:	b672      	cpsid	i
 80009ba:	e7fe      	b.n	80009ba <main+0x30a>
 80009bc:	0030      	movs	r0, r6
 80009be:	f003 f9e5 	bl	8003d8c <HAL_I2CEx_ConfigDigitalFilter>
 80009c2:	1e07      	subs	r7, r0, #0
 80009c4:	d001      	beq.n	80009ca <main+0x31a>
 80009c6:	b672      	cpsid	i
 80009c8:	e7fe      	b.n	80009c8 <main+0x318>
 80009ca:	f006 fd9f 	bl	800750c <MX_USB_DEVICE_Init>
 80009ce:	220c      	movs	r2, #12
 80009d0:	0039      	movs	r1, r7
 80009d2:	0020      	movs	r0, r4
 80009d4:	f007 fa4c 	bl	8007e70 <memset>
 80009d8:	4e22      	ldr	r6, [pc, #136]	@ (8000a64 <main+0x3b4>)
 80009da:	4b23      	ldr	r3, [pc, #140]	@ (8000a68 <main+0x3b8>)
 80009dc:	0030      	movs	r0, r6
 80009de:	6033      	str	r3, [r6, #0]
 80009e0:	4643      	mov	r3, r8
 80009e2:	6133      	str	r3, [r6, #16]
 80009e4:	2304      	movs	r3, #4
 80009e6:	6173      	str	r3, [r6, #20]
 80009e8:	2380      	movs	r3, #128	@ 0x80
 80009ea:	045b      	lsls	r3, r3, #17
 80009ec:	61b3      	str	r3, [r6, #24]
 80009ee:	23c2      	movs	r3, #194	@ 0xc2
 80009f0:	33ff      	adds	r3, #255	@ 0xff
 80009f2:	61f3      	str	r3, [r6, #28]
 80009f4:	3b9e      	subs	r3, #158	@ 0x9e
 80009f6:	3bff      	subs	r3, #255	@ 0xff
 80009f8:	54f7      	strb	r7, [r6, r3]
 80009fa:	4643      	mov	r3, r8
 80009fc:	6077      	str	r7, [r6, #4]
 80009fe:	60b7      	str	r7, [r6, #8]
 8000a00:	60f7      	str	r7, [r6, #12]
 8000a02:	6237      	str	r7, [r6, #32]
 8000a04:	62b3      	str	r3, [r6, #40]	@ 0x28
 8000a06:	f001 ffe7 	bl	80029d8 <HAL_ADC_Init>
 8000a0a:	2800      	cmp	r0, #0
 8000a0c:	d001      	beq.n	8000a12 <main+0x362>
 8000a0e:	b672      	cpsid	i
 8000a10:	e7fe      	b.n	8000a10 <main+0x360>
 8000a12:	2380      	movs	r3, #128	@ 0x80
 8000a14:	015b      	lsls	r3, r3, #5
 8000a16:	9026      	str	r0, [sp, #152]	@ 0x98
 8000a18:	6063      	str	r3, [r4, #4]
 8000a1a:	2307      	movs	r3, #7
 8000a1c:	0021      	movs	r1, r4
 8000a1e:	0030      	movs	r0, r6
 8000a20:	60a3      	str	r3, [r4, #8]
 8000a22:	f002 f8cd 	bl	8002bc0 <HAL_ADC_ConfigChannel>
 8000a26:	2800      	cmp	r0, #0
 8000a28:	d020      	beq.n	8000a6c <main+0x3bc>
 8000a2a:	b672      	cpsid	i
 8000a2c:	e7fe      	b.n	8000a2c <main+0x37c>
 8000a2e:	46c0      	nop			@ (mov r8, r8)
 8000a30:	40021000 	.word	0x40021000
 8000a34:	48000800 	.word	0x48000800
 8000a38:	48000400 	.word	0x48000400
 8000a3c:	20002244 	.word	0x20002244
 8000a40:	40014400 	.word	0x40014400
 8000a44:	0000270f 	.word	0x0000270f
 8000a48:	200021fc 	.word	0x200021fc
 8000a4c:	40014800 	.word	0x40014800
 8000a50:	2000231c 	.word	0x2000231c
 8000a54:	40012c00 	.word	0x40012c00
 8000a58:	20002364 	.word	0x20002364
 8000a5c:	40005400 	.word	0x40005400
 8000a60:	00201d2b 	.word	0x00201d2b
 8000a64:	200023b8 	.word	0x200023b8
 8000a68:	40012400 	.word	0x40012400
 8000a6c:	4bd6      	ldr	r3, [pc, #856]	@ (8000dc8 <main+0x718>)
 8000a6e:	4699      	mov	r9, r3
 8000a70:	464a      	mov	r2, r9
 8000a72:	4bd6      	ldr	r3, [pc, #856]	@ (8000dcc <main+0x71c>)
 8000a74:	6090      	str	r0, [r2, #8]
 8000a76:	6013      	str	r3, [r2, #0]
 8000a78:	2317      	movs	r3, #23
 8000a7a:	6053      	str	r3, [r2, #4]
 8000a7c:	4bd4      	ldr	r3, [pc, #848]	@ (8000dd0 <main+0x720>)
 8000a7e:	6190      	str	r0, [r2, #24]
 8000a80:	4648      	mov	r0, r9
 8000a82:	60d3      	str	r3, [r2, #12]
 8000a84:	f004 fdb6 	bl	80055f4 <HAL_TIM_Base_Init>
 8000a88:	4680      	mov	r8, r0
 8000a8a:	2800      	cmp	r0, #0
 8000a8c:	d001      	beq.n	8000a92 <main+0x3e2>
 8000a8e:	b672      	cpsid	i
 8000a90:	e7fe      	b.n	8000a90 <main+0x3e0>
 8000a92:	0001      	movs	r1, r0
 8000a94:	2210      	movs	r2, #16
 8000a96:	0020      	movs	r0, r4
 8000a98:	f007 f9ea 	bl	8007e70 <memset>
 8000a9c:	2208      	movs	r2, #8
 8000a9e:	4641      	mov	r1, r8
 8000aa0:	a81f      	add	r0, sp, #124	@ 0x7c
 8000aa2:	f007 f9e5 	bl	8007e70 <memset>
 8000aa6:	4fcb      	ldr	r7, [pc, #812]	@ (8000dd4 <main+0x724>)
 8000aa8:	4bcb      	ldr	r3, [pc, #812]	@ (8000dd8 <main+0x728>)
 8000aaa:	0038      	movs	r0, r7
 8000aac:	603b      	str	r3, [r7, #0]
 8000aae:	4643      	mov	r3, r8
 8000ab0:	607b      	str	r3, [r7, #4]
 8000ab2:	60bb      	str	r3, [r7, #8]
 8000ab4:	2363      	movs	r3, #99	@ 0x63
 8000ab6:	60fb      	str	r3, [r7, #12]
 8000ab8:	4643      	mov	r3, r8
 8000aba:	613b      	str	r3, [r7, #16]
 8000abc:	61bb      	str	r3, [r7, #24]
 8000abe:	f004 fd99 	bl	80055f4 <HAL_TIM_Base_Init>
 8000ac2:	2800      	cmp	r0, #0
 8000ac4:	d001      	beq.n	8000aca <main+0x41a>
 8000ac6:	b672      	cpsid	i
 8000ac8:	e7fe      	b.n	8000ac8 <main+0x418>
 8000aca:	2380      	movs	r3, #128	@ 0x80
 8000acc:	0021      	movs	r1, r4
 8000ace:	015b      	lsls	r3, r3, #5
 8000ad0:	0038      	movs	r0, r7
 8000ad2:	9326      	str	r3, [sp, #152]	@ 0x98
 8000ad4:	f004 ffc4 	bl	8005a60 <HAL_TIM_ConfigClockSource>
 8000ad8:	2800      	cmp	r0, #0
 8000ada:	d001      	beq.n	8000ae0 <main+0x430>
 8000adc:	b672      	cpsid	i
 8000ade:	e7fe      	b.n	8000ade <main+0x42e>
 8000ae0:	465b      	mov	r3, fp
 8000ae2:	9020      	str	r0, [sp, #128]	@ 0x80
 8000ae4:	a91f      	add	r1, sp, #124	@ 0x7c
 8000ae6:	0038      	movs	r0, r7
 8000ae8:	931f      	str	r3, [sp, #124]	@ 0x7c
 8000aea:	f005 f8f9 	bl	8005ce0 <HAL_TIMEx_MasterConfigSynchronization>
 8000aee:	2800      	cmp	r0, #0
 8000af0:	d001      	beq.n	8000af6 <main+0x446>
 8000af2:	b672      	cpsid	i
 8000af4:	e7fe      	b.n	8000af4 <main+0x444>
 8000af6:	4648      	mov	r0, r9
 8000af8:	f000 fd18 	bl	800152c <initReciever>
 8000afc:	f000 fa2c 	bl	8000f58 <initMotors>
 8000b00:	0030      	movs	r0, r6
 8000b02:	f7ff fd23 	bl	800054c <initBattery>
 8000b06:	2064      	movs	r0, #100	@ 0x64
 8000b08:	f001 f824 	bl	8001b54 <read_byte_eeprom>
 8000b0c:	2800      	cmp	r0, #0
 8000b0e:	d100      	bne.n	8000b12 <main+0x462>
 8000b10:	e204      	b.n	8000f1c <main+0x86c>
 8000b12:	2380      	movs	r3, #128	@ 0x80
 8000b14:	021b      	lsls	r3, r3, #8
 8000b16:	260a      	movs	r6, #10
 8000b18:	4698      	mov	r8, r3
 8000b1a:	2764      	movs	r7, #100	@ 0x64
 8000b1c:	4641      	mov	r1, r8
 8000b1e:	48af      	ldr	r0, [pc, #700]	@ (8000ddc <main+0x72c>)
 8000b20:	f002 fb34 	bl	800318c <HAL_GPIO_TogglePin>
 8000b24:	3e01      	subs	r6, #1
 8000b26:	0038      	movs	r0, r7
 8000b28:	f001 fe74 	bl	8002814 <HAL_Delay>
 8000b2c:	2e00      	cmp	r6, #0
 8000b2e:	d1f5      	bne.n	8000b1c <main+0x46c>
 8000b30:	f000 fe8c 	bl	800184c <storeSettingsToEeprom>
 8000b34:	0031      	movs	r1, r6
 8000b36:	2064      	movs	r0, #100	@ 0x64
 8000b38:	f001 f822 	bl	8001b80 <write_byte_eeprom>
 8000b3c:	2000      	movs	r0, #0
 8000b3e:	f000 fc95 	bl	800146c <disableMotor>
 8000b42:	2001      	movs	r0, #1
 8000b44:	f000 fc92 	bl	800146c <disableMotor>
 8000b48:	2002      	movs	r0, #2
 8000b4a:	f000 fc8f 	bl	800146c <disableMotor>
 8000b4e:	2300      	movs	r3, #0
 8000b50:	9307      	str	r3, [sp, #28]
 8000b52:	9306      	str	r3, [sp, #24]
 8000b54:	9305      	str	r3, [sp, #20]
 8000b56:	469b      	mov	fp, r3
 8000b58:	001e      	movs	r6, r3
 8000b5a:	4ba1      	ldr	r3, [pc, #644]	@ (8000de0 <main+0x730>)
 8000b5c:	4fa1      	ldr	r7, [pc, #644]	@ (8000de4 <main+0x734>)
 8000b5e:	9302      	str	r3, [sp, #8]
 8000b60:	4ba1      	ldr	r3, [pc, #644]	@ (8000de8 <main+0x738>)
 8000b62:	9315      	str	r3, [sp, #84]	@ 0x54
 8000b64:	4ba1      	ldr	r3, [pc, #644]	@ (8000dec <main+0x73c>)
 8000b66:	9316      	str	r3, [sp, #88]	@ 0x58
 8000b68:	4ba1      	ldr	r3, [pc, #644]	@ (8000df0 <main+0x740>)
 8000b6a:	9303      	str	r3, [sp, #12]
 8000b6c:	4ba1      	ldr	r3, [pc, #644]	@ (8000df4 <main+0x744>)
 8000b6e:	9309      	str	r3, [sp, #36]	@ 0x24
 8000b70:	4ba1      	ldr	r3, [pc, #644]	@ (8000df8 <main+0x748>)
 8000b72:	930a      	str	r3, [sp, #40]	@ 0x28
 8000b74:	4ba1      	ldr	r3, [pc, #644]	@ (8000dfc <main+0x74c>)
 8000b76:	930b      	str	r3, [sp, #44]	@ 0x2c
 8000b78:	4ba1      	ldr	r3, [pc, #644]	@ (8000e00 <main+0x750>)
 8000b7a:	9317      	str	r3, [sp, #92]	@ 0x5c
 8000b7c:	4ba1      	ldr	r3, [pc, #644]	@ (8000e04 <main+0x754>)
 8000b7e:	9318      	str	r3, [sp, #96]	@ 0x60
 8000b80:	4ba1      	ldr	r3, [pc, #644]	@ (8000e08 <main+0x758>)
 8000b82:	930c      	str	r3, [sp, #48]	@ 0x30
 8000b84:	4ba1      	ldr	r3, [pc, #644]	@ (8000e0c <main+0x75c>)
 8000b86:	9304      	str	r3, [sp, #16]
 8000b88:	4ba1      	ldr	r3, [pc, #644]	@ (8000e10 <main+0x760>)
 8000b8a:	9319      	str	r3, [sp, #100]	@ 0x64
 8000b8c:	4ba1      	ldr	r3, [pc, #644]	@ (8000e14 <main+0x764>)
 8000b8e:	930d      	str	r3, [sp, #52]	@ 0x34
 8000b90:	4ba1      	ldr	r3, [pc, #644]	@ (8000e18 <main+0x768>)
 8000b92:	9300      	str	r3, [sp, #0]
 8000b94:	4ba1      	ldr	r3, [pc, #644]	@ (8000e1c <main+0x76c>)
 8000b96:	9301      	str	r3, [sp, #4]
 8000b98:	4ba1      	ldr	r3, [pc, #644]	@ (8000e20 <main+0x770>)
 8000b9a:	930e      	str	r3, [sp, #56]	@ 0x38
 8000b9c:	4ba1      	ldr	r3, [pc, #644]	@ (8000e24 <main+0x774>)
 8000b9e:	930f      	str	r3, [sp, #60]	@ 0x3c
 8000ba0:	4ba1      	ldr	r3, [pc, #644]	@ (8000e28 <main+0x778>)
 8000ba2:	9308      	str	r3, [sp, #32]
 8000ba4:	4ba1      	ldr	r3, [pc, #644]	@ (8000e2c <main+0x77c>)
 8000ba6:	4699      	mov	r9, r3
 8000ba8:	4ba1      	ldr	r3, [pc, #644]	@ (8000e30 <main+0x780>)
 8000baa:	9310      	str	r3, [sp, #64]	@ 0x40
 8000bac:	4ba1      	ldr	r3, [pc, #644]	@ (8000e34 <main+0x784>)
 8000bae:	9311      	str	r3, [sp, #68]	@ 0x44
 8000bb0:	4ba1      	ldr	r3, [pc, #644]	@ (8000e38 <main+0x788>)
 8000bb2:	9312      	str	r3, [sp, #72]	@ 0x48
 8000bb4:	4ba1      	ldr	r3, [pc, #644]	@ (8000e3c <main+0x78c>)
 8000bb6:	9313      	str	r3, [sp, #76]	@ 0x4c
 8000bb8:	4ba1      	ldr	r3, [pc, #644]	@ (8000e40 <main+0x790>)
 8000bba:	9314      	str	r3, [sp, #80]	@ 0x50
 8000bbc:	9b02      	ldr	r3, [sp, #8]
 8000bbe:	781b      	ldrb	r3, [r3, #0]
 8000bc0:	2b00      	cmp	r3, #0
 8000bc2:	d000      	beq.n	8000bc6 <main+0x516>
 8000bc4:	e185      	b.n	8000ed2 <main+0x822>
 8000bc6:	9b15      	ldr	r3, [sp, #84]	@ 0x54
 8000bc8:	781b      	ldrb	r3, [r3, #0]
 8000bca:	4698      	mov	r8, r3
 8000bcc:	2b00      	cmp	r3, #0
 8000bce:	d100      	bne.n	8000bd2 <main+0x522>
 8000bd0:	e155      	b.n	8000e7e <main+0x7ce>
 8000bd2:	2301      	movs	r3, #1
 8000bd4:	9a03      	ldr	r2, [sp, #12]
 8000bd6:	7013      	strb	r3, [r2, #0]
 8000bd8:	2000      	movs	r0, #0
 8000bda:	f000 fc67 	bl	80014ac <enableMotor>
 8000bde:	2001      	movs	r0, #1
 8000be0:	f000 fc64 	bl	80014ac <enableMotor>
 8000be4:	2002      	movs	r0, #2
 8000be6:	f000 fc61 	bl	80014ac <enableMotor>
 8000bea:	4651      	mov	r1, sl
 8000bec:	2001      	movs	r0, #1
 8000bee:	f000 fdc5 	bl	800177c <setServoIsEnable>
 8000bf2:	0029      	movs	r1, r5
 8000bf4:	2001      	movs	r0, #1
 8000bf6:	f000 fdc1 	bl	800177c <setServoIsEnable>
 8000bfa:	9b14      	ldr	r3, [sp, #80]	@ 0x50
 8000bfc:	781b      	ldrb	r3, [r3, #0]
 8000bfe:	4698      	mov	r8, r3
 8000c00:	2b00      	cmp	r3, #0
 8000c02:	d100      	bne.n	8000c06 <main+0x556>
 8000c04:	e122      	b.n	8000e4c <main+0x79c>
 8000c06:	9b0a      	ldr	r3, [sp, #40]	@ 0x28
 8000c08:	7818      	ldrb	r0, [r3, #0]
 8000c0a:	f000 fc6f 	bl	80014ec <getChannelValuePercentage>
 8000c0e:	9b0b      	ldr	r3, [sp, #44]	@ 0x2c
 8000c10:	4680      	mov	r8, r0
 8000c12:	7818      	ldrb	r0, [r3, #0]
 8000c14:	f000 fc6a 	bl	80014ec <getChannelValuePercentage>
 8000c18:	0001      	movs	r1, r0
 8000c1a:	4640      	mov	r0, r8
 8000c1c:	f000 fd38 	bl	8001690 <tankMix>
 8000c20:	9b17      	ldr	r3, [sp, #92]	@ 0x5c
 8000c22:	6018      	str	r0, [r3, #0]
 8000c24:	f000 fb24 	bl	8001270 <setTankMotor>
 8000c28:	9b18      	ldr	r3, [sp, #96]	@ 0x60
 8000c2a:	781b      	ldrb	r3, [r3, #0]
 8000c2c:	2b00      	cmp	r3, #0
 8000c2e:	d100      	bne.n	8000c32 <main+0x582>
 8000c30:	e0ba      	b.n	8000da8 <main+0x6f8>
 8000c32:	9b0c      	ldr	r3, [sp, #48]	@ 0x30
 8000c34:	781b      	ldrb	r3, [r3, #0]
 8000c36:	4698      	mov	r8, r3
 8000c38:	9b04      	ldr	r3, [sp, #16]
 8000c3a:	7818      	ldrb	r0, [r3, #0]
 8000c3c:	f000 fc56 	bl	80014ec <getChannelValuePercentage>
 8000c40:	b201      	sxth	r1, r0
 8000c42:	4640      	mov	r0, r8
 8000c44:	f000 f98c 	bl	8000f60 <setMotorSpeedBidirectional>
 8000c48:	9b19      	ldr	r3, [sp, #100]	@ 0x64
 8000c4a:	7818      	ldrb	r0, [r3, #0]
 8000c4c:	783b      	ldrb	r3, [r7, #0]
 8000c4e:	2b01      	cmp	r3, #1
 8000c50:	d07a      	beq.n	8000d48 <main+0x698>
 8000c52:	f000 fc4b 	bl	80014ec <getChannelValuePercentage>
 8000c56:	0001      	movs	r1, r0
 8000c58:	2000      	movs	r0, #0
 8000c5a:	f000 fd47 	bl	80016ec <setServoAngle>
 8000c5e:	9b0d      	ldr	r3, [sp, #52]	@ 0x34
 8000c60:	7818      	ldrb	r0, [r3, #0]
 8000c62:	f000 fc43 	bl	80014ec <getChannelValuePercentage>
 8000c66:	0001      	movs	r1, r0
 8000c68:	2001      	movs	r0, #1
 8000c6a:	f000 fd3f 	bl	80016ec <setServoAngle>
 8000c6e:	f001 fdcb 	bl	8002808 <HAL_GetTick>
 8000c72:	9b05      	ldr	r3, [sp, #20]
 8000c74:	1ac0      	subs	r0, r0, r3
 8000c76:	28c7      	cmp	r0, #199	@ 0xc7
 8000c78:	d847      	bhi.n	8000d0a <main+0x65a>
 8000c7a:	f001 fdc5 	bl	8002808 <HAL_GetTick>
 8000c7e:	23fa      	movs	r3, #250	@ 0xfa
 8000c80:	1b80      	subs	r0, r0, r6
 8000c82:	00db      	lsls	r3, r3, #3
 8000c84:	4298      	cmp	r0, r3
 8000c86:	d303      	bcc.n	8000c90 <main+0x5e0>
 8000c88:	783b      	ldrb	r3, [r7, #0]
 8000c8a:	2b00      	cmp	r3, #0
 8000c8c:	d100      	bne.n	8000c90 <main+0x5e0>
 8000c8e:	e148      	b.n	8000f22 <main+0x872>
 8000c90:	f001 fdba 	bl	8002808 <HAL_GetTick>
 8000c94:	9b06      	ldr	r3, [sp, #24]
 8000c96:	1ac0      	subs	r0, r0, r3
 8000c98:	23af      	movs	r3, #175	@ 0xaf
 8000c9a:	005b      	lsls	r3, r3, #1
 8000c9c:	4298      	cmp	r0, r3
 8000c9e:	d302      	bcc.n	8000ca6 <main+0x5f6>
 8000ca0:	783b      	ldrb	r3, [r7, #0]
 8000ca2:	2b01      	cmp	r3, #1
 8000ca4:	d01e      	beq.n	8000ce4 <main+0x634>
 8000ca6:	9b08      	ldr	r3, [sp, #32]
 8000ca8:	781b      	ldrb	r3, [r3, #0]
 8000caa:	2b00      	cmp	r3, #0
 8000cac:	d00f      	beq.n	8000cce <main+0x61e>
 8000cae:	f001 f8d5 	bl	8001e5c <modifySettingsWithCommand>
 8000cb2:	2800      	cmp	r0, #0
 8000cb4:	d01f      	beq.n	8000cf6 <main+0x646>
 8000cb6:	464b      	mov	r3, r9
 8000cb8:	681b      	ldr	r3, [r3, #0]
 8000cba:	0020      	movs	r0, r4
 8000cbc:	6023      	str	r3, [r4, #0]
 8000cbe:	464b      	mov	r3, r9
 8000cc0:	791b      	ldrb	r3, [r3, #4]
 8000cc2:	7123      	strb	r3, [r4, #4]
 8000cc4:	f000 fdb8 	bl	8001838 <serialPrintString>
 8000cc8:	2300      	movs	r3, #0
 8000cca:	9a08      	ldr	r2, [sp, #32]
 8000ccc:	7013      	strb	r3, [r2, #0]
 8000cce:	4b5d      	ldr	r3, [pc, #372]	@ (8000e44 <main+0x794>)
 8000cd0:	9911      	ldr	r1, [sp, #68]	@ 0x44
 8000cd2:	6b5a      	ldr	r2, [r3, #52]	@ 0x34
 8000cd4:	800a      	strh	r2, [r1, #0]
 8000cd6:	6b9a      	ldr	r2, [r3, #56]	@ 0x38
 8000cd8:	9912      	ldr	r1, [sp, #72]	@ 0x48
 8000cda:	6bdb      	ldr	r3, [r3, #60]	@ 0x3c
 8000cdc:	800a      	strh	r2, [r1, #0]
 8000cde:	9a13      	ldr	r2, [sp, #76]	@ 0x4c
 8000ce0:	8013      	strh	r3, [r2, #0]
 8000ce2:	e76b      	b.n	8000bbc <main+0x50c>
 8000ce4:	2180      	movs	r1, #128	@ 0x80
 8000ce6:	483d      	ldr	r0, [pc, #244]	@ (8000ddc <main+0x72c>)
 8000ce8:	0209      	lsls	r1, r1, #8
 8000cea:	f002 fa4f 	bl	800318c <HAL_GPIO_TogglePin>
 8000cee:	f001 fd8b 	bl	8002808 <HAL_GetTick>
 8000cf2:	9006      	str	r0, [sp, #24]
 8000cf4:	e7d7      	b.n	8000ca6 <main+0x5f6>
 8000cf6:	0023      	movs	r3, r4
 8000cf8:	9a10      	ldr	r2, [sp, #64]	@ 0x40
 8000cfa:	ca03      	ldmia	r2!, {r0, r1}
 8000cfc:	c303      	stmia	r3!, {r0, r1}
 8000cfe:	7812      	ldrb	r2, [r2, #0]
 8000d00:	0020      	movs	r0, r4
 8000d02:	701a      	strb	r2, [r3, #0]
 8000d04:	f000 fd98 	bl	8001838 <serialPrintString>
 8000d08:	e7de      	b.n	8000cc8 <main+0x618>
 8000d0a:	f7ff fc6b 	bl	80005e4 <getBattVoltage>
 8000d0e:	9b00      	ldr	r3, [sp, #0]
 8000d10:	8018      	strh	r0, [r3, #0]
 8000d12:	f7ff fc33 	bl	800057c <getBatteryConfiguration>
 8000d16:	9b01      	ldr	r3, [sp, #4]
 8000d18:	7018      	strb	r0, [r3, #0]
 8000d1a:	f001 fd75 	bl	8002808 <HAL_GetTick>
 8000d1e:	9b07      	ldr	r3, [sp, #28]
 8000d20:	1ac0      	subs	r0, r0, r3
 8000d22:	4b49      	ldr	r3, [pc, #292]	@ (8000e48 <main+0x798>)
 8000d24:	4298      	cmp	r0, r3
 8000d26:	d92c      	bls.n	8000d82 <main+0x6d2>
 8000d28:	2301      	movs	r3, #1
 8000d2a:	703b      	strb	r3, [r7, #0]
 8000d2c:	f001 fd6c 	bl	8002808 <HAL_GetTick>
 8000d30:	465b      	mov	r3, fp
 8000d32:	1ac0      	subs	r0, r0, r3
 8000d34:	4b44      	ldr	r3, [pc, #272]	@ (8000e48 <main+0x798>)
 8000d36:	4298      	cmp	r0, r3
 8000d38:	d90e      	bls.n	8000d58 <main+0x6a8>
 8000d3a:	2301      	movs	r3, #1
 8000d3c:	9a02      	ldr	r2, [sp, #8]
 8000d3e:	7013      	strb	r3, [r2, #0]
 8000d40:	f001 fd62 	bl	8002808 <HAL_GetTick>
 8000d44:	9005      	str	r0, [sp, #20]
 8000d46:	e798      	b.n	8000c7a <main+0x5ca>
 8000d48:	f000 fbd0 	bl	80014ec <getChannelValuePercentage>
 8000d4c:	783b      	ldrb	r3, [r7, #0]
 8000d4e:	b2c1      	uxtb	r1, r0
 8000d50:	2b01      	cmp	r3, #1
 8000d52:	d181      	bne.n	8000c58 <main+0x5a8>
 8000d54:	0849      	lsrs	r1, r1, #1
 8000d56:	e77f      	b.n	8000c58 <main+0x5a8>
 8000d58:	9b00      	ldr	r3, [sp, #0]
 8000d5a:	9a01      	ldr	r2, [sp, #4]
 8000d5c:	8819      	ldrh	r1, [r3, #0]
 8000d5e:	9b0f      	ldr	r3, [sp, #60]	@ 0x3c
 8000d60:	7812      	ldrb	r2, [r2, #0]
 8000d62:	781b      	ldrb	r3, [r3, #0]
 8000d64:	435a      	muls	r2, r3
 8000d66:	2364      	movs	r3, #100	@ 0x64
 8000d68:	4353      	muls	r3, r2
 8000d6a:	4299      	cmp	r1, r3
 8000d6c:	dbe8      	blt.n	8000d40 <main+0x690>
 8000d6e:	9b02      	ldr	r3, [sp, #8]
 8000d70:	781b      	ldrb	r3, [r3, #0]
 8000d72:	2b00      	cmp	r3, #0
 8000d74:	d1e4      	bne.n	8000d40 <main+0x690>
 8000d76:	f001 fd47 	bl	8002808 <HAL_GetTick>
 8000d7a:	230a      	movs	r3, #10
 8000d7c:	469b      	mov	fp, r3
 8000d7e:	4483      	add	fp, r0
 8000d80:	e7de      	b.n	8000d40 <main+0x690>
 8000d82:	9b00      	ldr	r3, [sp, #0]
 8000d84:	9a01      	ldr	r2, [sp, #4]
 8000d86:	8819      	ldrh	r1, [r3, #0]
 8000d88:	9b0e      	ldr	r3, [sp, #56]	@ 0x38
 8000d8a:	7812      	ldrb	r2, [r2, #0]
 8000d8c:	781b      	ldrb	r3, [r3, #0]
 8000d8e:	435a      	muls	r2, r3
 8000d90:	2364      	movs	r3, #100	@ 0x64
 8000d92:	4353      	muls	r3, r2
 8000d94:	4299      	cmp	r1, r3
 8000d96:	dbc9      	blt.n	8000d2c <main+0x67c>
 8000d98:	783b      	ldrb	r3, [r7, #0]
 8000d9a:	2b00      	cmp	r3, #0
 8000d9c:	d1c6      	bne.n	8000d2c <main+0x67c>
 8000d9e:	f001 fd33 	bl	8002808 <HAL_GetTick>
 8000da2:	300a      	adds	r0, #10
 8000da4:	9007      	str	r0, [sp, #28]
 8000da6:	e7c1      	b.n	8000d2c <main+0x67c>
 8000da8:	9b04      	ldr	r3, [sp, #16]
 8000daa:	7818      	ldrb	r0, [r3, #0]
 8000dac:	f000 fb9e 	bl	80014ec <getChannelValuePercentage>
 8000db0:	783b      	ldrb	r3, [r7, #0]
 8000db2:	b2c1      	uxtb	r1, r0
 8000db4:	2b01      	cmp	r3, #1
 8000db6:	d100      	bne.n	8000dba <main+0x70a>
 8000db8:	0849      	lsrs	r1, r1, #1
 8000dba:	9b0c      	ldr	r3, [sp, #48]	@ 0x30
 8000dbc:	b209      	sxth	r1, r1
 8000dbe:	7818      	ldrb	r0, [r3, #0]
 8000dc0:	f000 f972 	bl	80010a8 <setMotorSpeedUnidirectional>
 8000dc4:	e740      	b.n	8000c48 <main+0x598>
 8000dc6:	46c0      	nop			@ (mov r8, r8)
 8000dc8:	2000228c 	.word	0x2000228c
 8000dcc:	40001000 	.word	0x40001000
 8000dd0:	0000ffff 	.word	0x0000ffff
 8000dd4:	200022d4 	.word	0x200022d4
 8000dd8:	40000400 	.word	0x40000400
 8000ddc:	48000800 	.word	0x48000800
 8000de0:	2000216a 	.word	0x2000216a
 8000de4:	20002169 	.word	0x20002169
 8000de8:	20000006 	.word	0x20000006
 8000dec:	2000000c 	.word	0x2000000c
 8000df0:	20002167 	.word	0x20002167
 8000df4:	20002163 	.word	0x20002163
 8000df8:	20000010 	.word	0x20000010
 8000dfc:	20000011 	.word	0x20000011
 8000e00:	20002170 	.word	0x20002170
 8000e04:	20002162 	.word	0x20002162
 8000e08:	20000008 	.word	0x20000008
 8000e0c:	2000000f 	.word	0x2000000f
 8000e10:	2000000e 	.word	0x2000000e
 8000e14:	2000000d 	.word	0x2000000d
 8000e18:	2000216c 	.word	0x2000216c
 8000e1c:	20002168 	.word	0x20002168
 8000e20:	20000005 	.word	0x20000005
 8000e24:	20000004 	.word	0x20000004
 8000e28:	2000216e 	.word	0x2000216e
 8000e2c:	0800909c 	.word	0x0800909c
 8000e30:	080090a4 	.word	0x080090a4
 8000e34:	20002160 	.word	0x20002160
 8000e38:	2000215e 	.word	0x2000215e
 8000e3c:	2000215c 	.word	0x2000215c
 8000e40:	20000007 	.word	0x20000007
 8000e44:	40012c00 	.word	0x40012c00
 8000e48:	0000270f 	.word	0x0000270f
 8000e4c:	9b0b      	ldr	r3, [sp, #44]	@ 0x2c
 8000e4e:	7818      	ldrb	r0, [r3, #0]
 8000e50:	f000 fb4c 	bl	80014ec <getChannelValuePercentage>
 8000e54:	b201      	sxth	r1, r0
 8000e56:	4640      	mov	r0, r8
 8000e58:	f000 f882 	bl	8000f60 <setMotorSpeedBidirectional>
 8000e5c:	9b0a      	ldr	r3, [sp, #40]	@ 0x28
 8000e5e:	7818      	ldrb	r0, [r3, #0]
 8000e60:	f000 fb44 	bl	80014ec <getChannelValuePercentage>
 8000e64:	b201      	sxth	r1, r0
 8000e66:	2001      	movs	r0, #1
 8000e68:	f000 f87a 	bl	8000f60 <setMotorSpeedBidirectional>
 8000e6c:	9b04      	ldr	r3, [sp, #16]
 8000e6e:	7818      	ldrb	r0, [r3, #0]
 8000e70:	f000 fb3c 	bl	80014ec <getChannelValuePercentage>
 8000e74:	b201      	sxth	r1, r0
 8000e76:	2002      	movs	r0, #2
 8000e78:	f000 f872 	bl	8000f60 <setMotorSpeedBidirectional>
 8000e7c:	e6e4      	b.n	8000c48 <main+0x598>
 8000e7e:	9b16      	ldr	r3, [sp, #88]	@ 0x58
 8000e80:	7818      	ldrb	r0, [r3, #0]
 8000e82:	f000 fb33 	bl	80014ec <getChannelValuePercentage>
 8000e86:	284b      	cmp	r0, #75	@ 0x4b
 8000e88:	d900      	bls.n	8000e8c <main+0x7dc>
 8000e8a:	e6a2      	b.n	8000bd2 <main+0x522>
 8000e8c:	4642      	mov	r2, r8
 8000e8e:	9b03      	ldr	r3, [sp, #12]
 8000e90:	2132      	movs	r1, #50	@ 0x32
 8000e92:	701a      	strb	r2, [r3, #0]
 8000e94:	9a09      	ldr	r2, [sp, #36]	@ 0x24
 8000e96:	7810      	ldrb	r0, [r2, #0]
 8000e98:	f000 fa68 	bl	800136c <makeSound>
 8000e9c:	2032      	movs	r0, #50	@ 0x32
 8000e9e:	f001 fcb9 	bl	8002814 <HAL_Delay>
 8000ea2:	9b03      	ldr	r3, [sp, #12]
 8000ea4:	781b      	ldrb	r3, [r3, #0]
 8000ea6:	4698      	mov	r8, r3
 8000ea8:	2b00      	cmp	r3, #0
 8000eaa:	d000      	beq.n	8000eae <main+0x7fe>
 8000eac:	e694      	b.n	8000bd8 <main+0x528>
 8000eae:	0018      	movs	r0, r3
 8000eb0:	f000 fadc 	bl	800146c <disableMotor>
 8000eb4:	2001      	movs	r0, #1
 8000eb6:	f000 fad9 	bl	800146c <disableMotor>
 8000eba:	2002      	movs	r0, #2
 8000ebc:	f000 fad6 	bl	800146c <disableMotor>
 8000ec0:	4651      	mov	r1, sl
 8000ec2:	4640      	mov	r0, r8
 8000ec4:	f000 fc5a 	bl	800177c <setServoIsEnable>
 8000ec8:	0029      	movs	r1, r5
 8000eca:	4640      	mov	r0, r8
 8000ecc:	f000 fc56 	bl	800177c <setServoIsEnable>
 8000ed0:	e6cd      	b.n	8000c6e <main+0x5be>
 8000ed2:	2000      	movs	r0, #0
 8000ed4:	f000 faca 	bl	800146c <disableMotor>
 8000ed8:	2001      	movs	r0, #1
 8000eda:	f000 fac7 	bl	800146c <disableMotor>
 8000ede:	2002      	movs	r0, #2
 8000ee0:	f000 fac4 	bl	800146c <disableMotor>
 8000ee4:	2100      	movs	r1, #0
 8000ee6:	0008      	movs	r0, r1
 8000ee8:	f000 fc00 	bl	80016ec <setServoAngle>
 8000eec:	2100      	movs	r1, #0
 8000eee:	2001      	movs	r0, #1
 8000ef0:	f000 fbfc 	bl	80016ec <setServoAngle>
 8000ef4:	f001 fc88 	bl	8002808 <HAL_GetTick>
 8000ef8:	1b80      	subs	r0, r0, r6
 8000efa:	2863      	cmp	r0, #99	@ 0x63
 8000efc:	d800      	bhi.n	8000f00 <main+0x850>
 8000efe:	e6d2      	b.n	8000ca6 <main+0x5f6>
 8000f00:	2180      	movs	r1, #128	@ 0x80
 8000f02:	480c      	ldr	r0, [pc, #48]	@ (8000f34 <main+0x884>)
 8000f04:	0209      	lsls	r1, r1, #8
 8000f06:	f002 f941 	bl	800318c <HAL_GPIO_TogglePin>
 8000f0a:	9b09      	ldr	r3, [sp, #36]	@ 0x24
 8000f0c:	2164      	movs	r1, #100	@ 0x64
 8000f0e:	7818      	ldrb	r0, [r3, #0]
 8000f10:	f000 fa2c 	bl	800136c <makeSound>
 8000f14:	f001 fc78 	bl	8002808 <HAL_GetTick>
 8000f18:	0006      	movs	r6, r0
 8000f1a:	e6c4      	b.n	8000ca6 <main+0x5f6>
 8000f1c:	f000 fe16 	bl	8001b4c <loadSettingsFromEeprom>
 8000f20:	e60c      	b.n	8000b3c <main+0x48c>
 8000f22:	2180      	movs	r1, #128	@ 0x80
 8000f24:	4803      	ldr	r0, [pc, #12]	@ (8000f34 <main+0x884>)
 8000f26:	0209      	lsls	r1, r1, #8
 8000f28:	f002 f930 	bl	800318c <HAL_GPIO_TogglePin>
 8000f2c:	f001 fc6c 	bl	8002808 <HAL_GetTick>
 8000f30:	0006      	movs	r6, r0
 8000f32:	e6ad      	b.n	8000c90 <main+0x5e0>
 8000f34:	48000800 	.word	0x48000800

08000f38 <map>:
 8000f38:	b570      	push	{r4, r5, r6, lr}
 8000f3a:	001d      	movs	r5, r3
 8000f3c:	ab04      	add	r3, sp, #16
 8000f3e:	2400      	movs	r4, #0
 8000f40:	5f1c      	ldrsh	r4, [r3, r4]
 8000f42:	1a43      	subs	r3, r0, r1
 8000f44:	1b60      	subs	r0, r4, r5
 8000f46:	4358      	muls	r0, r3
 8000f48:	1a51      	subs	r1, r2, r1
 8000f4a:	f7ff f979 	bl	8000240 <__divsi3>
 8000f4e:	1940      	adds	r0, r0, r5
 8000f50:	b200      	sxth	r0, r0
 8000f52:	bd70      	pop	{r4, r5, r6, pc}

08000f54 <Error_Handler>:
 8000f54:	b672      	cpsid	i
 8000f56:	e7fe      	b.n	8000f56 <Error_Handler+0x2>

08000f58 <initMotors>:
 8000f58:	b510      	push	{r4, lr}
 8000f5a:	f7ff fa5d 	bl	8000418 <initDMApwm>
 8000f5e:	bd10      	pop	{r4, pc}

08000f60 <setMotorSpeedBidirectional>:
 8000f60:	b570      	push	{r4, r5, r6, lr}
 8000f62:	0005      	movs	r5, r0
 8000f64:	000c      	movs	r4, r1
 8000f66:	b082      	sub	sp, #8
 8000f68:	2909      	cmp	r1, #9
 8000f6a:	dc00      	bgt.n	8000f6e <setMotorSpeedBidirectional+0xe>
 8000f6c:	2400      	movs	r4, #0
 8000f6e:	4a49      	ldr	r2, [pc, #292]	@ (8001094 <setMotorSpeedBidirectional+0x134>)
 8000f70:	8813      	ldrh	r3, [r2, #0]
 8000f72:	2000      	movs	r0, #0
 8000f74:	5e12      	ldrsh	r2, [r2, r0]
 8000f76:	0018      	movs	r0, r3
 8000f78:	3809      	subs	r0, #9
 8000f7a:	4288      	cmp	r0, r1
 8000f7c:	dc00      	bgt.n	8000f80 <setMotorSpeedBidirectional+0x20>
 8000f7e:	0014      	movs	r4, r2
 8000f80:	085b      	lsrs	r3, r3, #1
 8000f82:	1ae4      	subs	r4, r4, r3
 8000f84:	0064      	lsls	r4, r4, #1
 8000f86:	b224      	sxth	r4, r4
 8000f88:	17e3      	asrs	r3, r4, #31
 8000f8a:	18e0      	adds	r0, r4, r3
 8000f8c:	4058      	eors	r0, r3
 8000f8e:	23fa      	movs	r3, #250	@ 0xfa
 8000f90:	009b      	lsls	r3, r3, #2
 8000f92:	9300      	str	r3, [sp, #0]
 8000f94:	2100      	movs	r1, #0
 8000f96:	2300      	movs	r3, #0
 8000f98:	b200      	sxth	r0, r0
 8000f9a:	f7ff ffcd 	bl	8000f38 <map>
 8000f9e:	0006      	movs	r6, r0
 8000fa0:	2c00      	cmp	r4, #0
 8000fa2:	d007      	beq.n	8000fb4 <setMotorSpeedBidirectional+0x54>
 8000fa4:	2d01      	cmp	r5, #1
 8000fa6:	d023      	beq.n	8000ff0 <setMotorSpeedBidirectional+0x90>
 8000fa8:	2d02      	cmp	r5, #2
 8000faa:	d03a      	beq.n	8001022 <setMotorSpeedBidirectional+0xc2>
 8000fac:	2d00      	cmp	r5, #0
 8000fae:	d051      	beq.n	8001054 <setMotorSpeedBidirectional+0xf4>
 8000fb0:	b002      	add	sp, #8
 8000fb2:	bd70      	pop	{r4, r5, r6, pc}
 8000fb4:	2d01      	cmp	r5, #1
 8000fb6:	d013      	beq.n	8000fe0 <setMotorSpeedBidirectional+0x80>
 8000fb8:	2d02      	cmp	r5, #2
 8000fba:	d009      	beq.n	8000fd0 <setMotorSpeedBidirectional+0x70>
 8000fbc:	2200      	movs	r2, #0
 8000fbe:	2d00      	cmp	r5, #0
 8000fc0:	d1f6      	bne.n	8000fb0 <setMotorSpeedBidirectional+0x50>
 8000fc2:	2180      	movs	r1, #128	@ 0x80
 8000fc4:	2090      	movs	r0, #144	@ 0x90
 8000fc6:	0049      	lsls	r1, r1, #1
 8000fc8:	05c0      	lsls	r0, r0, #23
 8000fca:	f7ff fa6f 	bl	80004ac <setDMApwmDuty>
 8000fce:	e7ef      	b.n	8000fb0 <setMotorSpeedBidirectional+0x50>
 8000fd0:	2200      	movs	r2, #0
 8000fd2:	2180      	movs	r1, #128	@ 0x80
 8000fd4:	2090      	movs	r0, #144	@ 0x90
 8000fd6:	00c9      	lsls	r1, r1, #3
 8000fd8:	05c0      	lsls	r0, r0, #23
 8000fda:	f7ff fa67 	bl	80004ac <setDMApwmDuty>
 8000fde:	e7e7      	b.n	8000fb0 <setMotorSpeedBidirectional+0x50>
 8000fe0:	2200      	movs	r2, #0
 8000fe2:	2180      	movs	r1, #128	@ 0x80
 8000fe4:	2090      	movs	r0, #144	@ 0x90
 8000fe6:	0089      	lsls	r1, r1, #2
 8000fe8:	05c0      	lsls	r0, r0, #23
 8000fea:	f7ff fa5f 	bl	80004ac <setDMApwmDuty>
 8000fee:	e7df      	b.n	8000fb0 <setMotorSpeedBidirectional+0x50>
 8000ff0:	4b29      	ldr	r3, [pc, #164]	@ (8001098 <setMotorSpeedBidirectional+0x138>)
 8000ff2:	781b      	ldrb	r3, [r3, #0]
 8000ff4:	2b00      	cmp	r3, #0
 8000ff6:	d00a      	beq.n	800100e <setMotorSpeedBidirectional+0xae>
 8000ff8:	2c00      	cmp	r4, #0
 8000ffa:	da0a      	bge.n	8001012 <setMotorSpeedBidirectional+0xb2>
 8000ffc:	22fa      	movs	r2, #250	@ 0xfa
 8000ffe:	2180      	movs	r1, #128	@ 0x80
 8001000:	0092      	lsls	r2, r2, #2
 8001002:	4826      	ldr	r0, [pc, #152]	@ (800109c <setMotorSpeedBidirectional+0x13c>)
 8001004:	0189      	lsls	r1, r1, #6
 8001006:	f7ff fa51 	bl	80004ac <setDMApwmDuty>
 800100a:	b2b2      	uxth	r2, r6
 800100c:	e7e9      	b.n	8000fe2 <setMotorSpeedBidirectional+0x82>
 800100e:	2c00      	cmp	r4, #0
 8001010:	daf4      	bge.n	8000ffc <setMotorSpeedBidirectional+0x9c>
 8001012:	2180      	movs	r1, #128	@ 0x80
 8001014:	2200      	movs	r2, #0
 8001016:	4821      	ldr	r0, [pc, #132]	@ (800109c <setMotorSpeedBidirectional+0x13c>)
 8001018:	0189      	lsls	r1, r1, #6
 800101a:	f7ff fa47 	bl	80004ac <setDMApwmDuty>
 800101e:	b2b2      	uxth	r2, r6
 8001020:	e7df      	b.n	8000fe2 <setMotorSpeedBidirectional+0x82>
 8001022:	4b1f      	ldr	r3, [pc, #124]	@ (80010a0 <setMotorSpeedBidirectional+0x140>)
 8001024:	781b      	ldrb	r3, [r3, #0]
 8001026:	2b00      	cmp	r3, #0
 8001028:	d00a      	beq.n	8001040 <setMotorSpeedBidirectional+0xe0>
 800102a:	2c00      	cmp	r4, #0
 800102c:	da0a      	bge.n	8001044 <setMotorSpeedBidirectional+0xe4>
 800102e:	22fa      	movs	r2, #250	@ 0xfa
 8001030:	2180      	movs	r1, #128	@ 0x80
 8001032:	0092      	lsls	r2, r2, #2
 8001034:	4819      	ldr	r0, [pc, #100]	@ (800109c <setMotorSpeedBidirectional+0x13c>)
 8001036:	0109      	lsls	r1, r1, #4
 8001038:	f7ff fa38 	bl	80004ac <setDMApwmDuty>
 800103c:	b2b2      	uxth	r2, r6
 800103e:	e7c8      	b.n	8000fd2 <setMotorSpeedBidirectional+0x72>
 8001040:	2c00      	cmp	r4, #0
 8001042:	daf4      	bge.n	800102e <setMotorSpeedBidirectional+0xce>
 8001044:	2180      	movs	r1, #128	@ 0x80
 8001046:	2200      	movs	r2, #0
 8001048:	4814      	ldr	r0, [pc, #80]	@ (800109c <setMotorSpeedBidirectional+0x13c>)
 800104a:	0109      	lsls	r1, r1, #4
 800104c:	f7ff fa2e 	bl	80004ac <setDMApwmDuty>
 8001050:	b2b2      	uxth	r2, r6
 8001052:	e7be      	b.n	8000fd2 <setMotorSpeedBidirectional+0x72>
 8001054:	4b13      	ldr	r3, [pc, #76]	@ (80010a4 <setMotorSpeedBidirectional+0x144>)
 8001056:	781b      	ldrb	r3, [r3, #0]
 8001058:	2b00      	cmp	r3, #0
 800105a:	d010      	beq.n	800107e <setMotorSpeedBidirectional+0x11e>
 800105c:	2c00      	cmp	r4, #0
 800105e:	da10      	bge.n	8001082 <setMotorSpeedBidirectional+0x122>
 8001060:	22fa      	movs	r2, #250	@ 0xfa
 8001062:	2180      	movs	r1, #128	@ 0x80
 8001064:	0092      	lsls	r2, r2, #2
 8001066:	480d      	ldr	r0, [pc, #52]	@ (800109c <setMotorSpeedBidirectional+0x13c>)
 8001068:	0209      	lsls	r1, r1, #8
 800106a:	f7ff fa1f 	bl	80004ac <setDMApwmDuty>
 800106e:	b2b2      	uxth	r2, r6
 8001070:	2180      	movs	r1, #128	@ 0x80
 8001072:	2090      	movs	r0, #144	@ 0x90
 8001074:	0049      	lsls	r1, r1, #1
 8001076:	05c0      	lsls	r0, r0, #23
 8001078:	f7ff fa18 	bl	80004ac <setDMApwmDuty>
 800107c:	e798      	b.n	8000fb0 <setMotorSpeedBidirectional+0x50>
 800107e:	2c00      	cmp	r4, #0
 8001080:	daee      	bge.n	8001060 <setMotorSpeedBidirectional+0x100>
 8001082:	2180      	movs	r1, #128	@ 0x80
 8001084:	2200      	movs	r2, #0
 8001086:	4805      	ldr	r0, [pc, #20]	@ (800109c <setMotorSpeedBidirectional+0x13c>)
 8001088:	0209      	lsls	r1, r1, #8
 800108a:	f7ff fa0f 	bl	80004ac <setDMApwmDuty>
 800108e:	b2b2      	uxth	r2, r6
 8001090:	e7ee      	b.n	8001070 <setMotorSpeedBidirectional+0x110>
 8001092:	46c0      	nop			@ (mov r8, r8)
 8001094:	080090ae 	.word	0x080090ae
 8001098:	2000000a 	.word	0x2000000a
 800109c:	48000400 	.word	0x48000400
 80010a0:	20002166 	.word	0x20002166
 80010a4:	2000000b 	.word	0x2000000b

080010a8 <setMotorSpeedUnidirectional>:
 80010a8:	b5f8      	push	{r3, r4, r5, r6, r7, lr}
 80010aa:	4b42      	ldr	r3, [pc, #264]	@ (80011b4 <setMotorSpeedUnidirectional+0x10c>)
 80010ac:	4c42      	ldr	r4, [pc, #264]	@ (80011b8 <setMotorSpeedUnidirectional+0x110>)
 80010ae:	881b      	ldrh	r3, [r3, #0]
 80010b0:	7827      	ldrb	r7, [r4, #0]
 80010b2:	085a      	lsrs	r2, r3, #1
 80010b4:	0016      	movs	r6, r2
 80010b6:	001c      	movs	r4, r3
 80010b8:	3e09      	subs	r6, #9
 80010ba:	b28d      	uxth	r5, r1
 80010bc:	3c09      	subs	r4, #9
 80010be:	428e      	cmp	r6, r1
 80010c0:	dc03      	bgt.n	80010ca <setMotorSpeedUnidirectional+0x22>
 80010c2:	3612      	adds	r6, #18
 80010c4:	42b1      	cmp	r1, r6
 80010c6:	dc18      	bgt.n	80010fa <setMotorSpeedUnidirectional+0x52>
 80010c8:	0015      	movs	r5, r2
 80010ca:	2909      	cmp	r1, #9
 80010cc:	dc15      	bgt.n	80010fa <setMotorSpeedUnidirectional+0x52>
 80010ce:	17ca      	asrs	r2, r1, #31
 80010d0:	0fe5      	lsrs	r5, r4, #31
 80010d2:	42a1      	cmp	r1, r4
 80010d4:	416a      	adcs	r2, r5
 80010d6:	4252      	negs	r2, r2
 80010d8:	4013      	ands	r3, r2
 80010da:	2900      	cmp	r1, #0
 80010dc:	d116      	bne.n	800110c <setMotorSpeedUnidirectional+0x64>
 80010de:	2801      	cmp	r0, #1
 80010e0:	d02e      	beq.n	8001140 <setMotorSpeedUnidirectional+0x98>
 80010e2:	2802      	cmp	r0, #2
 80010e4:	d024      	beq.n	8001130 <setMotorSpeedUnidirectional+0x88>
 80010e6:	2800      	cmp	r0, #0
 80010e8:	d10f      	bne.n	800110a <setMotorSpeedUnidirectional+0x62>
 80010ea:	2090      	movs	r0, #144	@ 0x90
 80010ec:	3101      	adds	r1, #1
 80010ee:	2200      	movs	r2, #0
 80010f0:	31ff      	adds	r1, #255	@ 0xff
 80010f2:	05c0      	lsls	r0, r0, #23
 80010f4:	f7ff f9da 	bl	80004ac <setDMApwmDuty>
 80010f8:	e007      	b.n	800110a <setMotorSpeedUnidirectional+0x62>
 80010fa:	42a1      	cmp	r1, r4
 80010fc:	da06      	bge.n	800110c <setMotorSpeedUnidirectional+0x64>
 80010fe:	2801      	cmp	r0, #1
 8001100:	d007      	beq.n	8001112 <setMotorSpeedUnidirectional+0x6a>
 8001102:	2802      	cmp	r0, #2
 8001104:	d02e      	beq.n	8001164 <setMotorSpeedUnidirectional+0xbc>
 8001106:	2800      	cmp	r0, #0
 8001108:	d045      	beq.n	8001196 <setMotorSpeedUnidirectional+0xee>
 800110a:	bdf8      	pop	{r3, r4, r5, r6, r7, pc}
 800110c:	001d      	movs	r5, r3
 800110e:	2801      	cmp	r0, #1
 8001110:	d1f7      	bne.n	8001102 <setMotorSpeedUnidirectional+0x5a>
 8001112:	4b2a      	ldr	r3, [pc, #168]	@ (80011bc <setMotorSpeedUnidirectional+0x114>)
 8001114:	781b      	ldrb	r3, [r3, #0]
 8001116:	2b00      	cmp	r3, #0
 8001118:	d01a      	beq.n	8001150 <setMotorSpeedUnidirectional+0xa8>
 800111a:	2f00      	cmp	r7, #0
 800111c:	d11a      	bne.n	8001154 <setMotorSpeedUnidirectional+0xac>
 800111e:	22fa      	movs	r2, #250	@ 0xfa
 8001120:	2180      	movs	r1, #128	@ 0x80
 8001122:	0092      	lsls	r2, r2, #2
 8001124:	4826      	ldr	r0, [pc, #152]	@ (80011c0 <setMotorSpeedUnidirectional+0x118>)
 8001126:	0189      	lsls	r1, r1, #6
 8001128:	f7ff f9c0 	bl	80004ac <setDMApwmDuty>
 800112c:	002a      	movs	r2, r5
 800112e:	e008      	b.n	8001142 <setMotorSpeedUnidirectional+0x9a>
 8001130:	2200      	movs	r2, #0
 8001132:	2180      	movs	r1, #128	@ 0x80
 8001134:	2090      	movs	r0, #144	@ 0x90
 8001136:	00c9      	lsls	r1, r1, #3
 8001138:	05c0      	lsls	r0, r0, #23
 800113a:	f7ff f9b7 	bl	80004ac <setDMApwmDuty>
 800113e:	e7e4      	b.n	800110a <setMotorSpeedUnidirectional+0x62>
 8001140:	2200      	movs	r2, #0
 8001142:	2180      	movs	r1, #128	@ 0x80
 8001144:	2090      	movs	r0, #144	@ 0x90
 8001146:	0089      	lsls	r1, r1, #2
 8001148:	05c0      	lsls	r0, r0, #23
 800114a:	f7ff f9af 	bl	80004ac <setDMApwmDuty>
 800114e:	e7dc      	b.n	800110a <setMotorSpeedUnidirectional+0x62>
 8001150:	2f00      	cmp	r7, #0
 8001152:	d1e4      	bne.n	800111e <setMotorSpeedUnidirectional+0x76>
 8001154:	2180      	movs	r1, #128	@ 0x80
 8001156:	2200      	movs	r2, #0
 8001158:	4819      	ldr	r0, [pc, #100]	@ (80011c0 <setMotorSpeedUnidirectional+0x118>)
 800115a:	0189      	lsls	r1, r1, #6
 800115c:	f7ff f9a6 	bl	80004ac <setDMApwmDuty>
 8001160:	002a      	movs	r2, r5
 8001162:	e7ee      	b.n	8001142 <setMotorSpeedUnidirectional+0x9a>
 8001164:	4b17      	ldr	r3, [pc, #92]	@ (80011c4 <setMotorSpeedUnidirectional+0x11c>)
 8001166:	781b      	ldrb	r3, [r3, #0]
 8001168:	2b00      	cmp	r3, #0
 800116a:	d00a      	beq.n	8001182 <setMotorSpeedUnidirectional+0xda>
 800116c:	2f00      	cmp	r7, #0
 800116e:	d10a      	bne.n	8001186 <setMotorSpeedUnidirectional+0xde>
 8001170:	22fa      	movs	r2, #250	@ 0xfa
 8001172:	2180      	movs	r1, #128	@ 0x80
 8001174:	0092      	lsls	r2, r2, #2
 8001176:	4812      	ldr	r0, [pc, #72]	@ (80011c0 <setMotorSpeedUnidirectional+0x118>)
 8001178:	0109      	lsls	r1, r1, #4
 800117a:	f7ff f997 	bl	80004ac <setDMApwmDuty>
 800117e:	002a      	movs	r2, r5
 8001180:	e7d7      	b.n	8001132 <setMotorSpeedUnidirectional+0x8a>
 8001182:	2f00      	cmp	r7, #0
 8001184:	d1f4      	bne.n	8001170 <setMotorSpeedUnidirectional+0xc8>
 8001186:	2180      	movs	r1, #128	@ 0x80
 8001188:	2200      	movs	r2, #0
 800118a:	480d      	ldr	r0, [pc, #52]	@ (80011c0 <setMotorSpeedUnidirectional+0x118>)
 800118c:	0109      	lsls	r1, r1, #4
 800118e:	f7ff f98d 	bl	80004ac <setDMApwmDuty>
 8001192:	002a      	movs	r2, r5
 8001194:	e7cd      	b.n	8001132 <setMotorSpeedUnidirectional+0x8a>
 8001196:	2180      	movs	r1, #128	@ 0x80
 8001198:	2200      	movs	r2, #0
 800119a:	0209      	lsls	r1, r1, #8
 800119c:	4808      	ldr	r0, [pc, #32]	@ (80011c0 <setMotorSpeedUnidirectional+0x118>)
 800119e:	f7ff f985 	bl	80004ac <setDMApwmDuty>
 80011a2:	2180      	movs	r1, #128	@ 0x80
 80011a4:	2090      	movs	r0, #144	@ 0x90
 80011a6:	002a      	movs	r2, r5
 80011a8:	0049      	lsls	r1, r1, #1
 80011aa:	05c0      	lsls	r0, r0, #23
 80011ac:	f7ff f97e 	bl	80004ac <setDMApwmDuty>
 80011b0:	e7ab      	b.n	800110a <setMotorSpeedUnidirectional+0x62>
 80011b2:	46c0      	nop			@ (mov r8, r8)
 80011b4:	080090ae 	.word	0x080090ae
 80011b8:	2000000b 	.word	0x2000000b
 80011bc:	2000000a 	.word	0x2000000a
 80011c0:	48000400 	.word	0x48000400
 80011c4:	20002166 	.word	0x20002166

080011c8 <setDriverSignals>:
 80011c8:	b510      	push	{r4, lr}
 80011ca:	000c      	movs	r4, r1
 80011cc:	2801      	cmp	r0, #1
 80011ce:	d004      	beq.n	80011da <setDriverSignals+0x12>
 80011d0:	2802      	cmp	r0, #2
 80011d2:	d022      	beq.n	800121a <setDriverSignals+0x52>
 80011d4:	2800      	cmp	r0, #0
 80011d6:	d010      	beq.n	80011fa <setDriverSignals+0x32>
 80011d8:	bd10      	pop	{r4, pc}
 80011da:	2a00      	cmp	r2, #0
 80011dc:	d13d      	bne.n	800125a <setDriverSignals+0x92>
 80011de:	2180      	movs	r1, #128	@ 0x80
 80011e0:	2200      	movs	r2, #0
 80011e2:	4822      	ldr	r0, [pc, #136]	@ (800126c <setDriverSignals+0xa4>)
 80011e4:	0189      	lsls	r1, r1, #6
 80011e6:	f7ff f961 	bl	80004ac <setDMApwmDuty>
 80011ea:	2180      	movs	r1, #128	@ 0x80
 80011ec:	2090      	movs	r0, #144	@ 0x90
 80011ee:	b2a2      	uxth	r2, r4
 80011f0:	0089      	lsls	r1, r1, #2
 80011f2:	05c0      	lsls	r0, r0, #23
 80011f4:	f7ff f95a 	bl	80004ac <setDMApwmDuty>
 80011f8:	e7ee      	b.n	80011d8 <setDriverSignals+0x10>
 80011fa:	2a00      	cmp	r2, #0
 80011fc:	d125      	bne.n	800124a <setDriverSignals+0x82>
 80011fe:	2180      	movs	r1, #128	@ 0x80
 8001200:	2200      	movs	r2, #0
 8001202:	481a      	ldr	r0, [pc, #104]	@ (800126c <setDriverSignals+0xa4>)
 8001204:	0209      	lsls	r1, r1, #8
 8001206:	f7ff f951 	bl	80004ac <setDMApwmDuty>
 800120a:	2180      	movs	r1, #128	@ 0x80
 800120c:	2090      	movs	r0, #144	@ 0x90
 800120e:	b2a2      	uxth	r2, r4
 8001210:	0049      	lsls	r1, r1, #1
 8001212:	05c0      	lsls	r0, r0, #23
 8001214:	f7ff f94a 	bl	80004ac <setDMApwmDuty>
 8001218:	e7de      	b.n	80011d8 <setDriverSignals+0x10>
 800121a:	2a00      	cmp	r2, #0
 800121c:	d10d      	bne.n	800123a <setDriverSignals+0x72>
 800121e:	2180      	movs	r1, #128	@ 0x80
 8001220:	2200      	movs	r2, #0
 8001222:	4812      	ldr	r0, [pc, #72]	@ (800126c <setDriverSignals+0xa4>)
 8001224:	0109      	lsls	r1, r1, #4
 8001226:	f7ff f941 	bl	80004ac <setDMApwmDuty>
 800122a:	2180      	movs	r1, #128	@ 0x80
 800122c:	2090      	movs	r0, #144	@ 0x90
 800122e:	b2a2      	uxth	r2, r4
 8001230:	00c9      	lsls	r1, r1, #3
 8001232:	05c0      	lsls	r0, r0, #23
 8001234:	f7ff f93a 	bl	80004ac <setDMApwmDuty>
 8001238:	e7ce      	b.n	80011d8 <setDriverSignals+0x10>
 800123a:	22fa      	movs	r2, #250	@ 0xfa
 800123c:	2180      	movs	r1, #128	@ 0x80
 800123e:	0092      	lsls	r2, r2, #2
 8001240:	0109      	lsls	r1, r1, #4
 8001242:	480a      	ldr	r0, [pc, #40]	@ (800126c <setDriverSignals+0xa4>)
 8001244:	f7ff f932 	bl	80004ac <setDMApwmDuty>
 8001248:	e7ef      	b.n	800122a <setDriverSignals+0x62>
 800124a:	22fa      	movs	r2, #250	@ 0xfa
 800124c:	2180      	movs	r1, #128	@ 0x80
 800124e:	0092      	lsls	r2, r2, #2
 8001250:	0209      	lsls	r1, r1, #8
 8001252:	4806      	ldr	r0, [pc, #24]	@ (800126c <setDriverSignals+0xa4>)
 8001254:	f7ff f92a 	bl	80004ac <setDMApwmDuty>
 8001258:	e7d7      	b.n	800120a <setDriverSignals+0x42>
 800125a:	22fa      	movs	r2, #250	@ 0xfa
 800125c:	2180      	movs	r1, #128	@ 0x80
 800125e:	0092      	lsls	r2, r2, #2
 8001260:	0189      	lsls	r1, r1, #6
 8001262:	4802      	ldr	r0, [pc, #8]	@ (800126c <setDriverSignals+0xa4>)
 8001264:	f7ff f922 	bl	80004ac <setDMApwmDuty>
 8001268:	e7bf      	b.n	80011ea <setDriverSignals+0x22>
 800126a:	46c0      	nop			@ (mov r8, r8)
 800126c:	48000400 	.word	0x48000400

08001270 <setTankMotor>:
 8001270:	b530      	push	{r4, r5, lr}
 8001272:	4b31      	ldr	r3, [pc, #196]	@ (8001338 <setTankMotor+0xc8>)
 8001274:	b085      	sub	sp, #20
 8001276:	b201      	sxth	r1, r0
 8001278:	9003      	str	r0, [sp, #12]
 800127a:	7818      	ldrb	r0, [r3, #0]
 800127c:	f7ff fe70 	bl	8000f60 <setMotorSpeedBidirectional>
 8001280:	4b2e      	ldr	r3, [pc, #184]	@ (800133c <setTankMotor+0xcc>)
 8001282:	781d      	ldrb	r5, [r3, #0]
 8001284:	ab03      	add	r3, sp, #12
 8001286:	2102      	movs	r1, #2
 8001288:	5e59      	ldrsh	r1, [r3, r1]
 800128a:	000c      	movs	r4, r1
 800128c:	2909      	cmp	r1, #9
 800128e:	dc00      	bgt.n	8001292 <setTankMotor+0x22>
 8001290:	2400      	movs	r4, #0
 8001292:	4a2b      	ldr	r2, [pc, #172]	@ (8001340 <setTankMotor+0xd0>)
 8001294:	8813      	ldrh	r3, [r2, #0]
 8001296:	2000      	movs	r0, #0
 8001298:	5e12      	ldrsh	r2, [r2, r0]
 800129a:	0018      	movs	r0, r3
 800129c:	3809      	subs	r0, #9
 800129e:	4288      	cmp	r0, r1
 80012a0:	dc00      	bgt.n	80012a4 <setTankMotor+0x34>
 80012a2:	0014      	movs	r4, r2
 80012a4:	085b      	lsrs	r3, r3, #1
 80012a6:	1ae4      	subs	r4, r4, r3
 80012a8:	0064      	lsls	r4, r4, #1
 80012aa:	b224      	sxth	r4, r4
 80012ac:	17e3      	asrs	r3, r4, #31
 80012ae:	18e0      	adds	r0, r4, r3
 80012b0:	4058      	eors	r0, r3
 80012b2:	23fa      	movs	r3, #250	@ 0xfa
 80012b4:	009b      	lsls	r3, r3, #2
 80012b6:	2100      	movs	r1, #0
 80012b8:	9300      	str	r3, [sp, #0]
 80012ba:	b200      	sxth	r0, r0
 80012bc:	2300      	movs	r3, #0
 80012be:	f7ff fe3b 	bl	8000f38 <map>
 80012c2:	0001      	movs	r1, r0
 80012c4:	2c00      	cmp	r4, #0
 80012c6:	d00c      	beq.n	80012e2 <setTankMotor+0x72>
 80012c8:	43e2      	mvns	r2, r4
 80012ca:	0fd2      	lsrs	r2, r2, #31
 80012cc:	2d01      	cmp	r5, #1
 80012ce:	d026      	beq.n	800131e <setTankMotor+0xae>
 80012d0:	2d02      	cmp	r5, #2
 80012d2:	d02a      	beq.n	800132a <setTankMotor+0xba>
 80012d4:	2d00      	cmp	r5, #0
 80012d6:	d02b      	beq.n	8001330 <setTankMotor+0xc0>
 80012d8:	0028      	movs	r0, r5
 80012da:	f7ff ff75 	bl	80011c8 <setDriverSignals>
 80012de:	b005      	add	sp, #20
 80012e0:	bd30      	pop	{r4, r5, pc}
 80012e2:	2d01      	cmp	r5, #1
 80012e4:	d013      	beq.n	800130e <setTankMotor+0x9e>
 80012e6:	2d02      	cmp	r5, #2
 80012e8:	d009      	beq.n	80012fe <setTankMotor+0x8e>
 80012ea:	2d00      	cmp	r5, #0
 80012ec:	d1f7      	bne.n	80012de <setTankMotor+0x6e>
 80012ee:	2180      	movs	r1, #128	@ 0x80
 80012f0:	2090      	movs	r0, #144	@ 0x90
 80012f2:	2200      	movs	r2, #0
 80012f4:	0049      	lsls	r1, r1, #1
 80012f6:	05c0      	lsls	r0, r0, #23
 80012f8:	f7ff f8d8 	bl	80004ac <setDMApwmDuty>
 80012fc:	e7ef      	b.n	80012de <setTankMotor+0x6e>
 80012fe:	2180      	movs	r1, #128	@ 0x80
 8001300:	2090      	movs	r0, #144	@ 0x90
 8001302:	2200      	movs	r2, #0
 8001304:	00c9      	lsls	r1, r1, #3
 8001306:	05c0      	lsls	r0, r0, #23
 8001308:	f7ff f8d0 	bl	80004ac <setDMApwmDuty>
 800130c:	e7e7      	b.n	80012de <setTankMotor+0x6e>
 800130e:	2180      	movs	r1, #128	@ 0x80
 8001310:	2090      	movs	r0, #144	@ 0x90
 8001312:	2200      	movs	r2, #0
 8001314:	0089      	lsls	r1, r1, #2
 8001316:	05c0      	lsls	r0, r0, #23
 8001318:	f7ff f8c8 	bl	80004ac <setDMApwmDuty>
 800131c:	e7df      	b.n	80012de <setTankMotor+0x6e>
 800131e:	4b09      	ldr	r3, [pc, #36]	@ (8001344 <setTankMotor+0xd4>)
 8001320:	781b      	ldrb	r3, [r3, #0]
 8001322:	2b00      	cmp	r3, #0
 8001324:	d0d8      	beq.n	80012d8 <setTankMotor+0x68>
 8001326:	0fe2      	lsrs	r2, r4, #31
 8001328:	e7d6      	b.n	80012d8 <setTankMotor+0x68>
 800132a:	4b07      	ldr	r3, [pc, #28]	@ (8001348 <setTankMotor+0xd8>)
 800132c:	781b      	ldrb	r3, [r3, #0]
 800132e:	e7f8      	b.n	8001322 <setTankMotor+0xb2>
 8001330:	4b06      	ldr	r3, [pc, #24]	@ (800134c <setTankMotor+0xdc>)
 8001332:	781b      	ldrb	r3, [r3, #0]
 8001334:	e7f5      	b.n	8001322 <setTankMotor+0xb2>
 8001336:	46c0      	nop			@ (mov r8, r8)
 8001338:	20002163 	.word	0x20002163
 800133c:	20000009 	.word	0x20000009
 8001340:	080090ae 	.word	0x080090ae
 8001344:	2000000a 	.word	0x2000000a
 8001348:	20002166 	.word	0x20002166
 800134c:	2000000b 	.word	0x2000000b

08001350 <calculateSpeedWithDeadZoneDouble>:
 8001350:	0003      	movs	r3, r0
 8001352:	2809      	cmp	r0, #9
 8001354:	dc00      	bgt.n	8001358 <calculateSpeedWithDeadZoneDouble+0x8>
 8001356:	2000      	movs	r0, #0
 8001358:	4a03      	ldr	r2, [pc, #12]	@ (8001368 <calculateSpeedWithDeadZoneDouble+0x18>)
 800135a:	8812      	ldrh	r2, [r2, #0]
 800135c:	0011      	movs	r1, r2
 800135e:	3909      	subs	r1, #9
 8001360:	4299      	cmp	r1, r3
 8001362:	dc00      	bgt.n	8001366 <calculateSpeedWithDeadZoneDouble+0x16>
 8001364:	b210      	sxth	r0, r2
 8001366:	4770      	bx	lr
 8001368:	080090ae 	.word	0x080090ae

0800136c <makeSound>:
 800136c:	b570      	push	{r4, r5, r6, lr}
 800136e:	0004      	movs	r4, r0
 8001370:	000d      	movs	r5, r1
 8001372:	f001 fa49 	bl	8002808 <HAL_GetTick>
 8001376:	0006      	movs	r6, r0
 8001378:	2c01      	cmp	r4, #1
 800137a:	d058      	beq.n	800142e <makeSound+0xc2>
 800137c:	2c02      	cmp	r4, #2
 800137e:	d04f      	beq.n	8001420 <makeSound+0xb4>
 8001380:	2c00      	cmp	r4, #0
 8001382:	d046      	beq.n	8001412 <makeSound+0xa6>
 8001384:	19ad      	adds	r5, r5, r6
 8001386:	f001 fa3f 	bl	8002808 <HAL_GetTick>
 800138a:	42a8      	cmp	r0, r5
 800138c:	d814      	bhi.n	80013b8 <makeSound+0x4c>
 800138e:	2c01      	cmp	r4, #1
 8001390:	d030      	beq.n	80013f4 <makeSound+0x88>
 8001392:	2c02      	cmp	r4, #2
 8001394:	d117      	bne.n	80013c6 <makeSound+0x5a>
 8001396:	2180      	movs	r1, #128	@ 0x80
 8001398:	2201      	movs	r2, #1
 800139a:	0109      	lsls	r1, r1, #4
 800139c:	4832      	ldr	r0, [pc, #200]	@ (8001468 <makeSound+0xfc>)
 800139e:	f7ff f885 	bl	80004ac <setDMApwmDuty>
 80013a2:	2180      	movs	r1, #128	@ 0x80
 80013a4:	2090      	movs	r0, #144	@ 0x90
 80013a6:	2214      	movs	r2, #20
 80013a8:	00c9      	lsls	r1, r1, #3
 80013aa:	05c0      	lsls	r0, r0, #23
 80013ac:	f7ff f87e 	bl	80004ac <setDMApwmDuty>
 80013b0:	f001 fa2a 	bl	8002808 <HAL_GetTick>
 80013b4:	42a8      	cmp	r0, r5
 80013b6:	d9ea      	bls.n	800138e <makeSound+0x22>
 80013b8:	2c01      	cmp	r4, #1
 80013ba:	d04d      	beq.n	8001458 <makeSound+0xec>
 80013bc:	2c02      	cmp	r4, #2
 80013be:	d044      	beq.n	800144a <makeSound+0xde>
 80013c0:	2c00      	cmp	r4, #0
 80013c2:	d03b      	beq.n	800143c <makeSound+0xd0>
 80013c4:	bd70      	pop	{r4, r5, r6, pc}
 80013c6:	2c00      	cmp	r4, #0
 80013c8:	d005      	beq.n	80013d6 <makeSound+0x6a>
 80013ca:	f001 fa1d 	bl	8002808 <HAL_GetTick>
 80013ce:	42a8      	cmp	r0, r5
 80013d0:	d8f2      	bhi.n	80013b8 <makeSound+0x4c>
 80013d2:	2c00      	cmp	r4, #0
 80013d4:	d1f9      	bne.n	80013ca <makeSound+0x5e>
 80013d6:	22fa      	movs	r2, #250	@ 0xfa
 80013d8:	2180      	movs	r1, #128	@ 0x80
 80013da:	0092      	lsls	r2, r2, #2
 80013dc:	0209      	lsls	r1, r1, #8
 80013de:	4822      	ldr	r0, [pc, #136]	@ (8001468 <makeSound+0xfc>)
 80013e0:	f7ff f864 	bl	80004ac <setDMApwmDuty>
 80013e4:	2180      	movs	r1, #128	@ 0x80
 80013e6:	2090      	movs	r0, #144	@ 0x90
 80013e8:	2214      	movs	r2, #20
 80013ea:	0049      	lsls	r1, r1, #1
 80013ec:	05c0      	lsls	r0, r0, #23
 80013ee:	f7ff f85d 	bl	80004ac <setDMApwmDuty>
 80013f2:	e7c8      	b.n	8001386 <makeSound+0x1a>
 80013f4:	22fa      	movs	r2, #250	@ 0xfa
 80013f6:	2180      	movs	r1, #128	@ 0x80
 80013f8:	0092      	lsls	r2, r2, #2
 80013fa:	0189      	lsls	r1, r1, #6
 80013fc:	481a      	ldr	r0, [pc, #104]	@ (8001468 <makeSound+0xfc>)
 80013fe:	f7ff f855 	bl	80004ac <setDMApwmDuty>
 8001402:	2180      	movs	r1, #128	@ 0x80
 8001404:	2090      	movs	r0, #144	@ 0x90
 8001406:	2214      	movs	r2, #20
 8001408:	0089      	lsls	r1, r1, #2
 800140a:	05c0      	lsls	r0, r0, #23
 800140c:	f7ff f84e 	bl	80004ac <setDMApwmDuty>
 8001410:	e7b9      	b.n	8001386 <makeSound+0x1a>
 8001412:	2180      	movs	r1, #128	@ 0x80
 8001414:	2201      	movs	r2, #1
 8001416:	4814      	ldr	r0, [pc, #80]	@ (8001468 <makeSound+0xfc>)
 8001418:	01c9      	lsls	r1, r1, #7
 800141a:	f001 feb1 	bl	8003180 <HAL_GPIO_WritePin>
 800141e:	e7b1      	b.n	8001384 <makeSound+0x18>
 8001420:	2180      	movs	r1, #128	@ 0x80
 8001422:	2201      	movs	r2, #1
 8001424:	4810      	ldr	r0, [pc, #64]	@ (8001468 <makeSound+0xfc>)
 8001426:	00c9      	lsls	r1, r1, #3
 8001428:	f001 feaa 	bl	8003180 <HAL_GPIO_WritePin>
 800142c:	e7aa      	b.n	8001384 <makeSound+0x18>
 800142e:	2180      	movs	r1, #128	@ 0x80
 8001430:	2201      	movs	r2, #1
 8001432:	480d      	ldr	r0, [pc, #52]	@ (8001468 <makeSound+0xfc>)
 8001434:	0149      	lsls	r1, r1, #5
 8001436:	f001 fea3 	bl	8003180 <HAL_GPIO_WritePin>
 800143a:	e7a3      	b.n	8001384 <makeSound+0x18>
 800143c:	2180      	movs	r1, #128	@ 0x80
 800143e:	2200      	movs	r2, #0
 8001440:	4809      	ldr	r0, [pc, #36]	@ (8001468 <makeSound+0xfc>)
 8001442:	01c9      	lsls	r1, r1, #7
 8001444:	f001 fe9c 	bl	8003180 <HAL_GPIO_WritePin>
 8001448:	e7bc      	b.n	80013c4 <makeSound+0x58>
 800144a:	2180      	movs	r1, #128	@ 0x80
 800144c:	2200      	movs	r2, #0
 800144e:	4806      	ldr	r0, [pc, #24]	@ (8001468 <makeSound+0xfc>)
 8001450:	00c9      	lsls	r1, r1, #3
 8001452:	f001 fe95 	bl	8003180 <HAL_GPIO_WritePin>
 8001456:	e7b5      	b.n	80013c4 <makeSound+0x58>
 8001458:	2180      	movs	r1, #128	@ 0x80
 800145a:	2200      	movs	r2, #0
 800145c:	4802      	ldr	r0, [pc, #8]	@ (8001468 <makeSound+0xfc>)
 800145e:	0149      	lsls	r1, r1, #5
 8001460:	f001 fe8e 	bl	8003180 <HAL_GPIO_WritePin>
 8001464:	e7ae      	b.n	80013c4 <makeSound+0x58>
 8001466:	46c0      	nop			@ (mov r8, r8)
 8001468:	48000400 	.word	0x48000400

0800146c <disableMotor>:
 800146c:	b510      	push	{r4, lr}
 800146e:	2801      	cmp	r0, #1
 8001470:	d004      	beq.n	800147c <disableMotor+0x10>
 8001472:	2802      	cmp	r0, #2
 8001474:	d010      	beq.n	8001498 <disableMotor+0x2c>
 8001476:	2800      	cmp	r0, #0
 8001478:	d007      	beq.n	800148a <disableMotor+0x1e>
 800147a:	bd10      	pop	{r4, pc}
 800147c:	2180      	movs	r1, #128	@ 0x80
 800147e:	2200      	movs	r2, #0
 8001480:	4809      	ldr	r0, [pc, #36]	@ (80014a8 <disableMotor+0x3c>)
 8001482:	0149      	lsls	r1, r1, #5
 8001484:	f001 fe7c 	bl	8003180 <HAL_GPIO_WritePin>
 8001488:	e7f7      	b.n	800147a <disableMotor+0xe>
 800148a:	2180      	movs	r1, #128	@ 0x80
 800148c:	2200      	movs	r2, #0
 800148e:	4806      	ldr	r0, [pc, #24]	@ (80014a8 <disableMotor+0x3c>)
 8001490:	01c9      	lsls	r1, r1, #7
 8001492:	f001 fe75 	bl	8003180 <HAL_GPIO_WritePin>
 8001496:	e7f0      	b.n	800147a <disableMotor+0xe>
 8001498:	2180      	movs	r1, #128	@ 0x80
 800149a:	2200      	movs	r2, #0
 800149c:	4802      	ldr	r0, [pc, #8]	@ (80014a8 <disableMotor+0x3c>)
 800149e:	00c9      	lsls	r1, r1, #3
 80014a0:	f001 fe6e 	bl	8003180 <HAL_GPIO_WritePin>
 80014a4:	e7e9      	b.n	800147a <disableMotor+0xe>
 80014a6:	46c0      	nop			@ (mov r8, r8)
 80014a8:	48000400 	.word	0x48000400

080014ac <enableMotor>:
 80014ac:	b510      	push	{r4, lr}
 80014ae:	2801      	cmp	r0, #1
 80014b0:	d004      	beq.n	80014bc <enableMotor+0x10>
 80014b2:	2802      	cmp	r0, #2
 80014b4:	d010      	beq.n	80014d8 <enableMotor+0x2c>
 80014b6:	2800      	cmp	r0, #0
 80014b8:	d007      	beq.n	80014ca <enableMotor+0x1e>
 80014ba:	bd10      	pop	{r4, pc}
 80014bc:	2180      	movs	r1, #128	@ 0x80
 80014be:	2201      	movs	r2, #1
 80014c0:	4809      	ldr	r0, [pc, #36]	@ (80014e8 <enableMotor+0x3c>)
 80014c2:	0149      	lsls	r1, r1, #5
 80014c4:	f001 fe5c 	bl	8003180 <HAL_GPIO_WritePin>
 80014c8:	e7f7      	b.n	80014ba <enableMotor+0xe>
 80014ca:	2180      	movs	r1, #128	@ 0x80
 80014cc:	2201      	movs	r2, #1
 80014ce:	4806      	ldr	r0, [pc, #24]	@ (80014e8 <enableMotor+0x3c>)
 80014d0:	01c9      	lsls	r1, r1, #7
 80014d2:	f001 fe55 	bl	8003180 <HAL_GPIO_WritePin>
 80014d6:	e7f0      	b.n	80014ba <enableMotor+0xe>
 80014d8:	2180      	movs	r1, #128	@ 0x80
 80014da:	2201      	movs	r2, #1
 80014dc:	4802      	ldr	r0, [pc, #8]	@ (80014e8 <enableMotor+0x3c>)
 80014de:	00c9      	lsls	r1, r1, #3
 80014e0:	f001 fe4e 	bl	8003180 <HAL_GPIO_WritePin>
 80014e4:	e7e9      	b.n	80014ba <enableMotor+0xe>
 80014e6:	46c0      	nop			@ (mov r8, r8)
 80014e8:	48000400 	.word	0x48000400

080014ec <getChannelValuePercentage>:
 80014ec:	4b0c      	ldr	r3, [pc, #48]	@ (8001520 <getChannelValuePercentage+0x34>)
 80014ee:	b570      	push	{r4, r5, r6, lr}
 80014f0:	881d      	ldrh	r5, [r3, #0]
 80014f2:	4b0c      	ldr	r3, [pc, #48]	@ (8001524 <getChannelValuePercentage+0x38>)
 80014f4:	0040      	lsls	r0, r0, #1
 80014f6:	5ac4      	ldrh	r4, [r0, r3]
 80014f8:	4b0b      	ldr	r3, [pc, #44]	@ (8001528 <getChannelValuePercentage+0x3c>)
 80014fa:	20fa      	movs	r0, #250	@ 0xfa
 80014fc:	469c      	mov	ip, r3
 80014fe:	0029      	movs	r1, r5
 8001500:	0080      	lsls	r0, r0, #2
 8001502:	4464      	add	r4, ip
 8001504:	f7fe fe9c 	bl	8000240 <__divsi3>
 8001508:	0001      	movs	r1, r0
 800150a:	0020      	movs	r0, r4
 800150c:	f7fe fe98 	bl	8000240 <__divsi3>
 8001510:	43c3      	mvns	r3, r0
 8001512:	17db      	asrs	r3, r3, #31
 8001514:	4018      	ands	r0, r3
 8001516:	42a8      	cmp	r0, r5
 8001518:	dd00      	ble.n	800151c <getChannelValuePercentage+0x30>
 800151a:	0028      	movs	r0, r5
 800151c:	b280      	uxth	r0, r0
 800151e:	bd70      	pop	{r4, r5, r6, pc}
 8001520:	080090ae 	.word	0x080090ae
 8001524:	200023fc 	.word	0x200023fc
 8001528:	fffffc18 	.word	0xfffffc18

0800152c <initReciever>:
 800152c:	b510      	push	{r4, lr}
 800152e:	f004 f8e3 	bl	80056f8 <HAL_TIM_Base_Start>
 8001532:	bd10      	pop	{r4, pc}

08001534 <HAL_GPIO_EXTI_Callback>:
 8001534:	4b4e      	ldr	r3, [pc, #312]	@ (8001670 <HAL_GPIO_EXTI_Callback+0x13c>)
 8001536:	b570      	push	{r4, r5, r6, lr}
 8001538:	681b      	ldr	r3, [r3, #0]
 800153a:	0004      	movs	r4, r0
 800153c:	2b00      	cmp	r3, #0
 800153e:	d014      	beq.n	800156a <HAL_GPIO_EXTI_Callback+0x36>
 8001540:	2801      	cmp	r0, #1
 8001542:	d043      	beq.n	80015cc <HAL_GPIO_EXTI_Callback+0x98>
 8001544:	4b4b      	ldr	r3, [pc, #300]	@ (8001674 <HAL_GPIO_EXTI_Callback+0x140>)
 8001546:	781b      	ldrb	r3, [r3, #0]
 8001548:	2b00      	cmp	r3, #0
 800154a:	d02e      	beq.n	80015aa <HAL_GPIO_EXTI_Callback+0x76>
 800154c:	2802      	cmp	r0, #2
 800154e:	d056      	beq.n	80015fe <HAL_GPIO_EXTI_Callback+0xca>
 8001550:	2804      	cmp	r0, #4
 8001552:	d04b      	beq.n	80015ec <HAL_GPIO_EXTI_Callback+0xb8>
 8001554:	2808      	cmp	r0, #8
 8001556:	d107      	bne.n	8001568 <HAL_GPIO_EXTI_Callback+0x34>
 8001558:	4b47      	ldr	r3, [pc, #284]	@ (8001678 <HAL_GPIO_EXTI_Callback+0x144>)
 800155a:	4a48      	ldr	r2, [pc, #288]	@ (800167c <HAL_GPIO_EXTI_Callback+0x148>)
 800155c:	681b      	ldr	r3, [r3, #0]
 800155e:	6a5b      	ldr	r3, [r3, #36]	@ 0x24
 8001560:	b29b      	uxth	r3, r3
 8001562:	8013      	strh	r3, [r2, #0]
 8001564:	4a46      	ldr	r2, [pc, #280]	@ (8001680 <HAL_GPIO_EXTI_Callback+0x14c>)
 8001566:	8113      	strh	r3, [r2, #8]
 8001568:	bd70      	pop	{r4, r5, r6, pc}
 800156a:	2801      	cmp	r0, #1
 800156c:	d1fc      	bne.n	8001568 <HAL_GPIO_EXTI_Callback+0x34>
 800156e:	2101      	movs	r1, #1
 8001570:	4844      	ldr	r0, [pc, #272]	@ (8001684 <HAL_GPIO_EXTI_Callback+0x150>)
 8001572:	f001 fdff 	bl	8003174 <HAL_GPIO_ReadPin>
 8001576:	2800      	cmp	r0, #0
 8001578:	d1f6      	bne.n	8001568 <HAL_GPIO_EXTI_Callback+0x34>
 800157a:	4b3f      	ldr	r3, [pc, #252]	@ (8001678 <HAL_GPIO_EXTI_Callback+0x144>)
 800157c:	493f      	ldr	r1, [pc, #252]	@ (800167c <HAL_GPIO_EXTI_Callback+0x148>)
 800157e:	681a      	ldr	r2, [r3, #0]
 8001580:	6a53      	ldr	r3, [r2, #36]	@ 0x24
 8001582:	6250      	str	r0, [r2, #36]	@ 0x24
 8001584:	085b      	lsrs	r3, r3, #1
 8001586:	4a40      	ldr	r2, [pc, #256]	@ (8001688 <HAL_GPIO_EXTI_Callback+0x154>)
 8001588:	b29b      	uxth	r3, r3
 800158a:	800b      	strh	r3, [r1, #0]
 800158c:	4293      	cmp	r3, r2
 800158e:	d85b      	bhi.n	8001648 <HAL_GPIO_EXTI_Callback+0x114>
 8001590:	493e      	ldr	r1, [pc, #248]	@ (800168c <HAL_GPIO_EXTI_Callback+0x158>)
 8001592:	780a      	ldrb	r2, [r1, #0]
 8001594:	2a00      	cmp	r2, #0
 8001596:	d0e7      	beq.n	8001568 <HAL_GPIO_EXTI_Callback+0x34>
 8001598:	0055      	lsls	r5, r2, #1
 800159a:	4c39      	ldr	r4, [pc, #228]	@ (8001680 <HAL_GPIO_EXTI_Callback+0x14c>)
 800159c:	3201      	adds	r2, #1
 800159e:	b2d2      	uxtb	r2, r2
 80015a0:	532b      	strh	r3, [r5, r4]
 80015a2:	2a08      	cmp	r2, #8
 80015a4:	d861      	bhi.n	800166a <HAL_GPIO_EXTI_Callback+0x136>
 80015a6:	700a      	strb	r2, [r1, #0]
 80015a8:	e7de      	b.n	8001568 <HAL_GPIO_EXTI_Callback+0x34>
 80015aa:	2802      	cmp	r0, #2
 80015ac:	d041      	beq.n	8001632 <HAL_GPIO_EXTI_Callback+0xfe>
 80015ae:	2804      	cmp	r0, #4
 80015b0:	d12e      	bne.n	8001610 <HAL_GPIO_EXTI_Callback+0xdc>
 80015b2:	4b31      	ldr	r3, [pc, #196]	@ (8001678 <HAL_GPIO_EXTI_Callback+0x144>)
 80015b4:	4a31      	ldr	r2, [pc, #196]	@ (800167c <HAL_GPIO_EXTI_Callback+0x148>)
 80015b6:	681b      	ldr	r3, [r3, #0]
 80015b8:	6a5b      	ldr	r3, [r3, #36]	@ 0x24
 80015ba:	b29b      	uxth	r3, r3
 80015bc:	8013      	strh	r3, [r2, #0]
 80015be:	4a30      	ldr	r2, [pc, #192]	@ (8001680 <HAL_GPIO_EXTI_Callback+0x14c>)
 80015c0:	8851      	ldrh	r1, [r2, #2]
 80015c2:	8890      	ldrh	r0, [r2, #4]
 80015c4:	1809      	adds	r1, r1, r0
 80015c6:	1a5b      	subs	r3, r3, r1
 80015c8:	80d3      	strh	r3, [r2, #6]
 80015ca:	e7cd      	b.n	8001568 <HAL_GPIO_EXTI_Callback+0x34>
 80015cc:	2101      	movs	r1, #1
 80015ce:	482d      	ldr	r0, [pc, #180]	@ (8001684 <HAL_GPIO_EXTI_Callback+0x150>)
 80015d0:	f001 fdd0 	bl	8003174 <HAL_GPIO_ReadPin>
 80015d4:	2801      	cmp	r0, #1
 80015d6:	d03c      	beq.n	8001652 <HAL_GPIO_EXTI_Callback+0x11e>
 80015d8:	4b27      	ldr	r3, [pc, #156]	@ (8001678 <HAL_GPIO_EXTI_Callback+0x144>)
 80015da:	4a28      	ldr	r2, [pc, #160]	@ (800167c <HAL_GPIO_EXTI_Callback+0x148>)
 80015dc:	681b      	ldr	r3, [r3, #0]
 80015de:	6a5b      	ldr	r3, [r3, #36]	@ 0x24
 80015e0:	085b      	lsrs	r3, r3, #1
 80015e2:	b29b      	uxth	r3, r3
 80015e4:	8013      	strh	r3, [r2, #0]
 80015e6:	4a26      	ldr	r2, [pc, #152]	@ (8001680 <HAL_GPIO_EXTI_Callback+0x14c>)
 80015e8:	8053      	strh	r3, [r2, #2]
 80015ea:	e7bd      	b.n	8001568 <HAL_GPIO_EXTI_Callback+0x34>
 80015ec:	4b22      	ldr	r3, [pc, #136]	@ (8001678 <HAL_GPIO_EXTI_Callback+0x144>)
 80015ee:	4a23      	ldr	r2, [pc, #140]	@ (800167c <HAL_GPIO_EXTI_Callback+0x148>)
 80015f0:	681b      	ldr	r3, [r3, #0]
 80015f2:	6a5b      	ldr	r3, [r3, #36]	@ 0x24
 80015f4:	b29b      	uxth	r3, r3
 80015f6:	8013      	strh	r3, [r2, #0]
 80015f8:	4a21      	ldr	r2, [pc, #132]	@ (8001680 <HAL_GPIO_EXTI_Callback+0x14c>)
 80015fa:	80d3      	strh	r3, [r2, #6]
 80015fc:	e7b4      	b.n	8001568 <HAL_GPIO_EXTI_Callback+0x34>
 80015fe:	4b1e      	ldr	r3, [pc, #120]	@ (8001678 <HAL_GPIO_EXTI_Callback+0x144>)
 8001600:	4a1e      	ldr	r2, [pc, #120]	@ (800167c <HAL_GPIO_EXTI_Callback+0x148>)
 8001602:	681b      	ldr	r3, [r3, #0]
 8001604:	6a5b      	ldr	r3, [r3, #36]	@ 0x24
 8001606:	b29b      	uxth	r3, r3
 8001608:	8013      	strh	r3, [r2, #0]
 800160a:	4a1d      	ldr	r2, [pc, #116]	@ (8001680 <HAL_GPIO_EXTI_Callback+0x14c>)
 800160c:	8093      	strh	r3, [r2, #4]
 800160e:	e7ab      	b.n	8001568 <HAL_GPIO_EXTI_Callback+0x34>
 8001610:	2808      	cmp	r0, #8
 8001612:	d1a9      	bne.n	8001568 <HAL_GPIO_EXTI_Callback+0x34>
 8001614:	4b18      	ldr	r3, [pc, #96]	@ (8001678 <HAL_GPIO_EXTI_Callback+0x144>)
 8001616:	4a19      	ldr	r2, [pc, #100]	@ (800167c <HAL_GPIO_EXTI_Callback+0x148>)
 8001618:	681b      	ldr	r3, [r3, #0]
 800161a:	4919      	ldr	r1, [pc, #100]	@ (8001680 <HAL_GPIO_EXTI_Callback+0x14c>)
 800161c:	6a5b      	ldr	r3, [r3, #36]	@ 0x24
 800161e:	b29b      	uxth	r3, r3
 8001620:	8013      	strh	r3, [r2, #0]
 8001622:	8888      	ldrh	r0, [r1, #4]
 8001624:	884a      	ldrh	r2, [r1, #2]
 8001626:	1812      	adds	r2, r2, r0
 8001628:	88c8      	ldrh	r0, [r1, #6]
 800162a:	1812      	adds	r2, r2, r0
 800162c:	1a9b      	subs	r3, r3, r2
 800162e:	810b      	strh	r3, [r1, #8]
 8001630:	e79a      	b.n	8001568 <HAL_GPIO_EXTI_Callback+0x34>
 8001632:	4b11      	ldr	r3, [pc, #68]	@ (8001678 <HAL_GPIO_EXTI_Callback+0x144>)
 8001634:	4a11      	ldr	r2, [pc, #68]	@ (800167c <HAL_GPIO_EXTI_Callback+0x148>)
 8001636:	681b      	ldr	r3, [r3, #0]
 8001638:	6a5b      	ldr	r3, [r3, #36]	@ 0x24
 800163a:	b29b      	uxth	r3, r3
 800163c:	8013      	strh	r3, [r2, #0]
 800163e:	4a10      	ldr	r2, [pc, #64]	@ (8001680 <HAL_GPIO_EXTI_Callback+0x14c>)
 8001640:	8851      	ldrh	r1, [r2, #2]
 8001642:	1a5b      	subs	r3, r3, r1
 8001644:	8093      	strh	r3, [r2, #4]
 8001646:	e78f      	b.n	8001568 <HAL_GPIO_EXTI_Callback+0x34>
 8001648:	4a0d      	ldr	r2, [pc, #52]	@ (8001680 <HAL_GPIO_EXTI_Callback+0x14c>)
 800164a:	8013      	strh	r3, [r2, #0]
 800164c:	4b0f      	ldr	r3, [pc, #60]	@ (800168c <HAL_GPIO_EXTI_Callback+0x158>)
 800164e:	701c      	strb	r4, [r3, #0]
 8001650:	e78a      	b.n	8001568 <HAL_GPIO_EXTI_Callback+0x34>
 8001652:	2300      	movs	r3, #0
 8001654:	4a08      	ldr	r2, [pc, #32]	@ (8001678 <HAL_GPIO_EXTI_Callback+0x144>)
 8001656:	4c07      	ldr	r4, [pc, #28]	@ (8001674 <HAL_GPIO_EXTI_Callback+0x140>)
 8001658:	6812      	ldr	r2, [r2, #0]
 800165a:	2102      	movs	r1, #2
 800165c:	4809      	ldr	r0, [pc, #36]	@ (8001684 <HAL_GPIO_EXTI_Callback+0x150>)
 800165e:	6253      	str	r3, [r2, #36]	@ 0x24
 8001660:	7023      	strb	r3, [r4, #0]
 8001662:	f001 fd87 	bl	8003174 <HAL_GPIO_ReadPin>
 8001666:	7020      	strb	r0, [r4, #0]
 8001668:	e77e      	b.n	8001568 <HAL_GPIO_EXTI_Callback+0x34>
 800166a:	7008      	strb	r0, [r1, #0]
 800166c:	e77c      	b.n	8001568 <HAL_GPIO_EXTI_Callback+0x34>
 800166e:	46c0      	nop			@ (mov r8, r8)
 8001670:	20000000 	.word	0x20000000
 8001674:	200023f8 	.word	0x200023f8
 8001678:	2000228c 	.word	0x2000228c
 800167c:	2000240e 	.word	0x2000240e
 8001680:	200023fc 	.word	0x200023fc
 8001684:	48000400 	.word	0x48000400
 8001688:	00001194 	.word	0x00001194
 800168c:	20000012 	.word	0x20000012

08001690 <tankMix>:
 8001690:	4b15      	ldr	r3, [pc, #84]	@ (80016e8 <tankMix+0x58>)
 8001692:	b510      	push	{r4, lr}
 8001694:	881a      	ldrh	r2, [r3, #0]
 8001696:	b082      	sub	sp, #8
 8001698:	0854      	lsrs	r4, r2, #1
 800169a:	1b03      	subs	r3, r0, r4
 800169c:	1b09      	subs	r1, r1, r4
 800169e:	005b      	lsls	r3, r3, #1
 80016a0:	0049      	lsls	r1, r1, #1
 80016a2:	b29b      	uxth	r3, r3
 80016a4:	b289      	uxth	r1, r1
 80016a6:	1ac8      	subs	r0, r1, r3
 80016a8:	185b      	adds	r3, r3, r1
 80016aa:	b21b      	sxth	r3, r3
 80016ac:	b200      	sxth	r0, r0
 80016ae:	4293      	cmp	r3, r2
 80016b0:	dd00      	ble.n	80016b4 <tankMix+0x24>
 80016b2:	b213      	sxth	r3, r2
 80016b4:	4254      	negs	r4, r2
 80016b6:	429c      	cmp	r4, r3
 80016b8:	dd00      	ble.n	80016bc <tankMix+0x2c>
 80016ba:	b223      	sxth	r3, r4
 80016bc:	0001      	movs	r1, r0
 80016be:	4282      	cmp	r2, r0
 80016c0:	da0d      	bge.n	80016de <tankMix+0x4e>
 80016c2:	0011      	movs	r1, r2
 80016c4:	18d3      	adds	r3, r2, r3
 80016c6:	0fd8      	lsrs	r0, r3, #31
 80016c8:	1852      	adds	r2, r2, r1
 80016ca:	18c0      	adds	r0, r0, r3
 80016cc:	0fd3      	lsrs	r3, r2, #31
 80016ce:	189b      	adds	r3, r3, r2
 80016d0:	105b      	asrs	r3, r3, #1
 80016d2:	03c0      	lsls	r0, r0, #15
 80016d4:	041b      	lsls	r3, r3, #16
 80016d6:	0c00      	lsrs	r0, r0, #16
 80016d8:	4318      	orrs	r0, r3
 80016da:	b002      	add	sp, #8
 80016dc:	bd10      	pop	{r4, pc}
 80016de:	4284      	cmp	r4, r0
 80016e0:	ddf0      	ble.n	80016c4 <tankMix+0x34>
 80016e2:	b221      	sxth	r1, r4
 80016e4:	e7ee      	b.n	80016c4 <tankMix+0x34>
 80016e6:	46c0      	nop			@ (mov r8, r8)
 80016e8:	080090ae 	.word	0x080090ae

080016ec <setServoAngle>:
 80016ec:	b510      	push	{r4, lr}
 80016ee:	0004      	movs	r4, r0
 80016f0:	b082      	sub	sp, #8
 80016f2:	b208      	sxth	r0, r1
 80016f4:	f7ff fe2c 	bl	8001350 <calculateSpeedWithDeadZoneDouble>
 80016f8:	4b1b      	ldr	r3, [pc, #108]	@ (8001768 <setServoAngle+0x7c>)
 80016fa:	1c01      	adds	r1, r0, #0
 80016fc:	881a      	ldrh	r2, [r3, #0]
 80016fe:	b280      	uxth	r0, r0
 8001700:	4290      	cmp	r0, r2
 8001702:	d900      	bls.n	8001706 <setServoAngle+0x1a>
 8001704:	1c11      	adds	r1, r2, #0
 8001706:	b289      	uxth	r1, r1
 8001708:	2c00      	cmp	r4, #0
 800170a:	d017      	beq.n	800173c <setServoAngle+0x50>
 800170c:	2c01      	cmp	r4, #1
 800170e:	d113      	bne.n	8001738 <setServoAngle+0x4c>
 8001710:	4b16      	ldr	r3, [pc, #88]	@ (800176c <setServoAngle+0x80>)
 8001712:	781b      	ldrb	r3, [r3, #0]
 8001714:	2b00      	cmp	r3, #0
 8001716:	d001      	beq.n	800171c <setServoAngle+0x30>
 8001718:	1a51      	subs	r1, r2, r1
 800171a:	b289      	uxth	r1, r1
 800171c:	2396      	movs	r3, #150	@ 0x96
 800171e:	011b      	lsls	r3, r3, #4
 8001720:	9300      	str	r3, [sp, #0]
 8001722:	2388      	movs	r3, #136	@ 0x88
 8001724:	b208      	sxth	r0, r1
 8001726:	009b      	lsls	r3, r3, #2
 8001728:	2100      	movs	r1, #0
 800172a:	b212      	sxth	r2, r2
 800172c:	f7ff fc04 	bl	8000f38 <map>
 8001730:	4b0f      	ldr	r3, [pc, #60]	@ (8001770 <setServoAngle+0x84>)
 8001732:	b280      	uxth	r0, r0
 8001734:	0040      	lsls	r0, r0, #1
 8001736:	6358      	str	r0, [r3, #52]	@ 0x34
 8001738:	b002      	add	sp, #8
 800173a:	bd10      	pop	{r4, pc}
 800173c:	4b0d      	ldr	r3, [pc, #52]	@ (8001774 <setServoAngle+0x88>)
 800173e:	781b      	ldrb	r3, [r3, #0]
 8001740:	2b00      	cmp	r3, #0
 8001742:	d001      	beq.n	8001748 <setServoAngle+0x5c>
 8001744:	1a51      	subs	r1, r2, r1
 8001746:	b289      	uxth	r1, r1
 8001748:	23fa      	movs	r3, #250	@ 0xfa
 800174a:	00db      	lsls	r3, r3, #3
 800174c:	9300      	str	r3, [sp, #0]
 800174e:	23fa      	movs	r3, #250	@ 0xfa
 8001750:	b208      	sxth	r0, r1
 8001752:	009b      	lsls	r3, r3, #2
 8001754:	2100      	movs	r1, #0
 8001756:	b212      	sxth	r2, r2
 8001758:	f7ff fbee 	bl	8000f38 <map>
 800175c:	4b06      	ldr	r3, [pc, #24]	@ (8001778 <setServoAngle+0x8c>)
 800175e:	b280      	uxth	r0, r0
 8001760:	0040      	lsls	r0, r0, #1
 8001762:	6358      	str	r0, [r3, #52]	@ 0x34
 8001764:	e7e8      	b.n	8001738 <setServoAngle+0x4c>
 8001766:	46c0      	nop			@ (mov r8, r8)
 8001768:	080090ae 	.word	0x080090ae
 800176c:	20002164 	.word	0x20002164
 8001770:	40014800 	.word	0x40014800
 8001774:	20002165 	.word	0x20002165
 8001778:	40014400 	.word	0x40014400

0800177c <setServoIsEnable>:
 800177c:	0003      	movs	r3, r0
 800177e:	b510      	push	{r4, lr}
 8001780:	0008      	movs	r0, r1
 8001782:	2100      	movs	r1, #0
 8001784:	2b01      	cmp	r3, #1
 8001786:	d002      	beq.n	800178e <setServoIsEnable+0x12>
 8001788:	f004 fa68 	bl	8005c5c <HAL_TIMEx_PWMN_Stop>
 800178c:	bd10      	pop	{r4, pc}
 800178e:	f004 fa1d 	bl	8005bcc <HAL_TIMEx_PWMN_Start>
 8001792:	e7fb      	b.n	800178c <setServoIsEnable+0x10>

08001794 <decodeCommand>:
 8001794:	b5f0      	push	{r4, r5, r6, r7, lr}
 8001796:	b087      	sub	sp, #28
 8001798:	af00      	add	r7, sp, #0
 800179a:	0005      	movs	r5, r0
 800179c:	0008      	movs	r0, r1
 800179e:	000e      	movs	r6, r1
 80017a0:	f7fe fcb2 	bl	8000108 <strlen>
 80017a4:	4669      	mov	r1, sp
 80017a6:	1dc3      	adds	r3, r0, #7
 80017a8:	08db      	lsrs	r3, r3, #3
 80017aa:	00db      	lsls	r3, r3, #3
 80017ac:	1acb      	subs	r3, r1, r3
 80017ae:	469d      	mov	sp, r3
 80017b0:	0002      	movs	r2, r0
 80017b2:	466c      	mov	r4, sp
 80017b4:	3201      	adds	r2, #1
 80017b6:	0031      	movs	r1, r6
 80017b8:	4668      	mov	r0, sp
 80017ba:	f006 fc44 	bl	8008046 <memcpy>
 80017be:	7823      	ldrb	r3, [r4, #0]
 80017c0:	466a      	mov	r2, sp
 80017c2:	2b00      	cmp	r3, #0
 80017c4:	d009      	beq.n	80017da <decodeCommand+0x46>
 80017c6:	4669      	mov	r1, sp
 80017c8:	7013      	strb	r3, [r2, #0]
 80017ca:	3b20      	subs	r3, #32
 80017cc:	1e58      	subs	r0, r3, #1
 80017ce:	4183      	sbcs	r3, r0
 80017d0:	3101      	adds	r1, #1
 80017d2:	18d2      	adds	r2, r2, r3
 80017d4:	780b      	ldrb	r3, [r1, #0]
 80017d6:	2b00      	cmp	r3, #0
 80017d8:	d1f6      	bne.n	80017c8 <decodeCommand+0x34>
 80017da:	2300      	movs	r3, #0
 80017dc:	7013      	strb	r3, [r2, #0]
 80017de:	7823      	ldrb	r3, [r4, #0]
 80017e0:	0022      	movs	r2, r4
 80017e2:	2b00      	cmp	r3, #0
 80017e4:	d009      	beq.n	80017fa <decodeCommand+0x66>
 80017e6:	0021      	movs	r1, r4
 80017e8:	7013      	strb	r3, [r2, #0]
 80017ea:	3b0a      	subs	r3, #10
 80017ec:	1e58      	subs	r0, r3, #1
 80017ee:	4183      	sbcs	r3, r0
 80017f0:	3101      	adds	r1, #1
 80017f2:	18d2      	adds	r2, r2, r3
 80017f4:	780b      	ldrb	r3, [r1, #0]
 80017f6:	2b00      	cmp	r3, #0
 80017f8:	d1f6      	bne.n	80017e8 <decodeCommand+0x54>
 80017fa:	2300      	movs	r3, #0
 80017fc:	4e0d      	ldr	r6, [pc, #52]	@ (8001834 <decodeCommand+0xa0>)
 80017fe:	7013      	strb	r3, [r2, #0]
 8001800:	0031      	movs	r1, r6
 8001802:	0020      	movs	r0, r4
 8001804:	f006 fb3c 	bl	8007e80 <strtok>
 8001808:	0001      	movs	r1, r0
 800180a:	1d38      	adds	r0, r7, #4
 800180c:	f006 fc13 	bl	8008036 <strcpy>
 8001810:	0031      	movs	r1, r6
 8001812:	2000      	movs	r0, #0
 8001814:	f006 fb34 	bl	8007e80 <strtok>
 8001818:	230e      	movs	r3, #14
 800181a:	0001      	movs	r1, r0
 800181c:	18f8      	adds	r0, r7, r3
 800181e:	f006 fc0a 	bl	8008036 <strcpy>
 8001822:	2214      	movs	r2, #20
 8001824:	0028      	movs	r0, r5
 8001826:	1d39      	adds	r1, r7, #4
 8001828:	f006 fc0d 	bl	8008046 <memcpy>
 800182c:	0028      	movs	r0, r5
 800182e:	46bd      	mov	sp, r7
 8001830:	b007      	add	sp, #28
 8001832:	bdf0      	pop	{r4, r5, r6, r7, pc}
 8001834:	080090b0 	.word	0x080090b0

08001838 <serialPrintString>:
 8001838:	b510      	push	{r4, lr}
 800183a:	0004      	movs	r4, r0
 800183c:	f7fe fc64 	bl	8000108 <strlen>
 8001840:	b281      	uxth	r1, r0
 8001842:	0020      	movs	r0, r4
 8001844:	f005 fee0 	bl	8007608 <CDC_Transmit_FS>
 8001848:	bd10      	pop	{r4, pc}
 800184a:	46c0      	nop			@ (mov r8, r8)

0800184c <storeSettingsToEeprom>:
 800184c:	b5f0      	push	{r4, r5, r6, r7, lr}
 800184e:	46ce      	mov	lr, r9
 8001850:	4647      	mov	r7, r8
 8001852:	b580      	push	{r7, lr}
 8001854:	4a48      	ldr	r2, [pc, #288]	@ (8001978 <storeSettingsToEeprom+0x12c>)
 8001856:	4b49      	ldr	r3, [pc, #292]	@ (800197c <storeSettingsToEeprom+0x130>)
 8001858:	7812      	ldrb	r2, [r2, #0]
 800185a:	781b      	ldrb	r3, [r3, #0]
 800185c:	0212      	lsls	r2, r2, #8
 800185e:	4948      	ldr	r1, [pc, #288]	@ (8001980 <storeSettingsToEeprom+0x134>)
 8001860:	4313      	orrs	r3, r2
 8001862:	4a48      	ldr	r2, [pc, #288]	@ (8001984 <storeSettingsToEeprom+0x138>)
 8001864:	7809      	ldrb	r1, [r1, #0]
 8001866:	7812      	ldrb	r2, [r2, #0]
 8001868:	0409      	lsls	r1, r1, #16
 800186a:	0612      	lsls	r2, r2, #24
 800186c:	430b      	orrs	r3, r1
 800186e:	b08b      	sub	sp, #44	@ 0x2c
 8001870:	4313      	orrs	r3, r2
 8001872:	9306      	str	r3, [sp, #24]
 8001874:	4b44      	ldr	r3, [pc, #272]	@ (8001988 <storeSettingsToEeprom+0x13c>)
 8001876:	ad05      	add	r5, sp, #20
 8001878:	781b      	ldrb	r3, [r3, #0]
 800187a:	4944      	ldr	r1, [pc, #272]	@ (800198c <storeSettingsToEeprom+0x140>)
 800187c:	722b      	strb	r3, [r5, #8]
 800187e:	4b44      	ldr	r3, [pc, #272]	@ (8001990 <storeSettingsToEeprom+0x144>)
 8001880:	4a44      	ldr	r2, [pc, #272]	@ (8001994 <storeSettingsToEeprom+0x148>)
 8001882:	781b      	ldrb	r3, [r3, #0]
 8001884:	7809      	ldrb	r1, [r1, #0]
 8001886:	7812      	ldrb	r2, [r2, #0]
 8001888:	726b      	strb	r3, [r5, #9]
 800188a:	4b43      	ldr	r3, [pc, #268]	@ (8001998 <storeSettingsToEeprom+0x14c>)
 800188c:	0209      	lsls	r1, r1, #8
 800188e:	4c43      	ldr	r4, [pc, #268]	@ (800199c <storeSettingsToEeprom+0x150>)
 8001890:	781b      	ldrb	r3, [r3, #0]
 8001892:	430a      	orrs	r2, r1
 8001894:	4942      	ldr	r1, [pc, #264]	@ (80019a0 <storeSettingsToEeprom+0x154>)
 8001896:	7824      	ldrb	r4, [r4, #0]
 8001898:	7809      	ldrb	r1, [r1, #0]
 800189a:	72ab      	strb	r3, [r5, #10]
 800189c:	4b41      	ldr	r3, [pc, #260]	@ (80019a4 <storeSettingsToEeprom+0x158>)
 800189e:	0424      	lsls	r4, r4, #16
 80018a0:	0609      	lsls	r1, r1, #24
 80018a2:	4322      	orrs	r2, r4
 80018a4:	781b      	ldrb	r3, [r3, #0]
 80018a6:	430a      	orrs	r2, r1
 80018a8:	2000      	movs	r0, #0
 80018aa:	9205      	str	r2, [sp, #20]
 80018ac:	2b01      	cmp	r3, #1
 80018ae:	d046      	beq.n	800193e <storeSettingsToEeprom+0xf2>
 80018b0:	2b02      	cmp	r3, #2
 80018b2:	d05e      	beq.n	8001972 <storeSettingsToEeprom+0x126>
 80018b4:	2b00      	cmp	r3, #0
 80018b6:	d05a      	beq.n	800196e <storeSettingsToEeprom+0x122>
 80018b8:	4b3b      	ldr	r3, [pc, #236]	@ (80019a8 <storeSettingsToEeprom+0x15c>)
 80018ba:	781b      	ldrb	r3, [r3, #0]
 80018bc:	2b01      	cmp	r3, #1
 80018be:	d043      	beq.n	8001948 <storeSettingsToEeprom+0xfc>
 80018c0:	2b02      	cmp	r3, #2
 80018c2:	d051      	beq.n	8001968 <storeSettingsToEeprom+0x11c>
 80018c4:	2b00      	cmp	r3, #0
 80018c6:	d04c      	beq.n	8001962 <storeSettingsToEeprom+0x116>
 80018c8:	4b38      	ldr	r3, [pc, #224]	@ (80019ac <storeSettingsToEeprom+0x160>)
 80018ca:	781b      	ldrb	r3, [r3, #0]
 80018cc:	2b01      	cmp	r3, #1
 80018ce:	d040      	beq.n	8001952 <storeSettingsToEeprom+0x106>
 80018d0:	2b02      	cmp	r3, #2
 80018d2:	d044      	beq.n	800195e <storeSettingsToEeprom+0x112>
 80018d4:	2b00      	cmp	r3, #0
 80018d6:	d03f      	beq.n	8001958 <storeSettingsToEeprom+0x10c>
 80018d8:	4b35      	ldr	r3, [pc, #212]	@ (80019b0 <storeSettingsToEeprom+0x164>)
 80018da:	2613      	movs	r6, #19
 80018dc:	781b      	ldrb	r3, [r3, #0]
 80018de:	2400      	movs	r4, #0
 80018e0:	73ab      	strb	r3, [r5, #14]
 80018e2:	4b34      	ldr	r3, [pc, #208]	@ (80019b4 <storeSettingsToEeprom+0x168>)
 80018e4:	2701      	movs	r7, #1
 80018e6:	781b      	ldrb	r3, [r3, #0]
 80018e8:	446e      	add	r6, sp
 80018ea:	73eb      	strb	r3, [r5, #15]
 80018ec:	4b32      	ldr	r3, [pc, #200]	@ (80019b8 <storeSettingsToEeprom+0x16c>)
 80018ee:	781b      	ldrb	r3, [r3, #0]
 80018f0:	742b      	strb	r3, [r5, #16]
 80018f2:	4b32      	ldr	r3, [pc, #200]	@ (80019bc <storeSettingsToEeprom+0x170>)
 80018f4:	781b      	ldrb	r3, [r3, #0]
 80018f6:	746b      	strb	r3, [r5, #17]
 80018f8:	4b31      	ldr	r3, [pc, #196]	@ (80019c0 <storeSettingsToEeprom+0x174>)
 80018fa:	781b      	ldrb	r3, [r3, #0]
 80018fc:	74ab      	strb	r3, [r5, #18]
 80018fe:	4b31      	ldr	r3, [pc, #196]	@ (80019c4 <storeSettingsToEeprom+0x178>)
 8001900:	781b      	ldrb	r3, [r3, #0]
 8001902:	74eb      	strb	r3, [r5, #19]
 8001904:	4b30      	ldr	r3, [pc, #192]	@ (80019c8 <storeSettingsToEeprom+0x17c>)
 8001906:	4699      	mov	r9, r3
 8001908:	23fa      	movs	r3, #250	@ 0xfa
 800190a:	009b      	lsls	r3, r3, #2
 800190c:	4698      	mov	r8, r3
 800190e:	782b      	ldrb	r3, [r5, #0]
 8001910:	b2a2      	uxth	r2, r4
 8001912:	7033      	strb	r3, [r6, #0]
 8001914:	4643      	mov	r3, r8
 8001916:	21a0      	movs	r1, #160	@ 0xa0
 8001918:	9302      	str	r3, [sp, #8]
 800191a:	4648      	mov	r0, r9
 800191c:	2301      	movs	r3, #1
 800191e:	9701      	str	r7, [sp, #4]
 8001920:	9600      	str	r6, [sp, #0]
 8001922:	f002 f817 	bl	8003954 <HAL_I2C_Mem_Write>
 8001926:	3401      	adds	r4, #1
 8001928:	200a      	movs	r0, #10
 800192a:	f000 ff73 	bl	8002814 <HAL_Delay>
 800192e:	3501      	adds	r5, #1
 8001930:	2c14      	cmp	r4, #20
 8001932:	d1ec      	bne.n	800190e <storeSettingsToEeprom+0xc2>
 8001934:	b00b      	add	sp, #44	@ 0x2c
 8001936:	bcc0      	pop	{r6, r7}
 8001938:	46b9      	mov	r9, r7
 800193a:	46b0      	mov	r8, r6
 800193c:	bdf0      	pop	{r4, r5, r6, r7, pc}
 800193e:	4b1a      	ldr	r3, [pc, #104]	@ (80019a8 <storeSettingsToEeprom+0x15c>)
 8001940:	7328      	strb	r0, [r5, #12]
 8001942:	781b      	ldrb	r3, [r3, #0]
 8001944:	2b01      	cmp	r3, #1
 8001946:	d1bb      	bne.n	80018c0 <storeSettingsToEeprom+0x74>
 8001948:	732b      	strb	r3, [r5, #12]
 800194a:	4b18      	ldr	r3, [pc, #96]	@ (80019ac <storeSettingsToEeprom+0x160>)
 800194c:	781b      	ldrb	r3, [r3, #0]
 800194e:	2b01      	cmp	r3, #1
 8001950:	d1be      	bne.n	80018d0 <storeSettingsToEeprom+0x84>
 8001952:	2302      	movs	r3, #2
 8001954:	732b      	strb	r3, [r5, #12]
 8001956:	e7bf      	b.n	80018d8 <storeSettingsToEeprom+0x8c>
 8001958:	3302      	adds	r3, #2
 800195a:	72eb      	strb	r3, [r5, #11]
 800195c:	e7bc      	b.n	80018d8 <storeSettingsToEeprom+0x8c>
 800195e:	736b      	strb	r3, [r5, #13]
 8001960:	e7ba      	b.n	80018d8 <storeSettingsToEeprom+0x8c>
 8001962:	3301      	adds	r3, #1
 8001964:	72eb      	strb	r3, [r5, #11]
 8001966:	e7af      	b.n	80018c8 <storeSettingsToEeprom+0x7c>
 8001968:	2301      	movs	r3, #1
 800196a:	736b      	strb	r3, [r5, #13]
 800196c:	e7ac      	b.n	80018c8 <storeSettingsToEeprom+0x7c>
 800196e:	72eb      	strb	r3, [r5, #11]
 8001970:	e7a2      	b.n	80018b8 <storeSettingsToEeprom+0x6c>
 8001972:	7368      	strb	r0, [r5, #13]
 8001974:	e7a0      	b.n	80018b8 <storeSettingsToEeprom+0x6c>
 8001976:	46c0      	nop			@ (mov r8, r8)
 8001978:	2000000c 	.word	0x2000000c
 800197c:	2000000d 	.word	0x2000000d
 8001980:	2000000b 	.word	0x2000000b
 8001984:	2000000a 	.word	0x2000000a
 8001988:	20002166 	.word	0x20002166
 800198c:	20000010 	.word	0x20000010
 8001990:	20002165 	.word	0x20002165
 8001994:	20000011 	.word	0x20000011
 8001998:	20002164 	.word	0x20002164
 800199c:	2000000f 	.word	0x2000000f
 80019a0:	2000000e 	.word	0x2000000e
 80019a4:	20002163 	.word	0x20002163
 80019a8:	20000009 	.word	0x20000009
 80019ac:	20000008 	.word	0x20000008
 80019b0:	20002162 	.word	0x20002162
 80019b4:	20000007 	.word	0x20000007
 80019b8:	20000006 	.word	0x20000006
 80019bc:	20000005 	.word	0x20000005
 80019c0:	20000004 	.word	0x20000004
 80019c4:	20000000 	.word	0x20000000
 80019c8:	20002364 	.word	0x20002364

080019cc <readSettingsFromEeprom>:
 80019cc:	4b4a      	ldr	r3, [pc, #296]	@ (8001af8 <readSettingsFromEeprom+0x12c>)
 80019ce:	b5f0      	push	{r4, r5, r6, r7, lr}
 80019d0:	46d6      	mov	lr, sl
 80019d2:	469a      	mov	sl, r3
 80019d4:	23fa      	movs	r3, #250	@ 0xfa
 80019d6:	464f      	mov	r7, r9
 80019d8:	4646      	mov	r6, r8
 80019da:	009b      	lsls	r3, r3, #2
 80019dc:	4699      	mov	r9, r3
 80019de:	2301      	movs	r3, #1
 80019e0:	b5c0      	push	{r6, r7, lr}
 80019e2:	b08a      	sub	sp, #40	@ 0x28
 80019e4:	2613      	movs	r6, #19
 80019e6:	af05      	add	r7, sp, #20
 80019e8:	003d      	movs	r5, r7
 80019ea:	2400      	movs	r4, #0
 80019ec:	4698      	mov	r8, r3
 80019ee:	446e      	add	r6, sp
 80019f0:	464b      	mov	r3, r9
 80019f2:	9302      	str	r3, [sp, #8]
 80019f4:	4643      	mov	r3, r8
 80019f6:	b2a2      	uxth	r2, r4
 80019f8:	9301      	str	r3, [sp, #4]
 80019fa:	21a0      	movs	r1, #160	@ 0xa0
 80019fc:	2301      	movs	r3, #1
 80019fe:	4650      	mov	r0, sl
 8001a00:	9600      	str	r6, [sp, #0]
 8001a02:	f002 f89f 	bl	8003b44 <HAL_I2C_Mem_Read>
 8001a06:	7833      	ldrb	r3, [r6, #0]
 8001a08:	3401      	adds	r4, #1
 8001a0a:	702b      	strb	r3, [r5, #0]
 8001a0c:	3501      	adds	r5, #1
 8001a0e:	2c14      	cmp	r4, #20
 8001a10:	d1ee      	bne.n	80019f0 <readSettingsFromEeprom+0x24>
 8001a12:	4b3a      	ldr	r3, [pc, #232]	@ (8001afc <readSettingsFromEeprom+0x130>)
 8001a14:	783a      	ldrb	r2, [r7, #0]
 8001a16:	701a      	strb	r2, [r3, #0]
 8001a18:	787a      	ldrb	r2, [r7, #1]
 8001a1a:	4b39      	ldr	r3, [pc, #228]	@ (8001b00 <readSettingsFromEeprom+0x134>)
 8001a1c:	701a      	strb	r2, [r3, #0]
 8001a1e:	78ba      	ldrb	r2, [r7, #2]
 8001a20:	4b38      	ldr	r3, [pc, #224]	@ (8001b04 <readSettingsFromEeprom+0x138>)
 8001a22:	701a      	strb	r2, [r3, #0]
 8001a24:	78fa      	ldrb	r2, [r7, #3]
 8001a26:	4b38      	ldr	r3, [pc, #224]	@ (8001b08 <readSettingsFromEeprom+0x13c>)
 8001a28:	701a      	strb	r2, [r3, #0]
 8001a2a:	793a      	ldrb	r2, [r7, #4]
 8001a2c:	4b37      	ldr	r3, [pc, #220]	@ (8001b0c <readSettingsFromEeprom+0x140>)
 8001a2e:	701a      	strb	r2, [r3, #0]
 8001a30:	797a      	ldrb	r2, [r7, #5]
 8001a32:	4b37      	ldr	r3, [pc, #220]	@ (8001b10 <readSettingsFromEeprom+0x144>)
 8001a34:	701a      	strb	r2, [r3, #0]
 8001a36:	79ba      	ldrb	r2, [r7, #6]
 8001a38:	4b36      	ldr	r3, [pc, #216]	@ (8001b14 <readSettingsFromEeprom+0x148>)
 8001a3a:	701a      	strb	r2, [r3, #0]
 8001a3c:	79fa      	ldrb	r2, [r7, #7]
 8001a3e:	4b36      	ldr	r3, [pc, #216]	@ (8001b18 <readSettingsFromEeprom+0x14c>)
 8001a40:	701a      	strb	r2, [r3, #0]
 8001a42:	7a3a      	ldrb	r2, [r7, #8]
 8001a44:	4b35      	ldr	r3, [pc, #212]	@ (8001b1c <readSettingsFromEeprom+0x150>)
 8001a46:	701a      	strb	r2, [r3, #0]
 8001a48:	7a7a      	ldrb	r2, [r7, #9]
 8001a4a:	4b35      	ldr	r3, [pc, #212]	@ (8001b20 <readSettingsFromEeprom+0x154>)
 8001a4c:	701a      	strb	r2, [r3, #0]
 8001a4e:	7aba      	ldrb	r2, [r7, #10]
 8001a50:	4b34      	ldr	r3, [pc, #208]	@ (8001b24 <readSettingsFromEeprom+0x158>)
 8001a52:	701a      	strb	r2, [r3, #0]
 8001a54:	7afb      	ldrb	r3, [r7, #11]
 8001a56:	2b01      	cmp	r3, #1
 8001a58:	d029      	beq.n	8001aae <readSettingsFromEeprom+0xe2>
 8001a5a:	2b02      	cmp	r3, #2
 8001a5c:	d048      	beq.n	8001af0 <readSettingsFromEeprom+0x124>
 8001a5e:	2b00      	cmp	r3, #0
 8001a60:	d043      	beq.n	8001aea <readSettingsFromEeprom+0x11e>
 8001a62:	7b3b      	ldrb	r3, [r7, #12]
 8001a64:	2b01      	cmp	r3, #1
 8001a66:	d028      	beq.n	8001aba <readSettingsFromEeprom+0xee>
 8001a68:	2b02      	cmp	r3, #2
 8001a6a:	d03a      	beq.n	8001ae2 <readSettingsFromEeprom+0x116>
 8001a6c:	2b00      	cmp	r3, #0
 8001a6e:	d034      	beq.n	8001ada <readSettingsFromEeprom+0x10e>
 8001a70:	7b7b      	ldrb	r3, [r7, #13]
 8001a72:	2b01      	cmp	r3, #1
 8001a74:	d026      	beq.n	8001ac4 <readSettingsFromEeprom+0xf8>
 8001a76:	2b02      	cmp	r3, #2
 8001a78:	d02c      	beq.n	8001ad4 <readSettingsFromEeprom+0x108>
 8001a7a:	2b00      	cmp	r3, #0
 8001a7c:	d026      	beq.n	8001acc <readSettingsFromEeprom+0x100>
 8001a7e:	7bba      	ldrb	r2, [r7, #14]
 8001a80:	4b29      	ldr	r3, [pc, #164]	@ (8001b28 <readSettingsFromEeprom+0x15c>)
 8001a82:	701a      	strb	r2, [r3, #0]
 8001a84:	7bfa      	ldrb	r2, [r7, #15]
 8001a86:	4b29      	ldr	r3, [pc, #164]	@ (8001b2c <readSettingsFromEeprom+0x160>)
 8001a88:	701a      	strb	r2, [r3, #0]
 8001a8a:	7c3a      	ldrb	r2, [r7, #16]
 8001a8c:	4b28      	ldr	r3, [pc, #160]	@ (8001b30 <readSettingsFromEeprom+0x164>)
 8001a8e:	701a      	strb	r2, [r3, #0]
 8001a90:	7c7a      	ldrb	r2, [r7, #17]
 8001a92:	4b28      	ldr	r3, [pc, #160]	@ (8001b34 <readSettingsFromEeprom+0x168>)
 8001a94:	701a      	strb	r2, [r3, #0]
 8001a96:	7cba      	ldrb	r2, [r7, #18]
 8001a98:	4b27      	ldr	r3, [pc, #156]	@ (8001b38 <readSettingsFromEeprom+0x16c>)
 8001a9a:	701a      	strb	r2, [r3, #0]
 8001a9c:	7cfa      	ldrb	r2, [r7, #19]
 8001a9e:	4b27      	ldr	r3, [pc, #156]	@ (8001b3c <readSettingsFromEeprom+0x170>)
 8001aa0:	701a      	strb	r2, [r3, #0]
 8001aa2:	b00a      	add	sp, #40	@ 0x28
 8001aa4:	bce0      	pop	{r5, r6, r7}
 8001aa6:	46ba      	mov	sl, r7
 8001aa8:	46b1      	mov	r9, r6
 8001aaa:	46a8      	mov	r8, r5
 8001aac:	bdf0      	pop	{r4, r5, r6, r7, pc}
 8001aae:	2200      	movs	r2, #0
 8001ab0:	4b23      	ldr	r3, [pc, #140]	@ (8001b40 <readSettingsFromEeprom+0x174>)
 8001ab2:	701a      	strb	r2, [r3, #0]
 8001ab4:	7b3b      	ldrb	r3, [r7, #12]
 8001ab6:	2b01      	cmp	r3, #1
 8001ab8:	d1d6      	bne.n	8001a68 <readSettingsFromEeprom+0x9c>
 8001aba:	4a21      	ldr	r2, [pc, #132]	@ (8001b40 <readSettingsFromEeprom+0x174>)
 8001abc:	7013      	strb	r3, [r2, #0]
 8001abe:	7b7b      	ldrb	r3, [r7, #13]
 8001ac0:	2b01      	cmp	r3, #1
 8001ac2:	d1d8      	bne.n	8001a76 <readSettingsFromEeprom+0xaa>
 8001ac4:	2202      	movs	r2, #2
 8001ac6:	4b1e      	ldr	r3, [pc, #120]	@ (8001b40 <readSettingsFromEeprom+0x174>)
 8001ac8:	701a      	strb	r2, [r3, #0]
 8001aca:	e7d8      	b.n	8001a7e <readSettingsFromEeprom+0xb2>
 8001acc:	2202      	movs	r2, #2
 8001ace:	4b1d      	ldr	r3, [pc, #116]	@ (8001b44 <readSettingsFromEeprom+0x178>)
 8001ad0:	701a      	strb	r2, [r3, #0]
 8001ad2:	e7d4      	b.n	8001a7e <readSettingsFromEeprom+0xb2>
 8001ad4:	4a1c      	ldr	r2, [pc, #112]	@ (8001b48 <readSettingsFromEeprom+0x17c>)
 8001ad6:	7013      	strb	r3, [r2, #0]
 8001ad8:	e7d1      	b.n	8001a7e <readSettingsFromEeprom+0xb2>
 8001ada:	2201      	movs	r2, #1
 8001adc:	4b19      	ldr	r3, [pc, #100]	@ (8001b44 <readSettingsFromEeprom+0x178>)
 8001ade:	701a      	strb	r2, [r3, #0]
 8001ae0:	e7c6      	b.n	8001a70 <readSettingsFromEeprom+0xa4>
 8001ae2:	2201      	movs	r2, #1
 8001ae4:	4b18      	ldr	r3, [pc, #96]	@ (8001b48 <readSettingsFromEeprom+0x17c>)
 8001ae6:	701a      	strb	r2, [r3, #0]
 8001ae8:	e7c2      	b.n	8001a70 <readSettingsFromEeprom+0xa4>
 8001aea:	4a16      	ldr	r2, [pc, #88]	@ (8001b44 <readSettingsFromEeprom+0x178>)
 8001aec:	7013      	strb	r3, [r2, #0]
 8001aee:	e7b8      	b.n	8001a62 <readSettingsFromEeprom+0x96>
 8001af0:	2200      	movs	r2, #0
 8001af2:	4b15      	ldr	r3, [pc, #84]	@ (8001b48 <readSettingsFromEeprom+0x17c>)
 8001af4:	701a      	strb	r2, [r3, #0]
 8001af6:	e7b4      	b.n	8001a62 <readSettingsFromEeprom+0x96>
 8001af8:	20002364 	.word	0x20002364
 8001afc:	20000011 	.word	0x20000011
 8001b00:	20000010 	.word	0x20000010
 8001b04:	2000000f 	.word	0x2000000f
 8001b08:	2000000e 	.word	0x2000000e
 8001b0c:	2000000d 	.word	0x2000000d
 8001b10:	2000000c 	.word	0x2000000c
 8001b14:	2000000b 	.word	0x2000000b
 8001b18:	2000000a 	.word	0x2000000a
 8001b1c:	20002166 	.word	0x20002166
 8001b20:	20002165 	.word	0x20002165
 8001b24:	20002164 	.word	0x20002164
 8001b28:	20002162 	.word	0x20002162
 8001b2c:	20000007 	.word	0x20000007
 8001b30:	20000006 	.word	0x20000006
 8001b34:	20000005 	.word	0x20000005
 8001b38:	20000004 	.word	0x20000004
 8001b3c:	20000000 	.word	0x20000000
 8001b40:	20000009 	.word	0x20000009
 8001b44:	20002163 	.word	0x20002163
 8001b48:	20000008 	.word	0x20000008

08001b4c <loadSettingsFromEeprom>:
 8001b4c:	b510      	push	{r4, lr}
 8001b4e:	f7ff ff3d 	bl	80019cc <readSettingsFromEeprom>
 8001b52:	bd10      	pop	{r4, pc}

08001b54 <read_byte_eeprom>:
 8001b54:	23fa      	movs	r3, #250	@ 0xfa
 8001b56:	b530      	push	{r4, r5, lr}
 8001b58:	009b      	lsls	r3, r3, #2
 8001b5a:	b087      	sub	sp, #28
 8001b5c:	2517      	movs	r5, #23
 8001b5e:	9302      	str	r3, [sp, #8]
 8001b60:	2301      	movs	r3, #1
 8001b62:	4c06      	ldr	r4, [pc, #24]	@ (8001b7c <read_byte_eeprom+0x28>)
 8001b64:	446d      	add	r5, sp
 8001b66:	0002      	movs	r2, r0
 8001b68:	21a0      	movs	r1, #160	@ 0xa0
 8001b6a:	0020      	movs	r0, r4
 8001b6c:	9301      	str	r3, [sp, #4]
 8001b6e:	9500      	str	r5, [sp, #0]
 8001b70:	f001 ffe8 	bl	8003b44 <HAL_I2C_Mem_Read>
 8001b74:	7828      	ldrb	r0, [r5, #0]
 8001b76:	b007      	add	sp, #28
 8001b78:	bd30      	pop	{r4, r5, pc}
 8001b7a:	46c0      	nop			@ (mov r8, r8)
 8001b7c:	20002364 	.word	0x20002364

08001b80 <write_byte_eeprom>:
 8001b80:	2317      	movs	r3, #23
 8001b82:	b510      	push	{r4, lr}
 8001b84:	b086      	sub	sp, #24
 8001b86:	446b      	add	r3, sp
 8001b88:	7019      	strb	r1, [r3, #0]
 8001b8a:	21fa      	movs	r1, #250	@ 0xfa
 8001b8c:	0089      	lsls	r1, r1, #2
 8001b8e:	9102      	str	r1, [sp, #8]
 8001b90:	2101      	movs	r1, #1
 8001b92:	4c07      	ldr	r4, [pc, #28]	@ (8001bb0 <write_byte_eeprom+0x30>)
 8001b94:	0002      	movs	r2, r0
 8001b96:	9101      	str	r1, [sp, #4]
 8001b98:	9300      	str	r3, [sp, #0]
 8001b9a:	319f      	adds	r1, #159	@ 0x9f
 8001b9c:	2301      	movs	r3, #1
 8001b9e:	0020      	movs	r0, r4
 8001ba0:	f001 fed8 	bl	8003954 <HAL_I2C_Mem_Write>
 8001ba4:	200a      	movs	r0, #10
 8001ba6:	f000 fe35 	bl	8002814 <HAL_Delay>
 8001baa:	b006      	add	sp, #24
 8001bac:	bd10      	pop	{r4, pc}
 8001bae:	46c0      	nop			@ (mov r8, r8)
 8001bb0:	20002364 	.word	0x20002364

08001bb4 <serialPrintStatus>:
 8001bb4:	b570      	push	{r4, r5, r6, lr}
 8001bb6:	b088      	sub	sp, #32
 8001bb8:	466c      	mov	r4, sp
 8001bba:	f7fe fd13 	bl	80005e4 <getBattVoltage>
 8001bbe:	4938      	ldr	r1, [pc, #224]	@ (8001ca0 <serialPrintStatus+0xec>)
 8001bc0:	0002      	movs	r2, r0
 8001bc2:	0020      	movs	r0, r4
 8001bc4:	f006 f8e8 	bl	8007d98 <siprintf>
 8001bc8:	0020      	movs	r0, r4
 8001bca:	f7fe fa9d 	bl	8000108 <strlen>
 8001bce:	b281      	uxth	r1, r0
 8001bd0:	0020      	movs	r0, r4
 8001bd2:	f005 fd19 	bl	8007608 <CDC_Transmit_FS>
 8001bd6:	2001      	movs	r0, #1
 8001bd8:	f000 fe1c 	bl	8002814 <HAL_Delay>
 8001bdc:	4b31      	ldr	r3, [pc, #196]	@ (8001ca4 <serialPrintStatus+0xf0>)
 8001bde:	4932      	ldr	r1, [pc, #200]	@ (8001ca8 <serialPrintStatus+0xf4>)
 8001be0:	781a      	ldrb	r2, [r3, #0]
 8001be2:	0020      	movs	r0, r4
 8001be4:	f006 f8d8 	bl	8007d98 <siprintf>
 8001be8:	0020      	movs	r0, r4
 8001bea:	f7fe fa8d 	bl	8000108 <strlen>
 8001bee:	b281      	uxth	r1, r0
 8001bf0:	0020      	movs	r0, r4
 8001bf2:	f005 fd09 	bl	8007608 <CDC_Transmit_FS>
 8001bf6:	2001      	movs	r0, #1
 8001bf8:	f000 fe0c 	bl	8002814 <HAL_Delay>
 8001bfc:	4b2b      	ldr	r3, [pc, #172]	@ (8001cac <serialPrintStatus+0xf8>)
 8001bfe:	2501      	movs	r5, #1
 8001c00:	781b      	ldrb	r3, [r3, #0]
 8001c02:	4e2b      	ldr	r6, [pc, #172]	@ (8001cb0 <serialPrintStatus+0xfc>)
 8001c04:	2b00      	cmp	r3, #0
 8001c06:	d02b      	beq.n	8001c60 <serialPrintStatus+0xac>
 8001c08:	b2e8      	uxtb	r0, r5
 8001c0a:	f7ff fc6f 	bl	80014ec <getChannelValuePercentage>
 8001c0e:	002a      	movs	r2, r5
 8001c10:	0003      	movs	r3, r0
 8001c12:	0031      	movs	r1, r6
 8001c14:	0020      	movs	r0, r4
 8001c16:	f006 f8bf 	bl	8007d98 <siprintf>
 8001c1a:	0020      	movs	r0, r4
 8001c1c:	f7fe fa74 	bl	8000108 <strlen>
 8001c20:	b281      	uxth	r1, r0
 8001c22:	0020      	movs	r0, r4
 8001c24:	f005 fcf0 	bl	8007608 <CDC_Transmit_FS>
 8001c28:	3501      	adds	r5, #1
 8001c2a:	2002      	movs	r0, #2
 8001c2c:	f000 fdf2 	bl	8002814 <HAL_Delay>
 8001c30:	2d05      	cmp	r5, #5
 8001c32:	d1e9      	bne.n	8001c08 <serialPrintStatus+0x54>
 8001c34:	4b1f      	ldr	r3, [pc, #124]	@ (8001cb4 <serialPrintStatus+0x100>)
 8001c36:	781b      	ldrb	r3, [r3, #0]
 8001c38:	2b00      	cmp	r3, #0
 8001c3a:	d028      	beq.n	8001c8e <serialPrintStatus+0xda>
 8001c3c:	0022      	movs	r2, r4
 8001c3e:	4b1e      	ldr	r3, [pc, #120]	@ (8001cb8 <serialPrintStatus+0x104>)
 8001c40:	cb23      	ldmia	r3!, {r0, r1, r5}
 8001c42:	c223      	stmia	r2!, {r0, r1, r5}
 8001c44:	881b      	ldrh	r3, [r3, #0]
 8001c46:	8013      	strh	r3, [r2, #0]
 8001c48:	0020      	movs	r0, r4
 8001c4a:	f7fe fa5d 	bl	8000108 <strlen>
 8001c4e:	b281      	uxth	r1, r0
 8001c50:	0020      	movs	r0, r4
 8001c52:	f005 fcd9 	bl	8007608 <CDC_Transmit_FS>
 8001c56:	2001      	movs	r0, #1
 8001c58:	f000 fddc 	bl	8002814 <HAL_Delay>
 8001c5c:	b008      	add	sp, #32
 8001c5e:	bd70      	pop	{r4, r5, r6, pc}
 8001c60:	b2e8      	uxtb	r0, r5
 8001c62:	f7ff fc43 	bl	80014ec <getChannelValuePercentage>
 8001c66:	002a      	movs	r2, r5
 8001c68:	0003      	movs	r3, r0
 8001c6a:	0031      	movs	r1, r6
 8001c6c:	0020      	movs	r0, r4
 8001c6e:	f006 f893 	bl	8007d98 <siprintf>
 8001c72:	0020      	movs	r0, r4
 8001c74:	f7fe fa48 	bl	8000108 <strlen>
 8001c78:	b281      	uxth	r1, r0
 8001c7a:	0020      	movs	r0, r4
 8001c7c:	f005 fcc4 	bl	8007608 <CDC_Transmit_FS>
 8001c80:	3501      	adds	r5, #1
 8001c82:	2002      	movs	r0, #2
 8001c84:	f000 fdc6 	bl	8002814 <HAL_Delay>
 8001c88:	2d09      	cmp	r5, #9
 8001c8a:	d1e9      	bne.n	8001c60 <serialPrintStatus+0xac>
 8001c8c:	e7d2      	b.n	8001c34 <serialPrintStatus+0x80>
 8001c8e:	0022      	movs	r2, r4
 8001c90:	4b0a      	ldr	r3, [pc, #40]	@ (8001cbc <serialPrintStatus+0x108>)
 8001c92:	cb23      	ldmia	r3!, {r0, r1, r5}
 8001c94:	c223      	stmia	r2!, {r0, r1, r5}
 8001c96:	8819      	ldrh	r1, [r3, #0]
 8001c98:	8011      	strh	r1, [r2, #0]
 8001c9a:	789b      	ldrb	r3, [r3, #2]
 8001c9c:	7093      	strb	r3, [r2, #2]
 8001c9e:	e7d3      	b.n	8001c48 <serialPrintStatus+0x94>
 8001ca0:	080090b4 	.word	0x080090b4
 8001ca4:	20002168 	.word	0x20002168
 8001ca8:	080090c0 	.word	0x080090c0
 8001cac:	20000000 	.word	0x20000000
 8001cb0:	080090cc 	.word	0x080090cc
 8001cb4:	20002167 	.word	0x20002167
 8001cb8:	080090d8 	.word	0x080090d8
 8001cbc:	080090e8 	.word	0x080090e8

08001cc0 <serialPrintSettings>:
 8001cc0:	b5f0      	push	{r4, r5, r6, r7, lr}
 8001cc2:	4a4e      	ldr	r2, [pc, #312]	@ (8001dfc <serialPrintSettings+0x13c>)
 8001cc4:	4b4e      	ldr	r3, [pc, #312]	@ (8001e00 <serialPrintSettings+0x140>)
 8001cc6:	7812      	ldrb	r2, [r2, #0]
 8001cc8:	781b      	ldrb	r3, [r3, #0]
 8001cca:	0212      	lsls	r2, r2, #8
 8001ccc:	494d      	ldr	r1, [pc, #308]	@ (8001e04 <serialPrintSettings+0x144>)
 8001cce:	4313      	orrs	r3, r2
 8001cd0:	4a4d      	ldr	r2, [pc, #308]	@ (8001e08 <serialPrintSettings+0x148>)
 8001cd2:	7809      	ldrb	r1, [r1, #0]
 8001cd4:	7812      	ldrb	r2, [r2, #0]
 8001cd6:	0409      	lsls	r1, r1, #16
 8001cd8:	0612      	lsls	r2, r2, #24
 8001cda:	430b      	orrs	r3, r1
 8001cdc:	494b      	ldr	r1, [pc, #300]	@ (8001e0c <serialPrintSettings+0x14c>)
 8001cde:	4313      	orrs	r3, r2
 8001ce0:	4c4b      	ldr	r4, [pc, #300]	@ (8001e10 <serialPrintSettings+0x150>)
 8001ce2:	4a4c      	ldr	r2, [pc, #304]	@ (8001e14 <serialPrintSettings+0x154>)
 8001ce4:	b0a5      	sub	sp, #148	@ 0x94
 8001ce6:	7809      	ldrb	r1, [r1, #0]
 8001ce8:	7812      	ldrb	r2, [r2, #0]
 8001cea:	7824      	ldrb	r4, [r4, #0]
 8001cec:	9304      	str	r3, [sp, #16]
 8001cee:	4b4a      	ldr	r3, [pc, #296]	@ (8001e18 <serialPrintSettings+0x158>)
 8001cf0:	0209      	lsls	r1, r1, #8
 8001cf2:	781b      	ldrb	r3, [r3, #0]
 8001cf4:	0424      	lsls	r4, r4, #16
 8001cf6:	430a      	orrs	r2, r1
 8001cf8:	4322      	orrs	r2, r4
 8001cfa:	ac03      	add	r4, sp, #12
 8001cfc:	7223      	strb	r3, [r4, #8]
 8001cfe:	4b47      	ldr	r3, [pc, #284]	@ (8001e1c <serialPrintSettings+0x15c>)
 8001d00:	4947      	ldr	r1, [pc, #284]	@ (8001e20 <serialPrintSettings+0x160>)
 8001d02:	781b      	ldrb	r3, [r3, #0]
 8001d04:	7809      	ldrb	r1, [r1, #0]
 8001d06:	7263      	strb	r3, [r4, #9]
 8001d08:	4b46      	ldr	r3, [pc, #280]	@ (8001e24 <serialPrintSettings+0x164>)
 8001d0a:	0609      	lsls	r1, r1, #24
 8001d0c:	781b      	ldrb	r3, [r3, #0]
 8001d0e:	430a      	orrs	r2, r1
 8001d10:	72a3      	strb	r3, [r4, #10]
 8001d12:	4b45      	ldr	r3, [pc, #276]	@ (8001e28 <serialPrintSettings+0x168>)
 8001d14:	2000      	movs	r0, #0
 8001d16:	781b      	ldrb	r3, [r3, #0]
 8001d18:	9203      	str	r2, [sp, #12]
 8001d1a:	2b01      	cmp	r3, #1
 8001d1c:	d051      	beq.n	8001dc2 <serialPrintSettings+0x102>
 8001d1e:	2b02      	cmp	r3, #2
 8001d20:	d069      	beq.n	8001df6 <serialPrintSettings+0x136>
 8001d22:	2b00      	cmp	r3, #0
 8001d24:	d065      	beq.n	8001df2 <serialPrintSettings+0x132>
 8001d26:	4b41      	ldr	r3, [pc, #260]	@ (8001e2c <serialPrintSettings+0x16c>)
 8001d28:	781b      	ldrb	r3, [r3, #0]
 8001d2a:	2b01      	cmp	r3, #1
 8001d2c:	d04e      	beq.n	8001dcc <serialPrintSettings+0x10c>
 8001d2e:	2b02      	cmp	r3, #2
 8001d30:	d05c      	beq.n	8001dec <serialPrintSettings+0x12c>
 8001d32:	2b00      	cmp	r3, #0
 8001d34:	d057      	beq.n	8001de6 <serialPrintSettings+0x126>
 8001d36:	4b3e      	ldr	r3, [pc, #248]	@ (8001e30 <serialPrintSettings+0x170>)
 8001d38:	781b      	ldrb	r3, [r3, #0]
 8001d3a:	2b01      	cmp	r3, #1
 8001d3c:	d04b      	beq.n	8001dd6 <serialPrintSettings+0x116>
 8001d3e:	2b02      	cmp	r3, #2
 8001d40:	d04f      	beq.n	8001de2 <serialPrintSettings+0x122>
 8001d42:	2b00      	cmp	r3, #0
 8001d44:	d04a      	beq.n	8001ddc <serialPrintSettings+0x11c>
 8001d46:	4b3b      	ldr	r3, [pc, #236]	@ (8001e34 <serialPrintSettings+0x174>)
 8001d48:	493b      	ldr	r1, [pc, #236]	@ (8001e38 <serialPrintSettings+0x178>)
 8001d4a:	781b      	ldrb	r3, [r3, #0]
 8001d4c:	2250      	movs	r2, #80	@ 0x50
 8001d4e:	73a3      	strb	r3, [r4, #14]
 8001d50:	4b3a      	ldr	r3, [pc, #232]	@ (8001e3c <serialPrintSettings+0x17c>)
 8001d52:	a810      	add	r0, sp, #64	@ 0x40
 8001d54:	781b      	ldrb	r3, [r3, #0]
 8001d56:	af24      	add	r7, sp, #144	@ 0x90
 8001d58:	73e3      	strb	r3, [r4, #15]
 8001d5a:	4b39      	ldr	r3, [pc, #228]	@ (8001e40 <serialPrintSettings+0x180>)
 8001d5c:	781b      	ldrb	r3, [r3, #0]
 8001d5e:	7423      	strb	r3, [r4, #16]
 8001d60:	4b38      	ldr	r3, [pc, #224]	@ (8001e44 <serialPrintSettings+0x184>)
 8001d62:	781b      	ldrb	r3, [r3, #0]
 8001d64:	7463      	strb	r3, [r4, #17]
 8001d66:	4b38      	ldr	r3, [pc, #224]	@ (8001e48 <serialPrintSettings+0x188>)
 8001d68:	781b      	ldrb	r3, [r3, #0]
 8001d6a:	74a3      	strb	r3, [r4, #18]
 8001d6c:	4b37      	ldr	r3, [pc, #220]	@ (8001e4c <serialPrintSettings+0x18c>)
 8001d6e:	781b      	ldrb	r3, [r3, #0]
 8001d70:	74e3      	strb	r3, [r4, #19]
 8001d72:	f006 f968 	bl	8008046 <memcpy>
 8001d76:	4668      	mov	r0, sp
 8001d78:	0002      	movs	r2, r0
 8001d7a:	4b35      	ldr	r3, [pc, #212]	@ (8001e50 <serialPrintSettings+0x190>)
 8001d7c:	cb62      	ldmia	r3!, {r1, r5, r6}
 8001d7e:	c262      	stmia	r2!, {r1, r5, r6}
 8001d80:	210b      	movs	r1, #11
 8001d82:	f005 fc41 	bl	8007608 <CDC_Transmit_FS>
 8001d86:	2000      	movs	r0, #0
 8001d88:	f000 fd44 	bl	8002814 <HAL_Delay>
 8001d8c:	4e31      	ldr	r6, [pc, #196]	@ (8001e54 <serialPrintSettings+0x194>)
 8001d8e:	ad10      	add	r5, sp, #64	@ 0x40
 8001d90:	7823      	ldrb	r3, [r4, #0]
 8001d92:	cd04      	ldmia	r5!, {r2}
 8001d94:	0031      	movs	r1, r6
 8001d96:	a808      	add	r0, sp, #32
 8001d98:	f005 fffe 	bl	8007d98 <siprintf>
 8001d9c:	a808      	add	r0, sp, #32
 8001d9e:	f7fe f9b3 	bl	8000108 <strlen>
 8001da2:	b281      	uxth	r1, r0
 8001da4:	a808      	add	r0, sp, #32
 8001da6:	f005 fc2f 	bl	8007608 <CDC_Transmit_FS>
 8001daa:	200a      	movs	r0, #10
 8001dac:	f000 fd32 	bl	8002814 <HAL_Delay>
 8001db0:	3401      	adds	r4, #1
 8001db2:	42bd      	cmp	r5, r7
 8001db4:	d1ec      	bne.n	8001d90 <serialPrintSettings+0xd0>
 8001db6:	2151      	movs	r1, #81	@ 0x51
 8001db8:	4827      	ldr	r0, [pc, #156]	@ (8001e58 <serialPrintSettings+0x198>)
 8001dba:	f005 fc25 	bl	8007608 <CDC_Transmit_FS>
 8001dbe:	b025      	add	sp, #148	@ 0x94
 8001dc0:	bdf0      	pop	{r4, r5, r6, r7, pc}
 8001dc2:	4b1a      	ldr	r3, [pc, #104]	@ (8001e2c <serialPrintSettings+0x16c>)
 8001dc4:	7320      	strb	r0, [r4, #12]
 8001dc6:	781b      	ldrb	r3, [r3, #0]
 8001dc8:	2b01      	cmp	r3, #1
 8001dca:	d1b0      	bne.n	8001d2e <serialPrintSettings+0x6e>
 8001dcc:	7323      	strb	r3, [r4, #12]
 8001dce:	4b18      	ldr	r3, [pc, #96]	@ (8001e30 <serialPrintSettings+0x170>)
 8001dd0:	781b      	ldrb	r3, [r3, #0]
 8001dd2:	2b01      	cmp	r3, #1
 8001dd4:	d1b3      	bne.n	8001d3e <serialPrintSettings+0x7e>
 8001dd6:	2302      	movs	r3, #2
 8001dd8:	7323      	strb	r3, [r4, #12]
 8001dda:	e7b4      	b.n	8001d46 <serialPrintSettings+0x86>
 8001ddc:	3302      	adds	r3, #2
 8001dde:	72e3      	strb	r3, [r4, #11]
 8001de0:	e7b1      	b.n	8001d46 <serialPrintSettings+0x86>
 8001de2:	7363      	strb	r3, [r4, #13]
 8001de4:	e7af      	b.n	8001d46 <serialPrintSettings+0x86>
 8001de6:	3301      	adds	r3, #1
 8001de8:	72e3      	strb	r3, [r4, #11]
 8001dea:	e7a4      	b.n	8001d36 <serialPrintSettings+0x76>
 8001dec:	2301      	movs	r3, #1
 8001dee:	7363      	strb	r3, [r4, #13]
 8001df0:	e7a1      	b.n	8001d36 <serialPrintSettings+0x76>
 8001df2:	72e3      	strb	r3, [r4, #11]
 8001df4:	e797      	b.n	8001d26 <serialPrintSettings+0x66>
 8001df6:	7360      	strb	r0, [r4, #13]
 8001df8:	e795      	b.n	8001d26 <serialPrintSettings+0x66>
 8001dfa:	46c0      	nop			@ (mov r8, r8)
 8001dfc:	2000000c 	.word	0x2000000c
 8001e00:	2000000d 	.word	0x2000000d
 8001e04:	2000000b 	.word	0x2000000b
 8001e08:	2000000a 	.word	0x2000000a
 8001e0c:	20000010 	.word	0x20000010
 8001e10:	2000000f 	.word	0x2000000f
 8001e14:	20000011 	.word	0x20000011
 8001e18:	20002166 	.word	0x20002166
 8001e1c:	20002165 	.word	0x20002165
 8001e20:	2000000e 	.word	0x2000000e
 8001e24:	20002164 	.word	0x20002164
 8001e28:	20002163 	.word	0x20002163
 8001e2c:	20000009 	.word	0x20000009
 8001e30:	20000008 	.word	0x20000008
 8001e34:	20002162 	.word	0x20002162
 8001e38:	0800904c 	.word	0x0800904c
 8001e3c:	20000007 	.word	0x20000007
 8001e40:	20000006 	.word	0x20000006
 8001e44:	20000005 	.word	0x20000005
 8001e48:	20000004 	.word	0x20000004
 8001e4c:	20000000 	.word	0x20000000
 8001e50:	08009158 	.word	0x08009158
 8001e54:	080090f8 	.word	0x080090f8
 8001e58:	08009104 	.word	0x08009104

08001e5c <modifySettingsWithCommand>:
 8001e5c:	b570      	push	{r4, r5, r6, lr}
 8001e5e:	b086      	sub	sp, #24
 8001e60:	ad01      	add	r5, sp, #4
 8001e62:	0028      	movs	r0, r5
 8001e64:	49c1      	ldr	r1, [pc, #772]	@ (800216c <modifySettingsWithCommand+0x310>)
 8001e66:	f7ff fc95 	bl	8001794 <decodeCommand>
 8001e6a:	4ac1      	ldr	r2, [pc, #772]	@ (8002170 <modifySettingsWithCommand+0x314>)
 8001e6c:	9b01      	ldr	r3, [sp, #4]
 8001e6e:	4293      	cmp	r3, r2
 8001e70:	d100      	bne.n	8001e74 <modifySettingsWithCommand+0x18>
 8001e72:	e071      	b.n	8001f58 <modifySettingsWithCommand+0xfc>
 8001e74:	240e      	movs	r4, #14
 8001e76:	4abf      	ldr	r2, [pc, #764]	@ (8002174 <modifySettingsWithCommand+0x318>)
 8001e78:	2600      	movs	r6, #0
 8001e7a:	446c      	add	r4, sp
 8001e7c:	4293      	cmp	r3, r2
 8001e7e:	d100      	bne.n	8001e82 <modifySettingsWithCommand+0x26>
 8001e80:	e07b      	b.n	8001f7a <modifySettingsWithCommand+0x11e>
 8001e82:	4abd      	ldr	r2, [pc, #756]	@ (8002178 <modifySettingsWithCommand+0x31c>)
 8001e84:	4293      	cmp	r3, r2
 8001e86:	d100      	bne.n	8001e8a <modifySettingsWithCommand+0x2e>
 8001e88:	e086      	b.n	8001f98 <modifySettingsWithCommand+0x13c>
 8001e8a:	4abc      	ldr	r2, [pc, #752]	@ (800217c <modifySettingsWithCommand+0x320>)
 8001e8c:	4293      	cmp	r3, r2
 8001e8e:	d100      	bne.n	8001e92 <modifySettingsWithCommand+0x36>
 8001e90:	e091      	b.n	8001fb6 <modifySettingsWithCommand+0x15a>
 8001e92:	4abb      	ldr	r2, [pc, #748]	@ (8002180 <modifySettingsWithCommand+0x324>)
 8001e94:	4293      	cmp	r3, r2
 8001e96:	d100      	bne.n	8001e9a <modifySettingsWithCommand+0x3e>
 8001e98:	e09c      	b.n	8001fd4 <modifySettingsWithCommand+0x178>
 8001e9a:	4bba      	ldr	r3, [pc, #744]	@ (8002184 <modifySettingsWithCommand+0x328>)
 8001e9c:	9a01      	ldr	r2, [sp, #4]
 8001e9e:	429a      	cmp	r2, r3
 8001ea0:	d100      	bne.n	8001ea4 <modifySettingsWithCommand+0x48>
 8001ea2:	e0a6      	b.n	8001ff2 <modifySettingsWithCommand+0x196>
 8001ea4:	4ab8      	ldr	r2, [pc, #736]	@ (8002188 <modifySettingsWithCommand+0x32c>)
 8001ea6:	9b01      	ldr	r3, [sp, #4]
 8001ea8:	4293      	cmp	r3, r2
 8001eaa:	d100      	bne.n	8001eae <modifySettingsWithCommand+0x52>
 8001eac:	e0b5      	b.n	800201a <modifySettingsWithCommand+0x1be>
 8001eae:	4ab7      	ldr	r2, [pc, #732]	@ (800218c <modifySettingsWithCommand+0x330>)
 8001eb0:	4293      	cmp	r3, r2
 8001eb2:	d100      	bne.n	8001eb6 <modifySettingsWithCommand+0x5a>
 8001eb4:	e0c0      	b.n	8002038 <modifySettingsWithCommand+0x1dc>
 8001eb6:	4ab6      	ldr	r2, [pc, #728]	@ (8002190 <modifySettingsWithCommand+0x334>)
 8001eb8:	4293      	cmp	r3, r2
 8001eba:	d100      	bne.n	8001ebe <modifySettingsWithCommand+0x62>
 8001ebc:	e0cb      	b.n	8002056 <modifySettingsWithCommand+0x1fa>
 8001ebe:	4ab5      	ldr	r2, [pc, #724]	@ (8002194 <modifySettingsWithCommand+0x338>)
 8001ec0:	4293      	cmp	r3, r2
 8001ec2:	d100      	bne.n	8001ec6 <modifySettingsWithCommand+0x6a>
 8001ec4:	e0d6      	b.n	8002074 <modifySettingsWithCommand+0x218>
 8001ec6:	4ab4      	ldr	r2, [pc, #720]	@ (8002198 <modifySettingsWithCommand+0x33c>)
 8001ec8:	4293      	cmp	r3, r2
 8001eca:	d100      	bne.n	8001ece <modifySettingsWithCommand+0x72>
 8001ecc:	e0e1      	b.n	8002092 <modifySettingsWithCommand+0x236>
 8001ece:	4ab3      	ldr	r2, [pc, #716]	@ (800219c <modifySettingsWithCommand+0x340>)
 8001ed0:	4293      	cmp	r3, r2
 8001ed2:	d100      	bne.n	8001ed6 <modifySettingsWithCommand+0x7a>
 8001ed4:	e0ec      	b.n	80020b0 <modifySettingsWithCommand+0x254>
 8001ed6:	4ab2      	ldr	r2, [pc, #712]	@ (80021a0 <modifySettingsWithCommand+0x344>)
 8001ed8:	4293      	cmp	r3, r2
 8001eda:	d100      	bne.n	8001ede <modifySettingsWithCommand+0x82>
 8001edc:	e1e7      	b.n	80022ae <modifySettingsWithCommand+0x452>
 8001ede:	4ab1      	ldr	r2, [pc, #708]	@ (80021a4 <modifySettingsWithCommand+0x348>)
 8001ee0:	4293      	cmp	r3, r2
 8001ee2:	d100      	bne.n	8001ee6 <modifySettingsWithCommand+0x8a>
 8001ee4:	e1c9      	b.n	800227a <modifySettingsWithCommand+0x41e>
 8001ee6:	4ab0      	ldr	r2, [pc, #704]	@ (80021a8 <modifySettingsWithCommand+0x34c>)
 8001ee8:	9901      	ldr	r1, [sp, #4]
 8001eea:	4291      	cmp	r1, r2
 8001eec:	d100      	bne.n	8001ef0 <modifySettingsWithCommand+0x94>
 8001eee:	e1b8      	b.n	8002262 <modifySettingsWithCommand+0x406>
 8001ef0:	4aae      	ldr	r2, [pc, #696]	@ (80021ac <modifySettingsWithCommand+0x350>)
 8001ef2:	4293      	cmp	r3, r2
 8001ef4:	d100      	bne.n	8001ef8 <modifySettingsWithCommand+0x9c>
 8001ef6:	e1a9      	b.n	800224c <modifySettingsWithCommand+0x3f0>
 8001ef8:	4bad      	ldr	r3, [pc, #692]	@ (80021b0 <modifySettingsWithCommand+0x354>)
 8001efa:	9a01      	ldr	r2, [sp, #4]
 8001efc:	429a      	cmp	r2, r3
 8001efe:	d100      	bne.n	8001f02 <modifySettingsWithCommand+0xa6>
 8001f00:	e194      	b.n	800222c <modifySettingsWithCommand+0x3d0>
 8001f02:	4bac      	ldr	r3, [pc, #688]	@ (80021b4 <modifySettingsWithCommand+0x358>)
 8001f04:	9a01      	ldr	r2, [sp, #4]
 8001f06:	429a      	cmp	r2, r3
 8001f08:	d100      	bne.n	8001f0c <modifySettingsWithCommand+0xb0>
 8001f0a:	e123      	b.n	8002154 <modifySettingsWithCommand+0x2f8>
 8001f0c:	4baa      	ldr	r3, [pc, #680]	@ (80021b8 <modifySettingsWithCommand+0x35c>)
 8001f0e:	9a01      	ldr	r2, [sp, #4]
 8001f10:	429a      	cmp	r2, r3
 8001f12:	d100      	bne.n	8001f16 <modifySettingsWithCommand+0xba>
 8001f14:	e112      	b.n	800213c <modifySettingsWithCommand+0x2e0>
 8001f16:	4ba9      	ldr	r3, [pc, #676]	@ (80021bc <modifySettingsWithCommand+0x360>)
 8001f18:	9a01      	ldr	r2, [sp, #4]
 8001f1a:	429a      	cmp	r2, r3
 8001f1c:	d100      	bne.n	8001f20 <modifySettingsWithCommand+0xc4>
 8001f1e:	e102      	b.n	8002126 <modifySettingsWithCommand+0x2ca>
 8001f20:	4aa7      	ldr	r2, [pc, #668]	@ (80021c0 <modifySettingsWithCommand+0x364>)
 8001f22:	9b01      	ldr	r3, [sp, #4]
 8001f24:	4293      	cmp	r3, r2
 8001f26:	d100      	bne.n	8001f2a <modifySettingsWithCommand+0xce>
 8001f28:	e0f4      	b.n	8002114 <modifySettingsWithCommand+0x2b8>
 8001f2a:	4aa6      	ldr	r2, [pc, #664]	@ (80021c4 <modifySettingsWithCommand+0x368>)
 8001f2c:	4293      	cmp	r3, r2
 8001f2e:	d100      	bne.n	8001f32 <modifySettingsWithCommand+0xd6>
 8001f30:	e0e6      	b.n	8002100 <modifySettingsWithCommand+0x2a4>
 8001f32:	4ba5      	ldr	r3, [pc, #660]	@ (80021c8 <modifySettingsWithCommand+0x36c>)
 8001f34:	9a01      	ldr	r2, [sp, #4]
 8001f36:	429a      	cmp	r2, r3
 8001f38:	d100      	bne.n	8001f3c <modifySettingsWithCommand+0xe0>
 8001f3a:	2601      	movs	r6, #1
 8001f3c:	4ba3      	ldr	r3, [pc, #652]	@ (80021cc <modifySettingsWithCommand+0x370>)
 8001f3e:	9a01      	ldr	r2, [sp, #4]
 8001f40:	429a      	cmp	r2, r3
 8001f42:	d100      	bne.n	8001f46 <modifySettingsWithCommand+0xea>
 8001f44:	e0cf      	b.n	80020e6 <modifySettingsWithCommand+0x28a>
 8001f46:	0023      	movs	r3, r4
 8001f48:	002a      	movs	r2, r5
 8001f4a:	49a1      	ldr	r1, [pc, #644]	@ (80021d0 <modifySettingsWithCommand+0x374>)
 8001f4c:	48a1      	ldr	r0, [pc, #644]	@ (80021d4 <modifySettingsWithCommand+0x378>)
 8001f4e:	f005 ff23 	bl	8007d98 <siprintf>
 8001f52:	0030      	movs	r0, r6
 8001f54:	b006      	add	sp, #24
 8001f56:	bd70      	pop	{r4, r5, r6, pc}
 8001f58:	88aa      	ldrh	r2, [r5, #4]
 8001f5a:	2a48      	cmp	r2, #72	@ 0x48
 8001f5c:	d000      	beq.n	8001f60 <modifySettingsWithCommand+0x104>
 8001f5e:	e789      	b.n	8001e74 <modifySettingsWithCommand+0x18>
 8001f60:	240e      	movs	r4, #14
 8001f62:	446c      	add	r4, sp
 8001f64:	0020      	movs	r0, r4
 8001f66:	f005 fdb7 	bl	8007ad8 <atoi>
 8001f6a:	4b9b      	ldr	r3, [pc, #620]	@ (80021d8 <modifySettingsWithCommand+0x37c>)
 8001f6c:	4a81      	ldr	r2, [pc, #516]	@ (8002174 <modifySettingsWithCommand+0x318>)
 8001f6e:	7018      	strb	r0, [r3, #0]
 8001f70:	9b01      	ldr	r3, [sp, #4]
 8001f72:	2601      	movs	r6, #1
 8001f74:	4293      	cmp	r3, r2
 8001f76:	d000      	beq.n	8001f7a <modifySettingsWithCommand+0x11e>
 8001f78:	e783      	b.n	8001e82 <modifySettingsWithCommand+0x26>
 8001f7a:	88aa      	ldrh	r2, [r5, #4]
 8001f7c:	2a48      	cmp	r2, #72	@ 0x48
 8001f7e:	d000      	beq.n	8001f82 <modifySettingsWithCommand+0x126>
 8001f80:	e77f      	b.n	8001e82 <modifySettingsWithCommand+0x26>
 8001f82:	0020      	movs	r0, r4
 8001f84:	f005 fda8 	bl	8007ad8 <atoi>
 8001f88:	4b94      	ldr	r3, [pc, #592]	@ (80021dc <modifySettingsWithCommand+0x380>)
 8001f8a:	4a7b      	ldr	r2, [pc, #492]	@ (8002178 <modifySettingsWithCommand+0x31c>)
 8001f8c:	7018      	strb	r0, [r3, #0]
 8001f8e:	9b01      	ldr	r3, [sp, #4]
 8001f90:	2601      	movs	r6, #1
 8001f92:	4293      	cmp	r3, r2
 8001f94:	d000      	beq.n	8001f98 <modifySettingsWithCommand+0x13c>
 8001f96:	e778      	b.n	8001e8a <modifySettingsWithCommand+0x2e>
 8001f98:	88aa      	ldrh	r2, [r5, #4]
 8001f9a:	2a48      	cmp	r2, #72	@ 0x48
 8001f9c:	d000      	beq.n	8001fa0 <modifySettingsWithCommand+0x144>
 8001f9e:	e774      	b.n	8001e8a <modifySettingsWithCommand+0x2e>
 8001fa0:	0020      	movs	r0, r4
 8001fa2:	f005 fd99 	bl	8007ad8 <atoi>
 8001fa6:	4b8e      	ldr	r3, [pc, #568]	@ (80021e0 <modifySettingsWithCommand+0x384>)
 8001fa8:	4a74      	ldr	r2, [pc, #464]	@ (800217c <modifySettingsWithCommand+0x320>)
 8001faa:	7018      	strb	r0, [r3, #0]
 8001fac:	9b01      	ldr	r3, [sp, #4]
 8001fae:	2601      	movs	r6, #1
 8001fb0:	4293      	cmp	r3, r2
 8001fb2:	d000      	beq.n	8001fb6 <modifySettingsWithCommand+0x15a>
 8001fb4:	e76d      	b.n	8001e92 <modifySettingsWithCommand+0x36>
 8001fb6:	88aa      	ldrh	r2, [r5, #4]
 8001fb8:	2a48      	cmp	r2, #72	@ 0x48
 8001fba:	d000      	beq.n	8001fbe <modifySettingsWithCommand+0x162>
 8001fbc:	e769      	b.n	8001e92 <modifySettingsWithCommand+0x36>
 8001fbe:	0020      	movs	r0, r4
 8001fc0:	f005 fd8a 	bl	8007ad8 <atoi>
 8001fc4:	4b87      	ldr	r3, [pc, #540]	@ (80021e4 <modifySettingsWithCommand+0x388>)
 8001fc6:	4a6e      	ldr	r2, [pc, #440]	@ (8002180 <modifySettingsWithCommand+0x324>)
 8001fc8:	7018      	strb	r0, [r3, #0]
 8001fca:	9b01      	ldr	r3, [sp, #4]
 8001fcc:	2601      	movs	r6, #1
 8001fce:	4293      	cmp	r3, r2
 8001fd0:	d000      	beq.n	8001fd4 <modifySettingsWithCommand+0x178>
 8001fd2:	e762      	b.n	8001e9a <modifySettingsWithCommand+0x3e>
 8001fd4:	88ab      	ldrh	r3, [r5, #4]
 8001fd6:	2b48      	cmp	r3, #72	@ 0x48
 8001fd8:	d000      	beq.n	8001fdc <modifySettingsWithCommand+0x180>
 8001fda:	e75e      	b.n	8001e9a <modifySettingsWithCommand+0x3e>
 8001fdc:	0020      	movs	r0, r4
 8001fde:	f005 fd7b 	bl	8007ad8 <atoi>
 8001fe2:	4b81      	ldr	r3, [pc, #516]	@ (80021e8 <modifySettingsWithCommand+0x38c>)
 8001fe4:	9a01      	ldr	r2, [sp, #4]
 8001fe6:	7018      	strb	r0, [r3, #0]
 8001fe8:	4b66      	ldr	r3, [pc, #408]	@ (8002184 <modifySettingsWithCommand+0x328>)
 8001fea:	2601      	movs	r6, #1
 8001fec:	429a      	cmp	r2, r3
 8001fee:	d000      	beq.n	8001ff2 <modifySettingsWithCommand+0x196>
 8001ff0:	e758      	b.n	8001ea4 <modifySettingsWithCommand+0x48>
 8001ff2:	4b7e      	ldr	r3, [pc, #504]	@ (80021ec <modifySettingsWithCommand+0x390>)
 8001ff4:	88aa      	ldrh	r2, [r5, #4]
 8001ff6:	429a      	cmp	r2, r3
 8001ff8:	d000      	beq.n	8001ffc <modifySettingsWithCommand+0x1a0>
 8001ffa:	e753      	b.n	8001ea4 <modifySettingsWithCommand+0x48>
 8001ffc:	79ab      	ldrb	r3, [r5, #6]
 8001ffe:	2b00      	cmp	r3, #0
 8002000:	d000      	beq.n	8002004 <modifySettingsWithCommand+0x1a8>
 8002002:	e74f      	b.n	8001ea4 <modifySettingsWithCommand+0x48>
 8002004:	0020      	movs	r0, r4
 8002006:	f005 fd67 	bl	8007ad8 <atoi>
 800200a:	4b79      	ldr	r3, [pc, #484]	@ (80021f0 <modifySettingsWithCommand+0x394>)
 800200c:	4a5e      	ldr	r2, [pc, #376]	@ (8002188 <modifySettingsWithCommand+0x32c>)
 800200e:	7018      	strb	r0, [r3, #0]
 8002010:	9b01      	ldr	r3, [sp, #4]
 8002012:	2601      	movs	r6, #1
 8002014:	4293      	cmp	r3, r2
 8002016:	d000      	beq.n	800201a <modifySettingsWithCommand+0x1be>
 8002018:	e749      	b.n	8001eae <modifySettingsWithCommand+0x52>
 800201a:	88aa      	ldrh	r2, [r5, #4]
 800201c:	2a56      	cmp	r2, #86	@ 0x56
 800201e:	d000      	beq.n	8002022 <modifySettingsWithCommand+0x1c6>
 8002020:	e745      	b.n	8001eae <modifySettingsWithCommand+0x52>
 8002022:	0020      	movs	r0, r4
 8002024:	f005 fd58 	bl	8007ad8 <atoi>
 8002028:	4b72      	ldr	r3, [pc, #456]	@ (80021f4 <modifySettingsWithCommand+0x398>)
 800202a:	4a58      	ldr	r2, [pc, #352]	@ (800218c <modifySettingsWithCommand+0x330>)
 800202c:	7018      	strb	r0, [r3, #0]
 800202e:	9b01      	ldr	r3, [sp, #4]
 8002030:	2601      	movs	r6, #1
 8002032:	4293      	cmp	r3, r2
 8002034:	d000      	beq.n	8002038 <modifySettingsWithCommand+0x1dc>
 8002036:	e73e      	b.n	8001eb6 <modifySettingsWithCommand+0x5a>
 8002038:	88aa      	ldrh	r2, [r5, #4]
 800203a:	2a56      	cmp	r2, #86	@ 0x56
 800203c:	d000      	beq.n	8002040 <modifySettingsWithCommand+0x1e4>
 800203e:	e73a      	b.n	8001eb6 <modifySettingsWithCommand+0x5a>
 8002040:	0020      	movs	r0, r4
 8002042:	f005 fd49 	bl	8007ad8 <atoi>
 8002046:	4b6c      	ldr	r3, [pc, #432]	@ (80021f8 <modifySettingsWithCommand+0x39c>)
 8002048:	4a51      	ldr	r2, [pc, #324]	@ (8002190 <modifySettingsWithCommand+0x334>)
 800204a:	7018      	strb	r0, [r3, #0]
 800204c:	9b01      	ldr	r3, [sp, #4]
 800204e:	2601      	movs	r6, #1
 8002050:	4293      	cmp	r3, r2
 8002052:	d000      	beq.n	8002056 <modifySettingsWithCommand+0x1fa>
 8002054:	e733      	b.n	8001ebe <modifySettingsWithCommand+0x62>
 8002056:	88aa      	ldrh	r2, [r5, #4]
 8002058:	2a56      	cmp	r2, #86	@ 0x56
 800205a:	d000      	beq.n	800205e <modifySettingsWithCommand+0x202>
 800205c:	e72f      	b.n	8001ebe <modifySettingsWithCommand+0x62>
 800205e:	0020      	movs	r0, r4
 8002060:	f005 fd3a 	bl	8007ad8 <atoi>
 8002064:	4b65      	ldr	r3, [pc, #404]	@ (80021fc <modifySettingsWithCommand+0x3a0>)
 8002066:	4a4b      	ldr	r2, [pc, #300]	@ (8002194 <modifySettingsWithCommand+0x338>)
 8002068:	7018      	strb	r0, [r3, #0]
 800206a:	9b01      	ldr	r3, [sp, #4]
 800206c:	2601      	movs	r6, #1
 800206e:	4293      	cmp	r3, r2
 8002070:	d000      	beq.n	8002074 <modifySettingsWithCommand+0x218>
 8002072:	e728      	b.n	8001ec6 <modifySettingsWithCommand+0x6a>
 8002074:	88aa      	ldrh	r2, [r5, #4]
 8002076:	2a56      	cmp	r2, #86	@ 0x56
 8002078:	d000      	beq.n	800207c <modifySettingsWithCommand+0x220>
 800207a:	e724      	b.n	8001ec6 <modifySettingsWithCommand+0x6a>
 800207c:	0020      	movs	r0, r4
 800207e:	f005 fd2b 	bl	8007ad8 <atoi>
 8002082:	4b5f      	ldr	r3, [pc, #380]	@ (8002200 <modifySettingsWithCommand+0x3a4>)
 8002084:	4a44      	ldr	r2, [pc, #272]	@ (8002198 <modifySettingsWithCommand+0x33c>)
 8002086:	7018      	strb	r0, [r3, #0]
 8002088:	9b01      	ldr	r3, [sp, #4]
 800208a:	2601      	movs	r6, #1
 800208c:	4293      	cmp	r3, r2
 800208e:	d000      	beq.n	8002092 <modifySettingsWithCommand+0x236>
 8002090:	e71d      	b.n	8001ece <modifySettingsWithCommand+0x72>
 8002092:	88aa      	ldrh	r2, [r5, #4]
 8002094:	2a56      	cmp	r2, #86	@ 0x56
 8002096:	d000      	beq.n	800209a <modifySettingsWithCommand+0x23e>
 8002098:	e719      	b.n	8001ece <modifySettingsWithCommand+0x72>
 800209a:	0020      	movs	r0, r4
 800209c:	f005 fd1c 	bl	8007ad8 <atoi>
 80020a0:	4b58      	ldr	r3, [pc, #352]	@ (8002204 <modifySettingsWithCommand+0x3a8>)
 80020a2:	4a3e      	ldr	r2, [pc, #248]	@ (800219c <modifySettingsWithCommand+0x340>)
 80020a4:	7018      	strb	r0, [r3, #0]
 80020a6:	9b01      	ldr	r3, [sp, #4]
 80020a8:	2601      	movs	r6, #1
 80020aa:	4293      	cmp	r3, r2
 80020ac:	d000      	beq.n	80020b0 <modifySettingsWithCommand+0x254>
 80020ae:	e712      	b.n	8001ed6 <modifySettingsWithCommand+0x7a>
 80020b0:	88aa      	ldrh	r2, [r5, #4]
 80020b2:	2a53      	cmp	r2, #83	@ 0x53
 80020b4:	d000      	beq.n	80020b8 <modifySettingsWithCommand+0x25c>
 80020b6:	e70e      	b.n	8001ed6 <modifySettingsWithCommand+0x7a>
 80020b8:	4a53      	ldr	r2, [pc, #332]	@ (8002208 <modifySettingsWithCommand+0x3ac>)
 80020ba:	8821      	ldrh	r1, [r4, #0]
 80020bc:	4291      	cmp	r1, r2
 80020be:	d100      	bne.n	80020c2 <modifySettingsWithCommand+0x266>
 80020c0:	e127      	b.n	8002312 <modifySettingsWithCommand+0x4b6>
 80020c2:	4a52      	ldr	r2, [pc, #328]	@ (800220c <modifySettingsWithCommand+0x3b0>)
 80020c4:	8821      	ldrh	r1, [r4, #0]
 80020c6:	4291      	cmp	r1, r2
 80020c8:	d100      	bne.n	80020cc <modifySettingsWithCommand+0x270>
 80020ca:	e11a      	b.n	8002302 <modifySettingsWithCommand+0x4a6>
 80020cc:	4a50      	ldr	r2, [pc, #320]	@ (8002210 <modifySettingsWithCommand+0x3b4>)
 80020ce:	8821      	ldrh	r1, [r4, #0]
 80020d0:	4291      	cmp	r1, r2
 80020d2:	d000      	beq.n	80020d6 <modifySettingsWithCommand+0x27a>
 80020d4:	e6ff      	b.n	8001ed6 <modifySettingsWithCommand+0x7a>
 80020d6:	78a2      	ldrb	r2, [r4, #2]
 80020d8:	2a00      	cmp	r2, #0
 80020da:	d000      	beq.n	80020de <modifySettingsWithCommand+0x282>
 80020dc:	e6fb      	b.n	8001ed6 <modifySettingsWithCommand+0x7a>
 80020de:	494d      	ldr	r1, [pc, #308]	@ (8002214 <modifySettingsWithCommand+0x3b8>)
 80020e0:	2601      	movs	r6, #1
 80020e2:	700a      	strb	r2, [r1, #0]
 80020e4:	e6f7      	b.n	8001ed6 <modifySettingsWithCommand+0x7a>
 80020e6:	4b4c      	ldr	r3, [pc, #304]	@ (8002218 <modifySettingsWithCommand+0x3bc>)
 80020e8:	88aa      	ldrh	r2, [r5, #4]
 80020ea:	429a      	cmp	r2, r3
 80020ec:	d000      	beq.n	80020f0 <modifySettingsWithCommand+0x294>
 80020ee:	e72a      	b.n	8001f46 <modifySettingsWithCommand+0xea>
 80020f0:	79ab      	ldrb	r3, [r5, #6]
 80020f2:	2b00      	cmp	r3, #0
 80020f4:	d000      	beq.n	80020f8 <modifySettingsWithCommand+0x29c>
 80020f6:	e726      	b.n	8001f46 <modifySettingsWithCommand+0xea>
 80020f8:	f7ff fd5c 	bl	8001bb4 <serialPrintStatus>
 80020fc:	2601      	movs	r6, #1
 80020fe:	e722      	b.n	8001f46 <modifySettingsWithCommand+0xea>
 8002100:	792b      	ldrb	r3, [r5, #4]
 8002102:	2b00      	cmp	r3, #0
 8002104:	d000      	beq.n	8002108 <modifySettingsWithCommand+0x2ac>
 8002106:	e714      	b.n	8001f32 <modifySettingsWithCommand+0xd6>
 8002108:	f7ff fc60 	bl	80019cc <readSettingsFromEeprom>
 800210c:	2601      	movs	r6, #1
 800210e:	f7ff fdd7 	bl	8001cc0 <serialPrintSettings>
 8002112:	e70e      	b.n	8001f32 <modifySettingsWithCommand+0xd6>
 8002114:	792a      	ldrb	r2, [r5, #4]
 8002116:	2a00      	cmp	r2, #0
 8002118:	d000      	beq.n	800211c <modifySettingsWithCommand+0x2c0>
 800211a:	e706      	b.n	8001f2a <modifySettingsWithCommand+0xce>
 800211c:	f7ff fb96 	bl	800184c <storeSettingsToEeprom>
 8002120:	2601      	movs	r6, #1
 8002122:	9b01      	ldr	r3, [sp, #4]
 8002124:	e701      	b.n	8001f2a <modifySettingsWithCommand+0xce>
 8002126:	88ab      	ldrh	r3, [r5, #4]
 8002128:	2b4d      	cmp	r3, #77	@ 0x4d
 800212a:	d000      	beq.n	800212e <modifySettingsWithCommand+0x2d2>
 800212c:	e6f8      	b.n	8001f20 <modifySettingsWithCommand+0xc4>
 800212e:	0020      	movs	r0, r4
 8002130:	f005 fcd2 	bl	8007ad8 <atoi>
 8002134:	4b39      	ldr	r3, [pc, #228]	@ (800221c <modifySettingsWithCommand+0x3c0>)
 8002136:	2601      	movs	r6, #1
 8002138:	7018      	strb	r0, [r3, #0]
 800213a:	e6f1      	b.n	8001f20 <modifySettingsWithCommand+0xc4>
 800213c:	4b38      	ldr	r3, [pc, #224]	@ (8002220 <modifySettingsWithCommand+0x3c4>)
 800213e:	686a      	ldr	r2, [r5, #4]
 8002140:	429a      	cmp	r2, r3
 8002142:	d000      	beq.n	8002146 <modifySettingsWithCommand+0x2ea>
 8002144:	e6e7      	b.n	8001f16 <modifySettingsWithCommand+0xba>
 8002146:	0020      	movs	r0, r4
 8002148:	f005 fcc6 	bl	8007ad8 <atoi>
 800214c:	4b35      	ldr	r3, [pc, #212]	@ (8002224 <modifySettingsWithCommand+0x3c8>)
 800214e:	2601      	movs	r6, #1
 8002150:	7018      	strb	r0, [r3, #0]
 8002152:	e6e0      	b.n	8001f16 <modifySettingsWithCommand+0xba>
 8002154:	792b      	ldrb	r3, [r5, #4]
 8002156:	2b00      	cmp	r3, #0
 8002158:	d000      	beq.n	800215c <modifySettingsWithCommand+0x300>
 800215a:	e6d7      	b.n	8001f0c <modifySettingsWithCommand+0xb0>
 800215c:	0020      	movs	r0, r4
 800215e:	f005 fcbb 	bl	8007ad8 <atoi>
 8002162:	4b31      	ldr	r3, [pc, #196]	@ (8002228 <modifySettingsWithCommand+0x3cc>)
 8002164:	2601      	movs	r6, #1
 8002166:	7018      	strb	r0, [r3, #0]
 8002168:	e6d0      	b.n	8001f0c <modifySettingsWithCommand+0xb0>
 800216a:	46c0      	nop			@ (mov r8, r8)
 800216c:	20002410 	.word	0x20002410
 8002170:	43324854 	.word	0x43324854
 8002174:	43325453 	.word	0x43325453
 8002178:	43325057 	.word	0x43325057
 800217c:	43323153 	.word	0x43323153
 8002180:	43323253 	.word	0x43323253
 8002184:	324d5241 	.word	0x324d5241
 8002188:	4552314d 	.word	0x4552314d
 800218c:	4552324d 	.word	0x4552324d
 8002190:	4552334d 	.word	0x4552334d
 8002194:	45523153 	.word	0x45523153
 8002198:	45523253 	.word	0x45523253
 800219c:	5341314d 	.word	0x5341314d
 80021a0:	5341324d 	.word	0x5341324d
 80021a4:	5341334d 	.word	0x5341334d
 80021a8:	44445057 	.word	0x44445057
 80021ac:	4f4b4e54 	.word	0x4f4b4e54
 80021b0:	49444f4e 	.word	0x49444f4e
 80021b4:	4d494c56 	.word	0x4d494c56
 80021b8:	54554356 	.word	0x54554356
 80021bc:	57505852 	.word	0x57505852
 80021c0:	45564153 	.word	0x45564153
 80021c4:	44414552 	.word	0x44414552
 80021c8:	004e4f43 	.word	0x004e4f43
 80021cc:	54415453 	.word	0x54415453
 80021d0:	08009230 	.word	0x08009230
 80021d4:	20002148 	.word	0x20002148
 80021d8:	20000011 	.word	0x20000011
 80021dc:	20000010 	.word	0x20000010
 80021e0:	2000000f 	.word	0x2000000f
 80021e4:	2000000e 	.word	0x2000000e
 80021e8:	2000000d 	.word	0x2000000d
 80021ec:	00004843 	.word	0x00004843
 80021f0:	2000000c 	.word	0x2000000c
 80021f4:	2000000b 	.word	0x2000000b
 80021f8:	2000000a 	.word	0x2000000a
 80021fc:	20002166 	.word	0x20002166
 8002200:	20002165 	.word	0x20002165
 8002204:	20002164 	.word	0x20002164
 8002208:	00004c4d 	.word	0x00004c4d
 800220c:	0000524d 	.word	0x0000524d
 8002210:	00005057 	.word	0x00005057
 8002214:	20000008 	.word	0x20000008
 8002218:	00005355 	.word	0x00005355
 800221c:	20000000 	.word	0x20000000
 8002220:	0046464f 	.word	0x0046464f
 8002224:	20000004 	.word	0x20000004
 8002228:	20000005 	.word	0x20000005
 800222c:	4b45      	ldr	r3, [pc, #276]	@ (8002344 <modifySettingsWithCommand+0x4e8>)
 800222e:	686a      	ldr	r2, [r5, #4]
 8002230:	429a      	cmp	r2, r3
 8002232:	d000      	beq.n	8002236 <modifySettingsWithCommand+0x3da>
 8002234:	e665      	b.n	8001f02 <modifySettingsWithCommand+0xa6>
 8002236:	7a2b      	ldrb	r3, [r5, #8]
 8002238:	2b00      	cmp	r3, #0
 800223a:	d000      	beq.n	800223e <modifySettingsWithCommand+0x3e2>
 800223c:	e661      	b.n	8001f02 <modifySettingsWithCommand+0xa6>
 800223e:	0020      	movs	r0, r4
 8002240:	f005 fc4a 	bl	8007ad8 <atoi>
 8002244:	4b40      	ldr	r3, [pc, #256]	@ (8002348 <modifySettingsWithCommand+0x4ec>)
 8002246:	2601      	movs	r6, #1
 8002248:	7018      	strb	r0, [r3, #0]
 800224a:	e65a      	b.n	8001f02 <modifySettingsWithCommand+0xa6>
 800224c:	88ab      	ldrh	r3, [r5, #4]
 800224e:	2b4e      	cmp	r3, #78	@ 0x4e
 8002250:	d000      	beq.n	8002254 <modifySettingsWithCommand+0x3f8>
 8002252:	e651      	b.n	8001ef8 <modifySettingsWithCommand+0x9c>
 8002254:	0020      	movs	r0, r4
 8002256:	f005 fc3f 	bl	8007ad8 <atoi>
 800225a:	4b3c      	ldr	r3, [pc, #240]	@ (800234c <modifySettingsWithCommand+0x4f0>)
 800225c:	2601      	movs	r6, #1
 800225e:	7018      	strb	r0, [r3, #0]
 8002260:	e64a      	b.n	8001ef8 <modifySettingsWithCommand+0x9c>
 8002262:	792a      	ldrb	r2, [r5, #4]
 8002264:	2a00      	cmp	r2, #0
 8002266:	d000      	beq.n	800226a <modifySettingsWithCommand+0x40e>
 8002268:	e642      	b.n	8001ef0 <modifySettingsWithCommand+0x94>
 800226a:	0020      	movs	r0, r4
 800226c:	f005 fc34 	bl	8007ad8 <atoi>
 8002270:	4b37      	ldr	r3, [pc, #220]	@ (8002350 <modifySettingsWithCommand+0x4f4>)
 8002272:	2601      	movs	r6, #1
 8002274:	7018      	strb	r0, [r3, #0]
 8002276:	9b01      	ldr	r3, [sp, #4]
 8002278:	e63a      	b.n	8001ef0 <modifySettingsWithCommand+0x94>
 800227a:	88aa      	ldrh	r2, [r5, #4]
 800227c:	2a53      	cmp	r2, #83	@ 0x53
 800227e:	d000      	beq.n	8002282 <modifySettingsWithCommand+0x426>
 8002280:	e631      	b.n	8001ee6 <modifySettingsWithCommand+0x8a>
 8002282:	4a34      	ldr	r2, [pc, #208]	@ (8002354 <modifySettingsWithCommand+0x4f8>)
 8002284:	8821      	ldrh	r1, [r4, #0]
 8002286:	4291      	cmp	r1, r2
 8002288:	d033      	beq.n	80022f2 <modifySettingsWithCommand+0x496>
 800228a:	4a33      	ldr	r2, [pc, #204]	@ (8002358 <modifySettingsWithCommand+0x4fc>)
 800228c:	8821      	ldrh	r1, [r4, #0]
 800228e:	4291      	cmp	r1, r2
 8002290:	d027      	beq.n	80022e2 <modifySettingsWithCommand+0x486>
 8002292:	4a32      	ldr	r2, [pc, #200]	@ (800235c <modifySettingsWithCommand+0x500>)
 8002294:	8821      	ldrh	r1, [r4, #0]
 8002296:	4291      	cmp	r1, r2
 8002298:	d000      	beq.n	800229c <modifySettingsWithCommand+0x440>
 800229a:	e624      	b.n	8001ee6 <modifySettingsWithCommand+0x8a>
 800229c:	78a2      	ldrb	r2, [r4, #2]
 800229e:	2a00      	cmp	r2, #0
 80022a0:	d000      	beq.n	80022a4 <modifySettingsWithCommand+0x448>
 80022a2:	e620      	b.n	8001ee6 <modifySettingsWithCommand+0x8a>
 80022a4:	2102      	movs	r1, #2
 80022a6:	4a2e      	ldr	r2, [pc, #184]	@ (8002360 <modifySettingsWithCommand+0x504>)
 80022a8:	2601      	movs	r6, #1
 80022aa:	7011      	strb	r1, [r2, #0]
 80022ac:	e61b      	b.n	8001ee6 <modifySettingsWithCommand+0x8a>
 80022ae:	88aa      	ldrh	r2, [r5, #4]
 80022b0:	2a53      	cmp	r2, #83	@ 0x53
 80022b2:	d000      	beq.n	80022b6 <modifySettingsWithCommand+0x45a>
 80022b4:	e613      	b.n	8001ede <modifySettingsWithCommand+0x82>
 80022b6:	4a27      	ldr	r2, [pc, #156]	@ (8002354 <modifySettingsWithCommand+0x4f8>)
 80022b8:	8821      	ldrh	r1, [r4, #0]
 80022ba:	4291      	cmp	r1, r2
 80022bc:	d039      	beq.n	8002332 <modifySettingsWithCommand+0x4d6>
 80022be:	4a26      	ldr	r2, [pc, #152]	@ (8002358 <modifySettingsWithCommand+0x4fc>)
 80022c0:	8821      	ldrh	r1, [r4, #0]
 80022c2:	4291      	cmp	r1, r2
 80022c4:	d02d      	beq.n	8002322 <modifySettingsWithCommand+0x4c6>
 80022c6:	4a25      	ldr	r2, [pc, #148]	@ (800235c <modifySettingsWithCommand+0x500>)
 80022c8:	8821      	ldrh	r1, [r4, #0]
 80022ca:	4291      	cmp	r1, r2
 80022cc:	d000      	beq.n	80022d0 <modifySettingsWithCommand+0x474>
 80022ce:	e606      	b.n	8001ede <modifySettingsWithCommand+0x82>
 80022d0:	78a2      	ldrb	r2, [r4, #2]
 80022d2:	2a00      	cmp	r2, #0
 80022d4:	d000      	beq.n	80022d8 <modifySettingsWithCommand+0x47c>
 80022d6:	e602      	b.n	8001ede <modifySettingsWithCommand+0x82>
 80022d8:	2101      	movs	r1, #1
 80022da:	4a21      	ldr	r2, [pc, #132]	@ (8002360 <modifySettingsWithCommand+0x504>)
 80022dc:	2601      	movs	r6, #1
 80022de:	7011      	strb	r1, [r2, #0]
 80022e0:	e5fd      	b.n	8001ede <modifySettingsWithCommand+0x82>
 80022e2:	78a2      	ldrb	r2, [r4, #2]
 80022e4:	2a00      	cmp	r2, #0
 80022e6:	d1d4      	bne.n	8002292 <modifySettingsWithCommand+0x436>
 80022e8:	2102      	movs	r1, #2
 80022ea:	4a1e      	ldr	r2, [pc, #120]	@ (8002364 <modifySettingsWithCommand+0x508>)
 80022ec:	2601      	movs	r6, #1
 80022ee:	7011      	strb	r1, [r2, #0]
 80022f0:	e7cf      	b.n	8002292 <modifySettingsWithCommand+0x436>
 80022f2:	78a2      	ldrb	r2, [r4, #2]
 80022f4:	2a00      	cmp	r2, #0
 80022f6:	d1c8      	bne.n	800228a <modifySettingsWithCommand+0x42e>
 80022f8:	2102      	movs	r1, #2
 80022fa:	4a1b      	ldr	r2, [pc, #108]	@ (8002368 <modifySettingsWithCommand+0x50c>)
 80022fc:	2601      	movs	r6, #1
 80022fe:	7011      	strb	r1, [r2, #0]
 8002300:	e7c3      	b.n	800228a <modifySettingsWithCommand+0x42e>
 8002302:	78a2      	ldrb	r2, [r4, #2]
 8002304:	2a00      	cmp	r2, #0
 8002306:	d000      	beq.n	800230a <modifySettingsWithCommand+0x4ae>
 8002308:	e6e0      	b.n	80020cc <modifySettingsWithCommand+0x270>
 800230a:	4916      	ldr	r1, [pc, #88]	@ (8002364 <modifySettingsWithCommand+0x508>)
 800230c:	2601      	movs	r6, #1
 800230e:	700a      	strb	r2, [r1, #0]
 8002310:	e6dc      	b.n	80020cc <modifySettingsWithCommand+0x270>
 8002312:	78a2      	ldrb	r2, [r4, #2]
 8002314:	2a00      	cmp	r2, #0
 8002316:	d000      	beq.n	800231a <modifySettingsWithCommand+0x4be>
 8002318:	e6d3      	b.n	80020c2 <modifySettingsWithCommand+0x266>
 800231a:	4913      	ldr	r1, [pc, #76]	@ (8002368 <modifySettingsWithCommand+0x50c>)
 800231c:	2601      	movs	r6, #1
 800231e:	700a      	strb	r2, [r1, #0]
 8002320:	e6cf      	b.n	80020c2 <modifySettingsWithCommand+0x266>
 8002322:	78a2      	ldrb	r2, [r4, #2]
 8002324:	2a00      	cmp	r2, #0
 8002326:	d1ce      	bne.n	80022c6 <modifySettingsWithCommand+0x46a>
 8002328:	2101      	movs	r1, #1
 800232a:	4a0e      	ldr	r2, [pc, #56]	@ (8002364 <modifySettingsWithCommand+0x508>)
 800232c:	2601      	movs	r6, #1
 800232e:	7011      	strb	r1, [r2, #0]
 8002330:	e7c9      	b.n	80022c6 <modifySettingsWithCommand+0x46a>
 8002332:	78a2      	ldrb	r2, [r4, #2]
 8002334:	2a00      	cmp	r2, #0
 8002336:	d1c2      	bne.n	80022be <modifySettingsWithCommand+0x462>
 8002338:	2101      	movs	r1, #1
 800233a:	4a0b      	ldr	r2, [pc, #44]	@ (8002368 <modifySettingsWithCommand+0x50c>)
 800233c:	2601      	movs	r6, #1
 800233e:	7011      	strb	r1, [r2, #0]
 8002340:	e7bd      	b.n	80022be <modifySettingsWithCommand+0x462>
 8002342:	46c0      	nop			@ (mov r8, r8)
 8002344:	4d524153 	.word	0x4d524153
 8002348:	20000006 	.word	0x20000006
 800234c:	20000007 	.word	0x20000007
 8002350:	20002162 	.word	0x20002162
 8002354:	00004c4d 	.word	0x00004c4d
 8002358:	0000524d 	.word	0x0000524d
 800235c:	00005057 	.word	0x00005057
 8002360:	20000008 	.word	0x20000008
 8002364:	20000009 	.word	0x20000009
 8002368:	20002163 	.word	0x20002163

0800236c <HAL_MspInit>:
 800236c:	2201      	movs	r2, #1
 800236e:	4b0a      	ldr	r3, [pc, #40]	@ (8002398 <HAL_MspInit+0x2c>)
 8002370:	b082      	sub	sp, #8
 8002372:	6999      	ldr	r1, [r3, #24]
 8002374:	4311      	orrs	r1, r2
 8002376:	6199      	str	r1, [r3, #24]
 8002378:	6999      	ldr	r1, [r3, #24]
 800237a:	400a      	ands	r2, r1
 800237c:	2180      	movs	r1, #128	@ 0x80
 800237e:	9200      	str	r2, [sp, #0]
 8002380:	9a00      	ldr	r2, [sp, #0]
 8002382:	69da      	ldr	r2, [r3, #28]
 8002384:	0549      	lsls	r1, r1, #21
 8002386:	430a      	orrs	r2, r1
 8002388:	61da      	str	r2, [r3, #28]
 800238a:	69db      	ldr	r3, [r3, #28]
 800238c:	400b      	ands	r3, r1
 800238e:	9301      	str	r3, [sp, #4]
 8002390:	9b01      	ldr	r3, [sp, #4]
 8002392:	b002      	add	sp, #8
 8002394:	4770      	bx	lr
 8002396:	46c0      	nop			@ (mov r8, r8)
 8002398:	40021000 	.word	0x40021000

0800239c <HAL_ADC_MspInit>:
 800239c:	b510      	push	{r4, lr}
 800239e:	0004      	movs	r4, r0
 80023a0:	b088      	sub	sp, #32
 80023a2:	2214      	movs	r2, #20
 80023a4:	2100      	movs	r1, #0
 80023a6:	a802      	add	r0, sp, #8
 80023a8:	f005 fd62 	bl	8007e70 <memset>
 80023ac:	4b11      	ldr	r3, [pc, #68]	@ (80023f4 <HAL_ADC_MspInit+0x58>)
 80023ae:	6822      	ldr	r2, [r4, #0]
 80023b0:	429a      	cmp	r2, r3
 80023b2:	d001      	beq.n	80023b8 <HAL_ADC_MspInit+0x1c>
 80023b4:	b008      	add	sp, #32
 80023b6:	bd10      	pop	{r4, pc}
 80023b8:	2180      	movs	r1, #128	@ 0x80
 80023ba:	4b0f      	ldr	r3, [pc, #60]	@ (80023f8 <HAL_ADC_MspInit+0x5c>)
 80023bc:	0089      	lsls	r1, r1, #2
 80023be:	699a      	ldr	r2, [r3, #24]
 80023c0:	2090      	movs	r0, #144	@ 0x90
 80023c2:	430a      	orrs	r2, r1
 80023c4:	619a      	str	r2, [r3, #24]
 80023c6:	699a      	ldr	r2, [r3, #24]
 80023c8:	05c0      	lsls	r0, r0, #23
 80023ca:	400a      	ands	r2, r1
 80023cc:	2180      	movs	r1, #128	@ 0x80
 80023ce:	9200      	str	r2, [sp, #0]
 80023d0:	9a00      	ldr	r2, [sp, #0]
 80023d2:	695a      	ldr	r2, [r3, #20]
 80023d4:	0289      	lsls	r1, r1, #10
 80023d6:	430a      	orrs	r2, r1
 80023d8:	615a      	str	r2, [r3, #20]
 80023da:	695b      	ldr	r3, [r3, #20]
 80023dc:	2207      	movs	r2, #7
 80023de:	400b      	ands	r3, r1
 80023e0:	9301      	str	r3, [sp, #4]
 80023e2:	9b01      	ldr	r3, [sp, #4]
 80023e4:	2303      	movs	r3, #3
 80023e6:	a902      	add	r1, sp, #8
 80023e8:	9202      	str	r2, [sp, #8]
 80023ea:	9303      	str	r3, [sp, #12]
 80023ec:	f000 fdc0 	bl	8002f70 <HAL_GPIO_Init>
 80023f0:	e7e0      	b.n	80023b4 <HAL_ADC_MspInit+0x18>
 80023f2:	46c0      	nop			@ (mov r8, r8)
 80023f4:	40012400 	.word	0x40012400
 80023f8:	40021000 	.word	0x40021000

080023fc <HAL_I2C_MspInit>:
 80023fc:	b510      	push	{r4, lr}
 80023fe:	0004      	movs	r4, r0
 8002400:	b088      	sub	sp, #32
 8002402:	2214      	movs	r2, #20
 8002404:	2100      	movs	r1, #0
 8002406:	a802      	add	r0, sp, #8
 8002408:	f005 fd32 	bl	8007e70 <memset>
 800240c:	4b14      	ldr	r3, [pc, #80]	@ (8002460 <HAL_I2C_MspInit+0x64>)
 800240e:	6822      	ldr	r2, [r4, #0]
 8002410:	429a      	cmp	r2, r3
 8002412:	d001      	beq.n	8002418 <HAL_I2C_MspInit+0x1c>
 8002414:	b008      	add	sp, #32
 8002416:	bd10      	pop	{r4, pc}
 8002418:	2280      	movs	r2, #128	@ 0x80
 800241a:	4c12      	ldr	r4, [pc, #72]	@ (8002464 <HAL_I2C_MspInit+0x68>)
 800241c:	02d2      	lsls	r2, r2, #11
 800241e:	6963      	ldr	r3, [r4, #20]
 8002420:	4811      	ldr	r0, [pc, #68]	@ (8002468 <HAL_I2C_MspInit+0x6c>)
 8002422:	4313      	orrs	r3, r2
 8002424:	6163      	str	r3, [r4, #20]
 8002426:	6963      	ldr	r3, [r4, #20]
 8002428:	a902      	add	r1, sp, #8
 800242a:	4013      	ands	r3, r2
 800242c:	9300      	str	r3, [sp, #0]
 800242e:	22c0      	movs	r2, #192	@ 0xc0
 8002430:	9b00      	ldr	r3, [sp, #0]
 8002432:	2312      	movs	r3, #18
 8002434:	0092      	lsls	r2, r2, #2
 8002436:	9202      	str	r2, [sp, #8]
 8002438:	9303      	str	r3, [sp, #12]
 800243a:	2201      	movs	r2, #1
 800243c:	2303      	movs	r3, #3
 800243e:	9204      	str	r2, [sp, #16]
 8002440:	9305      	str	r3, [sp, #20]
 8002442:	2301      	movs	r3, #1
 8002444:	9306      	str	r3, [sp, #24]
 8002446:	f000 fd93 	bl	8002f70 <HAL_GPIO_Init>
 800244a:	2280      	movs	r2, #128	@ 0x80
 800244c:	69e3      	ldr	r3, [r4, #28]
 800244e:	0392      	lsls	r2, r2, #14
 8002450:	4313      	orrs	r3, r2
 8002452:	61e3      	str	r3, [r4, #28]
 8002454:	69e3      	ldr	r3, [r4, #28]
 8002456:	4013      	ands	r3, r2
 8002458:	9301      	str	r3, [sp, #4]
 800245a:	9b01      	ldr	r3, [sp, #4]
 800245c:	e7da      	b.n	8002414 <HAL_I2C_MspInit+0x18>
 800245e:	46c0      	nop			@ (mov r8, r8)
 8002460:	40005400 	.word	0x40005400
 8002464:	40021000 	.word	0x40021000
 8002468:	48000400 	.word	0x48000400

0800246c <HAL_TIM_Base_MspInit>:
 800246c:	b530      	push	{r4, r5, lr}
 800246e:	6803      	ldr	r3, [r0, #0]
 8002470:	4a3f      	ldr	r2, [pc, #252]	@ (8002570 <HAL_TIM_Base_MspInit+0x104>)
 8002472:	0004      	movs	r4, r0
 8002474:	b087      	sub	sp, #28
 8002476:	4293      	cmp	r3, r2
 8002478:	d017      	beq.n	80024aa <HAL_TIM_Base_MspInit+0x3e>
 800247a:	4a3e      	ldr	r2, [pc, #248]	@ (8002574 <HAL_TIM_Base_MspInit+0x108>)
 800247c:	4293      	cmp	r3, r2
 800247e:	d037      	beq.n	80024f0 <HAL_TIM_Base_MspInit+0x84>
 8002480:	4a3d      	ldr	r2, [pc, #244]	@ (8002578 <HAL_TIM_Base_MspInit+0x10c>)
 8002482:	4293      	cmp	r3, r2
 8002484:	d007      	beq.n	8002496 <HAL_TIM_Base_MspInit+0x2a>
 8002486:	4a3d      	ldr	r2, [pc, #244]	@ (800257c <HAL_TIM_Base_MspInit+0x110>)
 8002488:	4293      	cmp	r3, r2
 800248a:	d055      	beq.n	8002538 <HAL_TIM_Base_MspInit+0xcc>
 800248c:	4a3c      	ldr	r2, [pc, #240]	@ (8002580 <HAL_TIM_Base_MspInit+0x114>)
 800248e:	4293      	cmp	r3, r2
 8002490:	d05d      	beq.n	800254e <HAL_TIM_Base_MspInit+0xe2>
 8002492:	b007      	add	sp, #28
 8002494:	bd30      	pop	{r4, r5, pc}
 8002496:	2310      	movs	r3, #16
 8002498:	4a3a      	ldr	r2, [pc, #232]	@ (8002584 <HAL_TIM_Base_MspInit+0x118>)
 800249a:	69d1      	ldr	r1, [r2, #28]
 800249c:	4319      	orrs	r1, r3
 800249e:	61d1      	str	r1, [r2, #28]
 80024a0:	69d2      	ldr	r2, [r2, #28]
 80024a2:	4013      	ands	r3, r2
 80024a4:	9303      	str	r3, [sp, #12]
 80024a6:	9b03      	ldr	r3, [sp, #12]
 80024a8:	e7f3      	b.n	8002492 <HAL_TIM_Base_MspInit+0x26>
 80024aa:	2380      	movs	r3, #128	@ 0x80
 80024ac:	4a35      	ldr	r2, [pc, #212]	@ (8002584 <HAL_TIM_Base_MspInit+0x118>)
 80024ae:	011b      	lsls	r3, r3, #4
 80024b0:	6991      	ldr	r1, [r2, #24]
 80024b2:	4d35      	ldr	r5, [pc, #212]	@ (8002588 <HAL_TIM_Base_MspInit+0x11c>)
 80024b4:	4319      	orrs	r1, r3
 80024b6:	6191      	str	r1, [r2, #24]
 80024b8:	6992      	ldr	r2, [r2, #24]
 80024ba:	2180      	movs	r1, #128	@ 0x80
 80024bc:	401a      	ands	r2, r3
 80024be:	9201      	str	r2, [sp, #4]
 80024c0:	9a01      	ldr	r2, [sp, #4]
 80024c2:	4a32      	ldr	r2, [pc, #200]	@ (800258c <HAL_TIM_Base_MspInit+0x120>)
 80024c4:	616b      	str	r3, [r5, #20]
 80024c6:	602a      	str	r2, [r5, #0]
 80024c8:	2210      	movs	r2, #16
 80024ca:	2320      	movs	r3, #32
 80024cc:	606a      	str	r2, [r5, #4]
 80024ce:	2200      	movs	r2, #0
 80024d0:	60e9      	str	r1, [r5, #12]
 80024d2:	3181      	adds	r1, #129	@ 0x81
 80024d4:	31ff      	adds	r1, #255	@ 0xff
 80024d6:	0028      	movs	r0, r5
 80024d8:	60aa      	str	r2, [r5, #8]
 80024da:	6129      	str	r1, [r5, #16]
 80024dc:	61ab      	str	r3, [r5, #24]
 80024de:	61ea      	str	r2, [r5, #28]
 80024e0:	f000 fc98 	bl	8002e14 <HAL_DMA_Init>
 80024e4:	2800      	cmp	r0, #0
 80024e6:	d13d      	bne.n	8002564 <HAL_TIM_Base_MspInit+0xf8>
 80024e8:	62e5      	str	r5, [r4, #44]	@ 0x2c
 80024ea:	6225      	str	r5, [r4, #32]
 80024ec:	626c      	str	r4, [r5, #36]	@ 0x24
 80024ee:	e7d0      	b.n	8002492 <HAL_TIM_Base_MspInit+0x26>
 80024f0:	2302      	movs	r3, #2
 80024f2:	4a24      	ldr	r2, [pc, #144]	@ (8002584 <HAL_TIM_Base_MspInit+0x118>)
 80024f4:	4d26      	ldr	r5, [pc, #152]	@ (8002590 <HAL_TIM_Base_MspInit+0x124>)
 80024f6:	69d1      	ldr	r1, [r2, #28]
 80024f8:	0028      	movs	r0, r5
 80024fa:	4319      	orrs	r1, r3
 80024fc:	61d1      	str	r1, [r2, #28]
 80024fe:	69d2      	ldr	r2, [r2, #28]
 8002500:	4013      	ands	r3, r2
 8002502:	2280      	movs	r2, #128	@ 0x80
 8002504:	9302      	str	r3, [sp, #8]
 8002506:	60ea      	str	r2, [r5, #12]
 8002508:	3281      	adds	r2, #129	@ 0x81
 800250a:	32ff      	adds	r2, #255	@ 0xff
 800250c:	9b02      	ldr	r3, [sp, #8]
 800250e:	4b21      	ldr	r3, [pc, #132]	@ (8002594 <HAL_TIM_Base_MspInit+0x128>)
 8002510:	612a      	str	r2, [r5, #16]
 8002512:	2280      	movs	r2, #128	@ 0x80
 8002514:	602b      	str	r3, [r5, #0]
 8002516:	2310      	movs	r3, #16
 8002518:	0112      	lsls	r2, r2, #4
 800251a:	606b      	str	r3, [r5, #4]
 800251c:	616a      	str	r2, [r5, #20]
 800251e:	2300      	movs	r3, #0
 8002520:	2220      	movs	r2, #32
 8002522:	60ab      	str	r3, [r5, #8]
 8002524:	61aa      	str	r2, [r5, #24]
 8002526:	61eb      	str	r3, [r5, #28]
 8002528:	f000 fc74 	bl	8002e14 <HAL_DMA_Init>
 800252c:	2800      	cmp	r0, #0
 800252e:	d11c      	bne.n	800256a <HAL_TIM_Base_MspInit+0xfe>
 8002530:	6325      	str	r5, [r4, #48]	@ 0x30
 8002532:	6225      	str	r5, [r4, #32]
 8002534:	626c      	str	r4, [r5, #36]	@ 0x24
 8002536:	e7ac      	b.n	8002492 <HAL_TIM_Base_MspInit+0x26>
 8002538:	2180      	movs	r1, #128	@ 0x80
 800253a:	4b12      	ldr	r3, [pc, #72]	@ (8002584 <HAL_TIM_Base_MspInit+0x118>)
 800253c:	0289      	lsls	r1, r1, #10
 800253e:	699a      	ldr	r2, [r3, #24]
 8002540:	430a      	orrs	r2, r1
 8002542:	619a      	str	r2, [r3, #24]
 8002544:	699b      	ldr	r3, [r3, #24]
 8002546:	400b      	ands	r3, r1
 8002548:	9304      	str	r3, [sp, #16]
 800254a:	9b04      	ldr	r3, [sp, #16]
 800254c:	e7a1      	b.n	8002492 <HAL_TIM_Base_MspInit+0x26>
 800254e:	2180      	movs	r1, #128	@ 0x80
 8002550:	4b0c      	ldr	r3, [pc, #48]	@ (8002584 <HAL_TIM_Base_MspInit+0x118>)
 8002552:	02c9      	lsls	r1, r1, #11
 8002554:	699a      	ldr	r2, [r3, #24]
 8002556:	430a      	orrs	r2, r1
 8002558:	619a      	str	r2, [r3, #24]
 800255a:	699b      	ldr	r3, [r3, #24]
 800255c:	400b      	ands	r3, r1
 800255e:	9305      	str	r3, [sp, #20]
 8002560:	9b05      	ldr	r3, [sp, #20]
 8002562:	e796      	b.n	8002492 <HAL_TIM_Base_MspInit+0x26>
 8002564:	f7fe fcf6 	bl	8000f54 <Error_Handler>
 8002568:	e7be      	b.n	80024e8 <HAL_TIM_Base_MspInit+0x7c>
 800256a:	f7fe fcf3 	bl	8000f54 <Error_Handler>
 800256e:	e7df      	b.n	8002530 <HAL_TIM_Base_MspInit+0xc4>
 8002570:	40012c00 	.word	0x40012c00
 8002574:	40000400 	.word	0x40000400
 8002578:	40001000 	.word	0x40001000
 800257c:	40014400 	.word	0x40014400
 8002580:	40014800 	.word	0x40014800
 8002584:	40021000 	.word	0x40021000
 8002588:	200021b8 	.word	0x200021b8
 800258c:	40020058 	.word	0x40020058
 8002590:	20002174 	.word	0x20002174
 8002594:	40020030 	.word	0x40020030

08002598 <HAL_TIM_MspPostInit>:
 8002598:	b510      	push	{r4, lr}
 800259a:	0004      	movs	r4, r0
 800259c:	b088      	sub	sp, #32
 800259e:	2214      	movs	r2, #20
 80025a0:	2100      	movs	r1, #0
 80025a2:	a802      	add	r0, sp, #8
 80025a4:	f005 fc64 	bl	8007e70 <memset>
 80025a8:	6823      	ldr	r3, [r4, #0]
 80025aa:	4a14      	ldr	r2, [pc, #80]	@ (80025fc <HAL_TIM_MspPostInit+0x64>)
 80025ac:	4293      	cmp	r3, r2
 80025ae:	d004      	beq.n	80025ba <HAL_TIM_MspPostInit+0x22>
 80025b0:	4a13      	ldr	r2, [pc, #76]	@ (8002600 <HAL_TIM_MspPostInit+0x68>)
 80025b2:	4293      	cmp	r3, r2
 80025b4:	d016      	beq.n	80025e4 <HAL_TIM_MspPostInit+0x4c>
 80025b6:	b008      	add	sp, #32
 80025b8:	bd10      	pop	{r4, pc}
 80025ba:	2180      	movs	r1, #128	@ 0x80
 80025bc:	4b11      	ldr	r3, [pc, #68]	@ (8002604 <HAL_TIM_MspPostInit+0x6c>)
 80025be:	02c9      	lsls	r1, r1, #11
 80025c0:	695a      	ldr	r2, [r3, #20]
 80025c2:	430a      	orrs	r2, r1
 80025c4:	615a      	str	r2, [r3, #20]
 80025c6:	2240      	movs	r2, #64	@ 0x40
 80025c8:	695b      	ldr	r3, [r3, #20]
 80025ca:	400b      	ands	r3, r1
 80025cc:	9300      	str	r3, [sp, #0]
 80025ce:	9b00      	ldr	r3, [sp, #0]
 80025d0:	2302      	movs	r3, #2
 80025d2:	9202      	str	r2, [sp, #8]
 80025d4:	9303      	str	r3, [sp, #12]
 80025d6:	2302      	movs	r3, #2
 80025d8:	480b      	ldr	r0, [pc, #44]	@ (8002608 <HAL_TIM_MspPostInit+0x70>)
 80025da:	a902      	add	r1, sp, #8
 80025dc:	9306      	str	r3, [sp, #24]
 80025de:	f000 fcc7 	bl	8002f70 <HAL_GPIO_Init>
 80025e2:	e7e8      	b.n	80025b6 <HAL_TIM_MspPostInit+0x1e>
 80025e4:	2180      	movs	r1, #128	@ 0x80
 80025e6:	4b07      	ldr	r3, [pc, #28]	@ (8002604 <HAL_TIM_MspPostInit+0x6c>)
 80025e8:	02c9      	lsls	r1, r1, #11
 80025ea:	695a      	ldr	r2, [r3, #20]
 80025ec:	430a      	orrs	r2, r1
 80025ee:	615a      	str	r2, [r3, #20]
 80025f0:	695b      	ldr	r3, [r3, #20]
 80025f2:	2280      	movs	r2, #128	@ 0x80
 80025f4:	400b      	ands	r3, r1
 80025f6:	9301      	str	r3, [sp, #4]
 80025f8:	9b01      	ldr	r3, [sp, #4]
 80025fa:	e7e9      	b.n	80025d0 <HAL_TIM_MspPostInit+0x38>
 80025fc:	40014400 	.word	0x40014400
 8002600:	40014800 	.word	0x40014800
 8002604:	40021000 	.word	0x40021000
 8002608:	48000400 	.word	0x48000400

0800260c <NMI_Handler>:
 800260c:	e7fe      	b.n	800260c <NMI_Handler>
 800260e:	46c0      	nop			@ (mov r8, r8)

08002610 <HardFault_Handler>:
 8002610:	e7fe      	b.n	8002610 <HardFault_Handler>
 8002612:	46c0      	nop			@ (mov r8, r8)

08002614 <SVC_Handler>:
 8002614:	4770      	bx	lr
 8002616:	46c0      	nop			@ (mov r8, r8)

08002618 <PendSV_Handler>:
 8002618:	4770      	bx	lr
 800261a:	46c0      	nop			@ (mov r8, r8)

0800261c <SysTick_Handler>:
 800261c:	b510      	push	{r4, lr}
 800261e:	f000 f8e7 	bl	80027f0 <HAL_IncTick>
 8002622:	bd10      	pop	{r4, pc}

08002624 <EXTI0_1_IRQHandler>:
 8002624:	b510      	push	{r4, lr}
 8002626:	2001      	movs	r0, #1
 8002628:	f000 fdb8 	bl	800319c <HAL_GPIO_EXTI_IRQHandler>
 800262c:	2002      	movs	r0, #2
 800262e:	f000 fdb5 	bl	800319c <HAL_GPIO_EXTI_IRQHandler>
 8002632:	bd10      	pop	{r4, pc}

08002634 <EXTI2_3_IRQHandler>:
 8002634:	b510      	push	{r4, lr}
 8002636:	2004      	movs	r0, #4
 8002638:	f000 fdb0 	bl	800319c <HAL_GPIO_EXTI_IRQHandler>
 800263c:	2008      	movs	r0, #8
 800263e:	f000 fdad 	bl	800319c <HAL_GPIO_EXTI_IRQHandler>
 8002642:	bd10      	pop	{r4, pc}

08002644 <DMA1_Channel2_3_IRQHandler>:
 8002644:	b510      	push	{r4, lr}
 8002646:	4802      	ldr	r0, [pc, #8]	@ (8002650 <DMA1_Channel2_3_IRQHandler+0xc>)
 8002648:	f000 fc44 	bl	8002ed4 <HAL_DMA_IRQHandler>
 800264c:	bd10      	pop	{r4, pc}
 800264e:	46c0      	nop			@ (mov r8, r8)
 8002650:	20002174 	.word	0x20002174

08002654 <DMA1_Channel4_5_IRQHandler>:
 8002654:	b510      	push	{r4, lr}
 8002656:	4802      	ldr	r0, [pc, #8]	@ (8002660 <DMA1_Channel4_5_IRQHandler+0xc>)
 8002658:	f000 fc3c 	bl	8002ed4 <HAL_DMA_IRQHandler>
 800265c:	bd10      	pop	{r4, pc}
 800265e:	46c0      	nop			@ (mov r8, r8)
 8002660:	200021b8 	.word	0x200021b8

08002664 <USB_IRQHandler>:
 8002664:	b510      	push	{r4, lr}
 8002666:	4802      	ldr	r0, [pc, #8]	@ (8002670 <USB_IRQHandler+0xc>)
 8002668:	f001 fce0 	bl	800402c <HAL_PCD_IRQHandler>
 800266c:	bd10      	pop	{r4, pc}
 800266e:	46c0      	nop			@ (mov r8, r8)
 8002670:	20003340 	.word	0x20003340

08002674 <_getpid>:
 8002674:	2001      	movs	r0, #1
 8002676:	4770      	bx	lr

08002678 <_kill>:
 8002678:	b510      	push	{r4, lr}
 800267a:	f005 fcaf 	bl	8007fdc <__errno>
 800267e:	2316      	movs	r3, #22
 8002680:	6003      	str	r3, [r0, #0]
 8002682:	2001      	movs	r0, #1
 8002684:	4240      	negs	r0, r0
 8002686:	bd10      	pop	{r4, pc}

08002688 <_exit>:
 8002688:	b510      	push	{r4, lr}
 800268a:	f005 fca7 	bl	8007fdc <__errno>
 800268e:	2316      	movs	r3, #22
 8002690:	6003      	str	r3, [r0, #0]
 8002692:	e7fe      	b.n	8002692 <_exit+0xa>

08002694 <_read>:
 8002694:	b570      	push	{r4, r5, r6, lr}
 8002696:	1e16      	subs	r6, r2, #0
 8002698:	dd07      	ble.n	80026aa <_read+0x16>
 800269a:	000c      	movs	r4, r1
 800269c:	188d      	adds	r5, r1, r2
 800269e:	e000      	b.n	80026a2 <_read+0xe>
 80026a0:	bf00      	nop
 80026a2:	7020      	strb	r0, [r4, #0]
 80026a4:	3401      	adds	r4, #1
 80026a6:	42ac      	cmp	r4, r5
 80026a8:	d1f9      	bne.n	800269e <_read+0xa>
 80026aa:	0030      	movs	r0, r6
 80026ac:	bd70      	pop	{r4, r5, r6, pc}
 80026ae:	46c0      	nop			@ (mov r8, r8)

080026b0 <_write>:
 80026b0:	b570      	push	{r4, r5, r6, lr}
 80026b2:	1e16      	subs	r6, r2, #0
 80026b4:	dd07      	ble.n	80026c6 <_write+0x16>
 80026b6:	000c      	movs	r4, r1
 80026b8:	188d      	adds	r5, r1, r2
 80026ba:	7820      	ldrb	r0, [r4, #0]
 80026bc:	3401      	adds	r4, #1
 80026be:	e000      	b.n	80026c2 <_write+0x12>
 80026c0:	bf00      	nop
 80026c2:	42ac      	cmp	r4, r5
 80026c4:	d1f9      	bne.n	80026ba <_write+0xa>
 80026c6:	0030      	movs	r0, r6
 80026c8:	bd70      	pop	{r4, r5, r6, pc}
 80026ca:	46c0      	nop			@ (mov r8, r8)

080026cc <_close>:
 80026cc:	2001      	movs	r0, #1
 80026ce:	4240      	negs	r0, r0
 80026d0:	4770      	bx	lr
 80026d2:	46c0      	nop			@ (mov r8, r8)

080026d4 <_fstat>:
 80026d4:	2380      	movs	r3, #128	@ 0x80
 80026d6:	019b      	lsls	r3, r3, #6
 80026d8:	2000      	movs	r0, #0
 80026da:	604b      	str	r3, [r1, #4]
 80026dc:	4770      	bx	lr
 80026de:	46c0      	nop			@ (mov r8, r8)

080026e0 <_isatty>:
 80026e0:	2001      	movs	r0, #1
 80026e2:	4770      	bx	lr

080026e4 <_lseek>:
 80026e4:	2000      	movs	r0, #0
 80026e6:	4770      	bx	lr

080026e8 <_sbrk>:
 80026e8:	490c      	ldr	r1, [pc, #48]	@ (800271c <_sbrk+0x34>)
 80026ea:	4a0d      	ldr	r2, [pc, #52]	@ (8002720 <_sbrk+0x38>)
 80026ec:	0003      	movs	r3, r0
 80026ee:	1a52      	subs	r2, r2, r1
 80026f0:	490c      	ldr	r1, [pc, #48]	@ (8002724 <_sbrk+0x3c>)
 80026f2:	b510      	push	{r4, lr}
 80026f4:	6808      	ldr	r0, [r1, #0]
 80026f6:	2800      	cmp	r0, #0
 80026f8:	d004      	beq.n	8002704 <_sbrk+0x1c>
 80026fa:	18c3      	adds	r3, r0, r3
 80026fc:	4293      	cmp	r3, r2
 80026fe:	d806      	bhi.n	800270e <_sbrk+0x26>
 8002700:	600b      	str	r3, [r1, #0]
 8002702:	bd10      	pop	{r4, pc}
 8002704:	4808      	ldr	r0, [pc, #32]	@ (8002728 <_sbrk+0x40>)
 8002706:	18c3      	adds	r3, r0, r3
 8002708:	6008      	str	r0, [r1, #0]
 800270a:	4293      	cmp	r3, r2
 800270c:	d9f8      	bls.n	8002700 <_sbrk+0x18>
 800270e:	f005 fc65 	bl	8007fdc <__errno>
 8002712:	230c      	movs	r3, #12
 8002714:	6003      	str	r3, [r0, #0]
 8002716:	2001      	movs	r0, #1
 8002718:	4240      	negs	r0, r0
 800271a:	e7f2      	b.n	8002702 <_sbrk+0x1a>
 800271c:	00000400 	.word	0x00000400
 8002720:	20004000 	.word	0x20004000
 8002724:	20002450 	.word	0x20002450
 8002728:	20003768 	.word	0x20003768

0800272c <SystemInit>:
 800272c:	4770      	bx	lr
 800272e:	46c0      	nop			@ (mov r8, r8)

08002730 <Reset_Handler>:
 8002730:	480d      	ldr	r0, [pc, #52]	@ (8002768 <LoopForever+0x2>)
 8002732:	4685      	mov	sp, r0
 8002734:	f7ff fffa 	bl	800272c <SystemInit>
 8002738:	480c      	ldr	r0, [pc, #48]	@ (800276c <LoopForever+0x6>)
 800273a:	490d      	ldr	r1, [pc, #52]	@ (8002770 <LoopForever+0xa>)
 800273c:	4a0d      	ldr	r2, [pc, #52]	@ (8002774 <LoopForever+0xe>)
 800273e:	2300      	movs	r3, #0
 8002740:	e002      	b.n	8002748 <LoopCopyDataInit>

08002742 <CopyDataInit>:
 8002742:	58d4      	ldr	r4, [r2, r3]
 8002744:	50c4      	str	r4, [r0, r3]
 8002746:	3304      	adds	r3, #4

08002748 <LoopCopyDataInit>:
 8002748:	18c4      	adds	r4, r0, r3
 800274a:	428c      	cmp	r4, r1
 800274c:	d3f9      	bcc.n	8002742 <CopyDataInit>
 800274e:	4a0a      	ldr	r2, [pc, #40]	@ (8002778 <LoopForever+0x12>)
 8002750:	4c0a      	ldr	r4, [pc, #40]	@ (800277c <LoopForever+0x16>)
 8002752:	2300      	movs	r3, #0
 8002754:	e001      	b.n	800275a <LoopFillZerobss>

08002756 <FillZerobss>:
 8002756:	6013      	str	r3, [r2, #0]
 8002758:	3204      	adds	r2, #4

0800275a <LoopFillZerobss>:
 800275a:	42a2      	cmp	r2, r4
 800275c:	d3fb      	bcc.n	8002756 <FillZerobss>
 800275e:	f005 fc43 	bl	8007fe8 <__libc_init_array>
 8002762:	f7fd ffa5 	bl	80006b0 <main>

08002766 <LoopForever>:
 8002766:	e7fe      	b.n	8002766 <LoopForever>
 8002768:	20004000 	.word	0x20004000
 800276c:	20000000 	.word	0x20000000
 8002770:	200001ec 	.word	0x200001ec
 8002774:	080094f8 	.word	0x080094f8
 8002778:	200001ec 	.word	0x200001ec
 800277c:	20003768 	.word	0x20003768

08002780 <ADC1_IRQHandler>:
 8002780:	e7fe      	b.n	8002780 <ADC1_IRQHandler>
	...

08002784 <HAL_InitTick>:
 8002784:	b570      	push	{r4, r5, r6, lr}
 8002786:	0004      	movs	r4, r0
 8002788:	20fa      	movs	r0, #250	@ 0xfa
 800278a:	4b0e      	ldr	r3, [pc, #56]	@ (80027c4 <HAL_InitTick+0x40>)
 800278c:	0080      	lsls	r0, r0, #2
 800278e:	7819      	ldrb	r1, [r3, #0]
 8002790:	f7fd fccc 	bl	800012c <__udivsi3>
 8002794:	4d0c      	ldr	r5, [pc, #48]	@ (80027c8 <HAL_InitTick+0x44>)
 8002796:	0001      	movs	r1, r0
 8002798:	6828      	ldr	r0, [r5, #0]
 800279a:	f7fd fcc7 	bl	800012c <__udivsi3>
 800279e:	f000 fb1f 	bl	8002de0 <HAL_SYSTICK_Config>
 80027a2:	2800      	cmp	r0, #0
 80027a4:	d10c      	bne.n	80027c0 <HAL_InitTick+0x3c>
 80027a6:	3001      	adds	r0, #1
 80027a8:	2c03      	cmp	r4, #3
 80027aa:	d900      	bls.n	80027ae <HAL_InitTick+0x2a>
 80027ac:	bd70      	pop	{r4, r5, r6, pc}
 80027ae:	3802      	subs	r0, #2
 80027b0:	2200      	movs	r2, #0
 80027b2:	0021      	movs	r1, r4
 80027b4:	f000 fade 	bl	8002d74 <HAL_NVIC_SetPriority>
 80027b8:	4b04      	ldr	r3, [pc, #16]	@ (80027cc <HAL_InitTick+0x48>)
 80027ba:	2000      	movs	r0, #0
 80027bc:	601c      	str	r4, [r3, #0]
 80027be:	e7f5      	b.n	80027ac <HAL_InitTick+0x28>
 80027c0:	2001      	movs	r0, #1
 80027c2:	e7f3      	b.n	80027ac <HAL_InitTick+0x28>
 80027c4:	20000018 	.word	0x20000018
 80027c8:	20000014 	.word	0x20000014
 80027cc:	2000001c 	.word	0x2000001c

080027d0 <HAL_Init>:
 80027d0:	2110      	movs	r1, #16
 80027d2:	4a06      	ldr	r2, [pc, #24]	@ (80027ec <HAL_Init+0x1c>)
 80027d4:	b510      	push	{r4, lr}
 80027d6:	6813      	ldr	r3, [r2, #0]
 80027d8:	2003      	movs	r0, #3
 80027da:	430b      	orrs	r3, r1
 80027dc:	6013      	str	r3, [r2, #0]
 80027de:	f7ff ffd1 	bl	8002784 <HAL_InitTick>
 80027e2:	f7ff fdc3 	bl	800236c <HAL_MspInit>
 80027e6:	2000      	movs	r0, #0
 80027e8:	bd10      	pop	{r4, pc}
 80027ea:	46c0      	nop			@ (mov r8, r8)
 80027ec:	40022000 	.word	0x40022000

080027f0 <HAL_IncTick>:
 80027f0:	4a03      	ldr	r2, [pc, #12]	@ (8002800 <HAL_IncTick+0x10>)
 80027f2:	4b04      	ldr	r3, [pc, #16]	@ (8002804 <HAL_IncTick+0x14>)
 80027f4:	6811      	ldr	r1, [r2, #0]
 80027f6:	781b      	ldrb	r3, [r3, #0]
 80027f8:	185b      	adds	r3, r3, r1
 80027fa:	6013      	str	r3, [r2, #0]
 80027fc:	4770      	bx	lr
 80027fe:	46c0      	nop			@ (mov r8, r8)
 8002800:	20002454 	.word	0x20002454
 8002804:	20000018 	.word	0x20000018

08002808 <HAL_GetTick>:
 8002808:	4b01      	ldr	r3, [pc, #4]	@ (8002810 <HAL_GetTick+0x8>)
 800280a:	6818      	ldr	r0, [r3, #0]
 800280c:	4770      	bx	lr
 800280e:	46c0      	nop			@ (mov r8, r8)
 8002810:	20002454 	.word	0x20002454

08002814 <HAL_Delay>:
 8002814:	b570      	push	{r4, r5, r6, lr}
 8002816:	0004      	movs	r4, r0
 8002818:	f7ff fff6 	bl	8002808 <HAL_GetTick>
 800281c:	0005      	movs	r5, r0
 800281e:	1c63      	adds	r3, r4, #1
 8002820:	d002      	beq.n	8002828 <HAL_Delay+0x14>
 8002822:	4b04      	ldr	r3, [pc, #16]	@ (8002834 <HAL_Delay+0x20>)
 8002824:	781b      	ldrb	r3, [r3, #0]
 8002826:	18e4      	adds	r4, r4, r3
 8002828:	f7ff ffee 	bl	8002808 <HAL_GetTick>
 800282c:	1b40      	subs	r0, r0, r5
 800282e:	42a0      	cmp	r0, r4
 8002830:	d3fa      	bcc.n	8002828 <HAL_Delay+0x14>
 8002832:	bd70      	pop	{r4, r5, r6, pc}
 8002834:	20000018 	.word	0x20000018

08002838 <ADC_Disable>:
 8002838:	b5f8      	push	{r3, r4, r5, r6, r7, lr}
 800283a:	2303      	movs	r3, #3
 800283c:	6802      	ldr	r2, [r0, #0]
 800283e:	0004      	movs	r4, r0
 8002840:	6891      	ldr	r1, [r2, #8]
 8002842:	400b      	ands	r3, r1
 8002844:	2b01      	cmp	r3, #1
 8002846:	d001      	beq.n	800284c <ADC_Disable+0x14>
 8002848:	2000      	movs	r0, #0
 800284a:	bdf8      	pop	{r3, r4, r5, r6, r7, pc}
 800284c:	6811      	ldr	r1, [r2, #0]
 800284e:	420b      	tst	r3, r1
 8002850:	d00e      	beq.n	8002870 <ADC_Disable+0x38>
 8002852:	2705      	movs	r7, #5
 8002854:	6893      	ldr	r3, [r2, #8]
 8002856:	401f      	ands	r7, r3
 8002858:	2f01      	cmp	r7, #1
 800285a:	d00d      	beq.n	8002878 <ADC_Disable+0x40>
 800285c:	2210      	movs	r2, #16
 800285e:	6ba3      	ldr	r3, [r4, #56]	@ 0x38
 8002860:	2001      	movs	r0, #1
 8002862:	4313      	orrs	r3, r2
 8002864:	63a3      	str	r3, [r4, #56]	@ 0x38
 8002866:	6be3      	ldr	r3, [r4, #60]	@ 0x3c
 8002868:	3a0f      	subs	r2, #15
 800286a:	4313      	orrs	r3, r2
 800286c:	63e3      	str	r3, [r4, #60]	@ 0x3c
 800286e:	e7ec      	b.n	800284a <ADC_Disable+0x12>
 8002870:	68d3      	ldr	r3, [r2, #12]
 8002872:	041b      	lsls	r3, r3, #16
 8002874:	d5e8      	bpl.n	8002848 <ADC_Disable+0x10>
 8002876:	e7ec      	b.n	8002852 <ADC_Disable+0x1a>
 8002878:	2102      	movs	r1, #2
 800287a:	6893      	ldr	r3, [r2, #8]
 800287c:	2501      	movs	r5, #1
 800287e:	430b      	orrs	r3, r1
 8002880:	6093      	str	r3, [r2, #8]
 8002882:	2303      	movs	r3, #3
 8002884:	6013      	str	r3, [r2, #0]
 8002886:	f7ff ffbf 	bl	8002808 <HAL_GetTick>
 800288a:	6823      	ldr	r3, [r4, #0]
 800288c:	0006      	movs	r6, r0
 800288e:	689b      	ldr	r3, [r3, #8]
 8002890:	421f      	tst	r7, r3
 8002892:	d0d9      	beq.n	8002848 <ADC_Disable+0x10>
 8002894:	f7ff ffb8 	bl	8002808 <HAL_GetTick>
 8002898:	6823      	ldr	r3, [r4, #0]
 800289a:	1b80      	subs	r0, r0, r6
 800289c:	2802      	cmp	r0, #2
 800289e:	d902      	bls.n	80028a6 <ADC_Disable+0x6e>
 80028a0:	689a      	ldr	r2, [r3, #8]
 80028a2:	4215      	tst	r5, r2
 80028a4:	d103      	bne.n	80028ae <ADC_Disable+0x76>
 80028a6:	689b      	ldr	r3, [r3, #8]
 80028a8:	421d      	tst	r5, r3
 80028aa:	d1f3      	bne.n	8002894 <ADC_Disable+0x5c>
 80028ac:	e7cc      	b.n	8002848 <ADC_Disable+0x10>
 80028ae:	2210      	movs	r2, #16
 80028b0:	6ba3      	ldr	r3, [r4, #56]	@ 0x38
 80028b2:	2001      	movs	r0, #1
 80028b4:	4313      	orrs	r3, r2
 80028b6:	63a3      	str	r3, [r4, #56]	@ 0x38
 80028b8:	6be3      	ldr	r3, [r4, #60]	@ 0x3c
 80028ba:	432b      	orrs	r3, r5
 80028bc:	63e3      	str	r3, [r4, #60]	@ 0x3c
 80028be:	e7c4      	b.n	800284a <ADC_Disable+0x12>

080028c0 <ADC_ConversionStop>:
 80028c0:	2204      	movs	r2, #4
 80028c2:	6803      	ldr	r3, [r0, #0]
 80028c4:	b570      	push	{r4, r5, r6, lr}
 80028c6:	6899      	ldr	r1, [r3, #8]
 80028c8:	0004      	movs	r4, r0
 80028ca:	420a      	tst	r2, r1
 80028cc:	d01d      	beq.n	800290a <ADC_ConversionStop+0x4a>
 80028ce:	6899      	ldr	r1, [r3, #8]
 80028d0:	420a      	tst	r2, r1
 80028d2:	d006      	beq.n	80028e2 <ADC_ConversionStop+0x22>
 80028d4:	689a      	ldr	r2, [r3, #8]
 80028d6:	0792      	lsls	r2, r2, #30
 80028d8:	d403      	bmi.n	80028e2 <ADC_ConversionStop+0x22>
 80028da:	2110      	movs	r1, #16
 80028dc:	689a      	ldr	r2, [r3, #8]
 80028de:	430a      	orrs	r2, r1
 80028e0:	609a      	str	r2, [r3, #8]
 80028e2:	f7ff ff91 	bl	8002808 <HAL_GetTick>
 80028e6:	6823      	ldr	r3, [r4, #0]
 80028e8:	0006      	movs	r6, r0
 80028ea:	689b      	ldr	r3, [r3, #8]
 80028ec:	075b      	lsls	r3, r3, #29
 80028ee:	d50c      	bpl.n	800290a <ADC_ConversionStop+0x4a>
 80028f0:	2504      	movs	r5, #4
 80028f2:	f7ff ff89 	bl	8002808 <HAL_GetTick>
 80028f6:	6823      	ldr	r3, [r4, #0]
 80028f8:	1b80      	subs	r0, r0, r6
 80028fa:	2802      	cmp	r0, #2
 80028fc:	d902      	bls.n	8002904 <ADC_ConversionStop+0x44>
 80028fe:	689a      	ldr	r2, [r3, #8]
 8002900:	4215      	tst	r5, r2
 8002902:	d104      	bne.n	800290e <ADC_ConversionStop+0x4e>
 8002904:	689b      	ldr	r3, [r3, #8]
 8002906:	421d      	tst	r5, r3
 8002908:	d1f3      	bne.n	80028f2 <ADC_ConversionStop+0x32>
 800290a:	2000      	movs	r0, #0
 800290c:	bd70      	pop	{r4, r5, r6, pc}
 800290e:	2210      	movs	r2, #16
 8002910:	6ba3      	ldr	r3, [r4, #56]	@ 0x38
 8002912:	2001      	movs	r0, #1
 8002914:	4313      	orrs	r3, r2
 8002916:	63a3      	str	r3, [r4, #56]	@ 0x38
 8002918:	6be3      	ldr	r3, [r4, #60]	@ 0x3c
 800291a:	3a0f      	subs	r2, #15
 800291c:	4313      	orrs	r3, r2
 800291e:	63e3      	str	r3, [r4, #60]	@ 0x3c
 8002920:	e7f4      	b.n	800290c <ADC_ConversionStop+0x4c>
 8002922:	46c0      	nop			@ (mov r8, r8)

08002924 <ADC_Enable.constprop.0>:
 8002924:	2300      	movs	r3, #0
 8002926:	b570      	push	{r4, r5, r6, lr}
 8002928:	6802      	ldr	r2, [r0, #0]
 800292a:	b082      	sub	sp, #8
 800292c:	9301      	str	r3, [sp, #4]
 800292e:	6891      	ldr	r1, [r2, #8]
 8002930:	3303      	adds	r3, #3
 8002932:	0004      	movs	r4, r0
 8002934:	400b      	ands	r3, r1
 8002936:	2b01      	cmp	r3, #1
 8002938:	d037      	beq.n	80029aa <ADC_Enable.constprop.0+0x86>
 800293a:	6891      	ldr	r1, [r2, #8]
 800293c:	4b23      	ldr	r3, [pc, #140]	@ (80029cc <ADC_Enable.constprop.0+0xa8>)
 800293e:	4219      	tst	r1, r3
 8002940:	d129      	bne.n	8002996 <ADC_Enable.constprop.0+0x72>
 8002942:	2101      	movs	r1, #1
 8002944:	6893      	ldr	r3, [r2, #8]
 8002946:	430b      	orrs	r3, r1
 8002948:	6093      	str	r3, [r2, #8]
 800294a:	4b21      	ldr	r3, [pc, #132]	@ (80029d0 <ADC_Enable.constprop.0+0xac>)
 800294c:	4921      	ldr	r1, [pc, #132]	@ (80029d4 <ADC_Enable.constprop.0+0xb0>)
 800294e:	6818      	ldr	r0, [r3, #0]
 8002950:	f7fd fbec 	bl	800012c <__udivsi3>
 8002954:	9001      	str	r0, [sp, #4]
 8002956:	9b01      	ldr	r3, [sp, #4]
 8002958:	2b00      	cmp	r3, #0
 800295a:	d005      	beq.n	8002968 <ADC_Enable.constprop.0+0x44>
 800295c:	9b01      	ldr	r3, [sp, #4]
 800295e:	3b01      	subs	r3, #1
 8002960:	9301      	str	r3, [sp, #4]
 8002962:	9b01      	ldr	r3, [sp, #4]
 8002964:	2b00      	cmp	r3, #0
 8002966:	d1f9      	bne.n	800295c <ADC_Enable.constprop.0+0x38>
 8002968:	f7ff ff4e 	bl	8002808 <HAL_GetTick>
 800296c:	6823      	ldr	r3, [r4, #0]
 800296e:	0006      	movs	r6, r0
 8002970:	681b      	ldr	r3, [r3, #0]
 8002972:	2501      	movs	r5, #1
 8002974:	07db      	lsls	r3, r3, #31
 8002976:	d40b      	bmi.n	8002990 <ADC_Enable.constprop.0+0x6c>
 8002978:	f7ff ff46 	bl	8002808 <HAL_GetTick>
 800297c:	6823      	ldr	r3, [r4, #0]
 800297e:	1b80      	subs	r0, r0, r6
 8002980:	2802      	cmp	r0, #2
 8002982:	d902      	bls.n	800298a <ADC_Enable.constprop.0+0x66>
 8002984:	681a      	ldr	r2, [r3, #0]
 8002986:	4215      	tst	r5, r2
 8002988:	d016      	beq.n	80029b8 <ADC_Enable.constprop.0+0x94>
 800298a:	681b      	ldr	r3, [r3, #0]
 800298c:	421d      	tst	r5, r3
 800298e:	d0f3      	beq.n	8002978 <ADC_Enable.constprop.0+0x54>
 8002990:	2000      	movs	r0, #0
 8002992:	b002      	add	sp, #8
 8002994:	bd70      	pop	{r4, r5, r6, pc}
 8002996:	2210      	movs	r2, #16
 8002998:	6ba3      	ldr	r3, [r4, #56]	@ 0x38
 800299a:	2001      	movs	r0, #1
 800299c:	4313      	orrs	r3, r2
 800299e:	63a3      	str	r3, [r4, #56]	@ 0x38
 80029a0:	6be3      	ldr	r3, [r4, #60]	@ 0x3c
 80029a2:	3a0f      	subs	r2, #15
 80029a4:	4313      	orrs	r3, r2
 80029a6:	63e3      	str	r3, [r4, #60]	@ 0x3c
 80029a8:	e7f3      	b.n	8002992 <ADC_Enable.constprop.0+0x6e>
 80029aa:	6811      	ldr	r1, [r2, #0]
 80029ac:	420b      	tst	r3, r1
 80029ae:	d1ef      	bne.n	8002990 <ADC_Enable.constprop.0+0x6c>
 80029b0:	68d3      	ldr	r3, [r2, #12]
 80029b2:	041b      	lsls	r3, r3, #16
 80029b4:	d4ec      	bmi.n	8002990 <ADC_Enable.constprop.0+0x6c>
 80029b6:	e7c0      	b.n	800293a <ADC_Enable.constprop.0+0x16>
 80029b8:	2210      	movs	r2, #16
 80029ba:	6ba3      	ldr	r3, [r4, #56]	@ 0x38
 80029bc:	2001      	movs	r0, #1
 80029be:	4313      	orrs	r3, r2
 80029c0:	63a3      	str	r3, [r4, #56]	@ 0x38
 80029c2:	6be3      	ldr	r3, [r4, #60]	@ 0x3c
 80029c4:	432b      	orrs	r3, r5
 80029c6:	63e3      	str	r3, [r4, #60]	@ 0x3c
 80029c8:	e7e3      	b.n	8002992 <ADC_Enable.constprop.0+0x6e>
 80029ca:	46c0      	nop			@ (mov r8, r8)
 80029cc:	80000017 	.word	0x80000017
 80029d0:	20000014 	.word	0x20000014
 80029d4:	000f4240 	.word	0x000f4240

080029d8 <HAL_ADC_Init>:
 80029d8:	b570      	push	{r4, r5, r6, lr}
 80029da:	1e04      	subs	r4, r0, #0
 80029dc:	d064      	beq.n	8002aa8 <HAL_ADC_Init+0xd0>
 80029de:	6b83      	ldr	r3, [r0, #56]	@ 0x38
 80029e0:	2b00      	cmp	r3, #0
 80029e2:	d068      	beq.n	8002ab6 <HAL_ADC_Init+0xde>
 80029e4:	6ba3      	ldr	r3, [r4, #56]	@ 0x38
 80029e6:	06db      	lsls	r3, r3, #27
 80029e8:	d460      	bmi.n	8002aac <HAL_ADC_Init+0xd4>
 80029ea:	6822      	ldr	r2, [r4, #0]
 80029ec:	6893      	ldr	r3, [r2, #8]
 80029ee:	075b      	lsls	r3, r3, #29
 80029f0:	d45c      	bmi.n	8002aac <HAL_ADC_Init+0xd4>
 80029f2:	6ba3      	ldr	r3, [r4, #56]	@ 0x38
 80029f4:	4947      	ldr	r1, [pc, #284]	@ (8002b14 <HAL_ADC_Init+0x13c>)
 80029f6:	400b      	ands	r3, r1
 80029f8:	3106      	adds	r1, #6
 80029fa:	31ff      	adds	r1, #255	@ 0xff
 80029fc:	430b      	orrs	r3, r1
 80029fe:	63a3      	str	r3, [r4, #56]	@ 0x38
 8002a00:	2303      	movs	r3, #3
 8002a02:	6891      	ldr	r1, [r2, #8]
 8002a04:	400b      	ands	r3, r1
 8002a06:	2b01      	cmp	r3, #1
 8002a08:	d05b      	beq.n	8002ac2 <HAL_ADC_Init+0xea>
 8002a0a:	2118      	movs	r1, #24
 8002a0c:	68d3      	ldr	r3, [r2, #12]
 8002a0e:	438b      	bics	r3, r1
 8002a10:	68a1      	ldr	r1, [r4, #8]
 8002a12:	430b      	orrs	r3, r1
 8002a14:	60d3      	str	r3, [r2, #12]
 8002a16:	6913      	ldr	r3, [r2, #16]
 8002a18:	6861      	ldr	r1, [r4, #4]
 8002a1a:	009b      	lsls	r3, r3, #2
 8002a1c:	089b      	lsrs	r3, r3, #2
 8002a1e:	430b      	orrs	r3, r1
 8002a20:	6113      	str	r3, [r2, #16]
 8002a22:	68d3      	ldr	r3, [r2, #12]
 8002a24:	493c      	ldr	r1, [pc, #240]	@ (8002b18 <HAL_ADC_Init+0x140>)
 8002a26:	400b      	ands	r3, r1
 8002a28:	60d3      	str	r3, [r2, #12]
 8002a2a:	7e23      	ldrb	r3, [r4, #24]
 8002a2c:	7e61      	ldrb	r1, [r4, #25]
 8002a2e:	039b      	lsls	r3, r3, #14
 8002a30:	03c9      	lsls	r1, r1, #15
 8002a32:	430b      	orrs	r3, r1
 8002a34:	7ea0      	ldrb	r0, [r4, #26]
 8002a36:	68e1      	ldr	r1, [r4, #12]
 8002a38:	430b      	orrs	r3, r1
 8002a3a:	0341      	lsls	r1, r0, #13
 8002a3c:	430b      	orrs	r3, r1
 8002a3e:	2124      	movs	r1, #36	@ 0x24
 8002a40:	5c61      	ldrb	r1, [r4, r1]
 8002a42:	0049      	lsls	r1, r1, #1
 8002a44:	430b      	orrs	r3, r1
 8002a46:	6aa1      	ldr	r1, [r4, #40]	@ 0x28
 8002a48:	3901      	subs	r1, #1
 8002a4a:	1e4d      	subs	r5, r1, #1
 8002a4c:	41a9      	sbcs	r1, r5
 8002a4e:	0309      	lsls	r1, r1, #12
 8002a50:	430b      	orrs	r3, r1
 8002a52:	6921      	ldr	r1, [r4, #16]
 8002a54:	3902      	subs	r1, #2
 8002a56:	424d      	negs	r5, r1
 8002a58:	4169      	adcs	r1, r5
 8002a5a:	0089      	lsls	r1, r1, #2
 8002a5c:	430b      	orrs	r3, r1
 8002a5e:	7ee1      	ldrb	r1, [r4, #27]
 8002a60:	2901      	cmp	r1, #1
 8002a62:	d03e      	beq.n	8002ae2 <HAL_ADC_Init+0x10a>
 8002a64:	20c2      	movs	r0, #194	@ 0xc2
 8002a66:	69e1      	ldr	r1, [r4, #28]
 8002a68:	30ff      	adds	r0, #255	@ 0xff
 8002a6a:	4281      	cmp	r1, r0
 8002a6c:	d002      	beq.n	8002a74 <HAL_ADC_Init+0x9c>
 8002a6e:	6a20      	ldr	r0, [r4, #32]
 8002a70:	4301      	orrs	r1, r0
 8002a72:	430b      	orrs	r3, r1
 8002a74:	68d1      	ldr	r1, [r2, #12]
 8002a76:	6ae5      	ldr	r5, [r4, #44]	@ 0x2c
 8002a78:	4319      	orrs	r1, r3
 8002a7a:	60d1      	str	r1, [r2, #12]
 8002a7c:	2180      	movs	r1, #128	@ 0x80
 8002a7e:	0549      	lsls	r1, r1, #21
 8002a80:	428d      	cmp	r5, r1
 8002a82:	d025      	beq.n	8002ad0 <HAL_ADC_Init+0xf8>
 8002a84:	1e69      	subs	r1, r5, #1
 8002a86:	2906      	cmp	r1, #6
 8002a88:	d922      	bls.n	8002ad0 <HAL_ADC_Init+0xf8>
 8002a8a:	68d2      	ldr	r2, [r2, #12]
 8002a8c:	4923      	ldr	r1, [pc, #140]	@ (8002b1c <HAL_ADC_Init+0x144>)
 8002a8e:	400a      	ands	r2, r1
 8002a90:	429a      	cmp	r2, r3
 8002a92:	d02c      	beq.n	8002aee <HAL_ADC_Init+0x116>
 8002a94:	2212      	movs	r2, #18
 8002a96:	6ba3      	ldr	r3, [r4, #56]	@ 0x38
 8002a98:	4393      	bics	r3, r2
 8002a9a:	3a02      	subs	r2, #2
 8002a9c:	4313      	orrs	r3, r2
 8002a9e:	63a3      	str	r3, [r4, #56]	@ 0x38
 8002aa0:	6be3      	ldr	r3, [r4, #60]	@ 0x3c
 8002aa2:	3a0f      	subs	r2, #15
 8002aa4:	4313      	orrs	r3, r2
 8002aa6:	63e3      	str	r3, [r4, #60]	@ 0x3c
 8002aa8:	2001      	movs	r0, #1
 8002aaa:	bd70      	pop	{r4, r5, r6, pc}
 8002aac:	2210      	movs	r2, #16
 8002aae:	6ba3      	ldr	r3, [r4, #56]	@ 0x38
 8002ab0:	4313      	orrs	r3, r2
 8002ab2:	63a3      	str	r3, [r4, #56]	@ 0x38
 8002ab4:	e7f8      	b.n	8002aa8 <HAL_ADC_Init+0xd0>
 8002ab6:	2234      	movs	r2, #52	@ 0x34
 8002ab8:	63c3      	str	r3, [r0, #60]	@ 0x3c
 8002aba:	5483      	strb	r3, [r0, r2]
 8002abc:	f7ff fc6e 	bl	800239c <HAL_ADC_MspInit>
 8002ac0:	e790      	b.n	80029e4 <HAL_ADC_Init+0xc>
 8002ac2:	6811      	ldr	r1, [r2, #0]
 8002ac4:	420b      	tst	r3, r1
 8002ac6:	d1ac      	bne.n	8002a22 <HAL_ADC_Init+0x4a>
 8002ac8:	68d3      	ldr	r3, [r2, #12]
 8002aca:	041b      	lsls	r3, r3, #16
 8002acc:	d4a9      	bmi.n	8002a22 <HAL_ADC_Init+0x4a>
 8002ace:	e79c      	b.n	8002a0a <HAL_ADC_Init+0x32>
 8002ad0:	2107      	movs	r1, #7
 8002ad2:	6950      	ldr	r0, [r2, #20]
 8002ad4:	4388      	bics	r0, r1
 8002ad6:	6150      	str	r0, [r2, #20]
 8002ad8:	6950      	ldr	r0, [r2, #20]
 8002ada:	4029      	ands	r1, r5
 8002adc:	4301      	orrs	r1, r0
 8002ade:	6151      	str	r1, [r2, #20]
 8002ae0:	e7d3      	b.n	8002a8a <HAL_ADC_Init+0xb2>
 8002ae2:	2800      	cmp	r0, #0
 8002ae4:	d10d      	bne.n	8002b02 <HAL_ADC_Init+0x12a>
 8002ae6:	2180      	movs	r1, #128	@ 0x80
 8002ae8:	0249      	lsls	r1, r1, #9
 8002aea:	430b      	orrs	r3, r1
 8002aec:	e7ba      	b.n	8002a64 <HAL_ADC_Init+0x8c>
 8002aee:	2300      	movs	r3, #0
 8002af0:	2203      	movs	r2, #3
 8002af2:	63e3      	str	r3, [r4, #60]	@ 0x3c
 8002af4:	6ba3      	ldr	r3, [r4, #56]	@ 0x38
 8002af6:	2000      	movs	r0, #0
 8002af8:	4393      	bics	r3, r2
 8002afa:	3a02      	subs	r2, #2
 8002afc:	4313      	orrs	r3, r2
 8002afe:	63a3      	str	r3, [r4, #56]	@ 0x38
 8002b00:	e7d3      	b.n	8002aaa <HAL_ADC_Init+0xd2>
 8002b02:	2520      	movs	r5, #32
 8002b04:	6ba0      	ldr	r0, [r4, #56]	@ 0x38
 8002b06:	4328      	orrs	r0, r5
 8002b08:	63a0      	str	r0, [r4, #56]	@ 0x38
 8002b0a:	6be0      	ldr	r0, [r4, #60]	@ 0x3c
 8002b0c:	4301      	orrs	r1, r0
 8002b0e:	63e1      	str	r1, [r4, #60]	@ 0x3c
 8002b10:	e7a8      	b.n	8002a64 <HAL_ADC_Init+0x8c>
 8002b12:	46c0      	nop			@ (mov r8, r8)
 8002b14:	fffffefd 	.word	0xfffffefd
 8002b18:	fffe0219 	.word	0xfffe0219
 8002b1c:	833fffe7 	.word	0x833fffe7

08002b20 <HAL_ADC_Start>:
 8002b20:	6803      	ldr	r3, [r0, #0]
 8002b22:	b510      	push	{r4, lr}
 8002b24:	689a      	ldr	r2, [r3, #8]
 8002b26:	0004      	movs	r4, r0
 8002b28:	0752      	lsls	r2, r2, #29
 8002b2a:	d421      	bmi.n	8002b70 <HAL_ADC_Start+0x50>
 8002b2c:	2234      	movs	r2, #52	@ 0x34
 8002b2e:	5c81      	ldrb	r1, [r0, r2]
 8002b30:	2901      	cmp	r1, #1
 8002b32:	d01d      	beq.n	8002b70 <HAL_ADC_Start+0x50>
 8002b34:	2101      	movs	r1, #1
 8002b36:	5481      	strb	r1, [r0, r2]
 8002b38:	7e42      	ldrb	r2, [r0, #25]
 8002b3a:	2a01      	cmp	r2, #1
 8002b3c:	d112      	bne.n	8002b64 <HAL_ADC_Start+0x44>
 8002b3e:	6ba1      	ldr	r1, [r4, #56]	@ 0x38
 8002b40:	4a0c      	ldr	r2, [pc, #48]	@ (8002b74 <HAL_ADC_Start+0x54>)
 8002b42:	2000      	movs	r0, #0
 8002b44:	4011      	ands	r1, r2
 8002b46:	2280      	movs	r2, #128	@ 0x80
 8002b48:	0052      	lsls	r2, r2, #1
 8002b4a:	430a      	orrs	r2, r1
 8002b4c:	63a2      	str	r2, [r4, #56]	@ 0x38
 8002b4e:	2134      	movs	r1, #52	@ 0x34
 8002b50:	2200      	movs	r2, #0
 8002b52:	63e2      	str	r2, [r4, #60]	@ 0x3c
 8002b54:	5462      	strb	r2, [r4, r1]
 8002b56:	321c      	adds	r2, #28
 8002b58:	601a      	str	r2, [r3, #0]
 8002b5a:	689a      	ldr	r2, [r3, #8]
 8002b5c:	3930      	subs	r1, #48	@ 0x30
 8002b5e:	430a      	orrs	r2, r1
 8002b60:	609a      	str	r2, [r3, #8]
 8002b62:	bd10      	pop	{r4, pc}
 8002b64:	f7ff fede 	bl	8002924 <ADC_Enable.constprop.0>
 8002b68:	2800      	cmp	r0, #0
 8002b6a:	d1fa      	bne.n	8002b62 <HAL_ADC_Start+0x42>
 8002b6c:	6823      	ldr	r3, [r4, #0]
 8002b6e:	e7e6      	b.n	8002b3e <HAL_ADC_Start+0x1e>
 8002b70:	2002      	movs	r0, #2
 8002b72:	e7f6      	b.n	8002b62 <HAL_ADC_Start+0x42>
 8002b74:	fffff0fe 	.word	0xfffff0fe

08002b78 <HAL_ADC_Stop>:
 8002b78:	2334      	movs	r3, #52	@ 0x34
 8002b7a:	b570      	push	{r4, r5, r6, lr}
 8002b7c:	5cc2      	ldrb	r2, [r0, r3]
 8002b7e:	0004      	movs	r4, r0
 8002b80:	2a01      	cmp	r2, #1
 8002b82:	d014      	beq.n	8002bae <HAL_ADC_Stop+0x36>
 8002b84:	2501      	movs	r5, #1
 8002b86:	54c5      	strb	r5, [r0, r3]
 8002b88:	f7ff fe9a 	bl	80028c0 <ADC_ConversionStop>
 8002b8c:	2800      	cmp	r0, #0
 8002b8e:	d003      	beq.n	8002b98 <HAL_ADC_Stop+0x20>
 8002b90:	2334      	movs	r3, #52	@ 0x34
 8002b92:	2200      	movs	r2, #0
 8002b94:	54e2      	strb	r2, [r4, r3]
 8002b96:	bd70      	pop	{r4, r5, r6, pc}
 8002b98:	0020      	movs	r0, r4
 8002b9a:	f7ff fe4d 	bl	8002838 <ADC_Disable>
 8002b9e:	2800      	cmp	r0, #0
 8002ba0:	d1f6      	bne.n	8002b90 <HAL_ADC_Stop+0x18>
 8002ba2:	6ba3      	ldr	r3, [r4, #56]	@ 0x38
 8002ba4:	4a03      	ldr	r2, [pc, #12]	@ (8002bb4 <HAL_ADC_Stop+0x3c>)
 8002ba6:	4013      	ands	r3, r2
 8002ba8:	432b      	orrs	r3, r5
 8002baa:	63a3      	str	r3, [r4, #56]	@ 0x38
 8002bac:	e7f0      	b.n	8002b90 <HAL_ADC_Stop+0x18>
 8002bae:	2002      	movs	r0, #2
 8002bb0:	e7f1      	b.n	8002b96 <HAL_ADC_Stop+0x1e>
 8002bb2:	46c0      	nop			@ (mov r8, r8)
 8002bb4:	fffffefe 	.word	0xfffffefe

08002bb8 <HAL_ADC_GetValue>:
 8002bb8:	6803      	ldr	r3, [r0, #0]
 8002bba:	6c18      	ldr	r0, [r3, #64]	@ 0x40
 8002bbc:	4770      	bx	lr
 8002bbe:	46c0      	nop			@ (mov r8, r8)

08002bc0 <HAL_ADC_ConfigChannel>:
 8002bc0:	b5f0      	push	{r4, r5, r6, r7, lr}
 8002bc2:	46c6      	mov	lr, r8
 8002bc4:	2300      	movs	r3, #0
 8002bc6:	2234      	movs	r2, #52	@ 0x34
 8002bc8:	b500      	push	{lr}
 8002bca:	b082      	sub	sp, #8
 8002bcc:	9301      	str	r3, [sp, #4]
 8002bce:	5c83      	ldrb	r3, [r0, r2]
 8002bd0:	0004      	movs	r4, r0
 8002bd2:	6ac5      	ldr	r5, [r0, #44]	@ 0x2c
 8002bd4:	2b01      	cmp	r3, #1
 8002bd6:	d050      	beq.n	8002c7a <HAL_ADC_ConfigChannel+0xba>
 8002bd8:	2301      	movs	r3, #1
 8002bda:	5483      	strb	r3, [r0, r2]
 8002bdc:	6802      	ldr	r2, [r0, #0]
 8002bde:	6890      	ldr	r0, [r2, #8]
 8002be0:	0740      	lsls	r0, r0, #29
 8002be2:	d50b      	bpl.n	8002bfc <HAL_ADC_ConfigChannel+0x3c>
 8002be4:	2220      	movs	r2, #32
 8002be6:	2001      	movs	r0, #1
 8002be8:	6ba3      	ldr	r3, [r4, #56]	@ 0x38
 8002bea:	4313      	orrs	r3, r2
 8002bec:	63a3      	str	r3, [r4, #56]	@ 0x38
 8002bee:	2334      	movs	r3, #52	@ 0x34
 8002bf0:	2200      	movs	r2, #0
 8002bf2:	54e2      	strb	r2, [r4, r3]
 8002bf4:	b002      	add	sp, #8
 8002bf6:	bc80      	pop	{r7}
 8002bf8:	46b8      	mov	r8, r7
 8002bfa:	bdf0      	pop	{r4, r5, r6, r7, pc}
 8002bfc:	6808      	ldr	r0, [r1, #0]
 8002bfe:	4f2b      	ldr	r7, [pc, #172]	@ (8002cac <HAL_ADC_ConfigChannel+0xec>)
 8002c00:	0006      	movs	r6, r0
 8002c02:	46b8      	mov	r8, r7
 8002c04:	684f      	ldr	r7, [r1, #4]
 8002c06:	4083      	lsls	r3, r0
 8002c08:	3e10      	subs	r6, #16
 8002c0a:	4547      	cmp	r7, r8
 8002c0c:	d024      	beq.n	8002c58 <HAL_ADC_ConfigChannel+0x98>
 8002c0e:	6a97      	ldr	r7, [r2, #40]	@ 0x28
 8002c10:	433b      	orrs	r3, r7
 8002c12:	6293      	str	r3, [r2, #40]	@ 0x28
 8002c14:	2380      	movs	r3, #128	@ 0x80
 8002c16:	055b      	lsls	r3, r3, #21
 8002c18:	429d      	cmp	r5, r3
 8002c1a:	d00f      	beq.n	8002c3c <HAL_ADC_ConfigChannel+0x7c>
 8002c1c:	3d01      	subs	r5, #1
 8002c1e:	2d06      	cmp	r5, #6
 8002c20:	d90c      	bls.n	8002c3c <HAL_ADC_ConfigChannel+0x7c>
 8002c22:	2307      	movs	r3, #7
 8002c24:	688d      	ldr	r5, [r1, #8]
 8002c26:	6951      	ldr	r1, [r2, #20]
 8002c28:	4019      	ands	r1, r3
 8002c2a:	428d      	cmp	r5, r1
 8002c2c:	d006      	beq.n	8002c3c <HAL_ADC_ConfigChannel+0x7c>
 8002c2e:	6951      	ldr	r1, [r2, #20]
 8002c30:	4399      	bics	r1, r3
 8002c32:	6151      	str	r1, [r2, #20]
 8002c34:	6951      	ldr	r1, [r2, #20]
 8002c36:	402b      	ands	r3, r5
 8002c38:	430b      	orrs	r3, r1
 8002c3a:	6153      	str	r3, [r2, #20]
 8002c3c:	2e01      	cmp	r6, #1
 8002c3e:	d901      	bls.n	8002c44 <HAL_ADC_ConfigChannel+0x84>
 8002c40:	2000      	movs	r0, #0
 8002c42:	e7d4      	b.n	8002bee <HAL_ADC_ConfigChannel+0x2e>
 8002c44:	4b1a      	ldr	r3, [pc, #104]	@ (8002cb0 <HAL_ADC_ConfigChannel+0xf0>)
 8002c46:	2280      	movs	r2, #128	@ 0x80
 8002c48:	6819      	ldr	r1, [r3, #0]
 8002c4a:	2810      	cmp	r0, #16
 8002c4c:	d017      	beq.n	8002c7e <HAL_ADC_ConfigChannel+0xbe>
 8002c4e:	03d2      	lsls	r2, r2, #15
 8002c50:	430a      	orrs	r2, r1
 8002c52:	2000      	movs	r0, #0
 8002c54:	601a      	str	r2, [r3, #0]
 8002c56:	e7ca      	b.n	8002bee <HAL_ADC_ConfigChannel+0x2e>
 8002c58:	6a91      	ldr	r1, [r2, #40]	@ 0x28
 8002c5a:	4399      	bics	r1, r3
 8002c5c:	6291      	str	r1, [r2, #40]	@ 0x28
 8002c5e:	2e01      	cmp	r6, #1
 8002c60:	d8ee      	bhi.n	8002c40 <HAL_ADC_ConfigChannel+0x80>
 8002c62:	1e71      	subs	r1, r6, #1
 8002c64:	418e      	sbcs	r6, r1
 8002c66:	4913      	ldr	r1, [pc, #76]	@ (8002cb4 <HAL_ADC_ConfigChannel+0xf4>)
 8002c68:	4b11      	ldr	r3, [pc, #68]	@ (8002cb0 <HAL_ADC_ConfigChannel+0xf0>)
 8002c6a:	468c      	mov	ip, r1
 8002c6c:	681a      	ldr	r2, [r3, #0]
 8002c6e:	05b6      	lsls	r6, r6, #22
 8002c70:	4466      	add	r6, ip
 8002c72:	4016      	ands	r6, r2
 8002c74:	2000      	movs	r0, #0
 8002c76:	601e      	str	r6, [r3, #0]
 8002c78:	e7b9      	b.n	8002bee <HAL_ADC_ConfigChannel+0x2e>
 8002c7a:	2002      	movs	r0, #2
 8002c7c:	e7ba      	b.n	8002bf4 <HAL_ADC_ConfigChannel+0x34>
 8002c7e:	0412      	lsls	r2, r2, #16
 8002c80:	430a      	orrs	r2, r1
 8002c82:	601a      	str	r2, [r3, #0]
 8002c84:	4b0c      	ldr	r3, [pc, #48]	@ (8002cb8 <HAL_ADC_ConfigChannel+0xf8>)
 8002c86:	490d      	ldr	r1, [pc, #52]	@ (8002cbc <HAL_ADC_ConfigChannel+0xfc>)
 8002c88:	6818      	ldr	r0, [r3, #0]
 8002c8a:	f7fd fa4f 	bl	800012c <__udivsi3>
 8002c8e:	0083      	lsls	r3, r0, #2
 8002c90:	181b      	adds	r3, r3, r0
 8002c92:	005b      	lsls	r3, r3, #1
 8002c94:	9301      	str	r3, [sp, #4]
 8002c96:	9b01      	ldr	r3, [sp, #4]
 8002c98:	2b00      	cmp	r3, #0
 8002c9a:	d0d1      	beq.n	8002c40 <HAL_ADC_ConfigChannel+0x80>
 8002c9c:	9b01      	ldr	r3, [sp, #4]
 8002c9e:	3b01      	subs	r3, #1
 8002ca0:	9301      	str	r3, [sp, #4]
 8002ca2:	9b01      	ldr	r3, [sp, #4]
 8002ca4:	2b00      	cmp	r3, #0
 8002ca6:	d1f9      	bne.n	8002c9c <HAL_ADC_ConfigChannel+0xdc>
 8002ca8:	2000      	movs	r0, #0
 8002caa:	e7a0      	b.n	8002bee <HAL_ADC_ConfigChannel+0x2e>
 8002cac:	00001001 	.word	0x00001001
 8002cb0:	40012708 	.word	0x40012708
 8002cb4:	ff7fffff 	.word	0xff7fffff
 8002cb8:	20000014 	.word	0x20000014
 8002cbc:	000f4240 	.word	0x000f4240

08002cc0 <HAL_ADCEx_Calibration_Start>:
 8002cc0:	2334      	movs	r3, #52	@ 0x34
 8002cc2:	b570      	push	{r4, r5, r6, lr}
 8002cc4:	5cc2      	ldrb	r2, [r0, r3]
 8002cc6:	0004      	movs	r4, r0
 8002cc8:	2a01      	cmp	r2, #1
 8002cca:	d04e      	beq.n	8002d6a <HAL_ADCEx_Calibration_Start+0xaa>
 8002ccc:	2201      	movs	r2, #1
 8002cce:	54c2      	strb	r2, [r0, r3]
 8002cd0:	6803      	ldr	r3, [r0, #0]
 8002cd2:	3202      	adds	r2, #2
 8002cd4:	6899      	ldr	r1, [r3, #8]
 8002cd6:	400a      	ands	r2, r1
 8002cd8:	2a01      	cmp	r2, #1
 8002cda:	d105      	bne.n	8002ce8 <HAL_ADCEx_Calibration_Start+0x28>
 8002cdc:	6819      	ldr	r1, [r3, #0]
 8002cde:	420a      	tst	r2, r1
 8002ce0:	d12e      	bne.n	8002d40 <HAL_ADCEx_Calibration_Start+0x80>
 8002ce2:	68da      	ldr	r2, [r3, #12]
 8002ce4:	0412      	lsls	r2, r2, #16
 8002ce6:	d42b      	bmi.n	8002d40 <HAL_ADCEx_Calibration_Start+0x80>
 8002ce8:	6ba2      	ldr	r2, [r4, #56]	@ 0x38
 8002cea:	4921      	ldr	r1, [pc, #132]	@ (8002d70 <HAL_ADCEx_Calibration_Start+0xb0>)
 8002cec:	400a      	ands	r2, r1
 8002cee:	3106      	adds	r1, #6
 8002cf0:	31ff      	adds	r1, #255	@ 0xff
 8002cf2:	430a      	orrs	r2, r1
 8002cf4:	63a2      	str	r2, [r4, #56]	@ 0x38
 8002cf6:	68de      	ldr	r6, [r3, #12]
 8002cf8:	68da      	ldr	r2, [r3, #12]
 8002cfa:	3101      	adds	r1, #1
 8002cfc:	438a      	bics	r2, r1
 8002cfe:	60da      	str	r2, [r3, #12]
 8002d00:	2280      	movs	r2, #128	@ 0x80
 8002d02:	6899      	ldr	r1, [r3, #8]
 8002d04:	0612      	lsls	r2, r2, #24
 8002d06:	430a      	orrs	r2, r1
 8002d08:	609a      	str	r2, [r3, #8]
 8002d0a:	f7ff fd7d 	bl	8002808 <HAL_GetTick>
 8002d0e:	0005      	movs	r5, r0
 8002d10:	6823      	ldr	r3, [r4, #0]
 8002d12:	689a      	ldr	r2, [r3, #8]
 8002d14:	2a00      	cmp	r2, #0
 8002d16:	da1c      	bge.n	8002d52 <HAL_ADCEx_Calibration_Start+0x92>
 8002d18:	f7ff fd76 	bl	8002808 <HAL_GetTick>
 8002d1c:	6823      	ldr	r3, [r4, #0]
 8002d1e:	1b40      	subs	r0, r0, r5
 8002d20:	2802      	cmp	r0, #2
 8002d22:	d9f6      	bls.n	8002d12 <HAL_ADCEx_Calibration_Start+0x52>
 8002d24:	689a      	ldr	r2, [r3, #8]
 8002d26:	2a00      	cmp	r2, #0
 8002d28:	daf3      	bge.n	8002d12 <HAL_ADCEx_Calibration_Start+0x52>
 8002d2a:	2212      	movs	r2, #18
 8002d2c:	6ba3      	ldr	r3, [r4, #56]	@ 0x38
 8002d2e:	2001      	movs	r0, #1
 8002d30:	4393      	bics	r3, r2
 8002d32:	3a02      	subs	r2, #2
 8002d34:	4313      	orrs	r3, r2
 8002d36:	63a3      	str	r3, [r4, #56]	@ 0x38
 8002d38:	2200      	movs	r2, #0
 8002d3a:	2334      	movs	r3, #52	@ 0x34
 8002d3c:	54e2      	strb	r2, [r4, r3]
 8002d3e:	e007      	b.n	8002d50 <HAL_ADCEx_Calibration_Start+0x90>
 8002d40:	2220      	movs	r2, #32
 8002d42:	2001      	movs	r0, #1
 8002d44:	6ba3      	ldr	r3, [r4, #56]	@ 0x38
 8002d46:	4313      	orrs	r3, r2
 8002d48:	63a3      	str	r3, [r4, #56]	@ 0x38
 8002d4a:	2334      	movs	r3, #52	@ 0x34
 8002d4c:	2200      	movs	r2, #0
 8002d4e:	54e2      	strb	r2, [r4, r3]
 8002d50:	bd70      	pop	{r4, r5, r6, pc}
 8002d52:	2203      	movs	r2, #3
 8002d54:	68d9      	ldr	r1, [r3, #12]
 8002d56:	4016      	ands	r6, r2
 8002d58:	430e      	orrs	r6, r1
 8002d5a:	60de      	str	r6, [r3, #12]
 8002d5c:	6ba3      	ldr	r3, [r4, #56]	@ 0x38
 8002d5e:	2000      	movs	r0, #0
 8002d60:	4393      	bics	r3, r2
 8002d62:	3a02      	subs	r2, #2
 8002d64:	4313      	orrs	r3, r2
 8002d66:	63a3      	str	r3, [r4, #56]	@ 0x38
 8002d68:	e7ef      	b.n	8002d4a <HAL_ADCEx_Calibration_Start+0x8a>
 8002d6a:	2002      	movs	r0, #2
 8002d6c:	e7f0      	b.n	8002d50 <HAL_ADCEx_Calibration_Start+0x90>
 8002d6e:	46c0      	nop			@ (mov r8, r8)
 8002d70:	fffffefd 	.word	0xfffffefd

08002d74 <HAL_NVIC_SetPriority>:
 8002d74:	22ff      	movs	r2, #255	@ 0xff
 8002d76:	2303      	movs	r3, #3
 8002d78:	b510      	push	{r4, lr}
 8002d7a:	0014      	movs	r4, r2
 8002d7c:	4003      	ands	r3, r0
 8002d7e:	00db      	lsls	r3, r3, #3
 8002d80:	409c      	lsls	r4, r3
 8002d82:	0189      	lsls	r1, r1, #6
 8002d84:	400a      	ands	r2, r1
 8002d86:	43e4      	mvns	r4, r4
 8002d88:	409a      	lsls	r2, r3
 8002d8a:	2800      	cmp	r0, #0
 8002d8c:	db0b      	blt.n	8002da6 <HAL_NVIC_SetPriority+0x32>
 8002d8e:	4b0c      	ldr	r3, [pc, #48]	@ (8002dc0 <HAL_NVIC_SetPriority+0x4c>)
 8002d90:	21c0      	movs	r1, #192	@ 0xc0
 8002d92:	469c      	mov	ip, r3
 8002d94:	0880      	lsrs	r0, r0, #2
 8002d96:	0080      	lsls	r0, r0, #2
 8002d98:	4460      	add	r0, ip
 8002d9a:	0089      	lsls	r1, r1, #2
 8002d9c:	5843      	ldr	r3, [r0, r1]
 8002d9e:	4023      	ands	r3, r4
 8002da0:	4313      	orrs	r3, r2
 8002da2:	5043      	str	r3, [r0, r1]
 8002da4:	bd10      	pop	{r4, pc}
 8002da6:	230f      	movs	r3, #15
 8002da8:	4906      	ldr	r1, [pc, #24]	@ (8002dc4 <HAL_NVIC_SetPriority+0x50>)
 8002daa:	4003      	ands	r3, r0
 8002dac:	468c      	mov	ip, r1
 8002dae:	3b08      	subs	r3, #8
 8002db0:	089b      	lsrs	r3, r3, #2
 8002db2:	009b      	lsls	r3, r3, #2
 8002db4:	4463      	add	r3, ip
 8002db6:	69d9      	ldr	r1, [r3, #28]
 8002db8:	400c      	ands	r4, r1
 8002dba:	4314      	orrs	r4, r2
 8002dbc:	61dc      	str	r4, [r3, #28]
 8002dbe:	e7f1      	b.n	8002da4 <HAL_NVIC_SetPriority+0x30>
 8002dc0:	e000e100 	.word	0xe000e100
 8002dc4:	e000ed00 	.word	0xe000ed00

08002dc8 <HAL_NVIC_EnableIRQ>:
 8002dc8:	2800      	cmp	r0, #0
 8002dca:	db05      	blt.n	8002dd8 <HAL_NVIC_EnableIRQ+0x10>
 8002dcc:	221f      	movs	r2, #31
 8002dce:	2301      	movs	r3, #1
 8002dd0:	4002      	ands	r2, r0
 8002dd2:	4093      	lsls	r3, r2
 8002dd4:	4a01      	ldr	r2, [pc, #4]	@ (8002ddc <HAL_NVIC_EnableIRQ+0x14>)
 8002dd6:	6013      	str	r3, [r2, #0]
 8002dd8:	4770      	bx	lr
 8002dda:	46c0      	nop			@ (mov r8, r8)
 8002ddc:	e000e100 	.word	0xe000e100

08002de0 <HAL_SYSTICK_Config>:
 8002de0:	2280      	movs	r2, #128	@ 0x80
 8002de2:	1e43      	subs	r3, r0, #1
 8002de4:	0452      	lsls	r2, r2, #17
 8002de6:	2001      	movs	r0, #1
 8002de8:	4293      	cmp	r3, r2
 8002dea:	d20e      	bcs.n	8002e0a <HAL_SYSTICK_Config+0x2a>
 8002dec:	21c0      	movs	r1, #192	@ 0xc0
 8002dee:	4a07      	ldr	r2, [pc, #28]	@ (8002e0c <HAL_SYSTICK_Config+0x2c>)
 8002df0:	4807      	ldr	r0, [pc, #28]	@ (8002e10 <HAL_SYSTICK_Config+0x30>)
 8002df2:	6053      	str	r3, [r2, #4]
 8002df4:	6a03      	ldr	r3, [r0, #32]
 8002df6:	0609      	lsls	r1, r1, #24
 8002df8:	021b      	lsls	r3, r3, #8
 8002dfa:	0a1b      	lsrs	r3, r3, #8
 8002dfc:	430b      	orrs	r3, r1
 8002dfe:	6203      	str	r3, [r0, #32]
 8002e00:	2300      	movs	r3, #0
 8002e02:	2000      	movs	r0, #0
 8002e04:	6093      	str	r3, [r2, #8]
 8002e06:	3307      	adds	r3, #7
 8002e08:	6013      	str	r3, [r2, #0]
 8002e0a:	4770      	bx	lr
 8002e0c:	e000e010 	.word	0xe000e010
 8002e10:	e000ed00 	.word	0xe000ed00

08002e14 <HAL_DMA_Init>:
 8002e14:	b570      	push	{r4, r5, r6, lr}
 8002e16:	1e04      	subs	r4, r0, #0
 8002e18:	d027      	beq.n	8002e6a <HAL_DMA_Init+0x56>
 8002e1a:	2521      	movs	r5, #33	@ 0x21
 8002e1c:	2302      	movs	r3, #2
 8002e1e:	5543      	strb	r3, [r0, r5]
 8002e20:	6800      	ldr	r0, [r0, #0]
 8002e22:	4b13      	ldr	r3, [pc, #76]	@ (8002e70 <HAL_DMA_Init+0x5c>)
 8002e24:	6802      	ldr	r2, [r0, #0]
 8002e26:	68a1      	ldr	r1, [r4, #8]
 8002e28:	401a      	ands	r2, r3
 8002e2a:	6863      	ldr	r3, [r4, #4]
 8002e2c:	430b      	orrs	r3, r1
 8002e2e:	68e1      	ldr	r1, [r4, #12]
 8002e30:	430b      	orrs	r3, r1
 8002e32:	6921      	ldr	r1, [r4, #16]
 8002e34:	430b      	orrs	r3, r1
 8002e36:	6961      	ldr	r1, [r4, #20]
 8002e38:	430b      	orrs	r3, r1
 8002e3a:	69a1      	ldr	r1, [r4, #24]
 8002e3c:	430b      	orrs	r3, r1
 8002e3e:	69e1      	ldr	r1, [r4, #28]
 8002e40:	430b      	orrs	r3, r1
 8002e42:	4313      	orrs	r3, r2
 8002e44:	6003      	str	r3, [r0, #0]
 8002e46:	4b0b      	ldr	r3, [pc, #44]	@ (8002e74 <HAL_DMA_Init+0x60>)
 8002e48:	2114      	movs	r1, #20
 8002e4a:	469c      	mov	ip, r3
 8002e4c:	4460      	add	r0, ip
 8002e4e:	f7fd f96d 	bl	800012c <__udivsi3>
 8002e52:	4b09      	ldr	r3, [pc, #36]	@ (8002e78 <HAL_DMA_Init+0x64>)
 8002e54:	2201      	movs	r2, #1
 8002e56:	63e3      	str	r3, [r4, #60]	@ 0x3c
 8002e58:	2300      	movs	r3, #0
 8002e5a:	0080      	lsls	r0, r0, #2
 8002e5c:	6420      	str	r0, [r4, #64]	@ 0x40
 8002e5e:	2000      	movs	r0, #0
 8002e60:	63a3      	str	r3, [r4, #56]	@ 0x38
 8002e62:	5562      	strb	r2, [r4, r5]
 8002e64:	321f      	adds	r2, #31
 8002e66:	54a3      	strb	r3, [r4, r2]
 8002e68:	bd70      	pop	{r4, r5, r6, pc}
 8002e6a:	2001      	movs	r0, #1
 8002e6c:	e7fc      	b.n	8002e68 <HAL_DMA_Init+0x54>
 8002e6e:	46c0      	nop			@ (mov r8, r8)
 8002e70:	ffffc00f 	.word	0xffffc00f
 8002e74:	bffdfff8 	.word	0xbffdfff8
 8002e78:	40020000 	.word	0x40020000

08002e7c <HAL_DMA_Start>:
 8002e7c:	b5f0      	push	{r4, r5, r6, r7, lr}
 8002e7e:	2420      	movs	r4, #32
 8002e80:	5d05      	ldrb	r5, [r0, r4]
 8002e82:	2d01      	cmp	r5, #1
 8002e84:	d008      	beq.n	8002e98 <HAL_DMA_Start+0x1c>
 8002e86:	2501      	movs	r5, #1
 8002e88:	2721      	movs	r7, #33	@ 0x21
 8002e8a:	5505      	strb	r5, [r0, r4]
 8002e8c:	5dc5      	ldrb	r5, [r0, r7]
 8002e8e:	b2ee      	uxtb	r6, r5
 8002e90:	2d01      	cmp	r5, #1
 8002e92:	d003      	beq.n	8002e9c <HAL_DMA_Start+0x20>
 8002e94:	2300      	movs	r3, #0
 8002e96:	5503      	strb	r3, [r0, r4]
 8002e98:	2002      	movs	r0, #2
 8002e9a:	bdf0      	pop	{r4, r5, r6, r7, pc}
 8002e9c:	3c1e      	subs	r4, #30
 8002e9e:	55c4      	strb	r4, [r0, r7]
 8002ea0:	2400      	movs	r4, #0
 8002ea2:	6384      	str	r4, [r0, #56]	@ 0x38
 8002ea4:	6804      	ldr	r4, [r0, #0]
 8002ea6:	6c07      	ldr	r7, [r0, #64]	@ 0x40
 8002ea8:	6825      	ldr	r5, [r4, #0]
 8002eaa:	43b5      	bics	r5, r6
 8002eac:	40be      	lsls	r6, r7
 8002eae:	6025      	str	r5, [r4, #0]
 8002eb0:	6bc5      	ldr	r5, [r0, #60]	@ 0x3c
 8002eb2:	606e      	str	r6, [r5, #4]
 8002eb4:	6063      	str	r3, [r4, #4]
 8002eb6:	6843      	ldr	r3, [r0, #4]
 8002eb8:	2b10      	cmp	r3, #16
 8002eba:	d007      	beq.n	8002ecc <HAL_DMA_Start+0x50>
 8002ebc:	60a1      	str	r1, [r4, #8]
 8002ebe:	60e2      	str	r2, [r4, #12]
 8002ec0:	2201      	movs	r2, #1
 8002ec2:	6823      	ldr	r3, [r4, #0]
 8002ec4:	2000      	movs	r0, #0
 8002ec6:	4313      	orrs	r3, r2
 8002ec8:	6023      	str	r3, [r4, #0]
 8002eca:	e7e6      	b.n	8002e9a <HAL_DMA_Start+0x1e>
 8002ecc:	60a2      	str	r2, [r4, #8]
 8002ece:	60e1      	str	r1, [r4, #12]
 8002ed0:	e7f6      	b.n	8002ec0 <HAL_DMA_Start+0x44>
 8002ed2:	46c0      	nop			@ (mov r8, r8)

08002ed4 <HAL_DMA_IRQHandler>:
 8002ed4:	2104      	movs	r1, #4
 8002ed6:	b5f8      	push	{r3, r4, r5, r6, r7, lr}
 8002ed8:	000c      	movs	r4, r1
 8002eda:	6c03      	ldr	r3, [r0, #64]	@ 0x40
 8002edc:	6bc7      	ldr	r7, [r0, #60]	@ 0x3c
 8002ede:	409c      	lsls	r4, r3
 8002ee0:	683a      	ldr	r2, [r7, #0]
 8002ee2:	6806      	ldr	r6, [r0, #0]
 8002ee4:	6835      	ldr	r5, [r6, #0]
 8002ee6:	4222      	tst	r2, r4
 8002ee8:	d00d      	beq.n	8002f06 <HAL_DMA_IRQHandler+0x32>
 8002eea:	4229      	tst	r1, r5
 8002eec:	d00b      	beq.n	8002f06 <HAL_DMA_IRQHandler+0x32>
 8002eee:	6833      	ldr	r3, [r6, #0]
 8002ef0:	069b      	lsls	r3, r3, #26
 8002ef2:	d402      	bmi.n	8002efa <HAL_DMA_IRQHandler+0x26>
 8002ef4:	6833      	ldr	r3, [r6, #0]
 8002ef6:	438b      	bics	r3, r1
 8002ef8:	6033      	str	r3, [r6, #0]
 8002efa:	6ac3      	ldr	r3, [r0, #44]	@ 0x2c
 8002efc:	607c      	str	r4, [r7, #4]
 8002efe:	2b00      	cmp	r3, #0
 8002f00:	d000      	beq.n	8002f04 <HAL_DMA_IRQHandler+0x30>
 8002f02:	4798      	blx	r3
 8002f04:	bdf8      	pop	{r3, r4, r5, r6, r7, pc}
 8002f06:	2102      	movs	r1, #2
 8002f08:	000c      	movs	r4, r1
 8002f0a:	409c      	lsls	r4, r3
 8002f0c:	4222      	tst	r2, r4
 8002f0e:	d014      	beq.n	8002f3a <HAL_DMA_IRQHandler+0x66>
 8002f10:	4229      	tst	r1, r5
 8002f12:	d012      	beq.n	8002f3a <HAL_DMA_IRQHandler+0x66>
 8002f14:	6833      	ldr	r3, [r6, #0]
 8002f16:	069b      	lsls	r3, r3, #26
 8002f18:	d406      	bmi.n	8002f28 <HAL_DMA_IRQHandler+0x54>
 8002f1a:	220a      	movs	r2, #10
 8002f1c:	6833      	ldr	r3, [r6, #0]
 8002f1e:	4393      	bics	r3, r2
 8002f20:	6033      	str	r3, [r6, #0]
 8002f22:	2321      	movs	r3, #33	@ 0x21
 8002f24:	3a09      	subs	r2, #9
 8002f26:	54c2      	strb	r2, [r0, r3]
 8002f28:	2320      	movs	r3, #32
 8002f2a:	2200      	movs	r2, #0
 8002f2c:	607c      	str	r4, [r7, #4]
 8002f2e:	54c2      	strb	r2, [r0, r3]
 8002f30:	6a83      	ldr	r3, [r0, #40]	@ 0x28
 8002f32:	2b00      	cmp	r3, #0
 8002f34:	d0e6      	beq.n	8002f04 <HAL_DMA_IRQHandler+0x30>
 8002f36:	4798      	blx	r3
 8002f38:	e7e4      	b.n	8002f04 <HAL_DMA_IRQHandler+0x30>
 8002f3a:	2108      	movs	r1, #8
 8002f3c:	000c      	movs	r4, r1
 8002f3e:	409c      	lsls	r4, r3
 8002f40:	4222      	tst	r2, r4
 8002f42:	d0df      	beq.n	8002f04 <HAL_DMA_IRQHandler+0x30>
 8002f44:	4229      	tst	r1, r5
 8002f46:	d0dd      	beq.n	8002f04 <HAL_DMA_IRQHandler+0x30>
 8002f48:	6832      	ldr	r2, [r6, #0]
 8002f4a:	3106      	adds	r1, #6
 8002f4c:	438a      	bics	r2, r1
 8002f4e:	6032      	str	r2, [r6, #0]
 8002f50:	2201      	movs	r2, #1
 8002f52:	0011      	movs	r1, r2
 8002f54:	4099      	lsls	r1, r3
 8002f56:	2321      	movs	r3, #33	@ 0x21
 8002f58:	6079      	str	r1, [r7, #4]
 8002f5a:	6382      	str	r2, [r0, #56]	@ 0x38
 8002f5c:	54c2      	strb	r2, [r0, r3]
 8002f5e:	2200      	movs	r2, #0
 8002f60:	3b01      	subs	r3, #1
 8002f62:	54c2      	strb	r2, [r0, r3]
 8002f64:	6b03      	ldr	r3, [r0, #48]	@ 0x30
 8002f66:	2b00      	cmp	r3, #0
 8002f68:	d0cc      	beq.n	8002f04 <HAL_DMA_IRQHandler+0x30>
 8002f6a:	4798      	blx	r3
 8002f6c:	e7ca      	b.n	8002f04 <HAL_DMA_IRQHandler+0x30>
 8002f6e:	46c0      	nop			@ (mov r8, r8)

08002f70 <HAL_GPIO_Init>:
 8002f70:	b5f0      	push	{r4, r5, r6, r7, lr}
 8002f72:	46de      	mov	lr, fp
 8002f74:	4657      	mov	r7, sl
 8002f76:	464e      	mov	r6, r9
 8002f78:	4645      	mov	r5, r8
 8002f7a:	b5e0      	push	{r5, r6, r7, lr}
 8002f7c:	680c      	ldr	r4, [r1, #0]
 8002f7e:	2300      	movs	r3, #0
 8002f80:	b087      	sub	sp, #28
 8002f82:	2c00      	cmp	r4, #0
 8002f84:	d072      	beq.n	800306c <HAL_GPIO_Init+0xfc>
 8002f86:	4a75      	ldr	r2, [pc, #468]	@ (800315c <HAL_GPIO_Init+0x1ec>)
 8002f88:	4e75      	ldr	r6, [pc, #468]	@ (8003160 <HAL_GPIO_Init+0x1f0>)
 8002f8a:	4693      	mov	fp, r2
 8002f8c:	9102      	str	r1, [sp, #8]
 8002f8e:	2201      	movs	r2, #1
 8002f90:	409a      	lsls	r2, r3
 8002f92:	4694      	mov	ip, r2
 8002f94:	4022      	ands	r2, r4
 8002f96:	9200      	str	r2, [sp, #0]
 8002f98:	4662      	mov	r2, ip
 8002f9a:	4214      	tst	r4, r2
 8002f9c:	d062      	beq.n	8003064 <HAL_GPIO_Init+0xf4>
 8002f9e:	9902      	ldr	r1, [sp, #8]
 8002fa0:	005d      	lsls	r5, r3, #1
 8002fa2:	684a      	ldr	r2, [r1, #4]
 8002fa4:	4692      	mov	sl, r2
 8002fa6:	2203      	movs	r2, #3
 8002fa8:	4651      	mov	r1, sl
 8002faa:	400a      	ands	r2, r1
 8002fac:	2103      	movs	r1, #3
 8002fae:	40a9      	lsls	r1, r5
 8002fb0:	43c9      	mvns	r1, r1
 8002fb2:	1e57      	subs	r7, r2, #1
 8002fb4:	9101      	str	r1, [sp, #4]
 8002fb6:	2f01      	cmp	r7, #1
 8002fb8:	d95f      	bls.n	800307a <HAL_GPIO_Init+0x10a>
 8002fba:	2a03      	cmp	r2, #3
 8002fbc:	d000      	beq.n	8002fc0 <HAL_GPIO_Init+0x50>
 8002fbe:	e0b3      	b.n	8003128 <HAL_GPIO_Init+0x1b8>
 8002fc0:	40aa      	lsls	r2, r5
 8002fc2:	6807      	ldr	r7, [r0, #0]
 8002fc4:	9901      	ldr	r1, [sp, #4]
 8002fc6:	4039      	ands	r1, r7
 8002fc8:	430a      	orrs	r2, r1
 8002fca:	21c0      	movs	r1, #192	@ 0xc0
 8002fcc:	6002      	str	r2, [r0, #0]
 8002fce:	4652      	mov	r2, sl
 8002fd0:	0289      	lsls	r1, r1, #10
 8002fd2:	420a      	tst	r2, r1
 8002fd4:	d046      	beq.n	8003064 <HAL_GPIO_Init+0xf4>
 8002fd6:	465a      	mov	r2, fp
 8002fd8:	2101      	movs	r1, #1
 8002fda:	465d      	mov	r5, fp
 8002fdc:	6992      	ldr	r2, [r2, #24]
 8002fde:	270f      	movs	r7, #15
 8002fe0:	430a      	orrs	r2, r1
 8002fe2:	61aa      	str	r2, [r5, #24]
 8002fe4:	69aa      	ldr	r2, [r5, #24]
 8002fe6:	2503      	movs	r5, #3
 8002fe8:	400a      	ands	r2, r1
 8002fea:	495e      	ldr	r1, [pc, #376]	@ (8003164 <HAL_GPIO_Init+0x1f4>)
 8002fec:	401d      	ands	r5, r3
 8002fee:	468c      	mov	ip, r1
 8002ff0:	00ad      	lsls	r5, r5, #2
 8002ff2:	40af      	lsls	r7, r5
 8002ff4:	9205      	str	r2, [sp, #20]
 8002ff6:	9a05      	ldr	r2, [sp, #20]
 8002ff8:	089a      	lsrs	r2, r3, #2
 8002ffa:	0092      	lsls	r2, r2, #2
 8002ffc:	4462      	add	r2, ip
 8002ffe:	6891      	ldr	r1, [r2, #8]
 8003000:	43b9      	bics	r1, r7
 8003002:	2790      	movs	r7, #144	@ 0x90
 8003004:	05ff      	lsls	r7, r7, #23
 8003006:	42b8      	cmp	r0, r7
 8003008:	d00e      	beq.n	8003028 <HAL_GPIO_Init+0xb8>
 800300a:	4f57      	ldr	r7, [pc, #348]	@ (8003168 <HAL_GPIO_Init+0x1f8>)
 800300c:	42b8      	cmp	r0, r7
 800300e:	d100      	bne.n	8003012 <HAL_GPIO_Init+0xa2>
 8003010:	e09b      	b.n	800314a <HAL_GPIO_Init+0x1da>
 8003012:	4f56      	ldr	r7, [pc, #344]	@ (800316c <HAL_GPIO_Init+0x1fc>)
 8003014:	42b8      	cmp	r0, r7
 8003016:	d100      	bne.n	800301a <HAL_GPIO_Init+0xaa>
 8003018:	e09b      	b.n	8003152 <HAL_GPIO_Init+0x1e2>
 800301a:	4f55      	ldr	r7, [pc, #340]	@ (8003170 <HAL_GPIO_Init+0x200>)
 800301c:	42b8      	cmp	r0, r7
 800301e:	d100      	bne.n	8003022 <HAL_GPIO_Init+0xb2>
 8003020:	e08f      	b.n	8003142 <HAL_GPIO_Init+0x1d2>
 8003022:	2705      	movs	r7, #5
 8003024:	40af      	lsls	r7, r5
 8003026:	4339      	orrs	r1, r7
 8003028:	2780      	movs	r7, #128	@ 0x80
 800302a:	4655      	mov	r5, sl
 800302c:	6091      	str	r1, [r2, #8]
 800302e:	9900      	ldr	r1, [sp, #0]
 8003030:	037f      	lsls	r7, r7, #13
 8003032:	43c9      	mvns	r1, r1
 8003034:	68b2      	ldr	r2, [r6, #8]
 8003036:	423d      	tst	r5, r7
 8003038:	d000      	beq.n	800303c <HAL_GPIO_Init+0xcc>
 800303a:	e072      	b.n	8003122 <HAL_GPIO_Init+0x1b2>
 800303c:	400a      	ands	r2, r1
 800303e:	4655      	mov	r5, sl
 8003040:	60b2      	str	r2, [r6, #8]
 8003042:	68f2      	ldr	r2, [r6, #12]
 8003044:	02ad      	lsls	r5, r5, #10
 8003046:	d469      	bmi.n	800311c <HAL_GPIO_Init+0x1ac>
 8003048:	400a      	ands	r2, r1
 800304a:	4655      	mov	r5, sl
 800304c:	60f2      	str	r2, [r6, #12]
 800304e:	6872      	ldr	r2, [r6, #4]
 8003050:	03ad      	lsls	r5, r5, #14
 8003052:	d460      	bmi.n	8003116 <HAL_GPIO_Init+0x1a6>
 8003054:	400a      	ands	r2, r1
 8003056:	4655      	mov	r5, sl
 8003058:	6072      	str	r2, [r6, #4]
 800305a:	6832      	ldr	r2, [r6, #0]
 800305c:	03ed      	lsls	r5, r5, #15
 800305e:	d455      	bmi.n	800310c <HAL_GPIO_Init+0x19c>
 8003060:	400a      	ands	r2, r1
 8003062:	6032      	str	r2, [r6, #0]
 8003064:	0022      	movs	r2, r4
 8003066:	3301      	adds	r3, #1
 8003068:	40da      	lsrs	r2, r3
 800306a:	d190      	bne.n	8002f8e <HAL_GPIO_Init+0x1e>
 800306c:	b007      	add	sp, #28
 800306e:	bcf0      	pop	{r4, r5, r6, r7}
 8003070:	46bb      	mov	fp, r7
 8003072:	46b2      	mov	sl, r6
 8003074:	46a9      	mov	r9, r5
 8003076:	46a0      	mov	r8, r4
 8003078:	bdf0      	pop	{r4, r5, r6, r7, pc}
 800307a:	6881      	ldr	r1, [r0, #8]
 800307c:	000f      	movs	r7, r1
 800307e:	9901      	ldr	r1, [sp, #4]
 8003080:	400f      	ands	r7, r1
 8003082:	46b9      	mov	r9, r7
 8003084:	9f02      	ldr	r7, [sp, #8]
 8003086:	68f9      	ldr	r1, [r7, #12]
 8003088:	000f      	movs	r7, r1
 800308a:	40af      	lsls	r7, r5
 800308c:	46b8      	mov	r8, r7
 800308e:	464f      	mov	r7, r9
 8003090:	4641      	mov	r1, r8
 8003092:	430f      	orrs	r7, r1
 8003094:	6087      	str	r7, [r0, #8]
 8003096:	6841      	ldr	r1, [r0, #4]
 8003098:	000f      	movs	r7, r1
 800309a:	4661      	mov	r1, ip
 800309c:	438f      	bics	r7, r1
 800309e:	4651      	mov	r1, sl
 80030a0:	0909      	lsrs	r1, r1, #4
 80030a2:	46b8      	mov	r8, r7
 80030a4:	000f      	movs	r7, r1
 80030a6:	2101      	movs	r1, #1
 80030a8:	400f      	ands	r7, r1
 80030aa:	409f      	lsls	r7, r3
 80030ac:	46bc      	mov	ip, r7
 80030ae:	4647      	mov	r7, r8
 80030b0:	4661      	mov	r1, ip
 80030b2:	430f      	orrs	r7, r1
 80030b4:	6047      	str	r7, [r0, #4]
 80030b6:	68c1      	ldr	r1, [r0, #12]
 80030b8:	000f      	movs	r7, r1
 80030ba:	9901      	ldr	r1, [sp, #4]
 80030bc:	400f      	ands	r7, r1
 80030be:	9902      	ldr	r1, [sp, #8]
 80030c0:	46b8      	mov	r8, r7
 80030c2:	6889      	ldr	r1, [r1, #8]
 80030c4:	000f      	movs	r7, r1
 80030c6:	40af      	lsls	r7, r5
 80030c8:	46bc      	mov	ip, r7
 80030ca:	4647      	mov	r7, r8
 80030cc:	4661      	mov	r1, ip
 80030ce:	430f      	orrs	r7, r1
 80030d0:	60c7      	str	r7, [r0, #12]
 80030d2:	2a02      	cmp	r2, #2
 80030d4:	d000      	beq.n	80030d8 <HAL_GPIO_Init+0x168>
 80030d6:	e773      	b.n	8002fc0 <HAL_GPIO_Init+0x50>
 80030d8:	08d9      	lsrs	r1, r3, #3
 80030da:	0089      	lsls	r1, r1, #2
 80030dc:	468c      	mov	ip, r1
 80030de:	4484      	add	ip, r0
 80030e0:	4661      	mov	r1, ip
 80030e2:	6a0f      	ldr	r7, [r1, #32]
 80030e4:	2107      	movs	r1, #7
 80030e6:	4019      	ands	r1, r3
 80030e8:	0089      	lsls	r1, r1, #2
 80030ea:	4688      	mov	r8, r1
 80030ec:	9703      	str	r7, [sp, #12]
 80030ee:	210f      	movs	r1, #15
 80030f0:	4647      	mov	r7, r8
 80030f2:	40b9      	lsls	r1, r7
 80030f4:	9f03      	ldr	r7, [sp, #12]
 80030f6:	438f      	bics	r7, r1
 80030f8:	9703      	str	r7, [sp, #12]
 80030fa:	4647      	mov	r7, r8
 80030fc:	9902      	ldr	r1, [sp, #8]
 80030fe:	6909      	ldr	r1, [r1, #16]
 8003100:	40b9      	lsls	r1, r7
 8003102:	9f03      	ldr	r7, [sp, #12]
 8003104:	430f      	orrs	r7, r1
 8003106:	4661      	mov	r1, ip
 8003108:	620f      	str	r7, [r1, #32]
 800310a:	e759      	b.n	8002fc0 <HAL_GPIO_Init+0x50>
 800310c:	9900      	ldr	r1, [sp, #0]
 800310e:	4311      	orrs	r1, r2
 8003110:	000a      	movs	r2, r1
 8003112:	6032      	str	r2, [r6, #0]
 8003114:	e7a6      	b.n	8003064 <HAL_GPIO_Init+0xf4>
 8003116:	9d00      	ldr	r5, [sp, #0]
 8003118:	432a      	orrs	r2, r5
 800311a:	e79c      	b.n	8003056 <HAL_GPIO_Init+0xe6>
 800311c:	9d00      	ldr	r5, [sp, #0]
 800311e:	432a      	orrs	r2, r5
 8003120:	e793      	b.n	800304a <HAL_GPIO_Init+0xda>
 8003122:	9d00      	ldr	r5, [sp, #0]
 8003124:	432a      	orrs	r2, r5
 8003126:	e78a      	b.n	800303e <HAL_GPIO_Init+0xce>
 8003128:	000f      	movs	r7, r1
 800312a:	68c1      	ldr	r1, [r0, #12]
 800312c:	4039      	ands	r1, r7
 800312e:	4688      	mov	r8, r1
 8003130:	9902      	ldr	r1, [sp, #8]
 8003132:	6889      	ldr	r1, [r1, #8]
 8003134:	40a9      	lsls	r1, r5
 8003136:	468c      	mov	ip, r1
 8003138:	4641      	mov	r1, r8
 800313a:	4667      	mov	r7, ip
 800313c:	4339      	orrs	r1, r7
 800313e:	60c1      	str	r1, [r0, #12]
 8003140:	e73e      	b.n	8002fc0 <HAL_GPIO_Init+0x50>
 8003142:	2703      	movs	r7, #3
 8003144:	40af      	lsls	r7, r5
 8003146:	4339      	orrs	r1, r7
 8003148:	e76e      	b.n	8003028 <HAL_GPIO_Init+0xb8>
 800314a:	2701      	movs	r7, #1
 800314c:	40af      	lsls	r7, r5
 800314e:	4339      	orrs	r1, r7
 8003150:	e76a      	b.n	8003028 <HAL_GPIO_Init+0xb8>
 8003152:	2702      	movs	r7, #2
 8003154:	40af      	lsls	r7, r5
 8003156:	4339      	orrs	r1, r7
 8003158:	e766      	b.n	8003028 <HAL_GPIO_Init+0xb8>
 800315a:	46c0      	nop			@ (mov r8, r8)
 800315c:	40021000 	.word	0x40021000
 8003160:	40010400 	.word	0x40010400
 8003164:	40010000 	.word	0x40010000
 8003168:	48000400 	.word	0x48000400
 800316c:	48000800 	.word	0x48000800
 8003170:	48000c00 	.word	0x48000c00

08003174 <HAL_GPIO_ReadPin>:
 8003174:	6900      	ldr	r0, [r0, #16]
 8003176:	4008      	ands	r0, r1
 8003178:	1e43      	subs	r3, r0, #1
 800317a:	4198      	sbcs	r0, r3
 800317c:	b2c0      	uxtb	r0, r0
 800317e:	4770      	bx	lr

08003180 <HAL_GPIO_WritePin>:
 8003180:	2a00      	cmp	r2, #0
 8003182:	d001      	beq.n	8003188 <HAL_GPIO_WritePin+0x8>
 8003184:	6181      	str	r1, [r0, #24]
 8003186:	4770      	bx	lr
 8003188:	6281      	str	r1, [r0, #40]	@ 0x28
 800318a:	e7fc      	b.n	8003186 <HAL_GPIO_WritePin+0x6>

0800318c <HAL_GPIO_TogglePin>:
 800318c:	6942      	ldr	r2, [r0, #20]
 800318e:	0013      	movs	r3, r2
 8003190:	400b      	ands	r3, r1
 8003192:	041b      	lsls	r3, r3, #16
 8003194:	4391      	bics	r1, r2
 8003196:	430b      	orrs	r3, r1
 8003198:	6183      	str	r3, [r0, #24]
 800319a:	4770      	bx	lr

0800319c <HAL_GPIO_EXTI_IRQHandler>:
 800319c:	4b04      	ldr	r3, [pc, #16]	@ (80031b0 <HAL_GPIO_EXTI_IRQHandler+0x14>)
 800319e:	b510      	push	{r4, lr}
 80031a0:	695a      	ldr	r2, [r3, #20]
 80031a2:	4210      	tst	r0, r2
 80031a4:	d100      	bne.n	80031a8 <HAL_GPIO_EXTI_IRQHandler+0xc>
 80031a6:	bd10      	pop	{r4, pc}
 80031a8:	6158      	str	r0, [r3, #20]
 80031aa:	f7fe f9c3 	bl	8001534 <HAL_GPIO_EXTI_Callback>
 80031ae:	e7fa      	b.n	80031a6 <HAL_GPIO_EXTI_IRQHandler+0xa>
 80031b0:	40010400 	.word	0x40010400

080031b4 <I2C_WaitOnFlagUntilTimeout.constprop.0>:
 80031b4:	b5f0      	push	{r4, r5, r6, r7, lr}
 80031b6:	4657      	mov	r7, sl
 80031b8:	4645      	mov	r5, r8
 80031ba:	46de      	mov	lr, fp
 80031bc:	464e      	mov	r6, r9
 80031be:	b5e0      	push	{r5, r6, r7, lr}
 80031c0:	b083      	sub	sp, #12
 80031c2:	9101      	str	r1, [sp, #4]
 80031c4:	2110      	movs	r1, #16
 80031c6:	6803      	ldr	r3, [r0, #0]
 80031c8:	4688      	mov	r8, r1
 80031ca:	699a      	ldr	r2, [r3, #24]
 80031cc:	3132      	adds	r1, #50	@ 0x32
 80031ce:	0004      	movs	r4, r0
 80031d0:	468a      	mov	sl, r1
 80031d2:	0412      	lsls	r2, r2, #16
 80031d4:	d400      	bmi.n	80031d8 <I2C_WaitOnFlagUntilTimeout.constprop.0+0x24>
 80031d6:	e096      	b.n	8003306 <I2C_WaitOnFlagUntilTimeout.constprop.0+0x152>
 80031d8:	4642      	mov	r2, r8
 80031da:	4640      	mov	r0, r8
 80031dc:	6999      	ldr	r1, [r3, #24]
 80031de:	2500      	movs	r5, #0
 80031e0:	400a      	ands	r2, r1
 80031e2:	4208      	tst	r0, r1
 80031e4:	d041      	beq.n	800326a <I2C_WaitOnFlagUntilTimeout.constprop.0+0xb6>
 80031e6:	2200      	movs	r2, #0
 80031e8:	4693      	mov	fp, r2
 80031ea:	2280      	movs	r2, #128	@ 0x80
 80031ec:	0212      	lsls	r2, r2, #8
 80031ee:	2700      	movs	r7, #0
 80031f0:	4691      	mov	r9, r2
 80031f2:	9e01      	ldr	r6, [sp, #4]
 80031f4:	61d8      	str	r0, [r3, #28]
 80031f6:	3520      	adds	r5, #32
 80031f8:	699a      	ldr	r2, [r3, #24]
 80031fa:	4215      	tst	r5, r2
 80031fc:	d12d      	bne.n	800325a <I2C_WaitOnFlagUntilTimeout.constprop.0+0xa6>
 80031fe:	2f00      	cmp	r7, #0
 8003200:	d12e      	bne.n	8003260 <I2C_WaitOnFlagUntilTimeout.constprop.0+0xac>
 8003202:	f7ff fb01 	bl	8002808 <HAL_GetTick>
 8003206:	6823      	ldr	r3, [r4, #0]
 8003208:	1b80      	subs	r0, r0, r6
 800320a:	2819      	cmp	r0, #25
 800320c:	d9f4      	bls.n	80031f8 <I2C_WaitOnFlagUntilTimeout.constprop.0+0x44>
 800320e:	4652      	mov	r2, sl
 8003210:	6858      	ldr	r0, [r3, #4]
 8003212:	5ca2      	ldrb	r2, [r4, r2]
 8003214:	6999      	ldr	r1, [r3, #24]
 8003216:	b2d2      	uxtb	r2, r2
 8003218:	4694      	mov	ip, r2
 800321a:	464a      	mov	r2, r9
 800321c:	4211      	tst	r1, r2
 800321e:	d00d      	beq.n	800323c <I2C_WaitOnFlagUntilTimeout.constprop.0+0x88>
 8003220:	2180      	movs	r1, #128	@ 0x80
 8003222:	01c9      	lsls	r1, r1, #7
 8003224:	4208      	tst	r0, r1
 8003226:	d109      	bne.n	800323c <I2C_WaitOnFlagUntilTimeout.constprop.0+0x88>
 8003228:	4662      	mov	r2, ip
 800322a:	2a20      	cmp	r2, #32
 800322c:	d006      	beq.n	800323c <I2C_WaitOnFlagUntilTimeout.constprop.0+0x88>
 800322e:	685a      	ldr	r2, [r3, #4]
 8003230:	4311      	orrs	r1, r2
 8003232:	6059      	str	r1, [r3, #4]
 8003234:	f7ff fae8 	bl	8002808 <HAL_GetTick>
 8003238:	0006      	movs	r6, r0
 800323a:	6823      	ldr	r3, [r4, #0]
 800323c:	699a      	ldr	r2, [r3, #24]
 800323e:	4215      	tst	r5, r2
 8003240:	d1da      	bne.n	80031f8 <I2C_WaitOnFlagUntilTimeout.constprop.0+0x44>
 8003242:	f7ff fae1 	bl	8002808 <HAL_GetTick>
 8003246:	6823      	ldr	r3, [r4, #0]
 8003248:	1b80      	subs	r0, r0, r6
 800324a:	2819      	cmp	r0, #25
 800324c:	d9f6      	bls.n	800323c <I2C_WaitOnFlagUntilTimeout.constprop.0+0x88>
 800324e:	2220      	movs	r2, #32
 8003250:	4693      	mov	fp, r2
 8003252:	699a      	ldr	r2, [r3, #24]
 8003254:	2701      	movs	r7, #1
 8003256:	4215      	tst	r5, r2
 8003258:	d0d1      	beq.n	80031fe <I2C_WaitOnFlagUntilTimeout.constprop.0+0x4a>
 800325a:	2f00      	cmp	r7, #0
 800325c:	d100      	bne.n	8003260 <I2C_WaitOnFlagUntilTimeout.constprop.0+0xac>
 800325e:	61dd      	str	r5, [r3, #28]
 8003260:	2204      	movs	r2, #4
 8003262:	4659      	mov	r1, fp
 8003264:	4311      	orrs	r1, r2
 8003266:	000a      	movs	r2, r1
 8003268:	2501      	movs	r5, #1
 800326a:	2080      	movs	r0, #128	@ 0x80
 800326c:	6999      	ldr	r1, [r3, #24]
 800326e:	0040      	lsls	r0, r0, #1
 8003270:	4201      	tst	r1, r0
 8003272:	d034      	beq.n	80032de <I2C_WaitOnFlagUntilTimeout.constprop.0+0x12a>
 8003274:	2501      	movs	r5, #1
 8003276:	61d8      	str	r0, [r3, #28]
 8003278:	432a      	orrs	r2, r5
 800327a:	0548      	lsls	r0, r1, #21
 800327c:	d504      	bpl.n	8003288 <I2C_WaitOnFlagUntilTimeout.constprop.0+0xd4>
 800327e:	2008      	movs	r0, #8
 8003280:	4302      	orrs	r2, r0
 8003282:	2080      	movs	r0, #128	@ 0x80
 8003284:	00c0      	lsls	r0, r0, #3
 8003286:	61d8      	str	r0, [r3, #28]
 8003288:	0589      	lsls	r1, r1, #22
 800328a:	d504      	bpl.n	8003296 <I2C_WaitOnFlagUntilTimeout.constprop.0+0xe2>
 800328c:	2102      	movs	r1, #2
 800328e:	430a      	orrs	r2, r1
 8003290:	31ff      	adds	r1, #255	@ 0xff
 8003292:	31ff      	adds	r1, #255	@ 0xff
 8003294:	61d9      	str	r1, [r3, #28]
 8003296:	6999      	ldr	r1, [r3, #24]
 8003298:	0789      	lsls	r1, r1, #30
 800329a:	d501      	bpl.n	80032a0 <I2C_WaitOnFlagUntilTimeout.constprop.0+0xec>
 800329c:	2100      	movs	r1, #0
 800329e:	6299      	str	r1, [r3, #40]	@ 0x28
 80032a0:	2101      	movs	r1, #1
 80032a2:	6998      	ldr	r0, [r3, #24]
 80032a4:	4201      	tst	r1, r0
 80032a6:	d102      	bne.n	80032ae <I2C_WaitOnFlagUntilTimeout.constprop.0+0xfa>
 80032a8:	6998      	ldr	r0, [r3, #24]
 80032aa:	4301      	orrs	r1, r0
 80032ac:	6199      	str	r1, [r3, #24]
 80032ae:	6859      	ldr	r1, [r3, #4]
 80032b0:	481a      	ldr	r0, [pc, #104]	@ (800331c <I2C_WaitOnFlagUntilTimeout.constprop.0+0x168>)
 80032b2:	4001      	ands	r1, r0
 80032b4:	6059      	str	r1, [r3, #4]
 80032b6:	6c63      	ldr	r3, [r4, #68]	@ 0x44
 80032b8:	4313      	orrs	r3, r2
 80032ba:	6463      	str	r3, [r4, #68]	@ 0x44
 80032bc:	2220      	movs	r2, #32
 80032be:	2341      	movs	r3, #65	@ 0x41
 80032c0:	54e2      	strb	r2, [r4, r3]
 80032c2:	2200      	movs	r2, #0
 80032c4:	3301      	adds	r3, #1
 80032c6:	54e2      	strb	r2, [r4, r3]
 80032c8:	2340      	movs	r3, #64	@ 0x40
 80032ca:	2200      	movs	r2, #0
 80032cc:	2001      	movs	r0, #1
 80032ce:	54e2      	strb	r2, [r4, r3]
 80032d0:	b003      	add	sp, #12
 80032d2:	bcf0      	pop	{r4, r5, r6, r7}
 80032d4:	46bb      	mov	fp, r7
 80032d6:	46b2      	mov	sl, r6
 80032d8:	46a9      	mov	r9, r5
 80032da:	46a0      	mov	r8, r4
 80032dc:	bdf0      	pop	{r4, r5, r6, r7, pc}
 80032de:	0548      	lsls	r0, r1, #21
 80032e0:	d4cd      	bmi.n	800327e <I2C_WaitOnFlagUntilTimeout.constprop.0+0xca>
 80032e2:	0589      	lsls	r1, r1, #22
 80032e4:	d4d2      	bmi.n	800328c <I2C_WaitOnFlagUntilTimeout.constprop.0+0xd8>
 80032e6:	2d00      	cmp	r5, #0
 80032e8:	d1d5      	bne.n	8003296 <I2C_WaitOnFlagUntilTimeout.constprop.0+0xe2>
 80032ea:	f7ff fa8d 	bl	8002808 <HAL_GetTick>
 80032ee:	9b01      	ldr	r3, [sp, #4]
 80032f0:	1ac0      	subs	r0, r0, r3
 80032f2:	6823      	ldr	r3, [r4, #0]
 80032f4:	2819      	cmp	r0, #25
 80032f6:	d902      	bls.n	80032fe <I2C_WaitOnFlagUntilTimeout.constprop.0+0x14a>
 80032f8:	699a      	ldr	r2, [r3, #24]
 80032fa:	0412      	lsls	r2, r2, #16
 80032fc:	d405      	bmi.n	800330a <I2C_WaitOnFlagUntilTimeout.constprop.0+0x156>
 80032fe:	699a      	ldr	r2, [r3, #24]
 8003300:	0412      	lsls	r2, r2, #16
 8003302:	d500      	bpl.n	8003306 <I2C_WaitOnFlagUntilTimeout.constprop.0+0x152>
 8003304:	e768      	b.n	80031d8 <I2C_WaitOnFlagUntilTimeout.constprop.0+0x24>
 8003306:	2000      	movs	r0, #0
 8003308:	e7e2      	b.n	80032d0 <I2C_WaitOnFlagUntilTimeout.constprop.0+0x11c>
 800330a:	2220      	movs	r2, #32
 800330c:	6c63      	ldr	r3, [r4, #68]	@ 0x44
 800330e:	4313      	orrs	r3, r2
 8003310:	6463      	str	r3, [r4, #68]	@ 0x44
 8003312:	2341      	movs	r3, #65	@ 0x41
 8003314:	54e2      	strb	r2, [r4, r3]
 8003316:	3301      	adds	r3, #1
 8003318:	54e5      	strb	r5, [r4, r3]
 800331a:	e7d5      	b.n	80032c8 <I2C_WaitOnFlagUntilTimeout.constprop.0+0x114>
 800331c:	fe00e800 	.word	0xfe00e800

08003320 <I2C_WaitOnTXISFlagUntilTimeout>:
 8003320:	b5f0      	push	{r4, r5, r6, r7, lr}
 8003322:	4657      	mov	r7, sl
 8003324:	464e      	mov	r6, r9
 8003326:	46de      	mov	lr, fp
 8003328:	4645      	mov	r5, r8
 800332a:	2410      	movs	r4, #16
 800332c:	b5e0      	push	{r5, r6, r7, lr}
 800332e:	0006      	movs	r6, r0
 8003330:	000f      	movs	r7, r1
 8003332:	b083      	sub	sp, #12
 8003334:	6803      	ldr	r3, [r0, #0]
 8003336:	9201      	str	r2, [sp, #4]
 8003338:	2502      	movs	r5, #2
 800333a:	46b3      	mov	fp, r6
 800333c:	002a      	movs	r2, r5
 800333e:	6999      	ldr	r1, [r3, #24]
 8003340:	400a      	ands	r2, r1
 8003342:	420d      	tst	r5, r1
 8003344:	d000      	beq.n	8003348 <I2C_WaitOnTXISFlagUntilTimeout+0x28>
 8003346:	e072      	b.n	800342e <I2C_WaitOnTXISFlagUntilTimeout+0x10e>
 8003348:	0021      	movs	r1, r4
 800334a:	6998      	ldr	r0, [r3, #24]
 800334c:	2600      	movs	r6, #0
 800334e:	4001      	ands	r1, r0
 8003350:	4204      	tst	r4, r0
 8003352:	d00b      	beq.n	800336c <I2C_WaitOnTXISFlagUntilTimeout+0x4c>
 8003354:	61dc      	str	r4, [r3, #28]
 8003356:	1c79      	adds	r1, r7, #1
 8003358:	d16d      	bne.n	8003436 <I2C_WaitOnTXISFlagUntilTimeout+0x116>
 800335a:	2020      	movs	r0, #32
 800335c:	6999      	ldr	r1, [r3, #24]
 800335e:	4208      	tst	r0, r1
 8003360:	d0fc      	beq.n	800335c <I2C_WaitOnTXISFlagUntilTimeout+0x3c>
 8003362:	2120      	movs	r1, #32
 8003364:	61d9      	str	r1, [r3, #28]
 8003366:	2104      	movs	r1, #4
 8003368:	2601      	movs	r6, #1
 800336a:	4311      	orrs	r1, r2
 800336c:	2080      	movs	r0, #128	@ 0x80
 800336e:	699a      	ldr	r2, [r3, #24]
 8003370:	0040      	lsls	r0, r0, #1
 8003372:	4202      	tst	r2, r0
 8003374:	d035      	beq.n	80033e2 <I2C_WaitOnTXISFlagUntilTimeout+0xc2>
 8003376:	2401      	movs	r4, #1
 8003378:	465e      	mov	r6, fp
 800337a:	4321      	orrs	r1, r4
 800337c:	61d8      	str	r0, [r3, #28]
 800337e:	0550      	lsls	r0, r2, #21
 8003380:	d504      	bpl.n	800338c <I2C_WaitOnTXISFlagUntilTimeout+0x6c>
 8003382:	2008      	movs	r0, #8
 8003384:	4301      	orrs	r1, r0
 8003386:	2080      	movs	r0, #128	@ 0x80
 8003388:	00c0      	lsls	r0, r0, #3
 800338a:	61d8      	str	r0, [r3, #28]
 800338c:	0592      	lsls	r2, r2, #22
 800338e:	d504      	bpl.n	800339a <I2C_WaitOnTXISFlagUntilTimeout+0x7a>
 8003390:	2202      	movs	r2, #2
 8003392:	4311      	orrs	r1, r2
 8003394:	32ff      	adds	r2, #255	@ 0xff
 8003396:	32ff      	adds	r2, #255	@ 0xff
 8003398:	61da      	str	r2, [r3, #28]
 800339a:	699a      	ldr	r2, [r3, #24]
 800339c:	0792      	lsls	r2, r2, #30
 800339e:	d501      	bpl.n	80033a4 <I2C_WaitOnTXISFlagUntilTimeout+0x84>
 80033a0:	2200      	movs	r2, #0
 80033a2:	629a      	str	r2, [r3, #40]	@ 0x28
 80033a4:	2201      	movs	r2, #1
 80033a6:	6998      	ldr	r0, [r3, #24]
 80033a8:	4202      	tst	r2, r0
 80033aa:	d102      	bne.n	80033b2 <I2C_WaitOnTXISFlagUntilTimeout+0x92>
 80033ac:	6998      	ldr	r0, [r3, #24]
 80033ae:	4302      	orrs	r2, r0
 80033b0:	619a      	str	r2, [r3, #24]
 80033b2:	685a      	ldr	r2, [r3, #4]
 80033b4:	4851      	ldr	r0, [pc, #324]	@ (80034fc <I2C_WaitOnTXISFlagUntilTimeout+0x1dc>)
 80033b6:	4002      	ands	r2, r0
 80033b8:	605a      	str	r2, [r3, #4]
 80033ba:	6c73      	ldr	r3, [r6, #68]	@ 0x44
 80033bc:	2220      	movs	r2, #32
 80033be:	430b      	orrs	r3, r1
 80033c0:	6473      	str	r3, [r6, #68]	@ 0x44
 80033c2:	2341      	movs	r3, #65	@ 0x41
 80033c4:	54f2      	strb	r2, [r6, r3]
 80033c6:	2200      	movs	r2, #0
 80033c8:	3301      	adds	r3, #1
 80033ca:	54f2      	strb	r2, [r6, r3]
 80033cc:	2340      	movs	r3, #64	@ 0x40
 80033ce:	2200      	movs	r2, #0
 80033d0:	2001      	movs	r0, #1
 80033d2:	54f2      	strb	r2, [r6, r3]
 80033d4:	b003      	add	sp, #12
 80033d6:	bcf0      	pop	{r4, r5, r6, r7}
 80033d8:	46bb      	mov	fp, r7
 80033da:	46b2      	mov	sl, r6
 80033dc:	46a9      	mov	r9, r5
 80033de:	46a0      	mov	r8, r4
 80033e0:	bdf0      	pop	{r4, r5, r6, r7, pc}
 80033e2:	0550      	lsls	r0, r2, #21
 80033e4:	d501      	bpl.n	80033ea <I2C_WaitOnTXISFlagUntilTimeout+0xca>
 80033e6:	465e      	mov	r6, fp
 80033e8:	e7cb      	b.n	8003382 <I2C_WaitOnTXISFlagUntilTimeout+0x62>
 80033ea:	0592      	lsls	r2, r2, #22
 80033ec:	d501      	bpl.n	80033f2 <I2C_WaitOnTXISFlagUntilTimeout+0xd2>
 80033ee:	465e      	mov	r6, fp
 80033f0:	e7ce      	b.n	8003390 <I2C_WaitOnTXISFlagUntilTimeout+0x70>
 80033f2:	2e00      	cmp	r6, #0
 80033f4:	d11d      	bne.n	8003432 <I2C_WaitOnTXISFlagUntilTimeout+0x112>
 80033f6:	1c7a      	adds	r2, r7, #1
 80033f8:	d0a0      	beq.n	800333c <I2C_WaitOnTXISFlagUntilTimeout+0x1c>
 80033fa:	f7ff fa05 	bl	8002808 <HAL_GetTick>
 80033fe:	465e      	mov	r6, fp
 8003400:	9b01      	ldr	r3, [sp, #4]
 8003402:	1ac0      	subs	r0, r0, r3
 8003404:	6833      	ldr	r3, [r6, #0]
 8003406:	42b8      	cmp	r0, r7
 8003408:	d801      	bhi.n	800340e <I2C_WaitOnTXISFlagUntilTimeout+0xee>
 800340a:	2f00      	cmp	r7, #0
 800340c:	d194      	bne.n	8003338 <I2C_WaitOnTXISFlagUntilTimeout+0x18>
 800340e:	2102      	movs	r1, #2
 8003410:	0008      	movs	r0, r1
 8003412:	699a      	ldr	r2, [r3, #24]
 8003414:	4010      	ands	r0, r2
 8003416:	4211      	tst	r1, r2
 8003418:	d000      	beq.n	800341c <I2C_WaitOnTXISFlagUntilTimeout+0xfc>
 800341a:	e78d      	b.n	8003338 <I2C_WaitOnTXISFlagUntilTimeout+0x18>
 800341c:	2220      	movs	r2, #32
 800341e:	6c73      	ldr	r3, [r6, #68]	@ 0x44
 8003420:	4313      	orrs	r3, r2
 8003422:	6473      	str	r3, [r6, #68]	@ 0x44
 8003424:	2341      	movs	r3, #65	@ 0x41
 8003426:	54f2      	strb	r2, [r6, r3]
 8003428:	3301      	adds	r3, #1
 800342a:	54f0      	strb	r0, [r6, r3]
 800342c:	e7ce      	b.n	80033cc <I2C_WaitOnTXISFlagUntilTimeout+0xac>
 800342e:	2000      	movs	r0, #0
 8003430:	e7d0      	b.n	80033d4 <I2C_WaitOnTXISFlagUntilTimeout+0xb4>
 8003432:	465e      	mov	r6, fp
 8003434:	e7b1      	b.n	800339a <I2C_WaitOnTXISFlagUntilTimeout+0x7a>
 8003436:	9901      	ldr	r1, [sp, #4]
 8003438:	9200      	str	r2, [sp, #0]
 800343a:	4688      	mov	r8, r1
 800343c:	2100      	movs	r1, #0
 800343e:	003a      	movs	r2, r7
 8003440:	4689      	mov	r9, r1
 8003442:	3142      	adds	r1, #66	@ 0x42
 8003444:	465f      	mov	r7, fp
 8003446:	2620      	movs	r6, #32
 8003448:	468a      	mov	sl, r1
 800344a:	4693      	mov	fp, r2
 800344c:	699a      	ldr	r2, [r3, #24]
 800344e:	4216      	tst	r6, r2
 8003450:	d10f      	bne.n	8003472 <I2C_WaitOnTXISFlagUntilTimeout+0x152>
 8003452:	464a      	mov	r2, r9
 8003454:	2a00      	cmp	r2, #0
 8003456:	d14b      	bne.n	80034f0 <I2C_WaitOnTXISFlagUntilTimeout+0x1d0>
 8003458:	f7ff f9d6 	bl	8002808 <HAL_GetTick>
 800345c:	4643      	mov	r3, r8
 800345e:	1ac0      	subs	r0, r0, r3
 8003460:	4583      	cmp	fp, r0
 8003462:	d30f      	bcc.n	8003484 <I2C_WaitOnTXISFlagUntilTimeout+0x164>
 8003464:	465b      	mov	r3, fp
 8003466:	2b00      	cmp	r3, #0
 8003468:	d00c      	beq.n	8003484 <I2C_WaitOnTXISFlagUntilTimeout+0x164>
 800346a:	683b      	ldr	r3, [r7, #0]
 800346c:	699a      	ldr	r2, [r3, #24]
 800346e:	4216      	tst	r6, r2
 8003470:	d0ef      	beq.n	8003452 <I2C_WaitOnTXISFlagUntilTimeout+0x132>
 8003472:	4659      	mov	r1, fp
 8003474:	46bb      	mov	fp, r7
 8003476:	000f      	movs	r7, r1
 8003478:	4649      	mov	r1, r9
 800347a:	9a00      	ldr	r2, [sp, #0]
 800347c:	2900      	cmp	r1, #0
 800347e:	d100      	bne.n	8003482 <I2C_WaitOnTXISFlagUntilTimeout+0x162>
 8003480:	e76f      	b.n	8003362 <I2C_WaitOnTXISFlagUntilTimeout+0x42>
 8003482:	e770      	b.n	8003366 <I2C_WaitOnTXISFlagUntilTimeout+0x46>
 8003484:	4652      	mov	r2, sl
 8003486:	683b      	ldr	r3, [r7, #0]
 8003488:	6858      	ldr	r0, [r3, #4]
 800348a:	5cba      	ldrb	r2, [r7, r2]
 800348c:	6999      	ldr	r1, [r3, #24]
 800348e:	b2d2      	uxtb	r2, r2
 8003490:	4694      	mov	ip, r2
 8003492:	2280      	movs	r2, #128	@ 0x80
 8003494:	0212      	lsls	r2, r2, #8
 8003496:	4211      	tst	r1, r2
 8003498:	d01e      	beq.n	80034d8 <I2C_WaitOnTXISFlagUntilTimeout+0x1b8>
 800349a:	2180      	movs	r1, #128	@ 0x80
 800349c:	01c9      	lsls	r1, r1, #7
 800349e:	4208      	tst	r0, r1
 80034a0:	d11a      	bne.n	80034d8 <I2C_WaitOnTXISFlagUntilTimeout+0x1b8>
 80034a2:	4662      	mov	r2, ip
 80034a4:	2a20      	cmp	r2, #32
 80034a6:	d017      	beq.n	80034d8 <I2C_WaitOnTXISFlagUntilTimeout+0x1b8>
 80034a8:	685a      	ldr	r2, [r3, #4]
 80034aa:	4311      	orrs	r1, r2
 80034ac:	6059      	str	r1, [r3, #4]
 80034ae:	f7ff f9ab 	bl	8002808 <HAL_GetTick>
 80034b2:	003a      	movs	r2, r7
 80034b4:	683b      	ldr	r3, [r7, #0]
 80034b6:	4690      	mov	r8, r2
 80034b8:	0007      	movs	r7, r0
 80034ba:	e006      	b.n	80034ca <I2C_WaitOnTXISFlagUntilTimeout+0x1aa>
 80034bc:	f7ff f9a4 	bl	8002808 <HAL_GetTick>
 80034c0:	4643      	mov	r3, r8
 80034c2:	1bc0      	subs	r0, r0, r7
 80034c4:	2819      	cmp	r0, #25
 80034c6:	d80b      	bhi.n	80034e0 <I2C_WaitOnTXISFlagUntilTimeout+0x1c0>
 80034c8:	681b      	ldr	r3, [r3, #0]
 80034ca:	699a      	ldr	r2, [r3, #24]
 80034cc:	4216      	tst	r6, r2
 80034ce:	d0f5      	beq.n	80034bc <I2C_WaitOnTXISFlagUntilTimeout+0x19c>
 80034d0:	4642      	mov	r2, r8
 80034d2:	46b8      	mov	r8, r7
 80034d4:	0017      	movs	r7, r2
 80034d6:	e7b9      	b.n	800344c <I2C_WaitOnTXISFlagUntilTimeout+0x12c>
 80034d8:	003a      	movs	r2, r7
 80034da:	4647      	mov	r7, r8
 80034dc:	4690      	mov	r8, r2
 80034de:	e7f4      	b.n	80034ca <I2C_WaitOnTXISFlagUntilTimeout+0x1aa>
 80034e0:	2220      	movs	r2, #32
 80034e2:	9200      	str	r2, [sp, #0]
 80034e4:	3a1f      	subs	r2, #31
 80034e6:	46b8      	mov	r8, r7
 80034e8:	4691      	mov	r9, r2
 80034ea:	001f      	movs	r7, r3
 80034ec:	681b      	ldr	r3, [r3, #0]
 80034ee:	e7ad      	b.n	800344c <I2C_WaitOnTXISFlagUntilTimeout+0x12c>
 80034f0:	4659      	mov	r1, fp
 80034f2:	9a00      	ldr	r2, [sp, #0]
 80034f4:	46bb      	mov	fp, r7
 80034f6:	000f      	movs	r7, r1
 80034f8:	e735      	b.n	8003366 <I2C_WaitOnTXISFlagUntilTimeout+0x46>
 80034fa:	46c0      	nop			@ (mov r8, r8)
 80034fc:	fe00e800 	.word	0xfe00e800

08003500 <I2C_WaitOnFlagUntilTimeout>:
 8003500:	b5f0      	push	{r4, r5, r6, r7, lr}
 8003502:	4657      	mov	r7, sl
 8003504:	46de      	mov	lr, fp
 8003506:	4645      	mov	r5, r8
 8003508:	464e      	mov	r6, r9
 800350a:	2410      	movs	r4, #16
 800350c:	b5e0      	push	{r5, r6, r7, lr}
 800350e:	4692      	mov	sl, r2
 8003510:	0007      	movs	r7, r0
 8003512:	000d      	movs	r5, r1
 8003514:	469b      	mov	fp, r3
 8003516:	6803      	ldr	r3, [r0, #0]
 8003518:	b083      	sub	sp, #12
 800351a:	2204      	movs	r2, #4
 800351c:	4651      	mov	r1, sl
 800351e:	4691      	mov	r9, r2
 8003520:	46ba      	mov	sl, r7
 8003522:	465f      	mov	r7, fp
 8003524:	699a      	ldr	r2, [r3, #24]
 8003526:	402a      	ands	r2, r5
 8003528:	1b52      	subs	r2, r2, r5
 800352a:	4250      	negs	r0, r2
 800352c:	4142      	adcs	r2, r0
 800352e:	428a      	cmp	r2, r1
 8003530:	d000      	beq.n	8003534 <I2C_WaitOnFlagUntilTimeout+0x34>
 8003532:	e080      	b.n	8003636 <I2C_WaitOnFlagUntilTimeout+0x136>
 8003534:	0022      	movs	r2, r4
 8003536:	6998      	ldr	r0, [r3, #24]
 8003538:	4002      	ands	r2, r0
 800353a:	4694      	mov	ip, r2
 800353c:	2200      	movs	r2, #0
 800353e:	4204      	tst	r4, r0
 8003540:	d00e      	beq.n	8003560 <I2C_WaitOnFlagUntilTimeout+0x60>
 8003542:	61dc      	str	r4, [r3, #28]
 8003544:	1c7a      	adds	r2, r7, #1
 8003546:	d000      	beq.n	800354a <I2C_WaitOnFlagUntilTimeout+0x4a>
 8003548:	e07c      	b.n	8003644 <I2C_WaitOnFlagUntilTimeout+0x144>
 800354a:	2020      	movs	r0, #32
 800354c:	699a      	ldr	r2, [r3, #24]
 800354e:	4210      	tst	r0, r2
 8003550:	d0fc      	beq.n	800354c <I2C_WaitOnFlagUntilTimeout+0x4c>
 8003552:	2600      	movs	r6, #0
 8003554:	2220      	movs	r2, #32
 8003556:	61da      	str	r2, [r3, #28]
 8003558:	464a      	mov	r2, r9
 800355a:	4332      	orrs	r2, r6
 800355c:	4694      	mov	ip, r2
 800355e:	2201      	movs	r2, #1
 8003560:	2080      	movs	r0, #128	@ 0x80
 8003562:	699e      	ldr	r6, [r3, #24]
 8003564:	0040      	lsls	r0, r0, #1
 8003566:	4206      	tst	r6, r0
 8003568:	d037      	beq.n	80035da <I2C_WaitOnFlagUntilTimeout+0xda>
 800356a:	4662      	mov	r2, ip
 800356c:	2401      	movs	r4, #1
 800356e:	0031      	movs	r1, r6
 8003570:	4657      	mov	r7, sl
 8003572:	4322      	orrs	r2, r4
 8003574:	61d8      	str	r0, [r3, #28]
 8003576:	0570      	lsls	r0, r6, #21
 8003578:	d504      	bpl.n	8003584 <I2C_WaitOnFlagUntilTimeout+0x84>
 800357a:	2008      	movs	r0, #8
 800357c:	4302      	orrs	r2, r0
 800357e:	2080      	movs	r0, #128	@ 0x80
 8003580:	00c0      	lsls	r0, r0, #3
 8003582:	61d8      	str	r0, [r3, #28]
 8003584:	0589      	lsls	r1, r1, #22
 8003586:	d504      	bpl.n	8003592 <I2C_WaitOnFlagUntilTimeout+0x92>
 8003588:	2102      	movs	r1, #2
 800358a:	430a      	orrs	r2, r1
 800358c:	31ff      	adds	r1, #255	@ 0xff
 800358e:	31ff      	adds	r1, #255	@ 0xff
 8003590:	61d9      	str	r1, [r3, #28]
 8003592:	6999      	ldr	r1, [r3, #24]
 8003594:	0789      	lsls	r1, r1, #30
 8003596:	d501      	bpl.n	800359c <I2C_WaitOnFlagUntilTimeout+0x9c>
 8003598:	2100      	movs	r1, #0
 800359a:	6299      	str	r1, [r3, #40]	@ 0x28
 800359c:	2101      	movs	r1, #1
 800359e:	6998      	ldr	r0, [r3, #24]
 80035a0:	4201      	tst	r1, r0
 80035a2:	d102      	bne.n	80035aa <I2C_WaitOnFlagUntilTimeout+0xaa>
 80035a4:	6998      	ldr	r0, [r3, #24]
 80035a6:	4301      	orrs	r1, r0
 80035a8:	6199      	str	r1, [r3, #24]
 80035aa:	6859      	ldr	r1, [r3, #4]
 80035ac:	484f      	ldr	r0, [pc, #316]	@ (80036ec <I2C_WaitOnFlagUntilTimeout+0x1ec>)
 80035ae:	4001      	ands	r1, r0
 80035b0:	6059      	str	r1, [r3, #4]
 80035b2:	6c7b      	ldr	r3, [r7, #68]	@ 0x44
 80035b4:	4313      	orrs	r3, r2
 80035b6:	647b      	str	r3, [r7, #68]	@ 0x44
 80035b8:	2220      	movs	r2, #32
 80035ba:	2341      	movs	r3, #65	@ 0x41
 80035bc:	54fa      	strb	r2, [r7, r3]
 80035be:	2200      	movs	r2, #0
 80035c0:	3301      	adds	r3, #1
 80035c2:	54fa      	strb	r2, [r7, r3]
 80035c4:	2340      	movs	r3, #64	@ 0x40
 80035c6:	2200      	movs	r2, #0
 80035c8:	2001      	movs	r0, #1
 80035ca:	54fa      	strb	r2, [r7, r3]
 80035cc:	b003      	add	sp, #12
 80035ce:	bcf0      	pop	{r4, r5, r6, r7}
 80035d0:	46bb      	mov	fp, r7
 80035d2:	46b2      	mov	sl, r6
 80035d4:	46a9      	mov	r9, r5
 80035d6:	46a0      	mov	r8, r4
 80035d8:	bdf0      	pop	{r4, r5, r6, r7, pc}
 80035da:	0570      	lsls	r0, r6, #21
 80035dc:	d503      	bpl.n	80035e6 <I2C_WaitOnFlagUntilTimeout+0xe6>
 80035de:	4662      	mov	r2, ip
 80035e0:	0031      	movs	r1, r6
 80035e2:	4657      	mov	r7, sl
 80035e4:	e7c9      	b.n	800357a <I2C_WaitOnFlagUntilTimeout+0x7a>
 80035e6:	05b6      	lsls	r6, r6, #22
 80035e8:	d502      	bpl.n	80035f0 <I2C_WaitOnFlagUntilTimeout+0xf0>
 80035ea:	4662      	mov	r2, ip
 80035ec:	4657      	mov	r7, sl
 80035ee:	e7cb      	b.n	8003588 <I2C_WaitOnFlagUntilTimeout+0x88>
 80035f0:	2a00      	cmp	r2, #0
 80035f2:	d124      	bne.n	800363e <I2C_WaitOnFlagUntilTimeout+0x13e>
 80035f4:	1c7a      	adds	r2, r7, #1
 80035f6:	d095      	beq.n	8003524 <I2C_WaitOnFlagUntilTimeout+0x24>
 80035f8:	46bb      	mov	fp, r7
 80035fa:	4657      	mov	r7, sl
 80035fc:	468a      	mov	sl, r1
 80035fe:	f7ff f903 	bl	8002808 <HAL_GetTick>
 8003602:	9b0c      	ldr	r3, [sp, #48]	@ 0x30
 8003604:	1ac0      	subs	r0, r0, r3
 8003606:	4558      	cmp	r0, fp
 8003608:	d802      	bhi.n	8003610 <I2C_WaitOnFlagUntilTimeout+0x110>
 800360a:	465b      	mov	r3, fp
 800360c:	2b00      	cmp	r3, #0
 800360e:	d114      	bne.n	800363a <I2C_WaitOnFlagUntilTimeout+0x13a>
 8003610:	683b      	ldr	r3, [r7, #0]
 8003612:	699a      	ldr	r2, [r3, #24]
 8003614:	402a      	ands	r2, r5
 8003616:	1b52      	subs	r2, r2, r5
 8003618:	4251      	negs	r1, r2
 800361a:	414a      	adcs	r2, r1
 800361c:	4552      	cmp	r2, sl
 800361e:	d000      	beq.n	8003622 <I2C_WaitOnFlagUntilTimeout+0x122>
 8003620:	e77b      	b.n	800351a <I2C_WaitOnFlagUntilTimeout+0x1a>
 8003622:	2220      	movs	r2, #32
 8003624:	6c7b      	ldr	r3, [r7, #68]	@ 0x44
 8003626:	4313      	orrs	r3, r2
 8003628:	647b      	str	r3, [r7, #68]	@ 0x44
 800362a:	2341      	movs	r3, #65	@ 0x41
 800362c:	54fa      	strb	r2, [r7, r3]
 800362e:	2200      	movs	r2, #0
 8003630:	3301      	adds	r3, #1
 8003632:	54fa      	strb	r2, [r7, r3]
 8003634:	e7c6      	b.n	80035c4 <I2C_WaitOnFlagUntilTimeout+0xc4>
 8003636:	2000      	movs	r0, #0
 8003638:	e7c8      	b.n	80035cc <I2C_WaitOnFlagUntilTimeout+0xcc>
 800363a:	683b      	ldr	r3, [r7, #0]
 800363c:	e76d      	b.n	800351a <I2C_WaitOnFlagUntilTimeout+0x1a>
 800363e:	4662      	mov	r2, ip
 8003640:	4657      	mov	r7, sl
 8003642:	e7a6      	b.n	8003592 <I2C_WaitOnFlagUntilTimeout+0x92>
 8003644:	9a0c      	ldr	r2, [sp, #48]	@ 0x30
 8003646:	2600      	movs	r6, #0
 8003648:	4693      	mov	fp, r2
 800364a:	2200      	movs	r2, #0
 800364c:	9200      	str	r2, [sp, #0]
 800364e:	3220      	adds	r2, #32
 8003650:	4690      	mov	r8, r2
 8003652:	002a      	movs	r2, r5
 8003654:	4655      	mov	r5, sl
 8003656:	46b2      	mov	sl, r6
 8003658:	465e      	mov	r6, fp
 800365a:	4693      	mov	fp, r2
 800365c:	9101      	str	r1, [sp, #4]
 800365e:	4641      	mov	r1, r8
 8003660:	699a      	ldr	r2, [r3, #24]
 8003662:	4211      	tst	r1, r2
 8003664:	d134      	bne.n	80036d0 <I2C_WaitOnFlagUntilTimeout+0x1d0>
 8003666:	9a00      	ldr	r2, [sp, #0]
 8003668:	2a00      	cmp	r2, #0
 800366a:	d13a      	bne.n	80036e2 <I2C_WaitOnFlagUntilTimeout+0x1e2>
 800366c:	f7ff f8cc 	bl	8002808 <HAL_GetTick>
 8003670:	682b      	ldr	r3, [r5, #0]
 8003672:	1b80      	subs	r0, r0, r6
 8003674:	4287      	cmp	r7, r0
 8003676:	d301      	bcc.n	800367c <I2C_WaitOnFlagUntilTimeout+0x17c>
 8003678:	2f00      	cmp	r7, #0
 800367a:	d1f0      	bne.n	800365e <I2C_WaitOnFlagUntilTimeout+0x15e>
 800367c:	2242      	movs	r2, #66	@ 0x42
 800367e:	6858      	ldr	r0, [r3, #4]
 8003680:	5caa      	ldrb	r2, [r5, r2]
 8003682:	6999      	ldr	r1, [r3, #24]
 8003684:	b2d2      	uxtb	r2, r2
 8003686:	4694      	mov	ip, r2
 8003688:	2280      	movs	r2, #128	@ 0x80
 800368a:	0212      	lsls	r2, r2, #8
 800368c:	4211      	tst	r1, r2
 800368e:	d00d      	beq.n	80036ac <I2C_WaitOnFlagUntilTimeout+0x1ac>
 8003690:	2180      	movs	r1, #128	@ 0x80
 8003692:	01c9      	lsls	r1, r1, #7
 8003694:	4208      	tst	r0, r1
 8003696:	d109      	bne.n	80036ac <I2C_WaitOnFlagUntilTimeout+0x1ac>
 8003698:	4662      	mov	r2, ip
 800369a:	2a20      	cmp	r2, #32
 800369c:	d006      	beq.n	80036ac <I2C_WaitOnFlagUntilTimeout+0x1ac>
 800369e:	685a      	ldr	r2, [r3, #4]
 80036a0:	4311      	orrs	r1, r2
 80036a2:	6059      	str	r1, [r3, #4]
 80036a4:	f7ff f8b0 	bl	8002808 <HAL_GetTick>
 80036a8:	0006      	movs	r6, r0
 80036aa:	682b      	ldr	r3, [r5, #0]
 80036ac:	4641      	mov	r1, r8
 80036ae:	699a      	ldr	r2, [r3, #24]
 80036b0:	4211      	tst	r1, r2
 80036b2:	d1d4      	bne.n	800365e <I2C_WaitOnFlagUntilTimeout+0x15e>
 80036b4:	f7ff f8a8 	bl	8002808 <HAL_GetTick>
 80036b8:	682b      	ldr	r3, [r5, #0]
 80036ba:	1b80      	subs	r0, r0, r6
 80036bc:	2819      	cmp	r0, #25
 80036be:	d9f5      	bls.n	80036ac <I2C_WaitOnFlagUntilTimeout+0x1ac>
 80036c0:	2220      	movs	r2, #32
 80036c2:	4641      	mov	r1, r8
 80036c4:	4692      	mov	sl, r2
 80036c6:	3a1f      	subs	r2, #31
 80036c8:	9200      	str	r2, [sp, #0]
 80036ca:	699a      	ldr	r2, [r3, #24]
 80036cc:	4211      	tst	r1, r2
 80036ce:	d0ca      	beq.n	8003666 <I2C_WaitOnFlagUntilTimeout+0x166>
 80036d0:	9a00      	ldr	r2, [sp, #0]
 80036d2:	4656      	mov	r6, sl
 80036d4:	9901      	ldr	r1, [sp, #4]
 80036d6:	46aa      	mov	sl, r5
 80036d8:	465d      	mov	r5, fp
 80036da:	2a00      	cmp	r2, #0
 80036dc:	d100      	bne.n	80036e0 <I2C_WaitOnFlagUntilTimeout+0x1e0>
 80036de:	e739      	b.n	8003554 <I2C_WaitOnFlagUntilTimeout+0x54>
 80036e0:	e73a      	b.n	8003558 <I2C_WaitOnFlagUntilTimeout+0x58>
 80036e2:	4656      	mov	r6, sl
 80036e4:	9901      	ldr	r1, [sp, #4]
 80036e6:	46aa      	mov	sl, r5
 80036e8:	465d      	mov	r5, fp
 80036ea:	e735      	b.n	8003558 <I2C_WaitOnFlagUntilTimeout+0x58>
 80036ec:	fe00e800 	.word	0xfe00e800

080036f0 <I2C_WaitOnSTOPFlagUntilTimeout>:
 80036f0:	b5f0      	push	{r4, r5, r6, r7, lr}
 80036f2:	46de      	mov	lr, fp
 80036f4:	4657      	mov	r7, sl
 80036f6:	464e      	mov	r6, r9
 80036f8:	4645      	mov	r5, r8
 80036fa:	b5e0      	push	{r5, r6, r7, lr}
 80036fc:	000d      	movs	r5, r1
 80036fe:	2104      	movs	r1, #4
 8003700:	6803      	ldr	r3, [r0, #0]
 8003702:	4692      	mov	sl, r2
 8003704:	699a      	ldr	r2, [r3, #24]
 8003706:	0004      	movs	r4, r0
 8003708:	2610      	movs	r6, #16
 800370a:	468b      	mov	fp, r1
 800370c:	b083      	sub	sp, #12
 800370e:	0692      	lsls	r2, r2, #26
 8003710:	d464      	bmi.n	80037dc <I2C_WaitOnSTOPFlagUntilTimeout+0xec>
 8003712:	0032      	movs	r2, r6
 8003714:	6999      	ldr	r1, [r3, #24]
 8003716:	2700      	movs	r7, #0
 8003718:	400a      	ands	r2, r1
 800371a:	420e      	tst	r6, r1
 800371c:	d00c      	beq.n	8003738 <I2C_WaitOnSTOPFlagUntilTimeout+0x48>
 800371e:	61de      	str	r6, [r3, #28]
 8003720:	1c6a      	adds	r2, r5, #1
 8003722:	d165      	bne.n	80037f0 <I2C_WaitOnSTOPFlagUntilTimeout+0x100>
 8003724:	2120      	movs	r1, #32
 8003726:	699a      	ldr	r2, [r3, #24]
 8003728:	4211      	tst	r1, r2
 800372a:	d0fc      	beq.n	8003726 <I2C_WaitOnSTOPFlagUntilTimeout+0x36>
 800372c:	2200      	movs	r2, #0
 800372e:	2120      	movs	r1, #32
 8003730:	61d9      	str	r1, [r3, #28]
 8003732:	4659      	mov	r1, fp
 8003734:	2701      	movs	r7, #1
 8003736:	430a      	orrs	r2, r1
 8003738:	2080      	movs	r0, #128	@ 0x80
 800373a:	6999      	ldr	r1, [r3, #24]
 800373c:	0040      	lsls	r0, r0, #1
 800373e:	4201      	tst	r1, r0
 8003740:	d034      	beq.n	80037ac <I2C_WaitOnSTOPFlagUntilTimeout+0xbc>
 8003742:	2501      	movs	r5, #1
 8003744:	61d8      	str	r0, [r3, #28]
 8003746:	432a      	orrs	r2, r5
 8003748:	0548      	lsls	r0, r1, #21
 800374a:	d504      	bpl.n	8003756 <I2C_WaitOnSTOPFlagUntilTimeout+0x66>
 800374c:	2008      	movs	r0, #8
 800374e:	4302      	orrs	r2, r0
 8003750:	2080      	movs	r0, #128	@ 0x80
 8003752:	00c0      	lsls	r0, r0, #3
 8003754:	61d8      	str	r0, [r3, #28]
 8003756:	0589      	lsls	r1, r1, #22
 8003758:	d504      	bpl.n	8003764 <I2C_WaitOnSTOPFlagUntilTimeout+0x74>
 800375a:	2102      	movs	r1, #2
 800375c:	430a      	orrs	r2, r1
 800375e:	31ff      	adds	r1, #255	@ 0xff
 8003760:	31ff      	adds	r1, #255	@ 0xff
 8003762:	61d9      	str	r1, [r3, #28]
 8003764:	6999      	ldr	r1, [r3, #24]
 8003766:	0789      	lsls	r1, r1, #30
 8003768:	d501      	bpl.n	800376e <I2C_WaitOnSTOPFlagUntilTimeout+0x7e>
 800376a:	2100      	movs	r1, #0
 800376c:	6299      	str	r1, [r3, #40]	@ 0x28
 800376e:	2101      	movs	r1, #1
 8003770:	6998      	ldr	r0, [r3, #24]
 8003772:	4201      	tst	r1, r0
 8003774:	d102      	bne.n	800377c <I2C_WaitOnSTOPFlagUntilTimeout+0x8c>
 8003776:	6998      	ldr	r0, [r3, #24]
 8003778:	4301      	orrs	r1, r0
 800377a:	6199      	str	r1, [r3, #24]
 800377c:	6859      	ldr	r1, [r3, #4]
 800377e:	4844      	ldr	r0, [pc, #272]	@ (8003890 <I2C_WaitOnSTOPFlagUntilTimeout+0x1a0>)
 8003780:	4001      	ands	r1, r0
 8003782:	6059      	str	r1, [r3, #4]
 8003784:	6c63      	ldr	r3, [r4, #68]	@ 0x44
 8003786:	4313      	orrs	r3, r2
 8003788:	6463      	str	r3, [r4, #68]	@ 0x44
 800378a:	2220      	movs	r2, #32
 800378c:	2341      	movs	r3, #65	@ 0x41
 800378e:	54e2      	strb	r2, [r4, r3]
 8003790:	2200      	movs	r2, #0
 8003792:	3301      	adds	r3, #1
 8003794:	54e2      	strb	r2, [r4, r3]
 8003796:	2340      	movs	r3, #64	@ 0x40
 8003798:	2200      	movs	r2, #0
 800379a:	2001      	movs	r0, #1
 800379c:	54e2      	strb	r2, [r4, r3]
 800379e:	b003      	add	sp, #12
 80037a0:	bcf0      	pop	{r4, r5, r6, r7}
 80037a2:	46bb      	mov	fp, r7
 80037a4:	46b2      	mov	sl, r6
 80037a6:	46a9      	mov	r9, r5
 80037a8:	46a0      	mov	r8, r4
 80037aa:	bdf0      	pop	{r4, r5, r6, r7, pc}
 80037ac:	0548      	lsls	r0, r1, #21
 80037ae:	d4cd      	bmi.n	800374c <I2C_WaitOnSTOPFlagUntilTimeout+0x5c>
 80037b0:	0589      	lsls	r1, r1, #22
 80037b2:	d4d2      	bmi.n	800375a <I2C_WaitOnSTOPFlagUntilTimeout+0x6a>
 80037b4:	2f00      	cmp	r7, #0
 80037b6:	d1d5      	bne.n	8003764 <I2C_WaitOnSTOPFlagUntilTimeout+0x74>
 80037b8:	f7ff f826 	bl	8002808 <HAL_GetTick>
 80037bc:	4653      	mov	r3, sl
 80037be:	1ac0      	subs	r0, r0, r3
 80037c0:	6823      	ldr	r3, [r4, #0]
 80037c2:	42a8      	cmp	r0, r5
 80037c4:	d801      	bhi.n	80037ca <I2C_WaitOnSTOPFlagUntilTimeout+0xda>
 80037c6:	2d00      	cmp	r5, #0
 80037c8:	d105      	bne.n	80037d6 <I2C_WaitOnSTOPFlagUntilTimeout+0xe6>
 80037ca:	2220      	movs	r2, #32
 80037cc:	0010      	movs	r0, r2
 80037ce:	6999      	ldr	r1, [r3, #24]
 80037d0:	4008      	ands	r0, r1
 80037d2:	420a      	tst	r2, r1
 80037d4:	d004      	beq.n	80037e0 <I2C_WaitOnSTOPFlagUntilTimeout+0xf0>
 80037d6:	699a      	ldr	r2, [r3, #24]
 80037d8:	0692      	lsls	r2, r2, #26
 80037da:	d59a      	bpl.n	8003712 <I2C_WaitOnSTOPFlagUntilTimeout+0x22>
 80037dc:	2000      	movs	r0, #0
 80037de:	e7de      	b.n	800379e <I2C_WaitOnSTOPFlagUntilTimeout+0xae>
 80037e0:	6c63      	ldr	r3, [r4, #68]	@ 0x44
 80037e2:	4313      	orrs	r3, r2
 80037e4:	6463      	str	r3, [r4, #68]	@ 0x44
 80037e6:	2341      	movs	r3, #65	@ 0x41
 80037e8:	54e2      	strb	r2, [r4, r3]
 80037ea:	3301      	adds	r3, #1
 80037ec:	54e0      	strb	r0, [r4, r3]
 80037ee:	e7d2      	b.n	8003796 <I2C_WaitOnSTOPFlagUntilTimeout+0xa6>
 80037f0:	0028      	movs	r0, r5
 80037f2:	2200      	movs	r2, #0
 80037f4:	2100      	movs	r1, #0
 80037f6:	4655      	mov	r5, sl
 80037f8:	4689      	mov	r9, r1
 80037fa:	2720      	movs	r7, #32
 80037fc:	4692      	mov	sl, r2
 80037fe:	4680      	mov	r8, r0
 8003800:	9501      	str	r5, [sp, #4]
 8003802:	699a      	ldr	r2, [r3, #24]
 8003804:	4217      	tst	r7, r2
 8003806:	d10e      	bne.n	8003826 <I2C_WaitOnSTOPFlagUntilTimeout+0x136>
 8003808:	464a      	mov	r2, r9
 800380a:	2a00      	cmp	r2, #0
 800380c:	d13b      	bne.n	8003886 <I2C_WaitOnSTOPFlagUntilTimeout+0x196>
 800380e:	f7fe fffb 	bl	8002808 <HAL_GetTick>
 8003812:	1b40      	subs	r0, r0, r5
 8003814:	4580      	cmp	r8, r0
 8003816:	d30f      	bcc.n	8003838 <I2C_WaitOnSTOPFlagUntilTimeout+0x148>
 8003818:	4643      	mov	r3, r8
 800381a:	2b00      	cmp	r3, #0
 800381c:	d00c      	beq.n	8003838 <I2C_WaitOnSTOPFlagUntilTimeout+0x148>
 800381e:	6823      	ldr	r3, [r4, #0]
 8003820:	699a      	ldr	r2, [r3, #24]
 8003822:	4217      	tst	r7, r2
 8003824:	d0f0      	beq.n	8003808 <I2C_WaitOnSTOPFlagUntilTimeout+0x118>
 8003826:	9901      	ldr	r1, [sp, #4]
 8003828:	4652      	mov	r2, sl
 800382a:	468a      	mov	sl, r1
 800382c:	4649      	mov	r1, r9
 800382e:	4645      	mov	r5, r8
 8003830:	2900      	cmp	r1, #0
 8003832:	d100      	bne.n	8003836 <I2C_WaitOnSTOPFlagUntilTimeout+0x146>
 8003834:	e77b      	b.n	800372e <I2C_WaitOnSTOPFlagUntilTimeout+0x3e>
 8003836:	e77c      	b.n	8003732 <I2C_WaitOnSTOPFlagUntilTimeout+0x42>
 8003838:	2242      	movs	r2, #66	@ 0x42
 800383a:	6823      	ldr	r3, [r4, #0]
 800383c:	6858      	ldr	r0, [r3, #4]
 800383e:	5ca2      	ldrb	r2, [r4, r2]
 8003840:	6999      	ldr	r1, [r3, #24]
 8003842:	b2d2      	uxtb	r2, r2
 8003844:	4694      	mov	ip, r2
 8003846:	2280      	movs	r2, #128	@ 0x80
 8003848:	0212      	lsls	r2, r2, #8
 800384a:	4211      	tst	r1, r2
 800384c:	d00d      	beq.n	800386a <I2C_WaitOnSTOPFlagUntilTimeout+0x17a>
 800384e:	2180      	movs	r1, #128	@ 0x80
 8003850:	01c9      	lsls	r1, r1, #7
 8003852:	4208      	tst	r0, r1
 8003854:	d109      	bne.n	800386a <I2C_WaitOnSTOPFlagUntilTimeout+0x17a>
 8003856:	4662      	mov	r2, ip
 8003858:	2a20      	cmp	r2, #32
 800385a:	d006      	beq.n	800386a <I2C_WaitOnSTOPFlagUntilTimeout+0x17a>
 800385c:	685a      	ldr	r2, [r3, #4]
 800385e:	4311      	orrs	r1, r2
 8003860:	6059      	str	r1, [r3, #4]
 8003862:	f7fe ffd1 	bl	8002808 <HAL_GetTick>
 8003866:	0005      	movs	r5, r0
 8003868:	6823      	ldr	r3, [r4, #0]
 800386a:	699a      	ldr	r2, [r3, #24]
 800386c:	4217      	tst	r7, r2
 800386e:	d1c8      	bne.n	8003802 <I2C_WaitOnSTOPFlagUntilTimeout+0x112>
 8003870:	f7fe ffca 	bl	8002808 <HAL_GetTick>
 8003874:	6823      	ldr	r3, [r4, #0]
 8003876:	1b40      	subs	r0, r0, r5
 8003878:	2819      	cmp	r0, #25
 800387a:	d9f6      	bls.n	800386a <I2C_WaitOnSTOPFlagUntilTimeout+0x17a>
 800387c:	2220      	movs	r2, #32
 800387e:	4692      	mov	sl, r2
 8003880:	3a1f      	subs	r2, #31
 8003882:	4691      	mov	r9, r2
 8003884:	e7bd      	b.n	8003802 <I2C_WaitOnSTOPFlagUntilTimeout+0x112>
 8003886:	9901      	ldr	r1, [sp, #4]
 8003888:	4652      	mov	r2, sl
 800388a:	4645      	mov	r5, r8
 800388c:	468a      	mov	sl, r1
 800388e:	e750      	b.n	8003732 <I2C_WaitOnSTOPFlagUntilTimeout+0x42>
 8003890:	fe00e800 	.word	0xfe00e800

08003894 <HAL_I2C_Init>:
 8003894:	b510      	push	{r4, lr}
 8003896:	1e04      	subs	r4, r0, #0
 8003898:	d052      	beq.n	8003940 <HAL_I2C_Init+0xac>
 800389a:	2341      	movs	r3, #65	@ 0x41
 800389c:	5cc3      	ldrb	r3, [r0, r3]
 800389e:	b2da      	uxtb	r2, r3
 80038a0:	2b00      	cmp	r3, #0
 80038a2:	d048      	beq.n	8003936 <HAL_I2C_Init+0xa2>
 80038a4:	2341      	movs	r3, #65	@ 0x41
 80038a6:	2224      	movs	r2, #36	@ 0x24
 80038a8:	2101      	movs	r1, #1
 80038aa:	54e2      	strb	r2, [r4, r3]
 80038ac:	6823      	ldr	r3, [r4, #0]
 80038ae:	68a0      	ldr	r0, [r4, #8]
 80038b0:	681a      	ldr	r2, [r3, #0]
 80038b2:	438a      	bics	r2, r1
 80038b4:	601a      	str	r2, [r3, #0]
 80038b6:	4923      	ldr	r1, [pc, #140]	@ (8003944 <HAL_I2C_Init+0xb0>)
 80038b8:	6862      	ldr	r2, [r4, #4]
 80038ba:	400a      	ands	r2, r1
 80038bc:	611a      	str	r2, [r3, #16]
 80038be:	689a      	ldr	r2, [r3, #8]
 80038c0:	4921      	ldr	r1, [pc, #132]	@ (8003948 <HAL_I2C_Init+0xb4>)
 80038c2:	400a      	ands	r2, r1
 80038c4:	609a      	str	r2, [r3, #8]
 80038c6:	68e2      	ldr	r2, [r4, #12]
 80038c8:	2a01      	cmp	r2, #1
 80038ca:	d00b      	beq.n	80038e4 <HAL_I2C_Init+0x50>
 80038cc:	2184      	movs	r1, #132	@ 0x84
 80038ce:	0209      	lsls	r1, r1, #8
 80038d0:	4301      	orrs	r1, r0
 80038d2:	6099      	str	r1, [r3, #8]
 80038d4:	2a02      	cmp	r2, #2
 80038d6:	d109      	bne.n	80038ec <HAL_I2C_Init+0x58>
 80038d8:	2280      	movs	r2, #128	@ 0x80
 80038da:	6859      	ldr	r1, [r3, #4]
 80038dc:	0112      	lsls	r2, r2, #4
 80038de:	430a      	orrs	r2, r1
 80038e0:	605a      	str	r2, [r3, #4]
 80038e2:	e007      	b.n	80038f4 <HAL_I2C_Init+0x60>
 80038e4:	2280      	movs	r2, #128	@ 0x80
 80038e6:	0212      	lsls	r2, r2, #8
 80038e8:	4302      	orrs	r2, r0
 80038ea:	609a      	str	r2, [r3, #8]
 80038ec:	685a      	ldr	r2, [r3, #4]
 80038ee:	4917      	ldr	r1, [pc, #92]	@ (800394c <HAL_I2C_Init+0xb8>)
 80038f0:	400a      	ands	r2, r1
 80038f2:	605a      	str	r2, [r3, #4]
 80038f4:	6859      	ldr	r1, [r3, #4]
 80038f6:	4a16      	ldr	r2, [pc, #88]	@ (8003950 <HAL_I2C_Init+0xbc>)
 80038f8:	2000      	movs	r0, #0
 80038fa:	430a      	orrs	r2, r1
 80038fc:	605a      	str	r2, [r3, #4]
 80038fe:	68da      	ldr	r2, [r3, #12]
 8003900:	4911      	ldr	r1, [pc, #68]	@ (8003948 <HAL_I2C_Init+0xb4>)
 8003902:	400a      	ands	r2, r1
 8003904:	60da      	str	r2, [r3, #12]
 8003906:	6961      	ldr	r1, [r4, #20]
 8003908:	6922      	ldr	r2, [r4, #16]
 800390a:	430a      	orrs	r2, r1
 800390c:	69a1      	ldr	r1, [r4, #24]
 800390e:	0209      	lsls	r1, r1, #8
 8003910:	430a      	orrs	r2, r1
 8003912:	60da      	str	r2, [r3, #12]
 8003914:	6a21      	ldr	r1, [r4, #32]
 8003916:	69e2      	ldr	r2, [r4, #28]
 8003918:	430a      	orrs	r2, r1
 800391a:	2101      	movs	r1, #1
 800391c:	601a      	str	r2, [r3, #0]
 800391e:	681a      	ldr	r2, [r3, #0]
 8003920:	430a      	orrs	r2, r1
 8003922:	601a      	str	r2, [r3, #0]
 8003924:	2300      	movs	r3, #0
 8003926:	2241      	movs	r2, #65	@ 0x41
 8003928:	311f      	adds	r1, #31
 800392a:	6463      	str	r3, [r4, #68]	@ 0x44
 800392c:	54a1      	strb	r1, [r4, r2]
 800392e:	3201      	adds	r2, #1
 8003930:	6323      	str	r3, [r4, #48]	@ 0x30
 8003932:	54a3      	strb	r3, [r4, r2]
 8003934:	bd10      	pop	{r4, pc}
 8003936:	3340      	adds	r3, #64	@ 0x40
 8003938:	54c2      	strb	r2, [r0, r3]
 800393a:	f7fe fd5f 	bl	80023fc <HAL_I2C_MspInit>
 800393e:	e7b1      	b.n	80038a4 <HAL_I2C_Init+0x10>
 8003940:	2001      	movs	r0, #1
 8003942:	e7f7      	b.n	8003934 <HAL_I2C_Init+0xa0>
 8003944:	f0ffffff 	.word	0xf0ffffff
 8003948:	ffff7fff 	.word	0xffff7fff
 800394c:	fffff7ff 	.word	0xfffff7ff
 8003950:	02008000 	.word	0x02008000

08003954 <HAL_I2C_Mem_Write>:
 8003954:	b5f0      	push	{r4, r5, r6, r7, lr}
 8003956:	4657      	mov	r7, sl
 8003958:	464e      	mov	r6, r9
 800395a:	46de      	mov	lr, fp
 800395c:	4645      	mov	r5, r8
 800395e:	b5e0      	push	{r5, r6, r7, lr}
 8003960:	b083      	sub	sp, #12
 8003962:	001f      	movs	r7, r3
 8003964:	ab0c      	add	r3, sp, #48	@ 0x30
 8003966:	0016      	movs	r6, r2
 8003968:	cb04      	ldmia	r3!, {r2}
 800396a:	0004      	movs	r4, r0
 800396c:	881b      	ldrh	r3, [r3, #0]
 800396e:	000d      	movs	r5, r1
 8003970:	469b      	mov	fp, r3
 8003972:	2341      	movs	r3, #65	@ 0x41
 8003974:	4699      	mov	r9, r3
 8003976:	5cc3      	ldrb	r3, [r0, r3]
 8003978:	4692      	mov	sl, r2
 800397a:	2b20      	cmp	r3, #32
 800397c:	d11f      	bne.n	80039be <HAL_I2C_Mem_Write+0x6a>
 800397e:	2a00      	cmp	r2, #0
 8003980:	d019      	beq.n	80039b6 <HAL_I2C_Mem_Write+0x62>
 8003982:	465b      	mov	r3, fp
 8003984:	2b00      	cmp	r3, #0
 8003986:	d016      	beq.n	80039b6 <HAL_I2C_Mem_Write+0x62>
 8003988:	2240      	movs	r2, #64	@ 0x40
 800398a:	5c83      	ldrb	r3, [r0, r2]
 800398c:	2b01      	cmp	r3, #1
 800398e:	d016      	beq.n	80039be <HAL_I2C_Mem_Write+0x6a>
 8003990:	2301      	movs	r3, #1
 8003992:	5483      	strb	r3, [r0, r2]
 8003994:	f7fe ff38 	bl	8002808 <HAL_GetTick>
 8003998:	4680      	mov	r8, r0
 800399a:	0001      	movs	r1, r0
 800399c:	0020      	movs	r0, r4
 800399e:	f7ff fc09 	bl	80031b4 <I2C_WaitOnFlagUntilTimeout.constprop.0>
 80039a2:	2800      	cmp	r0, #0
 80039a4:	d00d      	beq.n	80039c2 <HAL_I2C_Mem_Write+0x6e>
 80039a6:	2001      	movs	r0, #1
 80039a8:	b003      	add	sp, #12
 80039aa:	bcf0      	pop	{r4, r5, r6, r7}
 80039ac:	46bb      	mov	fp, r7
 80039ae:	46b2      	mov	sl, r6
 80039b0:	46a9      	mov	r9, r5
 80039b2:	46a0      	mov	r8, r4
 80039b4:	bdf0      	pop	{r4, r5, r6, r7, pc}
 80039b6:	2380      	movs	r3, #128	@ 0x80
 80039b8:	009b      	lsls	r3, r3, #2
 80039ba:	6463      	str	r3, [r4, #68]	@ 0x44
 80039bc:	e7f3      	b.n	80039a6 <HAL_I2C_Mem_Write+0x52>
 80039be:	2002      	movs	r0, #2
 80039c0:	e7f2      	b.n	80039a8 <HAL_I2C_Mem_Write+0x54>
 80039c2:	2321      	movs	r3, #33	@ 0x21
 80039c4:	464a      	mov	r2, r9
 80039c6:	54a3      	strb	r3, [r4, r2]
 80039c8:	2240      	movs	r2, #64	@ 0x40
 80039ca:	3321      	adds	r3, #33	@ 0x21
 80039cc:	54e2      	strb	r2, [r4, r3]
 80039ce:	4653      	mov	r3, sl
 80039d0:	6263      	str	r3, [r4, #36]	@ 0x24
 80039d2:	465b      	mov	r3, fp
 80039d4:	6821      	ldr	r1, [r4, #0]
 80039d6:	6460      	str	r0, [r4, #68]	@ 0x44
 80039d8:	8563      	strh	r3, [r4, #42]	@ 0x2a
 80039da:	684a      	ldr	r2, [r1, #4]
 80039dc:	6360      	str	r0, [r4, #52]	@ 0x34
 80039de:	4854      	ldr	r0, [pc, #336]	@ (8003b30 <HAL_I2C_Mem_Write+0x1dc>)
 80039e0:	b2fb      	uxtb	r3, r7
 80039e2:	4002      	ands	r2, r0
 80039e4:	05ad      	lsls	r5, r5, #22
 80039e6:	041b      	lsls	r3, r3, #16
 80039e8:	4313      	orrs	r3, r2
 80039ea:	0dad      	lsrs	r5, r5, #22
 80039ec:	4a51      	ldr	r2, [pc, #324]	@ (8003b34 <HAL_I2C_Mem_Write+0x1e0>)
 80039ee:	432b      	orrs	r3, r5
 80039f0:	4313      	orrs	r3, r2
 80039f2:	604b      	str	r3, [r1, #4]
 80039f4:	4642      	mov	r2, r8
 80039f6:	0020      	movs	r0, r4
 80039f8:	990e      	ldr	r1, [sp, #56]	@ 0x38
 80039fa:	f7ff fc91 	bl	8003320 <I2C_WaitOnTXISFlagUntilTimeout>
 80039fe:	2800      	cmp	r0, #0
 8003a00:	d157      	bne.n	8003ab2 <HAL_I2C_Mem_Write+0x15e>
 8003a02:	6823      	ldr	r3, [r4, #0]
 8003a04:	2f01      	cmp	r7, #1
 8003a06:	d162      	bne.n	8003ace <HAL_I2C_Mem_Write+0x17a>
 8003a08:	b2f6      	uxtb	r6, r6
 8003a0a:	629e      	str	r6, [r3, #40]	@ 0x28
 8003a0c:	4643      	mov	r3, r8
 8003a0e:	2200      	movs	r2, #0
 8003a10:	9300      	str	r3, [sp, #0]
 8003a12:	2180      	movs	r1, #128	@ 0x80
 8003a14:	0020      	movs	r0, r4
 8003a16:	9b0e      	ldr	r3, [sp, #56]	@ 0x38
 8003a18:	f7ff fd72 	bl	8003500 <I2C_WaitOnFlagUntilTimeout>
 8003a1c:	2800      	cmp	r0, #0
 8003a1e:	d148      	bne.n	8003ab2 <HAL_I2C_Mem_Write+0x15e>
 8003a20:	8d63      	ldrh	r3, [r4, #42]	@ 0x2a
 8003a22:	6822      	ldr	r2, [r4, #0]
 8003a24:	2bff      	cmp	r3, #255	@ 0xff
 8003a26:	d848      	bhi.n	8003aba <HAL_I2C_Mem_Write+0x166>
 8003a28:	8d63      	ldrh	r3, [r4, #42]	@ 0x2a
 8003a2a:	4843      	ldr	r0, [pc, #268]	@ (8003b38 <HAL_I2C_Mem_Write+0x1e4>)
 8003a2c:	b29b      	uxth	r3, r3
 8003a2e:	6851      	ldr	r1, [r2, #4]
 8003a30:	8523      	strh	r3, [r4, #40]	@ 0x28
 8003a32:	b2db      	uxtb	r3, r3
 8003a34:	041b      	lsls	r3, r3, #16
 8003a36:	4001      	ands	r1, r0
 8003a38:	432b      	orrs	r3, r5
 8003a3a:	430b      	orrs	r3, r1
 8003a3c:	2180      	movs	r1, #128	@ 0x80
 8003a3e:	0489      	lsls	r1, r1, #18
 8003a40:	430b      	orrs	r3, r1
 8003a42:	6053      	str	r3, [r2, #4]
 8003a44:	e002      	b.n	8003a4c <HAL_I2C_Mem_Write+0xf8>
 8003a46:	8d63      	ldrh	r3, [r4, #42]	@ 0x2a
 8003a48:	2b00      	cmp	r3, #0
 8003a4a:	d05a      	beq.n	8003b02 <HAL_I2C_Mem_Write+0x1ae>
 8003a4c:	4642      	mov	r2, r8
 8003a4e:	0020      	movs	r0, r4
 8003a50:	990e      	ldr	r1, [sp, #56]	@ 0x38
 8003a52:	f7ff fc65 	bl	8003320 <I2C_WaitOnTXISFlagUntilTimeout>
 8003a56:	2800      	cmp	r0, #0
 8003a58:	d1a5      	bne.n	80039a6 <HAL_I2C_Mem_Write+0x52>
 8003a5a:	6a63      	ldr	r3, [r4, #36]	@ 0x24
 8003a5c:	6822      	ldr	r2, [r4, #0]
 8003a5e:	7819      	ldrb	r1, [r3, #0]
 8003a60:	3301      	adds	r3, #1
 8003a62:	6291      	str	r1, [r2, #40]	@ 0x28
 8003a64:	6263      	str	r3, [r4, #36]	@ 0x24
 8003a66:	8d63      	ldrh	r3, [r4, #42]	@ 0x2a
 8003a68:	3b01      	subs	r3, #1
 8003a6a:	b29b      	uxth	r3, r3
 8003a6c:	8563      	strh	r3, [r4, #42]	@ 0x2a
 8003a6e:	8d23      	ldrh	r3, [r4, #40]	@ 0x28
 8003a70:	8d62      	ldrh	r2, [r4, #42]	@ 0x2a
 8003a72:	3b01      	subs	r3, #1
 8003a74:	b29b      	uxth	r3, r3
 8003a76:	8523      	strh	r3, [r4, #40]	@ 0x28
 8003a78:	2a00      	cmp	r2, #0
 8003a7a:	d0e4      	beq.n	8003a46 <HAL_I2C_Mem_Write+0xf2>
 8003a7c:	2b00      	cmp	r3, #0
 8003a7e:	d1e2      	bne.n	8003a46 <HAL_I2C_Mem_Write+0xf2>
 8003a80:	4643      	mov	r3, r8
 8003a82:	2200      	movs	r2, #0
 8003a84:	9300      	str	r3, [sp, #0]
 8003a86:	2180      	movs	r1, #128	@ 0x80
 8003a88:	0020      	movs	r0, r4
 8003a8a:	9b0e      	ldr	r3, [sp, #56]	@ 0x38
 8003a8c:	f7ff fd38 	bl	8003500 <I2C_WaitOnFlagUntilTimeout>
 8003a90:	2800      	cmp	r0, #0
 8003a92:	d000      	beq.n	8003a96 <HAL_I2C_Mem_Write+0x142>
 8003a94:	e787      	b.n	80039a6 <HAL_I2C_Mem_Write+0x52>
 8003a96:	8d63      	ldrh	r3, [r4, #42]	@ 0x2a
 8003a98:	6822      	ldr	r2, [r4, #0]
 8003a9a:	2bff      	cmp	r3, #255	@ 0xff
 8003a9c:	d922      	bls.n	8003ae4 <HAL_I2C_Mem_Write+0x190>
 8003a9e:	23ff      	movs	r3, #255	@ 0xff
 8003aa0:	4925      	ldr	r1, [pc, #148]	@ (8003b38 <HAL_I2C_Mem_Write+0x1e4>)
 8003aa2:	8523      	strh	r3, [r4, #40]	@ 0x28
 8003aa4:	6853      	ldr	r3, [r2, #4]
 8003aa6:	400b      	ands	r3, r1
 8003aa8:	4924      	ldr	r1, [pc, #144]	@ (8003b3c <HAL_I2C_Mem_Write+0x1e8>)
 8003aaa:	432b      	orrs	r3, r5
 8003aac:	430b      	orrs	r3, r1
 8003aae:	6053      	str	r3, [r2, #4]
 8003ab0:	e7c9      	b.n	8003a46 <HAL_I2C_Mem_Write+0xf2>
 8003ab2:	2340      	movs	r3, #64	@ 0x40
 8003ab4:	2200      	movs	r2, #0
 8003ab6:	54e2      	strb	r2, [r4, r3]
 8003ab8:	e775      	b.n	80039a6 <HAL_I2C_Mem_Write+0x52>
 8003aba:	23ff      	movs	r3, #255	@ 0xff
 8003abc:	491e      	ldr	r1, [pc, #120]	@ (8003b38 <HAL_I2C_Mem_Write+0x1e4>)
 8003abe:	8523      	strh	r3, [r4, #40]	@ 0x28
 8003ac0:	6853      	ldr	r3, [r2, #4]
 8003ac2:	400b      	ands	r3, r1
 8003ac4:	491d      	ldr	r1, [pc, #116]	@ (8003b3c <HAL_I2C_Mem_Write+0x1e8>)
 8003ac6:	432b      	orrs	r3, r5
 8003ac8:	430b      	orrs	r3, r1
 8003aca:	6053      	str	r3, [r2, #4]
 8003acc:	e7be      	b.n	8003a4c <HAL_I2C_Mem_Write+0xf8>
 8003ace:	0a32      	lsrs	r2, r6, #8
 8003ad0:	629a      	str	r2, [r3, #40]	@ 0x28
 8003ad2:	0020      	movs	r0, r4
 8003ad4:	4642      	mov	r2, r8
 8003ad6:	990e      	ldr	r1, [sp, #56]	@ 0x38
 8003ad8:	f7ff fc22 	bl	8003320 <I2C_WaitOnTXISFlagUntilTimeout>
 8003adc:	2800      	cmp	r0, #0
 8003ade:	d1e8      	bne.n	8003ab2 <HAL_I2C_Mem_Write+0x15e>
 8003ae0:	6823      	ldr	r3, [r4, #0]
 8003ae2:	e791      	b.n	8003a08 <HAL_I2C_Mem_Write+0xb4>
 8003ae4:	8d63      	ldrh	r3, [r4, #42]	@ 0x2a
 8003ae6:	4814      	ldr	r0, [pc, #80]	@ (8003b38 <HAL_I2C_Mem_Write+0x1e4>)
 8003ae8:	b29b      	uxth	r3, r3
 8003aea:	6851      	ldr	r1, [r2, #4]
 8003aec:	8523      	strh	r3, [r4, #40]	@ 0x28
 8003aee:	b2db      	uxtb	r3, r3
 8003af0:	041b      	lsls	r3, r3, #16
 8003af2:	4001      	ands	r1, r0
 8003af4:	432b      	orrs	r3, r5
 8003af6:	430b      	orrs	r3, r1
 8003af8:	2180      	movs	r1, #128	@ 0x80
 8003afa:	0489      	lsls	r1, r1, #18
 8003afc:	430b      	orrs	r3, r1
 8003afe:	6053      	str	r3, [r2, #4]
 8003b00:	e7a1      	b.n	8003a46 <HAL_I2C_Mem_Write+0xf2>
 8003b02:	4642      	mov	r2, r8
 8003b04:	0020      	movs	r0, r4
 8003b06:	990e      	ldr	r1, [sp, #56]	@ 0x38
 8003b08:	f7ff fdf2 	bl	80036f0 <I2C_WaitOnSTOPFlagUntilTimeout>
 8003b0c:	2800      	cmp	r0, #0
 8003b0e:	d000      	beq.n	8003b12 <HAL_I2C_Mem_Write+0x1be>
 8003b10:	e749      	b.n	80039a6 <HAL_I2C_Mem_Write+0x52>
 8003b12:	2120      	movs	r1, #32
 8003b14:	6823      	ldr	r3, [r4, #0]
 8003b16:	4d0a      	ldr	r5, [pc, #40]	@ (8003b40 <HAL_I2C_Mem_Write+0x1ec>)
 8003b18:	61d9      	str	r1, [r3, #28]
 8003b1a:	685a      	ldr	r2, [r3, #4]
 8003b1c:	402a      	ands	r2, r5
 8003b1e:	605a      	str	r2, [r3, #4]
 8003b20:	2341      	movs	r3, #65	@ 0x41
 8003b22:	54e1      	strb	r1, [r4, r3]
 8003b24:	3301      	adds	r3, #1
 8003b26:	54e0      	strb	r0, [r4, r3]
 8003b28:	3b02      	subs	r3, #2
 8003b2a:	54e0      	strb	r0, [r4, r3]
 8003b2c:	e73c      	b.n	80039a8 <HAL_I2C_Mem_Write+0x54>
 8003b2e:	46c0      	nop			@ (mov r8, r8)
 8003b30:	fc009800 	.word	0xfc009800
 8003b34:	01002000 	.word	0x01002000
 8003b38:	fc009c00 	.word	0xfc009c00
 8003b3c:	01ff0000 	.word	0x01ff0000
 8003b40:	fe00e800 	.word	0xfe00e800

08003b44 <HAL_I2C_Mem_Read>:
 8003b44:	b5f0      	push	{r4, r5, r6, r7, lr}
 8003b46:	4657      	mov	r7, sl
 8003b48:	464e      	mov	r6, r9
 8003b4a:	46de      	mov	lr, fp
 8003b4c:	4645      	mov	r5, r8
 8003b4e:	b5e0      	push	{r5, r6, r7, lr}
 8003b50:	b083      	sub	sp, #12
 8003b52:	001f      	movs	r7, r3
 8003b54:	ab0c      	add	r3, sp, #48	@ 0x30
 8003b56:	0016      	movs	r6, r2
 8003b58:	cb04      	ldmia	r3!, {r2}
 8003b5a:	0004      	movs	r4, r0
 8003b5c:	881b      	ldrh	r3, [r3, #0]
 8003b5e:	000d      	movs	r5, r1
 8003b60:	469b      	mov	fp, r3
 8003b62:	2341      	movs	r3, #65	@ 0x41
 8003b64:	4699      	mov	r9, r3
 8003b66:	5cc3      	ldrb	r3, [r0, r3]
 8003b68:	4692      	mov	sl, r2
 8003b6a:	2b20      	cmp	r3, #32
 8003b6c:	d11f      	bne.n	8003bae <HAL_I2C_Mem_Read+0x6a>
 8003b6e:	2a00      	cmp	r2, #0
 8003b70:	d019      	beq.n	8003ba6 <HAL_I2C_Mem_Read+0x62>
 8003b72:	465b      	mov	r3, fp
 8003b74:	2b00      	cmp	r3, #0
 8003b76:	d016      	beq.n	8003ba6 <HAL_I2C_Mem_Read+0x62>
 8003b78:	2240      	movs	r2, #64	@ 0x40
 8003b7a:	5c83      	ldrb	r3, [r0, r2]
 8003b7c:	2b01      	cmp	r3, #1
 8003b7e:	d016      	beq.n	8003bae <HAL_I2C_Mem_Read+0x6a>
 8003b80:	2301      	movs	r3, #1
 8003b82:	5483      	strb	r3, [r0, r2]
 8003b84:	f7fe fe40 	bl	8002808 <HAL_GetTick>
 8003b88:	4680      	mov	r8, r0
 8003b8a:	0001      	movs	r1, r0
 8003b8c:	0020      	movs	r0, r4
 8003b8e:	f7ff fb11 	bl	80031b4 <I2C_WaitOnFlagUntilTimeout.constprop.0>
 8003b92:	2800      	cmp	r0, #0
 8003b94:	d00d      	beq.n	8003bb2 <HAL_I2C_Mem_Read+0x6e>
 8003b96:	2001      	movs	r0, #1
 8003b98:	b003      	add	sp, #12
 8003b9a:	bcf0      	pop	{r4, r5, r6, r7}
 8003b9c:	46bb      	mov	fp, r7
 8003b9e:	46b2      	mov	sl, r6
 8003ba0:	46a9      	mov	r9, r5
 8003ba2:	46a0      	mov	r8, r4
 8003ba4:	bdf0      	pop	{r4, r5, r6, r7, pc}
 8003ba6:	2380      	movs	r3, #128	@ 0x80
 8003ba8:	009b      	lsls	r3, r3, #2
 8003baa:	6463      	str	r3, [r4, #68]	@ 0x44
 8003bac:	e7f3      	b.n	8003b96 <HAL_I2C_Mem_Read+0x52>
 8003bae:	2002      	movs	r0, #2
 8003bb0:	e7f2      	b.n	8003b98 <HAL_I2C_Mem_Read+0x54>
 8003bb2:	2322      	movs	r3, #34	@ 0x22
 8003bb4:	464a      	mov	r2, r9
 8003bb6:	54a3      	strb	r3, [r4, r2]
 8003bb8:	2240      	movs	r2, #64	@ 0x40
 8003bba:	3320      	adds	r3, #32
 8003bbc:	54e2      	strb	r2, [r4, r3]
 8003bbe:	4653      	mov	r3, sl
 8003bc0:	6263      	str	r3, [r4, #36]	@ 0x24
 8003bc2:	465b      	mov	r3, fp
 8003bc4:	6821      	ldr	r1, [r4, #0]
 8003bc6:	6460      	str	r0, [r4, #68]	@ 0x44
 8003bc8:	8563      	strh	r3, [r4, #42]	@ 0x2a
 8003bca:	684a      	ldr	r2, [r1, #4]
 8003bcc:	6360      	str	r0, [r4, #52]	@ 0x34
 8003bce:	4856      	ldr	r0, [pc, #344]	@ (8003d28 <HAL_I2C_Mem_Read+0x1e4>)
 8003bd0:	b2fb      	uxtb	r3, r7
 8003bd2:	4002      	ands	r2, r0
 8003bd4:	041b      	lsls	r3, r3, #16
 8003bd6:	4313      	orrs	r3, r2
 8003bd8:	2280      	movs	r2, #128	@ 0x80
 8003bda:	05ad      	lsls	r5, r5, #22
 8003bdc:	0dad      	lsrs	r5, r5, #22
 8003bde:	0192      	lsls	r2, r2, #6
 8003be0:	432b      	orrs	r3, r5
 8003be2:	4313      	orrs	r3, r2
 8003be4:	604b      	str	r3, [r1, #4]
 8003be6:	4642      	mov	r2, r8
 8003be8:	0020      	movs	r0, r4
 8003bea:	990e      	ldr	r1, [sp, #56]	@ 0x38
 8003bec:	f7ff fb98 	bl	8003320 <I2C_WaitOnTXISFlagUntilTimeout>
 8003bf0:	2800      	cmp	r0, #0
 8003bf2:	d15a      	bne.n	8003caa <HAL_I2C_Mem_Read+0x166>
 8003bf4:	6823      	ldr	r3, [r4, #0]
 8003bf6:	2f01      	cmp	r7, #1
 8003bf8:	d165      	bne.n	8003cc6 <HAL_I2C_Mem_Read+0x182>
 8003bfa:	b2f6      	uxtb	r6, r6
 8003bfc:	629e      	str	r6, [r3, #40]	@ 0x28
 8003bfe:	4643      	mov	r3, r8
 8003c00:	2200      	movs	r2, #0
 8003c02:	9300      	str	r3, [sp, #0]
 8003c04:	2140      	movs	r1, #64	@ 0x40
 8003c06:	0020      	movs	r0, r4
 8003c08:	9b0e      	ldr	r3, [sp, #56]	@ 0x38
 8003c0a:	f7ff fc79 	bl	8003500 <I2C_WaitOnFlagUntilTimeout>
 8003c0e:	2800      	cmp	r0, #0
 8003c10:	d14b      	bne.n	8003caa <HAL_I2C_Mem_Read+0x166>
 8003c12:	8d63      	ldrh	r3, [r4, #42]	@ 0x2a
 8003c14:	6822      	ldr	r2, [r4, #0]
 8003c16:	2bff      	cmp	r3, #255	@ 0xff
 8003c18:	d84b      	bhi.n	8003cb2 <HAL_I2C_Mem_Read+0x16e>
 8003c1a:	8d63      	ldrh	r3, [r4, #42]	@ 0x2a
 8003c1c:	4842      	ldr	r0, [pc, #264]	@ (8003d28 <HAL_I2C_Mem_Read+0x1e4>)
 8003c1e:	b29b      	uxth	r3, r3
 8003c20:	6851      	ldr	r1, [r2, #4]
 8003c22:	8523      	strh	r3, [r4, #40]	@ 0x28
 8003c24:	b2db      	uxtb	r3, r3
 8003c26:	041b      	lsls	r3, r3, #16
 8003c28:	4001      	ands	r1, r0
 8003c2a:	432b      	orrs	r3, r5
 8003c2c:	430b      	orrs	r3, r1
 8003c2e:	493f      	ldr	r1, [pc, #252]	@ (8003d2c <HAL_I2C_Mem_Read+0x1e8>)
 8003c30:	430b      	orrs	r3, r1
 8003c32:	6053      	str	r3, [r2, #4]
 8003c34:	e002      	b.n	8003c3c <HAL_I2C_Mem_Read+0xf8>
 8003c36:	8d63      	ldrh	r3, [r4, #42]	@ 0x2a
 8003c38:	2b00      	cmp	r3, #0
 8003c3a:	d05e      	beq.n	8003cfa <HAL_I2C_Mem_Read+0x1b6>
 8003c3c:	4643      	mov	r3, r8
 8003c3e:	2200      	movs	r2, #0
 8003c40:	9300      	str	r3, [sp, #0]
 8003c42:	2104      	movs	r1, #4
 8003c44:	0020      	movs	r0, r4
 8003c46:	9b0e      	ldr	r3, [sp, #56]	@ 0x38
 8003c48:	f7ff fc5a 	bl	8003500 <I2C_WaitOnFlagUntilTimeout>
 8003c4c:	2800      	cmp	r0, #0
 8003c4e:	d1a2      	bne.n	8003b96 <HAL_I2C_Mem_Read+0x52>
 8003c50:	6823      	ldr	r3, [r4, #0]
 8003c52:	6a5a      	ldr	r2, [r3, #36]	@ 0x24
 8003c54:	6a63      	ldr	r3, [r4, #36]	@ 0x24
 8003c56:	701a      	strb	r2, [r3, #0]
 8003c58:	8d62      	ldrh	r2, [r4, #42]	@ 0x2a
 8003c5a:	6a63      	ldr	r3, [r4, #36]	@ 0x24
 8003c5c:	3a01      	subs	r2, #1
 8003c5e:	3301      	adds	r3, #1
 8003c60:	b292      	uxth	r2, r2
 8003c62:	6263      	str	r3, [r4, #36]	@ 0x24
 8003c64:	8d23      	ldrh	r3, [r4, #40]	@ 0x28
 8003c66:	8562      	strh	r2, [r4, #42]	@ 0x2a
 8003c68:	3b01      	subs	r3, #1
 8003c6a:	8d62      	ldrh	r2, [r4, #42]	@ 0x2a
 8003c6c:	b29b      	uxth	r3, r3
 8003c6e:	8523      	strh	r3, [r4, #40]	@ 0x28
 8003c70:	2a00      	cmp	r2, #0
 8003c72:	d0e0      	beq.n	8003c36 <HAL_I2C_Mem_Read+0xf2>
 8003c74:	2b00      	cmp	r3, #0
 8003c76:	d1de      	bne.n	8003c36 <HAL_I2C_Mem_Read+0xf2>
 8003c78:	4643      	mov	r3, r8
 8003c7a:	2200      	movs	r2, #0
 8003c7c:	9300      	str	r3, [sp, #0]
 8003c7e:	2180      	movs	r1, #128	@ 0x80
 8003c80:	0020      	movs	r0, r4
 8003c82:	9b0e      	ldr	r3, [sp, #56]	@ 0x38
 8003c84:	f7ff fc3c 	bl	8003500 <I2C_WaitOnFlagUntilTimeout>
 8003c88:	2800      	cmp	r0, #0
 8003c8a:	d000      	beq.n	8003c8e <HAL_I2C_Mem_Read+0x14a>
 8003c8c:	e783      	b.n	8003b96 <HAL_I2C_Mem_Read+0x52>
 8003c8e:	8d63      	ldrh	r3, [r4, #42]	@ 0x2a
 8003c90:	6822      	ldr	r2, [r4, #0]
 8003c92:	2bff      	cmp	r3, #255	@ 0xff
 8003c94:	d922      	bls.n	8003cdc <HAL_I2C_Mem_Read+0x198>
 8003c96:	2301      	movs	r3, #1
 8003c98:	4925      	ldr	r1, [pc, #148]	@ (8003d30 <HAL_I2C_Mem_Read+0x1ec>)
 8003c9a:	8523      	strh	r3, [r4, #40]	@ 0x28
 8003c9c:	6853      	ldr	r3, [r2, #4]
 8003c9e:	400b      	ands	r3, r1
 8003ca0:	4924      	ldr	r1, [pc, #144]	@ (8003d34 <HAL_I2C_Mem_Read+0x1f0>)
 8003ca2:	432b      	orrs	r3, r5
 8003ca4:	430b      	orrs	r3, r1
 8003ca6:	6053      	str	r3, [r2, #4]
 8003ca8:	e7c5      	b.n	8003c36 <HAL_I2C_Mem_Read+0xf2>
 8003caa:	2340      	movs	r3, #64	@ 0x40
 8003cac:	2200      	movs	r2, #0
 8003cae:	54e2      	strb	r2, [r4, r3]
 8003cb0:	e771      	b.n	8003b96 <HAL_I2C_Mem_Read+0x52>
 8003cb2:	2301      	movs	r3, #1
 8003cb4:	491c      	ldr	r1, [pc, #112]	@ (8003d28 <HAL_I2C_Mem_Read+0x1e4>)
 8003cb6:	8523      	strh	r3, [r4, #40]	@ 0x28
 8003cb8:	6853      	ldr	r3, [r2, #4]
 8003cba:	400b      	ands	r3, r1
 8003cbc:	491e      	ldr	r1, [pc, #120]	@ (8003d38 <HAL_I2C_Mem_Read+0x1f4>)
 8003cbe:	432b      	orrs	r3, r5
 8003cc0:	430b      	orrs	r3, r1
 8003cc2:	6053      	str	r3, [r2, #4]
 8003cc4:	e7ba      	b.n	8003c3c <HAL_I2C_Mem_Read+0xf8>
 8003cc6:	0a32      	lsrs	r2, r6, #8
 8003cc8:	629a      	str	r2, [r3, #40]	@ 0x28
 8003cca:	0020      	movs	r0, r4
 8003ccc:	4642      	mov	r2, r8
 8003cce:	990e      	ldr	r1, [sp, #56]	@ 0x38
 8003cd0:	f7ff fb26 	bl	8003320 <I2C_WaitOnTXISFlagUntilTimeout>
 8003cd4:	2800      	cmp	r0, #0
 8003cd6:	d1e8      	bne.n	8003caa <HAL_I2C_Mem_Read+0x166>
 8003cd8:	6823      	ldr	r3, [r4, #0]
 8003cda:	e78e      	b.n	8003bfa <HAL_I2C_Mem_Read+0xb6>
 8003cdc:	8d63      	ldrh	r3, [r4, #42]	@ 0x2a
 8003cde:	4814      	ldr	r0, [pc, #80]	@ (8003d30 <HAL_I2C_Mem_Read+0x1ec>)
 8003ce0:	b29b      	uxth	r3, r3
 8003ce2:	6851      	ldr	r1, [r2, #4]
 8003ce4:	8523      	strh	r3, [r4, #40]	@ 0x28
 8003ce6:	b2db      	uxtb	r3, r3
 8003ce8:	041b      	lsls	r3, r3, #16
 8003cea:	4001      	ands	r1, r0
 8003cec:	432b      	orrs	r3, r5
 8003cee:	430b      	orrs	r3, r1
 8003cf0:	2180      	movs	r1, #128	@ 0x80
 8003cf2:	0489      	lsls	r1, r1, #18
 8003cf4:	430b      	orrs	r3, r1
 8003cf6:	6053      	str	r3, [r2, #4]
 8003cf8:	e79d      	b.n	8003c36 <HAL_I2C_Mem_Read+0xf2>
 8003cfa:	4642      	mov	r2, r8
 8003cfc:	0020      	movs	r0, r4
 8003cfe:	990e      	ldr	r1, [sp, #56]	@ 0x38
 8003d00:	f7ff fcf6 	bl	80036f0 <I2C_WaitOnSTOPFlagUntilTimeout>
 8003d04:	2800      	cmp	r0, #0
 8003d06:	d000      	beq.n	8003d0a <HAL_I2C_Mem_Read+0x1c6>
 8003d08:	e745      	b.n	8003b96 <HAL_I2C_Mem_Read+0x52>
 8003d0a:	2120      	movs	r1, #32
 8003d0c:	6823      	ldr	r3, [r4, #0]
 8003d0e:	4d0b      	ldr	r5, [pc, #44]	@ (8003d3c <HAL_I2C_Mem_Read+0x1f8>)
 8003d10:	61d9      	str	r1, [r3, #28]
 8003d12:	685a      	ldr	r2, [r3, #4]
 8003d14:	402a      	ands	r2, r5
 8003d16:	605a      	str	r2, [r3, #4]
 8003d18:	2341      	movs	r3, #65	@ 0x41
 8003d1a:	54e1      	strb	r1, [r4, r3]
 8003d1c:	3301      	adds	r3, #1
 8003d1e:	54e0      	strb	r0, [r4, r3]
 8003d20:	3b02      	subs	r3, #2
 8003d22:	54e0      	strb	r0, [r4, r3]
 8003d24:	e738      	b.n	8003b98 <HAL_I2C_Mem_Read+0x54>
 8003d26:	46c0      	nop			@ (mov r8, r8)
 8003d28:	fc009800 	.word	0xfc009800
 8003d2c:	02002400 	.word	0x02002400
 8003d30:	fc009c00 	.word	0xfc009c00
 8003d34:	01010000 	.word	0x01010000
 8003d38:	01012400 	.word	0x01012400
 8003d3c:	fe00e800 	.word	0xfe00e800

08003d40 <HAL_I2CEx_ConfigAnalogFilter>:
 8003d40:	b5f0      	push	{r4, r5, r6, r7, lr}
 8003d42:	2441      	movs	r4, #65	@ 0x41
 8003d44:	5d03      	ldrb	r3, [r0, r4]
 8003d46:	468c      	mov	ip, r1
 8003d48:	b2dd      	uxtb	r5, r3
 8003d4a:	2b20      	cmp	r3, #32
 8003d4c:	d11a      	bne.n	8003d84 <HAL_I2CEx_ConfigAnalogFilter+0x44>
 8003d4e:	2640      	movs	r6, #64	@ 0x40
 8003d50:	5d83      	ldrb	r3, [r0, r6]
 8003d52:	2b01      	cmp	r3, #1
 8003d54:	d016      	beq.n	8003d84 <HAL_I2CEx_ConfigAnalogFilter+0x44>
 8003d56:	2324      	movs	r3, #36	@ 0x24
 8003d58:	2701      	movs	r7, #1
 8003d5a:	5503      	strb	r3, [r0, r4]
 8003d5c:	6803      	ldr	r3, [r0, #0]
 8003d5e:	490a      	ldr	r1, [pc, #40]	@ (8003d88 <HAL_I2CEx_ConfigAnalogFilter+0x48>)
 8003d60:	681a      	ldr	r2, [r3, #0]
 8003d62:	43ba      	bics	r2, r7
 8003d64:	601a      	str	r2, [r3, #0]
 8003d66:	681a      	ldr	r2, [r3, #0]
 8003d68:	400a      	ands	r2, r1
 8003d6a:	601a      	str	r2, [r3, #0]
 8003d6c:	4662      	mov	r2, ip
 8003d6e:	6819      	ldr	r1, [r3, #0]
 8003d70:	4311      	orrs	r1, r2
 8003d72:	6019      	str	r1, [r3, #0]
 8003d74:	681a      	ldr	r2, [r3, #0]
 8003d76:	433a      	orrs	r2, r7
 8003d78:	601a      	str	r2, [r3, #0]
 8003d7a:	2300      	movs	r3, #0
 8003d7c:	5505      	strb	r5, [r0, r4]
 8003d7e:	5583      	strb	r3, [r0, r6]
 8003d80:	2000      	movs	r0, #0
 8003d82:	bdf0      	pop	{r4, r5, r6, r7, pc}
 8003d84:	2002      	movs	r0, #2
 8003d86:	e7fc      	b.n	8003d82 <HAL_I2CEx_ConfigAnalogFilter+0x42>
 8003d88:	ffffefff 	.word	0xffffefff

08003d8c <HAL_I2CEx_ConfigDigitalFilter>:
 8003d8c:	b5f0      	push	{r4, r5, r6, r7, lr}
 8003d8e:	46ce      	mov	lr, r9
 8003d90:	4647      	mov	r7, r8
 8003d92:	2441      	movs	r4, #65	@ 0x41
 8003d94:	b580      	push	{r7, lr}
 8003d96:	5d03      	ldrb	r3, [r0, r4]
 8003d98:	b2dd      	uxtb	r5, r3
 8003d9a:	2b20      	cmp	r3, #32
 8003d9c:	d11f      	bne.n	8003dde <HAL_I2CEx_ConfigDigitalFilter+0x52>
 8003d9e:	2640      	movs	r6, #64	@ 0x40
 8003da0:	5d83      	ldrb	r3, [r0, r6]
 8003da2:	2b01      	cmp	r3, #1
 8003da4:	d01b      	beq.n	8003dde <HAL_I2CEx_ConfigDigitalFilter+0x52>
 8003da6:	2324      	movs	r3, #36	@ 0x24
 8003da8:	2701      	movs	r7, #1
 8003daa:	5503      	strb	r3, [r0, r4]
 8003dac:	6802      	ldr	r2, [r0, #0]
 8003dae:	46b9      	mov	r9, r7
 8003db0:	6813      	ldr	r3, [r2, #0]
 8003db2:	0209      	lsls	r1, r1, #8
 8003db4:	43bb      	bics	r3, r7
 8003db6:	6013      	str	r3, [r2, #0]
 8003db8:	6813      	ldr	r3, [r2, #0]
 8003dba:	4698      	mov	r8, r3
 8003dbc:	4647      	mov	r7, r8
 8003dbe:	4b09      	ldr	r3, [pc, #36]	@ (8003de4 <HAL_I2CEx_ConfigDigitalFilter+0x58>)
 8003dc0:	401f      	ands	r7, r3
 8003dc2:	4339      	orrs	r1, r7
 8003dc4:	6011      	str	r1, [r2, #0]
 8003dc6:	4649      	mov	r1, r9
 8003dc8:	6813      	ldr	r3, [r2, #0]
 8003dca:	430b      	orrs	r3, r1
 8003dcc:	6013      	str	r3, [r2, #0]
 8003dce:	2300      	movs	r3, #0
 8003dd0:	5505      	strb	r5, [r0, r4]
 8003dd2:	5583      	strb	r3, [r0, r6]
 8003dd4:	2000      	movs	r0, #0
 8003dd6:	bcc0      	pop	{r6, r7}
 8003dd8:	46b9      	mov	r9, r7
 8003dda:	46b0      	mov	r8, r6
 8003ddc:	bdf0      	pop	{r4, r5, r6, r7, pc}
 8003dde:	2002      	movs	r0, #2
 8003de0:	e7f9      	b.n	8003dd6 <HAL_I2CEx_ConfigDigitalFilter+0x4a>
 8003de2:	46c0      	nop			@ (mov r8, r8)
 8003de4:	fffff0ff 	.word	0xfffff0ff

08003de8 <HAL_PCD_Init>:
 8003de8:	b570      	push	{r4, r5, r6, lr}
 8003dea:	1e04      	subs	r4, r0, #0
 8003dec:	d100      	bne.n	8003df0 <HAL_PCD_Init+0x8>
 8003dee:	e0f6      	b.n	8003fde <HAL_PCD_Init+0x1f6>
 8003df0:	4b7f      	ldr	r3, [pc, #508]	@ (8003ff0 <HAL_PCD_Init+0x208>)
 8003df2:	5cc3      	ldrb	r3, [r0, r3]
 8003df4:	b2da      	uxtb	r2, r3
 8003df6:	2b00      	cmp	r3, #0
 8003df8:	d100      	bne.n	8003dfc <HAL_PCD_Init+0x14>
 8003dfa:	e0e6      	b.n	8003fca <HAL_PCD_Init+0x1e2>
 8003dfc:	2203      	movs	r2, #3
 8003dfe:	4b7c      	ldr	r3, [pc, #496]	@ (8003ff0 <HAL_PCD_Init+0x208>)
 8003e00:	54e2      	strb	r2, [r4, r3]
 8003e02:	6820      	ldr	r0, [r4, #0]
 8003e04:	f001 ffd6 	bl	8005db4 <USB_DisableGlobalInt>
 8003e08:	7922      	ldrb	r2, [r4, #4]
 8003e0a:	2a00      	cmp	r2, #0
 8003e0c:	d100      	bne.n	8003e10 <HAL_PCD_Init+0x28>
 8003e0e:	e0cd      	b.n	8003fac <HAL_PCD_Init+0x1c4>
 8003e10:	2180      	movs	r1, #128	@ 0x80
 8003e12:	2300      	movs	r3, #0
 8003e14:	0049      	lsls	r1, r1, #1
 8003e16:	8221      	strh	r1, [r4, #16]
 8003e18:	74e3      	strb	r3, [r4, #19]
 8003e1a:	6223      	str	r3, [r4, #32]
 8003e1c:	6263      	str	r3, [r4, #36]	@ 0x24
 8003e1e:	62a3      	str	r3, [r4, #40]	@ 0x28
 8003e20:	2a01      	cmp	r2, #1
 8003e22:	d100      	bne.n	8003e26 <HAL_PCD_Init+0x3e>
 8003e24:	e0dd      	b.n	8003fe2 <HAL_PCD_Init+0x1fa>
 8003e26:	2002      	movs	r0, #2
 8003e28:	30ff      	adds	r0, #255	@ 0xff
 8003e2a:	8720      	strh	r0, [r4, #56]	@ 0x38
 8003e2c:	38c6      	subs	r0, #198	@ 0xc6
 8003e2e:	5423      	strb	r3, [r4, r0]
 8003e30:	64a3      	str	r3, [r4, #72]	@ 0x48
 8003e32:	64e3      	str	r3, [r4, #76]	@ 0x4c
 8003e34:	6523      	str	r3, [r4, #80]	@ 0x50
 8003e36:	2a02      	cmp	r2, #2
 8003e38:	d04c      	beq.n	8003ed4 <HAL_PCD_Init+0xec>
 8003e3a:	2581      	movs	r5, #129	@ 0x81
 8003e3c:	3025      	adds	r0, #37	@ 0x25
 8003e3e:	006d      	lsls	r5, r5, #1
 8003e40:	5225      	strh	r5, [r4, r0]
 8003e42:	3003      	adds	r0, #3
 8003e44:	5423      	strb	r3, [r4, r0]
 8003e46:	6723      	str	r3, [r4, #112]	@ 0x70
 8003e48:	6763      	str	r3, [r4, #116]	@ 0x74
 8003e4a:	67a3      	str	r3, [r4, #120]	@ 0x78
 8003e4c:	2a03      	cmp	r2, #3
 8003e4e:	d041      	beq.n	8003ed4 <HAL_PCD_Init+0xec>
 8003e50:	2004      	movs	r0, #4
 8003e52:	3d7a      	subs	r5, #122	@ 0x7a
 8003e54:	30ff      	adds	r0, #255	@ 0xff
 8003e56:	5360      	strh	r0, [r4, r5]
 8003e58:	3503      	adds	r5, #3
 8003e5a:	5563      	strb	r3, [r4, r5]
 8003e5c:	350d      	adds	r5, #13
 8003e5e:	5163      	str	r3, [r4, r5]
 8003e60:	3504      	adds	r5, #4
 8003e62:	5163      	str	r3, [r4, r5]
 8003e64:	3504      	adds	r5, #4
 8003e66:	5163      	str	r3, [r4, r5]
 8003e68:	2a04      	cmp	r2, #4
 8003e6a:	d033      	beq.n	8003ed4 <HAL_PCD_Init+0xec>
 8003e6c:	2682      	movs	r6, #130	@ 0x82
 8003e6e:	3510      	adds	r5, #16
 8003e70:	0076      	lsls	r6, r6, #1
 8003e72:	5366      	strh	r6, [r4, r5]
 8003e74:	3503      	adds	r5, #3
 8003e76:	5563      	strb	r3, [r4, r5]
 8003e78:	350d      	adds	r5, #13
 8003e7a:	5163      	str	r3, [r4, r5]
 8003e7c:	3504      	adds	r5, #4
 8003e7e:	5163      	str	r3, [r4, r5]
 8003e80:	3504      	adds	r5, #4
 8003e82:	5163      	str	r3, [r4, r5]
 8003e84:	2a05      	cmp	r2, #5
 8003e86:	d025      	beq.n	8003ed4 <HAL_PCD_Init+0xec>
 8003e88:	2606      	movs	r6, #6
 8003e8a:	3510      	adds	r5, #16
 8003e8c:	36ff      	adds	r6, #255	@ 0xff
 8003e8e:	5366      	strh	r6, [r4, r5]
 8003e90:	3503      	adds	r5, #3
 8003e92:	5563      	strb	r3, [r4, r5]
 8003e94:	350d      	adds	r5, #13
 8003e96:	5163      	str	r3, [r4, r5]
 8003e98:	3504      	adds	r5, #4
 8003e9a:	5163      	str	r3, [r4, r5]
 8003e9c:	3504      	adds	r5, #4
 8003e9e:	5163      	str	r3, [r4, r5]
 8003ea0:	2a06      	cmp	r2, #6
 8003ea2:	d017      	beq.n	8003ed4 <HAL_PCD_Init+0xec>
 8003ea4:	3516      	adds	r5, #22
 8003ea6:	5265      	strh	r5, [r4, r1]
 8003ea8:	3110      	adds	r1, #16
 8003eaa:	5423      	strb	r3, [r4, r0]
 8003eac:	5063      	str	r3, [r4, r1]
 8003eae:	3104      	adds	r1, #4
 8003eb0:	5063      	str	r3, [r4, r1]
 8003eb2:	3104      	adds	r1, #4
 8003eb4:	5063      	str	r3, [r4, r1]
 8003eb6:	2a07      	cmp	r2, #7
 8003eb8:	d00c      	beq.n	8003ed4 <HAL_PCD_Init+0xec>
 8003eba:	2008      	movs	r0, #8
 8003ebc:	3110      	adds	r1, #16
 8003ebe:	30ff      	adds	r0, #255	@ 0xff
 8003ec0:	5260      	strh	r0, [r4, r1]
 8003ec2:	212c      	movs	r1, #44	@ 0x2c
 8003ec4:	31ff      	adds	r1, #255	@ 0xff
 8003ec6:	5463      	strb	r3, [r4, r1]
 8003ec8:	310d      	adds	r1, #13
 8003eca:	5063      	str	r3, [r4, r1]
 8003ecc:	3104      	adds	r1, #4
 8003ece:	5063      	str	r3, [r4, r1]
 8003ed0:	3104      	adds	r1, #4
 8003ed2:	5063      	str	r3, [r4, r1]
 8003ed4:	20a8      	movs	r0, #168	@ 0xa8
 8003ed6:	2300      	movs	r3, #0
 8003ed8:	0040      	lsls	r0, r0, #1
 8003eda:	5223      	strh	r3, [r4, r0]
 8003edc:	2054      	movs	r0, #84	@ 0x54
 8003ede:	2100      	movs	r1, #0
 8003ee0:	2501      	movs	r5, #1
 8003ee2:	30ff      	adds	r0, #255	@ 0xff
 8003ee4:	5421      	strb	r1, [r4, r0]
 8003ee6:	300d      	adds	r0, #13
 8003ee8:	5023      	str	r3, [r4, r0]
 8003eea:	3004      	adds	r0, #4
 8003eec:	5023      	str	r3, [r4, r0]
 8003eee:	3004      	adds	r0, #4
 8003ef0:	5023      	str	r3, [r4, r0]
 8003ef2:	3010      	adds	r0, #16
 8003ef4:	5225      	strh	r5, [r4, r0]
 8003ef6:	207c      	movs	r0, #124	@ 0x7c
 8003ef8:	30ff      	adds	r0, #255	@ 0xff
 8003efa:	5421      	strb	r1, [r4, r0]
 8003efc:	300d      	adds	r0, #13
 8003efe:	5023      	str	r3, [r4, r0]
 8003f00:	3004      	adds	r0, #4
 8003f02:	5023      	str	r3, [r4, r0]
 8003f04:	3004      	adds	r0, #4
 8003f06:	5023      	str	r3, [r4, r0]
 8003f08:	2a02      	cmp	r2, #2
 8003f0a:	d04f      	beq.n	8003fac <HAL_PCD_Init+0x1c4>
 8003f0c:	3010      	adds	r0, #16
 8003f0e:	3501      	adds	r5, #1
 8003f10:	5225      	strh	r5, [r4, r0]
 8003f12:	20a4      	movs	r0, #164	@ 0xa4
 8003f14:	30ff      	adds	r0, #255	@ 0xff
 8003f16:	5421      	strb	r1, [r4, r0]
 8003f18:	300d      	adds	r0, #13
 8003f1a:	5023      	str	r3, [r4, r0]
 8003f1c:	3004      	adds	r0, #4
 8003f1e:	5023      	str	r3, [r4, r0]
 8003f20:	3004      	adds	r0, #4
 8003f22:	5023      	str	r3, [r4, r0]
 8003f24:	2a03      	cmp	r2, #3
 8003f26:	d041      	beq.n	8003fac <HAL_PCD_Init+0x1c4>
 8003f28:	3010      	adds	r0, #16
 8003f2a:	3501      	adds	r5, #1
 8003f2c:	5225      	strh	r5, [r4, r0]
 8003f2e:	20cc      	movs	r0, #204	@ 0xcc
 8003f30:	30ff      	adds	r0, #255	@ 0xff
 8003f32:	5421      	strb	r1, [r4, r0]
 8003f34:	300d      	adds	r0, #13
 8003f36:	5023      	str	r3, [r4, r0]
 8003f38:	3004      	adds	r0, #4
 8003f3a:	5023      	str	r3, [r4, r0]
 8003f3c:	3004      	adds	r0, #4
 8003f3e:	5023      	str	r3, [r4, r0]
 8003f40:	2a04      	cmp	r2, #4
 8003f42:	d033      	beq.n	8003fac <HAL_PCD_Init+0x1c4>
 8003f44:	3010      	adds	r0, #16
 8003f46:	3501      	adds	r5, #1
 8003f48:	5225      	strh	r5, [r4, r0]
 8003f4a:	20f4      	movs	r0, #244	@ 0xf4
 8003f4c:	30ff      	adds	r0, #255	@ 0xff
 8003f4e:	5421      	strb	r1, [r4, r0]
 8003f50:	300d      	adds	r0, #13
 8003f52:	5023      	str	r3, [r4, r0]
 8003f54:	3004      	adds	r0, #4
 8003f56:	5023      	str	r3, [r4, r0]
 8003f58:	3004      	adds	r0, #4
 8003f5a:	5023      	str	r3, [r4, r0]
 8003f5c:	2a05      	cmp	r2, #5
 8003f5e:	d025      	beq.n	8003fac <HAL_PCD_Init+0x1c4>
 8003f60:	3010      	adds	r0, #16
 8003f62:	3501      	adds	r5, #1
 8003f64:	5225      	strh	r5, [r4, r0]
 8003f66:	4823      	ldr	r0, [pc, #140]	@ (8003ff4 <HAL_PCD_Init+0x20c>)
 8003f68:	5421      	strb	r1, [r4, r0]
 8003f6a:	300d      	adds	r0, #13
 8003f6c:	5023      	str	r3, [r4, r0]
 8003f6e:	3004      	adds	r0, #4
 8003f70:	5023      	str	r3, [r4, r0]
 8003f72:	3004      	adds	r0, #4
 8003f74:	5023      	str	r3, [r4, r0]
 8003f76:	2a06      	cmp	r2, #6
 8003f78:	d018      	beq.n	8003fac <HAL_PCD_Init+0x1c4>
 8003f7a:	3010      	adds	r0, #16
 8003f7c:	3501      	adds	r5, #1
 8003f7e:	5225      	strh	r5, [r4, r0]
 8003f80:	481d      	ldr	r0, [pc, #116]	@ (8003ff8 <HAL_PCD_Init+0x210>)
 8003f82:	5421      	strb	r1, [r4, r0]
 8003f84:	300d      	adds	r0, #13
 8003f86:	5023      	str	r3, [r4, r0]
 8003f88:	3004      	adds	r0, #4
 8003f8a:	5023      	str	r3, [r4, r0]
 8003f8c:	3004      	adds	r0, #4
 8003f8e:	5023      	str	r3, [r4, r0]
 8003f90:	2a07      	cmp	r2, #7
 8003f92:	d00b      	beq.n	8003fac <HAL_PCD_Init+0x1c4>
 8003f94:	229a      	movs	r2, #154	@ 0x9a
 8003f96:	2007      	movs	r0, #7
 8003f98:	0092      	lsls	r2, r2, #2
 8003f9a:	52a0      	strh	r0, [r4, r2]
 8003f9c:	4a17      	ldr	r2, [pc, #92]	@ (8003ffc <HAL_PCD_Init+0x214>)
 8003f9e:	54a1      	strb	r1, [r4, r2]
 8003fa0:	320d      	adds	r2, #13
 8003fa2:	50a3      	str	r3, [r4, r2]
 8003fa4:	3204      	adds	r2, #4
 8003fa6:	50a3      	str	r3, [r4, r2]
 8003fa8:	3204      	adds	r2, #4
 8003faa:	50a3      	str	r3, [r4, r2]
 8003fac:	68a2      	ldr	r2, [r4, #8]
 8003fae:	6820      	ldr	r0, [r4, #0]
 8003fb0:	6861      	ldr	r1, [r4, #4]
 8003fb2:	f001 ff09 	bl	8005dc8 <USB_DevInit>
 8003fb6:	2300      	movs	r3, #0
 8003fb8:	2201      	movs	r2, #1
 8003fba:	7323      	strb	r3, [r4, #12]
 8003fbc:	4b0c      	ldr	r3, [pc, #48]	@ (8003ff0 <HAL_PCD_Init+0x208>)
 8003fbe:	54e2      	strb	r2, [r4, r3]
 8003fc0:	7aa3      	ldrb	r3, [r4, #10]
 8003fc2:	2b01      	cmp	r3, #1
 8003fc4:	d007      	beq.n	8003fd6 <HAL_PCD_Init+0x1ee>
 8003fc6:	2000      	movs	r0, #0
 8003fc8:	bd70      	pop	{r4, r5, r6, pc}
 8003fca:	23a4      	movs	r3, #164	@ 0xa4
 8003fcc:	009b      	lsls	r3, r3, #2
 8003fce:	54c2      	strb	r2, [r0, r3]
 8003fd0:	f003 fc24 	bl	800781c <HAL_PCD_MspInit>
 8003fd4:	e712      	b.n	8003dfc <HAL_PCD_Init+0x14>
 8003fd6:	0020      	movs	r0, r4
 8003fd8:	f000 ff14 	bl	8004e04 <HAL_PCDEx_ActivateLPM>
 8003fdc:	e7f3      	b.n	8003fc6 <HAL_PCD_Init+0x1de>
 8003fde:	2001      	movs	r0, #1
 8003fe0:	e7f2      	b.n	8003fc8 <HAL_PCD_Init+0x1e0>
 8003fe2:	22a8      	movs	r2, #168	@ 0xa8
 8003fe4:	0052      	lsls	r2, r2, #1
 8003fe6:	52a3      	strh	r3, [r4, r2]
 8003fe8:	2254      	movs	r2, #84	@ 0x54
 8003fea:	2100      	movs	r1, #0
 8003fec:	32ff      	adds	r2, #255	@ 0xff
 8003fee:	e7d6      	b.n	8003f9e <HAL_PCD_Init+0x1b6>
 8003ff0:	00000291 	.word	0x00000291
 8003ff4:	0000021b 	.word	0x0000021b
 8003ff8:	00000243 	.word	0x00000243
 8003ffc:	0000026b 	.word	0x0000026b

08004000 <HAL_PCD_Start>:
 8004000:	b570      	push	{r4, r5, r6, lr}
 8004002:	25a4      	movs	r5, #164	@ 0xa4
 8004004:	00ad      	lsls	r5, r5, #2
 8004006:	5d43      	ldrb	r3, [r0, r5]
 8004008:	0004      	movs	r4, r0
 800400a:	2b01      	cmp	r3, #1
 800400c:	d00b      	beq.n	8004026 <HAL_PCD_Start+0x26>
 800400e:	2301      	movs	r3, #1
 8004010:	5543      	strb	r3, [r0, r5]
 8004012:	6800      	ldr	r0, [r0, #0]
 8004014:	f001 fec4 	bl	8005da0 <USB_EnableGlobalInt>
 8004018:	6820      	ldr	r0, [r4, #0]
 800401a:	f002 fc2b 	bl	8006874 <USB_DevConnect>
 800401e:	2300      	movs	r3, #0
 8004020:	2000      	movs	r0, #0
 8004022:	5563      	strb	r3, [r4, r5]
 8004024:	bd70      	pop	{r4, r5, r6, pc}
 8004026:	2002      	movs	r0, #2
 8004028:	e7fc      	b.n	8004024 <HAL_PCD_Start+0x24>
 800402a:	46c0      	nop			@ (mov r8, r8)

0800402c <HAL_PCD_IRQHandler>:
 800402c:	b5f0      	push	{r4, r5, r6, r7, lr}
 800402e:	46de      	mov	lr, fp
 8004030:	464e      	mov	r6, r9
 8004032:	4657      	mov	r7, sl
 8004034:	4645      	mov	r5, r8
 8004036:	b5e0      	push	{r5, r6, r7, lr}
 8004038:	0004      	movs	r4, r0
 800403a:	b085      	sub	sp, #20
 800403c:	6800      	ldr	r0, [r0, #0]
 800403e:	f002 fc21 	bl	8006884 <USB_ReadInterrupts>
 8004042:	2380      	movs	r3, #128	@ 0x80
 8004044:	0006      	movs	r6, r0
 8004046:	021b      	lsls	r3, r3, #8
 8004048:	401e      	ands	r6, r3
 800404a:	4218      	tst	r0, r3
 800404c:	d12f      	bne.n	80040ae <HAL_PCD_IRQHandler+0x82>
 800404e:	0543      	lsls	r3, r0, #21
 8004050:	d500      	bpl.n	8004054 <HAL_PCD_IRQHandler+0x28>
 8004052:	e17c      	b.n	800434e <HAL_PCD_IRQHandler+0x322>
 8004054:	0443      	lsls	r3, r0, #17
 8004056:	d41d      	bmi.n	8004094 <HAL_PCD_IRQHandler+0x68>
 8004058:	2380      	movs	r3, #128	@ 0x80
 800405a:	0005      	movs	r5, r0
 800405c:	019b      	lsls	r3, r3, #6
 800405e:	401d      	ands	r5, r3
 8004060:	4218      	tst	r0, r3
 8004062:	d000      	beq.n	8004066 <HAL_PCD_IRQHandler+0x3a>
 8004064:	e1f1      	b.n	800444a <HAL_PCD_IRQHandler+0x41e>
 8004066:	04c3      	lsls	r3, r0, #19
 8004068:	d500      	bpl.n	800406c <HAL_PCD_IRQHandler+0x40>
 800406a:	e08c      	b.n	8004186 <HAL_PCD_IRQHandler+0x15a>
 800406c:	0503      	lsls	r3, r0, #20
 800406e:	d500      	bpl.n	8004072 <HAL_PCD_IRQHandler+0x46>
 8004070:	e31e      	b.n	80046b0 <HAL_PCD_IRQHandler+0x684>
 8004072:	2380      	movs	r3, #128	@ 0x80
 8004074:	4203      	tst	r3, r0
 8004076:	d000      	beq.n	800407a <HAL_PCD_IRQHandler+0x4e>
 8004078:	e2f8      	b.n	800466c <HAL_PCD_IRQHandler+0x640>
 800407a:	0583      	lsls	r3, r0, #22
 800407c:	d501      	bpl.n	8004082 <HAL_PCD_IRQHandler+0x56>
 800407e:	f000 fc0c 	bl	800489a <HAL_PCD_IRQHandler+0x86e>
 8004082:	05c0      	lsls	r0, r0, #23
 8004084:	d50c      	bpl.n	80040a0 <HAL_PCD_IRQHandler+0x74>
 8004086:	2244      	movs	r2, #68	@ 0x44
 8004088:	6821      	ldr	r1, [r4, #0]
 800408a:	48bd      	ldr	r0, [pc, #756]	@ (8004380 <HAL_PCD_IRQHandler+0x354>)
 800408c:	5a8b      	ldrh	r3, [r1, r2]
 800408e:	4003      	ands	r3, r0
 8004090:	528b      	strh	r3, [r1, r2]
 8004092:	e005      	b.n	80040a0 <HAL_PCD_IRQHandler+0x74>
 8004094:	2244      	movs	r2, #68	@ 0x44
 8004096:	6821      	ldr	r1, [r4, #0]
 8004098:	48ba      	ldr	r0, [pc, #744]	@ (8004384 <HAL_PCD_IRQHandler+0x358>)
 800409a:	5a8b      	ldrh	r3, [r1, r2]
 800409c:	4003      	ands	r3, r0
 800409e:	528b      	strh	r3, [r1, r2]
 80040a0:	b005      	add	sp, #20
 80040a2:	bcf0      	pop	{r4, r5, r6, r7}
 80040a4:	46bb      	mov	fp, r7
 80040a6:	46b2      	mov	sl, r6
 80040a8:	46a9      	mov	r9, r5
 80040aa:	46a0      	mov	r8, r4
 80040ac:	bdf0      	pop	{r4, r5, r6, r7, pc}
 80040ae:	2344      	movs	r3, #68	@ 0x44
 80040b0:	6820      	ldr	r0, [r4, #0]
 80040b2:	5ac3      	ldrh	r3, [r0, r3]
 80040b4:	b21b      	sxth	r3, r3
 80040b6:	2b00      	cmp	r3, #0
 80040b8:	daf2      	bge.n	80040a0 <HAL_PCD_IRQHandler+0x74>
 80040ba:	2344      	movs	r3, #68	@ 0x44
 80040bc:	469b      	mov	fp, r3
 80040be:	3b35      	subs	r3, #53	@ 0x35
 80040c0:	469a      	mov	sl, r3
 80040c2:	e010      	b.n	80040e6 <HAL_PCD_IRQHandler+0xba>
 80040c4:	8803      	ldrh	r3, [r0, #0]
 80040c6:	06d2      	lsls	r2, r2, #27
 80040c8:	d400      	bmi.n	80040cc <HAL_PCD_IRQHandler+0xa0>
 80040ca:	e0c1      	b.n	8004250 <HAL_PCD_IRQHandler+0x224>
 80040cc:	b29a      	uxth	r2, r3
 80040ce:	051b      	lsls	r3, r3, #20
 80040d0:	d500      	bpl.n	80040d4 <HAL_PCD_IRQHandler+0xa8>
 80040d2:	e0e7      	b.n	80042a4 <HAL_PCD_IRQHandler+0x278>
 80040d4:	b212      	sxth	r2, r2
 80040d6:	2a00      	cmp	r2, #0
 80040d8:	da00      	bge.n	80040dc <HAL_PCD_IRQHandler+0xb0>
 80040da:	e167      	b.n	80043ac <HAL_PCD_IRQHandler+0x380>
 80040dc:	465b      	mov	r3, fp
 80040de:	5ac3      	ldrh	r3, [r0, r3]
 80040e0:	b21b      	sxth	r3, r3
 80040e2:	2b00      	cmp	r3, #0
 80040e4:	dadc      	bge.n	80040a0 <HAL_PCD_IRQHandler+0x74>
 80040e6:	465b      	mov	r3, fp
 80040e8:	4655      	mov	r5, sl
 80040ea:	4651      	mov	r1, sl
 80040ec:	5ac3      	ldrh	r3, [r0, r3]
 80040ee:	b29a      	uxth	r2, r3
 80040f0:	401d      	ands	r5, r3
 80040f2:	4219      	tst	r1, r3
 80040f4:	d0e6      	beq.n	80040c4 <HAL_PCD_IRQHandler+0x98>
 80040f6:	00ae      	lsls	r6, r5, #2
 80040f8:	1982      	adds	r2, r0, r6
 80040fa:	8813      	ldrh	r3, [r2, #0]
 80040fc:	9600      	str	r6, [sp, #0]
 80040fe:	b29f      	uxth	r7, r3
 8004100:	b21b      	sxth	r3, r3
 8004102:	2b00      	cmp	r3, #0
 8004104:	db59      	blt.n	80041ba <HAL_PCD_IRQHandler+0x18e>
 8004106:	2380      	movs	r3, #128	@ 0x80
 8004108:	423b      	tst	r3, r7
 800410a:	d0e7      	beq.n	80040dc <HAL_PCD_IRQHandler+0xb0>
 800410c:	9e00      	ldr	r6, [sp, #0]
 800410e:	499e      	ldr	r1, [pc, #632]	@ (8004388 <HAL_PCD_IRQHandler+0x35c>)
 8004110:	1982      	adds	r2, r0, r6
 8004112:	8813      	ldrh	r3, [r2, #0]
 8004114:	400b      	ands	r3, r1
 8004116:	499d      	ldr	r1, [pc, #628]	@ (800438c <HAL_PCD_IRQHandler+0x360>)
 8004118:	430b      	orrs	r3, r1
 800411a:	468c      	mov	ip, r1
 800411c:	1971      	adds	r1, r6, r5
 800411e:	b29b      	uxth	r3, r3
 8004120:	00c9      	lsls	r1, r1, #3
 8004122:	8013      	strh	r3, [r2, #0]
 8004124:	1862      	adds	r2, r4, r1
 8004126:	7cd3      	ldrb	r3, [r2, #19]
 8004128:	2b01      	cmp	r3, #1
 800412a:	d100      	bne.n	800412e <HAL_PCD_IRQHandler+0x102>
 800412c:	e194      	b.n	8004458 <HAL_PCD_IRQHandler+0x42c>
 800412e:	6a96      	ldr	r6, [r2, #40]	@ 0x28
 8004130:	7c13      	ldrb	r3, [r2, #16]
 8004132:	9601      	str	r6, [sp, #4]
 8004134:	2680      	movs	r6, #128	@ 0x80
 8004136:	0076      	lsls	r6, r6, #1
 8004138:	46b0      	mov	r8, r6
 800413a:	403e      	ands	r6, r7
 800413c:	9603      	str	r6, [sp, #12]
 800413e:	4646      	mov	r6, r8
 8004140:	4699      	mov	r9, r3
 8004142:	00db      	lsls	r3, r3, #3
 8004144:	9302      	str	r3, [sp, #8]
 8004146:	4237      	tst	r7, r6
 8004148:	d000      	beq.n	800414c <HAL_PCD_IRQHandler+0x120>
 800414a:	e1bd      	b.n	80044c8 <HAL_PCD_IRQHandler+0x49c>
 800414c:	2550      	movs	r5, #80	@ 0x50
 800414e:	469c      	mov	ip, r3
 8004150:	5b45      	ldrh	r5, [r0, r5]
 8004152:	4e8f      	ldr	r6, [pc, #572]	@ (8004390 <HAL_PCD_IRQHandler+0x364>)
 8004154:	4465      	add	r5, ip
 8004156:	46b4      	mov	ip, r6
 8004158:	182d      	adds	r5, r5, r0
 800415a:	4465      	add	r5, ip
 800415c:	882d      	ldrh	r5, [r5, #0]
 800415e:	9b01      	ldr	r3, [sp, #4]
 8004160:	05ad      	lsls	r5, r5, #22
 8004162:	0dad      	lsrs	r5, r5, #22
 8004164:	429d      	cmp	r5, r3
 8004166:	d300      	bcc.n	800416a <HAL_PCD_IRQHandler+0x13e>
 8004168:	e1a6      	b.n	80044b8 <HAL_PCD_IRQHandler+0x48c>
 800416a:	1b5b      	subs	r3, r3, r5
 800416c:	6293      	str	r3, [r2, #40]	@ 0x28
 800416e:	6a53      	ldr	r3, [r2, #36]	@ 0x24
 8004170:	3110      	adds	r1, #16
 8004172:	195b      	adds	r3, r3, r5
 8004174:	6253      	str	r3, [r2, #36]	@ 0x24
 8004176:	6ad3      	ldr	r3, [r2, #44]	@ 0x2c
 8004178:	1861      	adds	r1, r4, r1
 800417a:	195b      	adds	r3, r3, r5
 800417c:	62d3      	str	r3, [r2, #44]	@ 0x2c
 800417e:	f002 f815 	bl	80061ac <USB_EPStartXfer>
 8004182:	6820      	ldr	r0, [r4, #0]
 8004184:	e7aa      	b.n	80040dc <HAL_PCD_IRQHandler+0xb0>
 8004186:	2340      	movs	r3, #64	@ 0x40
 8004188:	2004      	movs	r0, #4
 800418a:	6822      	ldr	r2, [r4, #0]
 800418c:	5ad1      	ldrh	r1, [r2, r3]
 800418e:	4381      	bics	r1, r0
 8004190:	52d1      	strh	r1, [r2, r3]
 8004192:	5ad1      	ldrh	r1, [r2, r3]
 8004194:	3004      	adds	r0, #4
 8004196:	4381      	bics	r1, r0
 8004198:	52d1      	strh	r1, [r2, r3]
 800419a:	23b2      	movs	r3, #178	@ 0xb2
 800419c:	009b      	lsls	r3, r3, #2
 800419e:	5ce2      	ldrb	r2, [r4, r3]
 80041a0:	2a01      	cmp	r2, #1
 80041a2:	d100      	bne.n	80041a6 <HAL_PCD_IRQHandler+0x17a>
 80041a4:	e384      	b.n	80048b0 <HAL_PCD_IRQHandler+0x884>
 80041a6:	0020      	movs	r0, r4
 80041a8:	f003 fba8 	bl	80078fc <HAL_PCD_ResumeCallback>
 80041ac:	2244      	movs	r2, #68	@ 0x44
 80041ae:	6821      	ldr	r1, [r4, #0]
 80041b0:	4878      	ldr	r0, [pc, #480]	@ (8004394 <HAL_PCD_IRQHandler+0x368>)
 80041b2:	5a8b      	ldrh	r3, [r1, r2]
 80041b4:	4003      	ands	r3, r0
 80041b6:	528b      	strh	r3, [r1, r2]
 80041b8:	e772      	b.n	80040a0 <HAL_PCD_IRQHandler+0x74>
 80041ba:	8813      	ldrh	r3, [r2, #0]
 80041bc:	4976      	ldr	r1, [pc, #472]	@ (8004398 <HAL_PCD_IRQHandler+0x36c>)
 80041be:	400b      	ands	r3, r1
 80041c0:	2180      	movs	r1, #128	@ 0x80
 80041c2:	430b      	orrs	r3, r1
 80041c4:	8013      	strh	r3, [r2, #0]
 80041c6:	1973      	adds	r3, r6, r5
 80041c8:	00db      	lsls	r3, r3, #3
 80041ca:	18e3      	adds	r3, r4, r3
 80041cc:	001a      	movs	r2, r3
 80041ce:	325d      	adds	r2, #93	@ 0x5d
 80041d0:	32ff      	adds	r2, #255	@ 0xff
 80041d2:	7812      	ldrb	r2, [r2, #0]
 80041d4:	2a00      	cmp	r2, #0
 80041d6:	d000      	beq.n	80041da <HAL_PCD_IRQHandler+0x1ae>
 80041d8:	e088      	b.n	80042ec <HAL_PCD_IRQHandler+0x2c0>
 80041da:	3250      	adds	r2, #80	@ 0x50
 80041dc:	5a81      	ldrh	r1, [r0, r2]
 80041de:	001a      	movs	r2, r3
 80041e0:	3251      	adds	r2, #81	@ 0x51
 80041e2:	32ff      	adds	r2, #255	@ 0xff
 80041e4:	7812      	ldrb	r2, [r2, #0]
 80041e6:	00d2      	lsls	r2, r2, #3
 80041e8:	1852      	adds	r2, r2, r1
 80041ea:	496c      	ldr	r1, [pc, #432]	@ (800439c <HAL_PCD_IRQHandler+0x370>)
 80041ec:	1812      	adds	r2, r2, r0
 80041ee:	468c      	mov	ip, r1
 80041f0:	4462      	add	r2, ip
 80041f2:	8812      	ldrh	r2, [r2, #0]
 80041f4:	0592      	lsls	r2, r2, #22
 80041f6:	0d91      	lsrs	r1, r2, #22
 80041f8:	4688      	mov	r8, r1
 80041fa:	2a00      	cmp	r2, #0
 80041fc:	d000      	beq.n	8004200 <HAL_PCD_IRQHandler+0x1d4>
 80041fe:	e1e7      	b.n	80045d0 <HAL_PCD_IRQHandler+0x5a4>
 8004200:	2300      	movs	r3, #0
 8004202:	4698      	mov	r8, r3
 8004204:	9b00      	ldr	r3, [sp, #0]
 8004206:	1959      	adds	r1, r3, r5
 8004208:	00c9      	lsls	r1, r1, #3
 800420a:	1863      	adds	r3, r4, r1
 800420c:	0018      	movs	r0, r3
 800420e:	306d      	adds	r0, #109	@ 0x6d
 8004210:	30ff      	adds	r0, #255	@ 0xff
 8004212:	6802      	ldr	r2, [r0, #0]
 8004214:	3808      	subs	r0, #8
 8004216:	4442      	add	r2, r8
 8004218:	6082      	str	r2, [r0, #8]
 800421a:	6802      	ldr	r2, [r0, #0]
 800421c:	4442      	add	r2, r8
 800421e:	6002      	str	r2, [r0, #0]
 8004220:	001a      	movs	r2, r3
 8004222:	3269      	adds	r2, #105	@ 0x69
 8004224:	32ff      	adds	r2, #255	@ 0xff
 8004226:	6812      	ldr	r2, [r2, #0]
 8004228:	2a00      	cmp	r2, #0
 800422a:	d005      	beq.n	8004238 <HAL_PCD_IRQHandler+0x20c>
 800422c:	3361      	adds	r3, #97	@ 0x61
 800422e:	33ff      	adds	r3, #255	@ 0xff
 8004230:	681b      	ldr	r3, [r3, #0]
 8004232:	4543      	cmp	r3, r8
 8004234:	d800      	bhi.n	8004238 <HAL_PCD_IRQHandler+0x20c>
 8004236:	e1b1      	b.n	800459c <HAL_PCD_IRQHandler+0x570>
 8004238:	9b00      	ldr	r3, [sp, #0]
 800423a:	0020      	movs	r0, r4
 800423c:	195b      	adds	r3, r3, r5
 800423e:	00db      	lsls	r3, r3, #3
 8004240:	18e3      	adds	r3, r4, r3
 8004242:	3351      	adds	r3, #81	@ 0x51
 8004244:	33ff      	adds	r3, #255	@ 0xff
 8004246:	7819      	ldrb	r1, [r3, #0]
 8004248:	f003 fb12 	bl	8007870 <HAL_PCD_DataOutStageCallback>
 800424c:	6820      	ldr	r0, [r4, #0]
 800424e:	e75a      	b.n	8004106 <HAL_PCD_IRQHandler+0xda>
 8004250:	4a4d      	ldr	r2, [pc, #308]	@ (8004388 <HAL_PCD_IRQHandler+0x35c>)
 8004252:	2100      	movs	r1, #0
 8004254:	4013      	ands	r3, r2
 8004256:	2280      	movs	r2, #128	@ 0x80
 8004258:	0212      	lsls	r2, r2, #8
 800425a:	4313      	orrs	r3, r2
 800425c:	8003      	strh	r3, [r0, #0]
 800425e:	2350      	movs	r3, #80	@ 0x50
 8004260:	5ac2      	ldrh	r2, [r0, r3]
 8004262:	7c23      	ldrb	r3, [r4, #16]
 8004264:	00db      	lsls	r3, r3, #3
 8004266:	18c3      	adds	r3, r0, r3
 8004268:	189b      	adds	r3, r3, r2
 800426a:	4a49      	ldr	r2, [pc, #292]	@ (8004390 <HAL_PCD_IRQHandler+0x364>)
 800426c:	0020      	movs	r0, r4
 800426e:	4694      	mov	ip, r2
 8004270:	4463      	add	r3, ip
 8004272:	881b      	ldrh	r3, [r3, #0]
 8004274:	6a62      	ldr	r2, [r4, #36]	@ 0x24
 8004276:	059b      	lsls	r3, r3, #22
 8004278:	0d9b      	lsrs	r3, r3, #22
 800427a:	62e3      	str	r3, [r4, #44]	@ 0x2c
 800427c:	18d3      	adds	r3, r2, r3
 800427e:	6263      	str	r3, [r4, #36]	@ 0x24
 8004280:	f003 fb04 	bl	800788c <HAL_PCD_DataInStageCallback>
 8004284:	7b23      	ldrb	r3, [r4, #12]
 8004286:	6820      	ldr	r0, [r4, #0]
 8004288:	2b00      	cmp	r3, #0
 800428a:	d100      	bne.n	800428e <HAL_PCD_IRQHandler+0x262>
 800428c:	e726      	b.n	80040dc <HAL_PCD_IRQHandler+0xb0>
 800428e:	6aa3      	ldr	r3, [r4, #40]	@ 0x28
 8004290:	2b00      	cmp	r3, #0
 8004292:	d000      	beq.n	8004296 <HAL_PCD_IRQHandler+0x26a>
 8004294:	e722      	b.n	80040dc <HAL_PCD_IRQHandler+0xb0>
 8004296:	2180      	movs	r1, #128	@ 0x80
 8004298:	7b22      	ldrb	r2, [r4, #12]
 800429a:	430a      	orrs	r2, r1
 800429c:	3934      	subs	r1, #52	@ 0x34
 800429e:	5242      	strh	r2, [r0, r1]
 80042a0:	7323      	strb	r3, [r4, #12]
 80042a2:	e71b      	b.n	80040dc <HAL_PCD_IRQHandler+0xb0>
 80042a4:	2350      	movs	r3, #80	@ 0x50
 80042a6:	5ac2      	ldrh	r2, [r0, r3]
 80042a8:	3301      	adds	r3, #1
 80042aa:	33ff      	adds	r3, #255	@ 0xff
 80042ac:	5ce3      	ldrb	r3, [r4, r3]
 80042ae:	21a6      	movs	r1, #166	@ 0xa6
 80042b0:	00db      	lsls	r3, r3, #3
 80042b2:	18c3      	adds	r3, r0, r3
 80042b4:	189b      	adds	r3, r3, r2
 80042b6:	4a39      	ldr	r2, [pc, #228]	@ (800439c <HAL_PCD_IRQHandler+0x370>)
 80042b8:	0089      	lsls	r1, r1, #2
 80042ba:	4694      	mov	ip, r2
 80042bc:	0022      	movs	r2, r4
 80042be:	4463      	add	r3, ip
 80042c0:	881b      	ldrh	r3, [r3, #0]
 80042c2:	3251      	adds	r2, #81	@ 0x51
 80042c4:	059b      	lsls	r3, r3, #22
 80042c6:	0d9b      	lsrs	r3, r3, #22
 80042c8:	32ff      	adds	r2, #255	@ 0xff
 80042ca:	61d3      	str	r3, [r2, #28]
 80042cc:	1861      	adds	r1, r4, r1
 80042ce:	88d2      	ldrh	r2, [r2, #6]
 80042d0:	f002 faf4 	bl	80068bc <USB_ReadPMA>
 80042d4:	6822      	ldr	r2, [r4, #0]
 80042d6:	4930      	ldr	r1, [pc, #192]	@ (8004398 <HAL_PCD_IRQHandler+0x36c>)
 80042d8:	8813      	ldrh	r3, [r2, #0]
 80042da:	0020      	movs	r0, r4
 80042dc:	400b      	ands	r3, r1
 80042de:	2180      	movs	r1, #128	@ 0x80
 80042e0:	430b      	orrs	r3, r1
 80042e2:	8013      	strh	r3, [r2, #0]
 80042e4:	f003 faba 	bl	800785c <HAL_PCD_SetupStageCallback>
 80042e8:	6820      	ldr	r0, [r4, #0]
 80042ea:	e6f7      	b.n	80040dc <HAL_PCD_IRQHandler+0xb0>
 80042ec:	2654      	movs	r6, #84	@ 0x54
 80042ee:	36ff      	adds	r6, #255	@ 0xff
 80042f0:	46b4      	mov	ip, r6
 80042f2:	449c      	add	ip, r3
 80042f4:	0019      	movs	r1, r3
 80042f6:	4666      	mov	r6, ip
 80042f8:	3151      	adds	r1, #81	@ 0x51
 80042fa:	7836      	ldrb	r6, [r6, #0]
 80042fc:	31ff      	adds	r1, #255	@ 0xff
 80042fe:	780a      	ldrb	r2, [r1, #0]
 8004300:	2e02      	cmp	r6, #2
 8004302:	d100      	bne.n	8004306 <HAL_PCD_IRQHandler+0x2da>
 8004304:	e1fe      	b.n	8004704 <HAL_PCD_IRQHandler+0x6d8>
 8004306:	0092      	lsls	r2, r2, #2
 8004308:	4694      	mov	ip, r2
 800430a:	4484      	add	ip, r0
 800430c:	4662      	mov	r2, ip
 800430e:	4e24      	ldr	r6, [pc, #144]	@ (80043a0 <HAL_PCD_IRQHandler+0x374>)
 8004310:	8812      	ldrh	r2, [r2, #0]
 8004312:	4032      	ands	r2, r6
 8004314:	4e23      	ldr	r6, [pc, #140]	@ (80043a4 <HAL_PCD_IRQHandler+0x378>)
 8004316:	4332      	orrs	r2, r6
 8004318:	4666      	mov	r6, ip
 800431a:	8032      	strh	r2, [r6, #0]
 800431c:	780a      	ldrb	r2, [r1, #0]
 800431e:	0091      	lsls	r1, r2, #2
 8004320:	1841      	adds	r1, r0, r1
 8004322:	8809      	ldrh	r1, [r1, #0]
 8004324:	0449      	lsls	r1, r1, #17
 8004326:	d400      	bmi.n	800432a <HAL_PCD_IRQHandler+0x2fe>
 8004328:	e140      	b.n	80045ac <HAL_PCD_IRQHandler+0x580>
 800432a:	2150      	movs	r1, #80	@ 0x50
 800432c:	5a41      	ldrh	r1, [r0, r1]
 800432e:	00d2      	lsls	r2, r2, #3
 8004330:	1852      	adds	r2, r2, r1
 8004332:	4917      	ldr	r1, [pc, #92]	@ (8004390 <HAL_PCD_IRQHandler+0x364>)
 8004334:	1812      	adds	r2, r2, r0
 8004336:	468c      	mov	ip, r1
 8004338:	4462      	add	r2, ip
 800433a:	8812      	ldrh	r2, [r2, #0]
 800433c:	0592      	lsls	r2, r2, #22
 800433e:	0d91      	lsrs	r1, r2, #22
 8004340:	4688      	mov	r8, r1
 8004342:	2a00      	cmp	r2, #0
 8004344:	d100      	bne.n	8004348 <HAL_PCD_IRQHandler+0x31c>
 8004346:	e75b      	b.n	8004200 <HAL_PCD_IRQHandler+0x1d4>
 8004348:	001a      	movs	r2, r3
 800434a:	3259      	adds	r2, #89	@ 0x59
 800434c:	e142      	b.n	80045d4 <HAL_PCD_IRQHandler+0x5a8>
 800434e:	2244      	movs	r2, #68	@ 0x44
 8004350:	25a4      	movs	r5, #164	@ 0xa4
 8004352:	6821      	ldr	r1, [r4, #0]
 8004354:	4814      	ldr	r0, [pc, #80]	@ (80043a8 <HAL_PCD_IRQHandler+0x37c>)
 8004356:	5a8b      	ldrh	r3, [r1, r2]
 8004358:	00ad      	lsls	r5, r5, #2
 800435a:	4003      	ands	r3, r0
 800435c:	528b      	strh	r3, [r1, r2]
 800435e:	0020      	movs	r0, r4
 8004360:	f003 faa8 	bl	80078b4 <HAL_PCD_ResetCallback>
 8004364:	5d63      	ldrb	r3, [r4, r5]
 8004366:	2b01      	cmp	r3, #1
 8004368:	d100      	bne.n	800436c <HAL_PCD_IRQHandler+0x340>
 800436a:	e699      	b.n	80040a0 <HAL_PCD_IRQHandler+0x74>
 800436c:	2301      	movs	r3, #1
 800436e:	5563      	strb	r3, [r4, r5]
 8004370:	2100      	movs	r1, #0
 8004372:	6820      	ldr	r0, [r4, #0]
 8004374:	7326      	strb	r6, [r4, #12]
 8004376:	f002 fa75 	bl	8006864 <USB_SetDevAddress>
 800437a:	5566      	strb	r6, [r4, r5]
 800437c:	e690      	b.n	80040a0 <HAL_PCD_IRQHandler+0x74>
 800437e:	46c0      	nop			@ (mov r8, r8)
 8004380:	fffffeff 	.word	0xfffffeff
 8004384:	ffffbfff 	.word	0xffffbfff
 8004388:	ffff8f0f 	.word	0xffff8f0f
 800438c:	ffff8000 	.word	0xffff8000
 8004390:	00000402 	.word	0x00000402
 8004394:	ffffefff 	.word	0xffffefff
 8004398:	00000f8f 	.word	0x00000f8f
 800439c:	00000406 	.word	0x00000406
 80043a0:	ffff8f8f 	.word	0xffff8f8f
 80043a4:	000080c0 	.word	0x000080c0
 80043a8:	fffffbff 	.word	0xfffffbff
 80043ac:	8803      	ldrh	r3, [r0, #0]
 80043ae:	4aca      	ldr	r2, [pc, #808]	@ (80046d8 <HAL_PCD_IRQHandler+0x6ac>)
 80043b0:	0025      	movs	r5, r4
 80043b2:	4013      	ands	r3, r2
 80043b4:	2280      	movs	r2, #128	@ 0x80
 80043b6:	4313      	orrs	r3, r2
 80043b8:	8003      	strh	r3, [r0, #0]
 80043ba:	2350      	movs	r3, #80	@ 0x50
 80043bc:	5ac2      	ldrh	r2, [r0, r3]
 80043be:	3301      	adds	r3, #1
 80043c0:	33ff      	adds	r3, #255	@ 0xff
 80043c2:	5ce3      	ldrb	r3, [r4, r3]
 80043c4:	3551      	adds	r5, #81	@ 0x51
 80043c6:	00db      	lsls	r3, r3, #3
 80043c8:	18c3      	adds	r3, r0, r3
 80043ca:	189b      	adds	r3, r3, r2
 80043cc:	4ac3      	ldr	r2, [pc, #780]	@ (80046dc <HAL_PCD_IRQHandler+0x6b0>)
 80043ce:	35ff      	adds	r5, #255	@ 0xff
 80043d0:	4694      	mov	ip, r2
 80043d2:	4463      	add	r3, ip
 80043d4:	881b      	ldrh	r3, [r3, #0]
 80043d6:	059b      	lsls	r3, r3, #22
 80043d8:	0d9b      	lsrs	r3, r3, #22
 80043da:	61eb      	str	r3, [r5, #28]
 80043dc:	d00e      	beq.n	80043fc <HAL_PCD_IRQHandler+0x3d0>
 80043de:	6969      	ldr	r1, [r5, #20]
 80043e0:	2900      	cmp	r1, #0
 80043e2:	d00b      	beq.n	80043fc <HAL_PCD_IRQHandler+0x3d0>
 80043e4:	88ea      	ldrh	r2, [r5, #6]
 80043e6:	f002 fa69 	bl	80068bc <USB_ReadPMA>
 80043ea:	696b      	ldr	r3, [r5, #20]
 80043ec:	69ea      	ldr	r2, [r5, #28]
 80043ee:	0020      	movs	r0, r4
 80043f0:	189b      	adds	r3, r3, r2
 80043f2:	2100      	movs	r1, #0
 80043f4:	616b      	str	r3, [r5, #20]
 80043f6:	f003 fa3b 	bl	8007870 <HAL_PCD_DataOutStageCallback>
 80043fa:	6820      	ldr	r0, [r4, #0]
 80043fc:	8803      	ldrh	r3, [r0, #0]
 80043fe:	b29a      	uxth	r2, r3
 8004400:	051b      	lsls	r3, r3, #20
 8004402:	d500      	bpl.n	8004406 <HAL_PCD_IRQHandler+0x3da>
 8004404:	e66a      	b.n	80040dc <HAL_PCD_IRQHandler+0xb0>
 8004406:	23c0      	movs	r3, #192	@ 0xc0
 8004408:	019b      	lsls	r3, r3, #6
 800440a:	401a      	ands	r2, r3
 800440c:	429a      	cmp	r2, r3
 800440e:	d100      	bne.n	8004412 <HAL_PCD_IRQHandler+0x3e6>
 8004410:	e664      	b.n	80040dc <HAL_PCD_IRQHandler+0xb0>
 8004412:	2350      	movs	r3, #80	@ 0x50
 8004414:	5ac2      	ldrh	r2, [r0, r3]
 8004416:	4bb1      	ldr	r3, [pc, #708]	@ (80046dc <HAL_PCD_IRQHandler+0x6b0>)
 8004418:	18c3      	adds	r3, r0, r3
 800441a:	189b      	adds	r3, r3, r2
 800441c:	881a      	ldrh	r2, [r3, #0]
 800441e:	0592      	lsls	r2, r2, #22
 8004420:	0d92      	lsrs	r2, r2, #22
 8004422:	801a      	strh	r2, [r3, #0]
 8004424:	692a      	ldr	r2, [r5, #16]
 8004426:	2a00      	cmp	r2, #0
 8004428:	d000      	beq.n	800442c <HAL_PCD_IRQHandler+0x400>
 800442a:	e1be      	b.n	80047aa <HAL_PCD_IRQHandler+0x77e>
 800442c:	2180      	movs	r1, #128	@ 0x80
 800442e:	881a      	ldrh	r2, [r3, #0]
 8004430:	0209      	lsls	r1, r1, #8
 8004432:	430a      	orrs	r2, r1
 8004434:	801a      	strh	r2, [r3, #0]
 8004436:	8802      	ldrh	r2, [r0, #0]
 8004438:	4ba9      	ldr	r3, [pc, #676]	@ (80046e0 <HAL_PCD_IRQHandler+0x6b4>)
 800443a:	401a      	ands	r2, r3
 800443c:	23c0      	movs	r3, #192	@ 0xc0
 800443e:	019b      	lsls	r3, r3, #6
 8004440:	4053      	eors	r3, r2
 8004442:	4aa8      	ldr	r2, [pc, #672]	@ (80046e4 <HAL_PCD_IRQHandler+0x6b8>)
 8004444:	4313      	orrs	r3, r2
 8004446:	8003      	strh	r3, [r0, #0]
 8004448:	e648      	b.n	80040dc <HAL_PCD_IRQHandler+0xb0>
 800444a:	2244      	movs	r2, #68	@ 0x44
 800444c:	6821      	ldr	r1, [r4, #0]
 800444e:	48a6      	ldr	r0, [pc, #664]	@ (80046e8 <HAL_PCD_IRQHandler+0x6bc>)
 8004450:	5a8b      	ldrh	r3, [r1, r2]
 8004452:	4003      	ands	r3, r0
 8004454:	528b      	strh	r3, [r1, r2]
 8004456:	e623      	b.n	80040a0 <HAL_PCD_IRQHandler+0x74>
 8004458:	1c69      	adds	r1, r5, #1
 800445a:	008b      	lsls	r3, r1, #2
 800445c:	185b      	adds	r3, r3, r1
 800445e:	2100      	movs	r1, #0
 8004460:	00db      	lsls	r3, r3, #3
 8004462:	5119      	str	r1, [r3, r4]
 8004464:	7f13      	ldrb	r3, [r2, #28]
 8004466:	2b00      	cmp	r3, #0
 8004468:	d01b      	beq.n	80044a2 <HAL_PCD_IRQHandler+0x476>
 800446a:	2340      	movs	r3, #64	@ 0x40
 800446c:	001e      	movs	r6, r3
 800446e:	403e      	ands	r6, r7
 8004470:	423b      	tst	r3, r7
 8004472:	d000      	beq.n	8004476 <HAL_PCD_IRQHandler+0x44a>
 8004474:	e0f0      	b.n	8004658 <HAL_PCD_IRQHandler+0x62c>
 8004476:	7c53      	ldrb	r3, [r2, #17]
 8004478:	2b00      	cmp	r3, #0
 800447a:	d000      	beq.n	800447e <HAL_PCD_IRQHandler+0x452>
 800447c:	e22c      	b.n	80048d8 <HAL_PCD_IRQHandler+0x8ac>
 800447e:	3350      	adds	r3, #80	@ 0x50
 8004480:	5ac1      	ldrh	r1, [r0, r3]
 8004482:	7c13      	ldrb	r3, [r2, #16]
 8004484:	4a95      	ldr	r2, [pc, #596]	@ (80046dc <HAL_PCD_IRQHandler+0x6b0>)
 8004486:	00db      	lsls	r3, r3, #3
 8004488:	4690      	mov	r8, r2
 800448a:	4443      	add	r3, r8
 800448c:	181b      	adds	r3, r3, r0
 800448e:	185b      	adds	r3, r3, r1
 8004490:	4661      	mov	r1, ip
 8004492:	881a      	ldrh	r2, [r3, #0]
 8004494:	0592      	lsls	r2, r2, #22
 8004496:	0d92      	lsrs	r2, r2, #22
 8004498:	801a      	strh	r2, [r3, #0]
 800449a:	881a      	ldrh	r2, [r3, #0]
 800449c:	4311      	orrs	r1, r2
 800449e:	b28a      	uxth	r2, r1
 80044a0:	801a      	strh	r2, [r3, #0]
 80044a2:	9b00      	ldr	r3, [sp, #0]
 80044a4:	0020      	movs	r0, r4
 80044a6:	469c      	mov	ip, r3
 80044a8:	4465      	add	r5, ip
 80044aa:	00ed      	lsls	r5, r5, #3
 80044ac:	1965      	adds	r5, r4, r5
 80044ae:	7c29      	ldrb	r1, [r5, #16]
 80044b0:	f003 f9ec 	bl	800788c <HAL_PCD_DataInStageCallback>
 80044b4:	6820      	ldr	r0, [r4, #0]
 80044b6:	e611      	b.n	80040dc <HAL_PCD_IRQHandler+0xb0>
 80044b8:	9b03      	ldr	r3, [sp, #12]
 80044ba:	0020      	movs	r0, r4
 80044bc:	4649      	mov	r1, r9
 80044be:	6293      	str	r3, [r2, #40]	@ 0x28
 80044c0:	f003 f9e4 	bl	800788c <HAL_PCD_DataInStageCallback>
 80044c4:	6820      	ldr	r0, [r4, #0]
 80044c6:	e609      	b.n	80040dc <HAL_PCD_IRQHandler+0xb0>
 80044c8:	2180      	movs	r1, #128	@ 0x80
 80044ca:	01c9      	lsls	r1, r1, #7
 80044cc:	4039      	ands	r1, r7
 80044ce:	000e      	movs	r6, r1
 80044d0:	9103      	str	r1, [sp, #12]
 80044d2:	2140      	movs	r1, #64	@ 0x40
 80044d4:	000b      	movs	r3, r1
 80044d6:	403b      	ands	r3, r7
 80044d8:	4698      	mov	r8, r3
 80044da:	4239      	tst	r1, r7
 80044dc:	d100      	bne.n	80044e0 <HAL_PCD_IRQHandler+0x4b4>
 80044de:	e082      	b.n	80045e6 <HAL_PCD_IRQHandler+0x5ba>
 80044e0:	4b82      	ldr	r3, [pc, #520]	@ (80046ec <HAL_PCD_IRQHandler+0x6c0>)
 80044e2:	2750      	movs	r7, #80	@ 0x50
 80044e4:	4698      	mov	r8, r3
 80044e6:	5bc1      	ldrh	r1, [r0, r7]
 80044e8:	9b02      	ldr	r3, [sp, #8]
 80044ea:	4480      	add	r8, r0
 80044ec:	4441      	add	r1, r8
 80044ee:	5ac9      	ldrh	r1, [r1, r3]
 80044f0:	9b01      	ldr	r3, [sp, #4]
 80044f2:	0589      	lsls	r1, r1, #22
 80044f4:	0d89      	lsrs	r1, r1, #22
 80044f6:	4299      	cmp	r1, r3
 80044f8:	d300      	bcc.n	80044fc <HAL_PCD_IRQHandler+0x4d0>
 80044fa:	e1a2      	b.n	8004842 <HAL_PCD_IRQHandler+0x816>
 80044fc:	1a5b      	subs	r3, r3, r1
 80044fe:	6293      	str	r3, [r2, #40]	@ 0x28
 8004500:	2e00      	cmp	r6, #0
 8004502:	d008      	beq.n	8004516 <HAL_PCD_IRQHandler+0x4ea>
 8004504:	464b      	mov	r3, r9
 8004506:	009f      	lsls	r7, r3, #2
 8004508:	19c7      	adds	r7, r0, r7
 800450a:	883b      	ldrh	r3, [r7, #0]
 800450c:	4e78      	ldr	r6, [pc, #480]	@ (80046f0 <HAL_PCD_IRQHandler+0x6c4>)
 800450e:	4033      	ands	r3, r6
 8004510:	4e78      	ldr	r6, [pc, #480]	@ (80046f4 <HAL_PCD_IRQHandler+0x6c8>)
 8004512:	4333      	orrs	r3, r6
 8004514:	803b      	strh	r3, [r7, #0]
 8004516:	9b00      	ldr	r3, [sp, #0]
 8004518:	195b      	adds	r3, r3, r5
 800451a:	00db      	lsls	r3, r3, #3
 800451c:	18e3      	adds	r3, r4, r3
 800451e:	001f      	movs	r7, r3
 8004520:	3734      	adds	r7, #52	@ 0x34
 8004522:	783e      	ldrb	r6, [r7, #0]
 8004524:	2e01      	cmp	r6, #1
 8004526:	d000      	beq.n	800452a <HAL_PCD_IRQHandler+0x4fe>
 8004528:	e084      	b.n	8004634 <HAL_PCD_IRQHandler+0x608>
 800452a:	6a5e      	ldr	r6, [r3, #36]	@ 0x24
 800452c:	46b1      	mov	r9, r6
 800452e:	4489      	add	r9, r1
 8004530:	464e      	mov	r6, r9
 8004532:	625e      	str	r6, [r3, #36]	@ 0x24
 8004534:	6ad6      	ldr	r6, [r2, #44]	@ 0x2c
 8004536:	46b4      	mov	ip, r6
 8004538:	448c      	add	ip, r1
 800453a:	4666      	mov	r6, ip
 800453c:	62d6      	str	r6, [r2, #44]	@ 0x2c
 800453e:	6b1a      	ldr	r2, [r3, #48]	@ 0x30
 8004540:	4694      	mov	ip, r2
 8004542:	6a1a      	ldr	r2, [r3, #32]
 8004544:	4594      	cmp	ip, r2
 8004546:	d200      	bcs.n	800454a <HAL_PCD_IRQHandler+0x51e>
 8004548:	e288      	b.n	8004a5c <HAL_PCD_IRQHandler+0xa30>
 800454a:	4661      	mov	r1, ip
 800454c:	1a89      	subs	r1, r1, r2
 800454e:	6319      	str	r1, [r3, #48]	@ 0x30
 8004550:	b291      	uxth	r1, r2
 8004552:	9b00      	ldr	r3, [sp, #0]
 8004554:	195b      	adds	r3, r3, r5
 8004556:	00db      	lsls	r3, r3, #3
 8004558:	18e3      	adds	r3, r4, r3
 800455a:	7c5b      	ldrb	r3, [r3, #17]
 800455c:	2b00      	cmp	r3, #0
 800455e:	d000      	beq.n	8004562 <HAL_PCD_IRQHandler+0x536>
 8004560:	e271      	b.n	8004a46 <HAL_PCD_IRQHandler+0xa1a>
 8004562:	9e02      	ldr	r6, [sp, #8]
 8004564:	3350      	adds	r3, #80	@ 0x50
 8004566:	46b4      	mov	ip, r6
 8004568:	5ac3      	ldrh	r3, [r0, r3]
 800456a:	4443      	add	r3, r8
 800456c:	4463      	add	r3, ip
 800456e:	881f      	ldrh	r7, [r3, #0]
 8004570:	05bf      	lsls	r7, r7, #22
 8004572:	0dbf      	lsrs	r7, r7, #22
 8004574:	801f      	strh	r7, [r3, #0]
 8004576:	2a00      	cmp	r2, #0
 8004578:	d000      	beq.n	800457c <HAL_PCD_IRQHandler+0x550>
 800457a:	e2aa      	b.n	8004ad2 <HAL_PCD_IRQHandler+0xaa6>
 800457c:	2780      	movs	r7, #128	@ 0x80
 800457e:	881a      	ldrh	r2, [r3, #0]
 8004580:	023f      	lsls	r7, r7, #8
 8004582:	433a      	orrs	r2, r7
 8004584:	801a      	strh	r2, [r3, #0]
 8004586:	9b00      	ldr	r3, [sp, #0]
 8004588:	195b      	adds	r3, r3, r5
 800458a:	00db      	lsls	r3, r3, #3
 800458c:	18e3      	adds	r3, r4, r3
 800458e:	8b1a      	ldrh	r2, [r3, #24]
 8004590:	000b      	movs	r3, r1
 8004592:	4649      	mov	r1, r9
 8004594:	f002 f97a 	bl	800688c <USB_WritePMA>
 8004598:	6820      	ldr	r0, [r4, #0]
 800459a:	e04b      	b.n	8004634 <HAL_PCD_IRQHandler+0x608>
 800459c:	3151      	adds	r1, #81	@ 0x51
 800459e:	31ff      	adds	r1, #255	@ 0xff
 80045a0:	6820      	ldr	r0, [r4, #0]
 80045a2:	1861      	adds	r1, r4, r1
 80045a4:	f001 fe02 	bl	80061ac <USB_EPStartXfer>
 80045a8:	6820      	ldr	r0, [r4, #0]
 80045aa:	e5ac      	b.n	8004106 <HAL_PCD_IRQHandler+0xda>
 80045ac:	2150      	movs	r1, #80	@ 0x50
 80045ae:	5a41      	ldrh	r1, [r0, r1]
 80045b0:	00d2      	lsls	r2, r2, #3
 80045b2:	1852      	adds	r2, r2, r1
 80045b4:	4949      	ldr	r1, [pc, #292]	@ (80046dc <HAL_PCD_IRQHandler+0x6b0>)
 80045b6:	1812      	adds	r2, r2, r0
 80045b8:	468c      	mov	ip, r1
 80045ba:	4462      	add	r2, ip
 80045bc:	8812      	ldrh	r2, [r2, #0]
 80045be:	0592      	lsls	r2, r2, #22
 80045c0:	0d91      	lsrs	r1, r2, #22
 80045c2:	4688      	mov	r8, r1
 80045c4:	2a00      	cmp	r2, #0
 80045c6:	d100      	bne.n	80045ca <HAL_PCD_IRQHandler+0x59e>
 80045c8:	e61a      	b.n	8004200 <HAL_PCD_IRQHandler+0x1d4>
 80045ca:	001a      	movs	r2, r3
 80045cc:	325b      	adds	r2, #91	@ 0x5b
 80045ce:	e001      	b.n	80045d4 <HAL_PCD_IRQHandler+0x5a8>
 80045d0:	001a      	movs	r2, r3
 80045d2:	3257      	adds	r2, #87	@ 0x57
 80045d4:	3365      	adds	r3, #101	@ 0x65
 80045d6:	33ff      	adds	r3, #255	@ 0xff
 80045d8:	32ff      	adds	r2, #255	@ 0xff
 80045da:	6819      	ldr	r1, [r3, #0]
 80045dc:	8812      	ldrh	r2, [r2, #0]
 80045de:	4643      	mov	r3, r8
 80045e0:	f002 f96c 	bl	80068bc <USB_ReadPMA>
 80045e4:	e60e      	b.n	8004204 <HAL_PCD_IRQHandler+0x1d8>
 80045e6:	4b3d      	ldr	r3, [pc, #244]	@ (80046dc <HAL_PCD_IRQHandler+0x6b0>)
 80045e8:	2150      	movs	r1, #80	@ 0x50
 80045ea:	469c      	mov	ip, r3
 80045ec:	5a41      	ldrh	r1, [r0, r1]
 80045ee:	9b02      	ldr	r3, [sp, #8]
 80045f0:	4484      	add	ip, r0
 80045f2:	4461      	add	r1, ip
 80045f4:	5ac9      	ldrh	r1, [r1, r3]
 80045f6:	9b01      	ldr	r3, [sp, #4]
 80045f8:	0589      	lsls	r1, r1, #22
 80045fa:	0d89      	lsrs	r1, r1, #22
 80045fc:	4299      	cmp	r1, r3
 80045fe:	d900      	bls.n	8004602 <HAL_PCD_IRQHandler+0x5d6>
 8004600:	e0e0      	b.n	80047c4 <HAL_PCD_IRQHandler+0x798>
 8004602:	1a5b      	subs	r3, r3, r1
 8004604:	6293      	str	r3, [r2, #40]	@ 0x28
 8004606:	d100      	bne.n	800460a <HAL_PCD_IRQHandler+0x5de>
 8004608:	e0de      	b.n	80047c8 <HAL_PCD_IRQHandler+0x79c>
 800460a:	2e00      	cmp	r6, #0
 800460c:	d108      	bne.n	8004620 <HAL_PCD_IRQHandler+0x5f4>
 800460e:	464b      	mov	r3, r9
 8004610:	009f      	lsls	r7, r3, #2
 8004612:	19c7      	adds	r7, r0, r7
 8004614:	883b      	ldrh	r3, [r7, #0]
 8004616:	4e36      	ldr	r6, [pc, #216]	@ (80046f0 <HAL_PCD_IRQHandler+0x6c4>)
 8004618:	4033      	ands	r3, r6
 800461a:	4e36      	ldr	r6, [pc, #216]	@ (80046f4 <HAL_PCD_IRQHandler+0x6c8>)
 800461c:	4333      	orrs	r3, r6
 800461e:	803b      	strh	r3, [r7, #0]
 8004620:	9b00      	ldr	r3, [sp, #0]
 8004622:	195b      	adds	r3, r3, r5
 8004624:	00db      	lsls	r3, r3, #3
 8004626:	18e3      	adds	r3, r4, r3
 8004628:	001f      	movs	r7, r3
 800462a:	3734      	adds	r7, #52	@ 0x34
 800462c:	783e      	ldrb	r6, [r7, #0]
 800462e:	2e01      	cmp	r6, #1
 8004630:	d100      	bne.n	8004634 <HAL_PCD_IRQHandler+0x608>
 8004632:	e1cf      	b.n	80049d4 <HAL_PCD_IRQHandler+0x9a8>
 8004634:	9b00      	ldr	r3, [sp, #0]
 8004636:	4a30      	ldr	r2, [pc, #192]	@ (80046f8 <HAL_PCD_IRQHandler+0x6cc>)
 8004638:	469c      	mov	ip, r3
 800463a:	4465      	add	r5, ip
 800463c:	00ed      	lsls	r5, r5, #3
 800463e:	1965      	adds	r5, r4, r5
 8004640:	7c2b      	ldrb	r3, [r5, #16]
 8004642:	009b      	lsls	r3, r3, #2
 8004644:	18c3      	adds	r3, r0, r3
 8004646:	8819      	ldrh	r1, [r3, #0]
 8004648:	4011      	ands	r1, r2
 800464a:	2230      	movs	r2, #48	@ 0x30
 800464c:	4051      	eors	r1, r2
 800464e:	4a2b      	ldr	r2, [pc, #172]	@ (80046fc <HAL_PCD_IRQHandler+0x6d0>)
 8004650:	430a      	orrs	r2, r1
 8004652:	b292      	uxth	r2, r2
 8004654:	801a      	strh	r2, [r3, #0]
 8004656:	e541      	b.n	80040dc <HAL_PCD_IRQHandler+0xb0>
 8004658:	7c53      	ldrb	r3, [r2, #17]
 800465a:	2b00      	cmp	r3, #0
 800465c:	d000      	beq.n	8004660 <HAL_PCD_IRQHandler+0x634>
 800465e:	e12d      	b.n	80048bc <HAL_PCD_IRQHandler+0x890>
 8004660:	3350      	adds	r3, #80	@ 0x50
 8004662:	5ac1      	ldrh	r1, [r0, r3]
 8004664:	7c13      	ldrb	r3, [r2, #16]
 8004666:	4a21      	ldr	r2, [pc, #132]	@ (80046ec <HAL_PCD_IRQHandler+0x6c0>)
 8004668:	00db      	lsls	r3, r3, #3
 800466a:	e70d      	b.n	8004488 <HAL_PCD_IRQHandler+0x45c>
 800466c:	2044      	movs	r0, #68	@ 0x44
 800466e:	6822      	ldr	r2, [r4, #0]
 8004670:	5a11      	ldrh	r1, [r2, r0]
 8004672:	4399      	bics	r1, r3
 8004674:	23b2      	movs	r3, #178	@ 0xb2
 8004676:	5211      	strh	r1, [r2, r0]
 8004678:	009b      	lsls	r3, r3, #2
 800467a:	5ce1      	ldrb	r1, [r4, r3]
 800467c:	2900      	cmp	r1, #0
 800467e:	d000      	beq.n	8004682 <HAL_PCD_IRQHandler+0x656>
 8004680:	e08f      	b.n	80047a2 <HAL_PCD_IRQHandler+0x776>
 8004682:	2504      	movs	r5, #4
 8004684:	3140      	adds	r1, #64	@ 0x40
 8004686:	5a50      	ldrh	r0, [r2, r1]
 8004688:	4328      	orrs	r0, r5
 800468a:	5250      	strh	r0, [r2, r1]
 800468c:	5a50      	ldrh	r0, [r2, r1]
 800468e:	3504      	adds	r5, #4
 8004690:	4328      	orrs	r0, r5
 8004692:	5250      	strh	r0, [r2, r1]
 8004694:	393f      	subs	r1, #63	@ 0x3f
 8004696:	54e1      	strb	r1, [r4, r3]
 8004698:	2354      	movs	r3, #84	@ 0x54
 800469a:	5ad2      	ldrh	r2, [r2, r3]
 800469c:	3b18      	subs	r3, #24
 800469e:	0892      	lsrs	r2, r2, #2
 80046a0:	4013      	ands	r3, r2
 80046a2:	22b3      	movs	r2, #179	@ 0xb3
 80046a4:	0092      	lsls	r2, r2, #2
 80046a6:	0020      	movs	r0, r4
 80046a8:	50a3      	str	r3, [r4, r2]
 80046aa:	f000 fbbf 	bl	8004e2c <HAL_PCDEx_LPM_Callback>
 80046ae:	e4f7      	b.n	80040a0 <HAL_PCD_IRQHandler+0x74>
 80046b0:	2240      	movs	r2, #64	@ 0x40
 80046b2:	2008      	movs	r0, #8
 80046b4:	6823      	ldr	r3, [r4, #0]
 80046b6:	4d12      	ldr	r5, [pc, #72]	@ (8004700 <HAL_PCD_IRQHandler+0x6d4>)
 80046b8:	5a99      	ldrh	r1, [r3, r2]
 80046ba:	4301      	orrs	r1, r0
 80046bc:	5299      	strh	r1, [r3, r2]
 80046be:	303c      	adds	r0, #60	@ 0x3c
 80046c0:	5a19      	ldrh	r1, [r3, r0]
 80046c2:	4029      	ands	r1, r5
 80046c4:	5219      	strh	r1, [r3, r0]
 80046c6:	5a99      	ldrh	r1, [r3, r2]
 80046c8:	3840      	subs	r0, #64	@ 0x40
 80046ca:	4301      	orrs	r1, r0
 80046cc:	5299      	strh	r1, [r3, r2]
 80046ce:	0020      	movs	r0, r4
 80046d0:	f003 f902 	bl	80078d8 <HAL_PCD_SuspendCallback>
 80046d4:	e4e4      	b.n	80040a0 <HAL_PCD_IRQHandler+0x74>
 80046d6:	46c0      	nop			@ (mov r8, r8)
 80046d8:	00000f8f 	.word	0x00000f8f
 80046dc:	00000406 	.word	0x00000406
 80046e0:	ffffbf8f 	.word	0xffffbf8f
 80046e4:	00008080 	.word	0x00008080
 80046e8:	ffffdfff 	.word	0xffffdfff
 80046ec:	00000402 	.word	0x00000402
 80046f0:	ffff8f8f 	.word	0xffff8f8f
 80046f4:	0000c080 	.word	0x0000c080
 80046f8:	ffff8fbf 	.word	0xffff8fbf
 80046fc:	ffff8080 	.word	0xffff8080
 8004700:	fffff7ff 	.word	0xfffff7ff
 8004704:	3667      	adds	r6, #103	@ 0x67
 8004706:	36ff      	adds	r6, #255	@ 0xff
 8004708:	46b4      	mov	ip, r6
 800470a:	2680      	movs	r6, #128	@ 0x80
 800470c:	01f6      	lsls	r6, r6, #7
 800470e:	46b0      	mov	r8, r6
 8004710:	449c      	add	ip, r3
 8004712:	403e      	ands	r6, r7
 8004714:	4663      	mov	r3, ip
 8004716:	46b1      	mov	r9, r6
 8004718:	4646      	mov	r6, r8
 800471a:	681b      	ldr	r3, [r3, #0]
 800471c:	00d1      	lsls	r1, r2, #3
 800471e:	4237      	tst	r7, r6
 8004720:	d100      	bne.n	8004724 <HAL_PCD_IRQHandler+0x6f8>
 8004722:	e0e7      	b.n	80048f4 <HAL_PCD_IRQHandler+0x8c8>
 8004724:	2650      	movs	r6, #80	@ 0x50
 8004726:	5b86      	ldrh	r6, [r0, r6]
 8004728:	46b0      	mov	r8, r6
 800472a:	4ecf      	ldr	r6, [pc, #828]	@ (8004a68 <HAL_PCD_IRQHandler+0xa3c>)
 800472c:	4441      	add	r1, r8
 800472e:	46b0      	mov	r8, r6
 8004730:	1809      	adds	r1, r1, r0
 8004732:	4441      	add	r1, r8
 8004734:	8809      	ldrh	r1, [r1, #0]
 8004736:	0589      	lsls	r1, r1, #22
 8004738:	0d89      	lsrs	r1, r1, #22
 800473a:	4688      	mov	r8, r1
 800473c:	4299      	cmp	r1, r3
 800473e:	d900      	bls.n	8004742 <HAL_PCD_IRQHandler+0x716>
 8004740:	e140      	b.n	80049c4 <HAL_PCD_IRQHandler+0x998>
 8004742:	4666      	mov	r6, ip
 8004744:	1a5b      	subs	r3, r3, r1
 8004746:	6033      	str	r3, [r6, #0]
 8004748:	d10d      	bne.n	8004766 <HAL_PCD_IRQHandler+0x73a>
 800474a:	0093      	lsls	r3, r2, #2
 800474c:	469c      	mov	ip, r3
 800474e:	4484      	add	ip, r0
 8004750:	4663      	mov	r3, ip
 8004752:	4ec6      	ldr	r6, [pc, #792]	@ (8004a6c <HAL_PCD_IRQHandler+0xa40>)
 8004754:	881b      	ldrh	r3, [r3, #0]
 8004756:	401e      	ands	r6, r3
 8004758:	2380      	movs	r3, #128	@ 0x80
 800475a:	019b      	lsls	r3, r3, #6
 800475c:	4073      	eors	r3, r6
 800475e:	4ec4      	ldr	r6, [pc, #784]	@ (8004a70 <HAL_PCD_IRQHandler+0xa44>)
 8004760:	4333      	orrs	r3, r6
 8004762:	4666      	mov	r6, ip
 8004764:	8033      	strh	r3, [r6, #0]
 8004766:	067b      	lsls	r3, r7, #25
 8004768:	d507      	bpl.n	800477a <HAL_PCD_IRQHandler+0x74e>
 800476a:	0092      	lsls	r2, r2, #2
 800476c:	1882      	adds	r2, r0, r2
 800476e:	8813      	ldrh	r3, [r2, #0]
 8004770:	4ec0      	ldr	r6, [pc, #768]	@ (8004a74 <HAL_PCD_IRQHandler+0xa48>)
 8004772:	4033      	ands	r3, r6
 8004774:	4ec0      	ldr	r6, [pc, #768]	@ (8004a78 <HAL_PCD_IRQHandler+0xa4c>)
 8004776:	4333      	orrs	r3, r6
 8004778:	8013      	strh	r3, [r2, #0]
 800477a:	2900      	cmp	r1, #0
 800477c:	d100      	bne.n	8004780 <HAL_PCD_IRQHandler+0x754>
 800477e:	e541      	b.n	8004204 <HAL_PCD_IRQHandler+0x1d8>
 8004780:	9b00      	ldr	r3, [sp, #0]
 8004782:	195b      	adds	r3, r3, r5
 8004784:	00db      	lsls	r3, r3, #3
 8004786:	18e3      	adds	r3, r4, r3
 8004788:	001a      	movs	r2, r3
 800478a:	3259      	adds	r2, #89	@ 0x59
 800478c:	3365      	adds	r3, #101	@ 0x65
 800478e:	33ff      	adds	r3, #255	@ 0xff
 8004790:	681b      	ldr	r3, [r3, #0]
 8004792:	32ff      	adds	r2, #255	@ 0xff
 8004794:	469c      	mov	ip, r3
 8004796:	8812      	ldrh	r2, [r2, #0]
 8004798:	000b      	movs	r3, r1
 800479a:	4661      	mov	r1, ip
 800479c:	f002 f88e 	bl	80068bc <USB_ReadPMA>
 80047a0:	e530      	b.n	8004204 <HAL_PCD_IRQHandler+0x1d8>
 80047a2:	0020      	movs	r0, r4
 80047a4:	f003 f898 	bl	80078d8 <HAL_PCD_SuspendCallback>
 80047a8:	e47a      	b.n	80040a0 <HAL_PCD_IRQHandler+0x74>
 80047aa:	2a3e      	cmp	r2, #62	@ 0x3e
 80047ac:	d900      	bls.n	80047b0 <HAL_PCD_IRQHandler+0x784>
 80047ae:	e0d5      	b.n	800495c <HAL_PCD_IRQHandler+0x930>
 80047b0:	2501      	movs	r5, #1
 80047b2:	0851      	lsrs	r1, r2, #1
 80047b4:	402a      	ands	r2, r5
 80047b6:	1889      	adds	r1, r1, r2
 80047b8:	881a      	ldrh	r2, [r3, #0]
 80047ba:	0289      	lsls	r1, r1, #10
 80047bc:	430a      	orrs	r2, r1
 80047be:	b292      	uxth	r2, r2
 80047c0:	801a      	strh	r2, [r3, #0]
 80047c2:	e638      	b.n	8004436 <HAL_PCD_IRQHandler+0x40a>
 80047c4:	4643      	mov	r3, r8
 80047c6:	6293      	str	r3, [r2, #40]	@ 0x28
 80047c8:	9b00      	ldr	r3, [sp, #0]
 80047ca:	195b      	adds	r3, r3, r5
 80047cc:	00db      	lsls	r3, r3, #3
 80047ce:	18e3      	adds	r3, r4, r3
 80047d0:	7c5b      	ldrb	r3, [r3, #17]
 80047d2:	2b00      	cmp	r3, #0
 80047d4:	d000      	beq.n	80047d8 <HAL_PCD_IRQHandler+0x7ac>
 80047d6:	e0e1      	b.n	800499c <HAL_PCD_IRQHandler+0x970>
 80047d8:	9e02      	ldr	r6, [sp, #8]
 80047da:	49a3      	ldr	r1, [pc, #652]	@ (8004a68 <HAL_PCD_IRQHandler+0xa3c>)
 80047dc:	2750      	movs	r7, #80	@ 0x50
 80047de:	4688      	mov	r8, r1
 80047e0:	0033      	movs	r3, r6
 80047e2:	5bc2      	ldrh	r2, [r0, r7]
 80047e4:	4443      	add	r3, r8
 80047e6:	18c3      	adds	r3, r0, r3
 80047e8:	189b      	adds	r3, r3, r2
 80047ea:	881a      	ldrh	r2, [r3, #0]
 80047ec:	0592      	lsls	r2, r2, #22
 80047ee:	0d92      	lsrs	r2, r2, #22
 80047f0:	801a      	strh	r2, [r3, #0]
 80047f2:	8819      	ldrh	r1, [r3, #0]
 80047f4:	4aa1      	ldr	r2, [pc, #644]	@ (8004a7c <HAL_PCD_IRQHandler+0xa50>)
 80047f6:	4311      	orrs	r1, r2
 80047f8:	b289      	uxth	r1, r1
 80047fa:	8019      	strh	r1, [r3, #0]
 80047fc:	5bc3      	ldrh	r3, [r0, r7]
 80047fe:	4463      	add	r3, ip
 8004800:	46b4      	mov	ip, r6
 8004802:	4463      	add	r3, ip
 8004804:	8819      	ldrh	r1, [r3, #0]
 8004806:	0589      	lsls	r1, r1, #22
 8004808:	0d89      	lsrs	r1, r1, #22
 800480a:	8019      	strh	r1, [r3, #0]
 800480c:	8819      	ldrh	r1, [r3, #0]
 800480e:	430a      	orrs	r2, r1
 8004810:	b292      	uxth	r2, r2
 8004812:	801a      	strh	r2, [r3, #0]
 8004814:	0020      	movs	r0, r4
 8004816:	4649      	mov	r1, r9
 8004818:	f003 f838 	bl	800788c <HAL_PCD_DataInStageCallback>
 800481c:	9b03      	ldr	r3, [sp, #12]
 800481e:	6820      	ldr	r0, [r4, #0]
 8004820:	2b00      	cmp	r3, #0
 8004822:	d000      	beq.n	8004826 <HAL_PCD_IRQHandler+0x7fa>
 8004824:	e706      	b.n	8004634 <HAL_PCD_IRQHandler+0x608>
 8004826:	9b00      	ldr	r3, [sp, #0]
 8004828:	4992      	ldr	r1, [pc, #584]	@ (8004a74 <HAL_PCD_IRQHandler+0xa48>)
 800482a:	195b      	adds	r3, r3, r5
 800482c:	00db      	lsls	r3, r3, #3
 800482e:	18e3      	adds	r3, r4, r3
 8004830:	7c1b      	ldrb	r3, [r3, #16]
 8004832:	009b      	lsls	r3, r3, #2
 8004834:	18c3      	adds	r3, r0, r3
 8004836:	881a      	ldrh	r2, [r3, #0]
 8004838:	400a      	ands	r2, r1
 800483a:	4991      	ldr	r1, [pc, #580]	@ (8004a80 <HAL_PCD_IRQHandler+0xa54>)
 800483c:	430a      	orrs	r2, r1
 800483e:	801a      	strh	r2, [r3, #0]
 8004840:	e6f8      	b.n	8004634 <HAL_PCD_IRQHandler+0x608>
 8004842:	2300      	movs	r3, #0
 8004844:	6293      	str	r3, [r2, #40]	@ 0x28
 8004846:	7c52      	ldrb	r2, [r2, #17]
 8004848:	2a00      	cmp	r2, #0
 800484a:	d000      	beq.n	800484e <HAL_PCD_IRQHandler+0x822>
 800484c:	e094      	b.n	8004978 <HAL_PCD_IRQHandler+0x94c>
 800484e:	5bc3      	ldrh	r3, [r0, r7]
 8004850:	9902      	ldr	r1, [sp, #8]
 8004852:	4443      	add	r3, r8
 8004854:	4688      	mov	r8, r1
 8004856:	4666      	mov	r6, ip
 8004858:	4443      	add	r3, r8
 800485a:	881a      	ldrh	r2, [r3, #0]
 800485c:	0592      	lsls	r2, r2, #22
 800485e:	0d92      	lsrs	r2, r2, #22
 8004860:	801a      	strh	r2, [r3, #0]
 8004862:	881a      	ldrh	r2, [r3, #0]
 8004864:	4332      	orrs	r2, r6
 8004866:	b292      	uxth	r2, r2
 8004868:	801a      	strh	r2, [r3, #0]
 800486a:	000b      	movs	r3, r1
 800486c:	4985      	ldr	r1, [pc, #532]	@ (8004a84 <HAL_PCD_IRQHandler+0xa58>)
 800486e:	5bc2      	ldrh	r2, [r0, r7]
 8004870:	4688      	mov	r8, r1
 8004872:	4443      	add	r3, r8
 8004874:	181b      	adds	r3, r3, r0
 8004876:	189b      	adds	r3, r3, r2
 8004878:	881a      	ldrh	r2, [r3, #0]
 800487a:	0592      	lsls	r2, r2, #22
 800487c:	0d92      	lsrs	r2, r2, #22
 800487e:	801a      	strh	r2, [r3, #0]
 8004880:	881a      	ldrh	r2, [r3, #0]
 8004882:	4332      	orrs	r2, r6
 8004884:	b292      	uxth	r2, r2
 8004886:	801a      	strh	r2, [r3, #0]
 8004888:	0020      	movs	r0, r4
 800488a:	4649      	mov	r1, r9
 800488c:	f002 fffe 	bl	800788c <HAL_PCD_DataInStageCallback>
 8004890:	9b03      	ldr	r3, [sp, #12]
 8004892:	6820      	ldr	r0, [r4, #0]
 8004894:	2b00      	cmp	r3, #0
 8004896:	d1c6      	bne.n	8004826 <HAL_PCD_IRQHandler+0x7fa>
 8004898:	e6cc      	b.n	8004634 <HAL_PCD_IRQHandler+0x608>
 800489a:	2244      	movs	r2, #68	@ 0x44
 800489c:	6821      	ldr	r1, [r4, #0]
 800489e:	487a      	ldr	r0, [pc, #488]	@ (8004a88 <HAL_PCD_IRQHandler+0xa5c>)
 80048a0:	5a8b      	ldrh	r3, [r1, r2]
 80048a2:	4003      	ands	r3, r0
 80048a4:	528b      	strh	r3, [r1, r2]
 80048a6:	0020      	movs	r0, r4
 80048a8:	f002 fffc 	bl	80078a4 <HAL_PCD_SOFCallback>
 80048ac:	f7ff fbf8 	bl	80040a0 <HAL_PCD_IRQHandler+0x74>
 80048b0:	2100      	movs	r1, #0
 80048b2:	0020      	movs	r0, r4
 80048b4:	54e5      	strb	r5, [r4, r3]
 80048b6:	f000 fab9 	bl	8004e2c <HAL_PCDEx_LPM_Callback>
 80048ba:	e474      	b.n	80041a6 <HAL_PCD_IRQHandler+0x17a>
 80048bc:	2b01      	cmp	r3, #1
 80048be:	d000      	beq.n	80048c2 <HAL_PCD_IRQHandler+0x896>
 80048c0:	e5ef      	b.n	80044a2 <HAL_PCD_IRQHandler+0x476>
 80048c2:	334f      	adds	r3, #79	@ 0x4f
 80048c4:	5ac7      	ldrh	r7, [r0, r3]
 80048c6:	7c13      	ldrb	r3, [r2, #16]
 80048c8:	4a67      	ldr	r2, [pc, #412]	@ (8004a68 <HAL_PCD_IRQHandler+0xa3c>)
 80048ca:	00db      	lsls	r3, r3, #3
 80048cc:	4694      	mov	ip, r2
 80048ce:	4463      	add	r3, ip
 80048d0:	18c3      	adds	r3, r0, r3
 80048d2:	19db      	adds	r3, r3, r7
 80048d4:	8019      	strh	r1, [r3, #0]
 80048d6:	e5e4      	b.n	80044a2 <HAL_PCD_IRQHandler+0x476>
 80048d8:	2b01      	cmp	r3, #1
 80048da:	d000      	beq.n	80048de <HAL_PCD_IRQHandler+0x8b2>
 80048dc:	e5e1      	b.n	80044a2 <HAL_PCD_IRQHandler+0x476>
 80048de:	334f      	adds	r3, #79	@ 0x4f
 80048e0:	5ac1      	ldrh	r1, [r0, r3]
 80048e2:	7c13      	ldrb	r3, [r2, #16]
 80048e4:	4a67      	ldr	r2, [pc, #412]	@ (8004a84 <HAL_PCD_IRQHandler+0xa58>)
 80048e6:	00db      	lsls	r3, r3, #3
 80048e8:	4694      	mov	ip, r2
 80048ea:	4463      	add	r3, ip
 80048ec:	181b      	adds	r3, r3, r0
 80048ee:	185b      	adds	r3, r3, r1
 80048f0:	801e      	strh	r6, [r3, #0]
 80048f2:	e5d6      	b.n	80044a2 <HAL_PCD_IRQHandler+0x476>
 80048f4:	2650      	movs	r6, #80	@ 0x50
 80048f6:	5b86      	ldrh	r6, [r0, r6]
 80048f8:	46b0      	mov	r8, r6
 80048fa:	4e62      	ldr	r6, [pc, #392]	@ (8004a84 <HAL_PCD_IRQHandler+0xa58>)
 80048fc:	4441      	add	r1, r8
 80048fe:	46b0      	mov	r8, r6
 8004900:	1809      	adds	r1, r1, r0
 8004902:	4441      	add	r1, r8
 8004904:	8809      	ldrh	r1, [r1, #0]
 8004906:	0589      	lsls	r1, r1, #22
 8004908:	0d89      	lsrs	r1, r1, #22
 800490a:	4688      	mov	r8, r1
 800490c:	4299      	cmp	r1, r3
 800490e:	d85d      	bhi.n	80049cc <HAL_PCD_IRQHandler+0x9a0>
 8004910:	4666      	mov	r6, ip
 8004912:	1a5b      	subs	r3, r3, r1
 8004914:	6033      	str	r3, [r6, #0]
 8004916:	d10d      	bne.n	8004934 <HAL_PCD_IRQHandler+0x908>
 8004918:	0093      	lsls	r3, r2, #2
 800491a:	469c      	mov	ip, r3
 800491c:	4484      	add	ip, r0
 800491e:	4663      	mov	r3, ip
 8004920:	4e52      	ldr	r6, [pc, #328]	@ (8004a6c <HAL_PCD_IRQHandler+0xa40>)
 8004922:	881b      	ldrh	r3, [r3, #0]
 8004924:	401e      	ands	r6, r3
 8004926:	2380      	movs	r3, #128	@ 0x80
 8004928:	019b      	lsls	r3, r3, #6
 800492a:	4073      	eors	r3, r6
 800492c:	4e50      	ldr	r6, [pc, #320]	@ (8004a70 <HAL_PCD_IRQHandler+0xa44>)
 800492e:	4333      	orrs	r3, r6
 8004930:	4666      	mov	r6, ip
 8004932:	8033      	strh	r3, [r6, #0]
 8004934:	067b      	lsls	r3, r7, #25
 8004936:	d407      	bmi.n	8004948 <HAL_PCD_IRQHandler+0x91c>
 8004938:	0092      	lsls	r2, r2, #2
 800493a:	1882      	adds	r2, r0, r2
 800493c:	8813      	ldrh	r3, [r2, #0]
 800493e:	4e4d      	ldr	r6, [pc, #308]	@ (8004a74 <HAL_PCD_IRQHandler+0xa48>)
 8004940:	4033      	ands	r3, r6
 8004942:	4e4d      	ldr	r6, [pc, #308]	@ (8004a78 <HAL_PCD_IRQHandler+0xa4c>)
 8004944:	4333      	orrs	r3, r6
 8004946:	8013      	strh	r3, [r2, #0]
 8004948:	2900      	cmp	r1, #0
 800494a:	d100      	bne.n	800494e <HAL_PCD_IRQHandler+0x922>
 800494c:	e45a      	b.n	8004204 <HAL_PCD_IRQHandler+0x1d8>
 800494e:	9b00      	ldr	r3, [sp, #0]
 8004950:	195b      	adds	r3, r3, r5
 8004952:	00db      	lsls	r3, r3, #3
 8004954:	18e3      	adds	r3, r4, r3
 8004956:	001a      	movs	r2, r3
 8004958:	325b      	adds	r2, #91	@ 0x5b
 800495a:	e717      	b.n	800478c <HAL_PCD_IRQHandler+0x760>
 800495c:	251f      	movs	r5, #31
 800495e:	0951      	lsrs	r1, r2, #5
 8004960:	402a      	ands	r2, r5
 8004962:	4255      	negs	r5, r2
 8004964:	416a      	adcs	r2, r5
 8004966:	1a89      	subs	r1, r1, r2
 8004968:	881a      	ldrh	r2, [r3, #0]
 800496a:	0289      	lsls	r1, r1, #10
 800496c:	4311      	orrs	r1, r2
 800496e:	4a43      	ldr	r2, [pc, #268]	@ (8004a7c <HAL_PCD_IRQHandler+0xa50>)
 8004970:	430a      	orrs	r2, r1
 8004972:	b292      	uxth	r2, r2
 8004974:	801a      	strh	r2, [r3, #0]
 8004976:	e55e      	b.n	8004436 <HAL_PCD_IRQHandler+0x40a>
 8004978:	2a01      	cmp	r2, #1
 800497a:	d000      	beq.n	800497e <HAL_PCD_IRQHandler+0x952>
 800497c:	e784      	b.n	8004888 <HAL_PCD_IRQHandler+0x85c>
 800497e:	9e02      	ldr	r6, [sp, #8]
 8004980:	5bc2      	ldrh	r2, [r0, r7]
 8004982:	46b4      	mov	ip, r6
 8004984:	4442      	add	r2, r8
 8004986:	4462      	add	r2, ip
 8004988:	8013      	strh	r3, [r2, #0]
 800498a:	0032      	movs	r2, r6
 800498c:	4e3d      	ldr	r6, [pc, #244]	@ (8004a84 <HAL_PCD_IRQHandler+0xa58>)
 800498e:	5bc1      	ldrh	r1, [r0, r7]
 8004990:	46b4      	mov	ip, r6
 8004992:	4462      	add	r2, ip
 8004994:	1812      	adds	r2, r2, r0
 8004996:	1852      	adds	r2, r2, r1
 8004998:	8013      	strh	r3, [r2, #0]
 800499a:	e775      	b.n	8004888 <HAL_PCD_IRQHandler+0x85c>
 800499c:	2b01      	cmp	r3, #1
 800499e:	d000      	beq.n	80049a2 <HAL_PCD_IRQHandler+0x976>
 80049a0:	e738      	b.n	8004814 <HAL_PCD_IRQHandler+0x7e8>
 80049a2:	9e02      	ldr	r6, [sp, #8]
 80049a4:	4f30      	ldr	r7, [pc, #192]	@ (8004a68 <HAL_PCD_IRQHandler+0xa3c>)
 80049a6:	2150      	movs	r1, #80	@ 0x50
 80049a8:	0033      	movs	r3, r6
 80049aa:	46b8      	mov	r8, r7
 80049ac:	5a42      	ldrh	r2, [r0, r1]
 80049ae:	4443      	add	r3, r8
 80049b0:	18c3      	adds	r3, r0, r3
 80049b2:	189b      	adds	r3, r3, r2
 80049b4:	2200      	movs	r2, #0
 80049b6:	801a      	strh	r2, [r3, #0]
 80049b8:	5a43      	ldrh	r3, [r0, r1]
 80049ba:	4463      	add	r3, ip
 80049bc:	46b4      	mov	ip, r6
 80049be:	4463      	add	r3, ip
 80049c0:	801a      	strh	r2, [r3, #0]
 80049c2:	e727      	b.n	8004814 <HAL_PCD_IRQHandler+0x7e8>
 80049c4:	2300      	movs	r3, #0
 80049c6:	4666      	mov	r6, ip
 80049c8:	6033      	str	r3, [r6, #0]
 80049ca:	e6be      	b.n	800474a <HAL_PCD_IRQHandler+0x71e>
 80049cc:	4663      	mov	r3, ip
 80049ce:	464e      	mov	r6, r9
 80049d0:	601e      	str	r6, [r3, #0]
 80049d2:	e7a1      	b.n	8004918 <HAL_PCD_IRQHandler+0x8ec>
 80049d4:	6a5e      	ldr	r6, [r3, #36]	@ 0x24
 80049d6:	46b1      	mov	r9, r6
 80049d8:	4489      	add	r9, r1
 80049da:	464e      	mov	r6, r9
 80049dc:	625e      	str	r6, [r3, #36]	@ 0x24
 80049de:	6ad6      	ldr	r6, [r2, #44]	@ 0x2c
 80049e0:	46b0      	mov	r8, r6
 80049e2:	4488      	add	r8, r1
 80049e4:	4646      	mov	r6, r8
 80049e6:	62d6      	str	r6, [r2, #44]	@ 0x2c
 80049e8:	6b1a      	ldr	r2, [r3, #48]	@ 0x30
 80049ea:	4690      	mov	r8, r2
 80049ec:	6a1a      	ldr	r2, [r3, #32]
 80049ee:	4590      	cmp	r8, r2
 80049f0:	d358      	bcc.n	8004aa4 <HAL_PCD_IRQHandler+0xa78>
 80049f2:	4641      	mov	r1, r8
 80049f4:	1a89      	subs	r1, r1, r2
 80049f6:	6319      	str	r1, [r3, #48]	@ 0x30
 80049f8:	b291      	uxth	r1, r2
 80049fa:	9b00      	ldr	r3, [sp, #0]
 80049fc:	195b      	adds	r3, r3, r5
 80049fe:	00db      	lsls	r3, r3, #3
 8004a00:	18e3      	adds	r3, r4, r3
 8004a02:	7c5b      	ldrb	r3, [r3, #17]
 8004a04:	2b00      	cmp	r3, #0
 8004a06:	d143      	bne.n	8004a90 <HAL_PCD_IRQHandler+0xa64>
 8004a08:	3350      	adds	r3, #80	@ 0x50
 8004a0a:	5ac3      	ldrh	r3, [r0, r3]
 8004a0c:	9e02      	ldr	r6, [sp, #8]
 8004a0e:	4463      	add	r3, ip
 8004a10:	46b4      	mov	ip, r6
 8004a12:	4463      	add	r3, ip
 8004a14:	881f      	ldrh	r7, [r3, #0]
 8004a16:	05bf      	lsls	r7, r7, #22
 8004a18:	0dbf      	lsrs	r7, r7, #22
 8004a1a:	801f      	strh	r7, [r3, #0]
 8004a1c:	2a00      	cmp	r2, #0
 8004a1e:	d000      	beq.n	8004a22 <HAL_PCD_IRQHandler+0x9f6>
 8004a20:	e075      	b.n	8004b0e <HAL_PCD_IRQHandler+0xae2>
 8004a22:	2780      	movs	r7, #128	@ 0x80
 8004a24:	881a      	ldrh	r2, [r3, #0]
 8004a26:	023f      	lsls	r7, r7, #8
 8004a28:	433a      	orrs	r2, r7
 8004a2a:	801a      	strh	r2, [r3, #0]
 8004a2c:	9b00      	ldr	r3, [sp, #0]
 8004a2e:	195b      	adds	r3, r3, r5
 8004a30:	00db      	lsls	r3, r3, #3
 8004a32:	18e3      	adds	r3, r4, r3
 8004a34:	8b5a      	ldrh	r2, [r3, #26]
 8004a36:	000b      	movs	r3, r1
 8004a38:	4649      	mov	r1, r9
 8004a3a:	f001 ff27 	bl	800688c <USB_WritePMA>
 8004a3e:	6820      	ldr	r0, [r4, #0]
 8004a40:	e5f8      	b.n	8004634 <HAL_PCD_IRQHandler+0x608>
 8004a42:	4662      	mov	r2, ip
 8004a44:	b291      	uxth	r1, r2
 8004a46:	2b01      	cmp	r3, #1
 8004a48:	d000      	beq.n	8004a4c <HAL_PCD_IRQHandler+0xa20>
 8004a4a:	e59c      	b.n	8004586 <HAL_PCD_IRQHandler+0x55a>
 8004a4c:	9a02      	ldr	r2, [sp, #8]
 8004a4e:	334f      	adds	r3, #79	@ 0x4f
 8004a50:	4694      	mov	ip, r2
 8004a52:	5ac3      	ldrh	r3, [r0, r3]
 8004a54:	4443      	add	r3, r8
 8004a56:	4463      	add	r3, ip
 8004a58:	8019      	strh	r1, [r3, #0]
 8004a5a:	e594      	b.n	8004586 <HAL_PCD_IRQHandler+0x55a>
 8004a5c:	4662      	mov	r2, ip
 8004a5e:	2a00      	cmp	r2, #0
 8004a60:	d126      	bne.n	8004ab0 <HAL_PCD_IRQHandler+0xa84>
 8004a62:	703a      	strb	r2, [r7, #0]
 8004a64:	000a      	movs	r2, r1
 8004a66:	e574      	b.n	8004552 <HAL_PCD_IRQHandler+0x526>
 8004a68:	00000402 	.word	0x00000402
 8004a6c:	ffffbf8f 	.word	0xffffbf8f
 8004a70:	00008080 	.word	0x00008080
 8004a74:	ffff8f8f 	.word	0xffff8f8f
 8004a78:	000080c0 	.word	0x000080c0
 8004a7c:	ffff8000 	.word	0xffff8000
 8004a80:	0000c080 	.word	0x0000c080
 8004a84:	00000406 	.word	0x00000406
 8004a88:	fffffdff 	.word	0xfffffdff
 8004a8c:	4642      	mov	r2, r8
 8004a8e:	b291      	uxth	r1, r2
 8004a90:	2b01      	cmp	r3, #1
 8004a92:	d1cb      	bne.n	8004a2c <HAL_PCD_IRQHandler+0xa00>
 8004a94:	334f      	adds	r3, #79	@ 0x4f
 8004a96:	5ac3      	ldrh	r3, [r0, r3]
 8004a98:	9a02      	ldr	r2, [sp, #8]
 8004a9a:	4463      	add	r3, ip
 8004a9c:	4694      	mov	ip, r2
 8004a9e:	4463      	add	r3, ip
 8004aa0:	8019      	strh	r1, [r3, #0]
 8004aa2:	e7c3      	b.n	8004a2c <HAL_PCD_IRQHandler+0xa00>
 8004aa4:	4642      	mov	r2, r8
 8004aa6:	2a00      	cmp	r2, #0
 8004aa8:	d120      	bne.n	8004aec <HAL_PCD_IRQHandler+0xac0>
 8004aaa:	703a      	strb	r2, [r7, #0]
 8004aac:	000a      	movs	r2, r1
 8004aae:	e7a4      	b.n	80049fa <HAL_PCD_IRQHandler+0x9ce>
 8004ab0:	2200      	movs	r2, #0
 8004ab2:	703a      	strb	r2, [r7, #0]
 8004ab4:	631a      	str	r2, [r3, #48]	@ 0x30
 8004ab6:	7c5b      	ldrb	r3, [r3, #17]
 8004ab8:	2b00      	cmp	r3, #0
 8004aba:	d1c2      	bne.n	8004a42 <HAL_PCD_IRQHandler+0xa16>
 8004abc:	2350      	movs	r3, #80	@ 0x50
 8004abe:	9a02      	ldr	r2, [sp, #8]
 8004ac0:	5ac3      	ldrh	r3, [r0, r3]
 8004ac2:	4443      	add	r3, r8
 8004ac4:	4690      	mov	r8, r2
 8004ac6:	4443      	add	r3, r8
 8004ac8:	881a      	ldrh	r2, [r3, #0]
 8004aca:	0592      	lsls	r2, r2, #22
 8004acc:	0d92      	lsrs	r2, r2, #22
 8004ace:	801a      	strh	r2, [r3, #0]
 8004ad0:	4662      	mov	r2, ip
 8004ad2:	2a3e      	cmp	r2, #62	@ 0x3e
 8004ad4:	d828      	bhi.n	8004b28 <HAL_PCD_IRQHandler+0xafc>
 8004ad6:	2101      	movs	r1, #1
 8004ad8:	0857      	lsrs	r7, r2, #1
 8004ada:	4011      	ands	r1, r2
 8004adc:	187f      	adds	r7, r7, r1
 8004ade:	8819      	ldrh	r1, [r3, #0]
 8004ae0:	02bf      	lsls	r7, r7, #10
 8004ae2:	4339      	orrs	r1, r7
 8004ae4:	b289      	uxth	r1, r1
 8004ae6:	8019      	strh	r1, [r3, #0]
 8004ae8:	b291      	uxth	r1, r2
 8004aea:	e54c      	b.n	8004586 <HAL_PCD_IRQHandler+0x55a>
 8004aec:	2200      	movs	r2, #0
 8004aee:	631a      	str	r2, [r3, #48]	@ 0x30
 8004af0:	703a      	strb	r2, [r7, #0]
 8004af2:	7c5b      	ldrb	r3, [r3, #17]
 8004af4:	2b00      	cmp	r3, #0
 8004af6:	d1c9      	bne.n	8004a8c <HAL_PCD_IRQHandler+0xa60>
 8004af8:	2350      	movs	r3, #80	@ 0x50
 8004afa:	9a02      	ldr	r2, [sp, #8]
 8004afc:	5ac3      	ldrh	r3, [r0, r3]
 8004afe:	4463      	add	r3, ip
 8004b00:	4694      	mov	ip, r2
 8004b02:	4463      	add	r3, ip
 8004b04:	881a      	ldrh	r2, [r3, #0]
 8004b06:	0592      	lsls	r2, r2, #22
 8004b08:	0d92      	lsrs	r2, r2, #22
 8004b0a:	801a      	strh	r2, [r3, #0]
 8004b0c:	4642      	mov	r2, r8
 8004b0e:	2a3e      	cmp	r2, #62	@ 0x3e
 8004b10:	d81a      	bhi.n	8004b48 <HAL_PCD_IRQHandler+0xb1c>
 8004b12:	2101      	movs	r1, #1
 8004b14:	0857      	lsrs	r7, r2, #1
 8004b16:	4011      	ands	r1, r2
 8004b18:	187f      	adds	r7, r7, r1
 8004b1a:	8819      	ldrh	r1, [r3, #0]
 8004b1c:	02bf      	lsls	r7, r7, #10
 8004b1e:	4339      	orrs	r1, r7
 8004b20:	b289      	uxth	r1, r1
 8004b22:	8019      	strh	r1, [r3, #0]
 8004b24:	b291      	uxth	r1, r2
 8004b26:	e781      	b.n	8004a2c <HAL_PCD_IRQHandler+0xa00>
 8004b28:	271f      	movs	r7, #31
 8004b2a:	4017      	ands	r7, r2
 8004b2c:	003e      	movs	r6, r7
 8004b2e:	4277      	negs	r7, r6
 8004b30:	4177      	adcs	r7, r6
 8004b32:	0951      	lsrs	r1, r2, #5
 8004b34:	1bc9      	subs	r1, r1, r7
 8004b36:	881f      	ldrh	r7, [r3, #0]
 8004b38:	0289      	lsls	r1, r1, #10
 8004b3a:	430f      	orrs	r7, r1
 8004b3c:	490a      	ldr	r1, [pc, #40]	@ (8004b68 <HAL_PCD_IRQHandler+0xb3c>)
 8004b3e:	4339      	orrs	r1, r7
 8004b40:	b289      	uxth	r1, r1
 8004b42:	8019      	strh	r1, [r3, #0]
 8004b44:	b291      	uxth	r1, r2
 8004b46:	e51e      	b.n	8004586 <HAL_PCD_IRQHandler+0x55a>
 8004b48:	271f      	movs	r7, #31
 8004b4a:	4017      	ands	r7, r2
 8004b4c:	003e      	movs	r6, r7
 8004b4e:	4277      	negs	r7, r6
 8004b50:	4177      	adcs	r7, r6
 8004b52:	0951      	lsrs	r1, r2, #5
 8004b54:	1bc9      	subs	r1, r1, r7
 8004b56:	881f      	ldrh	r7, [r3, #0]
 8004b58:	0289      	lsls	r1, r1, #10
 8004b5a:	430f      	orrs	r7, r1
 8004b5c:	4902      	ldr	r1, [pc, #8]	@ (8004b68 <HAL_PCD_IRQHandler+0xb3c>)
 8004b5e:	4339      	orrs	r1, r7
 8004b60:	b289      	uxth	r1, r1
 8004b62:	8019      	strh	r1, [r3, #0]
 8004b64:	b291      	uxth	r1, r2
 8004b66:	e761      	b.n	8004a2c <HAL_PCD_IRQHandler+0xa00>
 8004b68:	ffff8000 	.word	0xffff8000

08004b6c <HAL_PCD_SetAddress>:
 8004b6c:	b570      	push	{r4, r5, r6, lr}
 8004b6e:	25a4      	movs	r5, #164	@ 0xa4
 8004b70:	00ad      	lsls	r5, r5, #2
 8004b72:	5d43      	ldrb	r3, [r0, r5]
 8004b74:	0004      	movs	r4, r0
 8004b76:	2b01      	cmp	r3, #1
 8004b78:	d009      	beq.n	8004b8e <HAL_PCD_SetAddress+0x22>
 8004b7a:	2301      	movs	r3, #1
 8004b7c:	5543      	strb	r3, [r0, r5]
 8004b7e:	7301      	strb	r1, [r0, #12]
 8004b80:	6800      	ldr	r0, [r0, #0]
 8004b82:	f001 fe6f 	bl	8006864 <USB_SetDevAddress>
 8004b86:	2300      	movs	r3, #0
 8004b88:	2000      	movs	r0, #0
 8004b8a:	5563      	strb	r3, [r4, r5]
 8004b8c:	bd70      	pop	{r4, r5, r6, pc}
 8004b8e:	2002      	movs	r0, #2
 8004b90:	e7fc      	b.n	8004b8c <HAL_PCD_SetAddress+0x20>
 8004b92:	46c0      	nop			@ (mov r8, r8)

08004b94 <HAL_PCD_EP_Open>:
 8004b94:	b570      	push	{r4, r5, r6, lr}
 8004b96:	0005      	movs	r5, r0
 8004b98:	2007      	movs	r0, #7
 8004b9a:	4008      	ands	r0, r1
 8004b9c:	0084      	lsls	r4, r0, #2
 8004b9e:	1824      	adds	r4, r4, r0
 8004ba0:	b249      	sxtb	r1, r1
 8004ba2:	00e4      	lsls	r4, r4, #3
 8004ba4:	2900      	cmp	r1, #0
 8004ba6:	db1d      	blt.n	8004be4 <HAL_PCD_EP_Open+0x50>
 8004ba8:	0021      	movs	r1, r4
 8004baa:	2600      	movs	r6, #0
 8004bac:	192c      	adds	r4, r5, r4
 8004bae:	3151      	adds	r1, #81	@ 0x51
 8004bb0:	3452      	adds	r4, #82	@ 0x52
 8004bb2:	31ff      	adds	r1, #255	@ 0xff
 8004bb4:	34ff      	adds	r4, #255	@ 0xff
 8004bb6:	1869      	adds	r1, r5, r1
 8004bb8:	7026      	strb	r6, [r4, #0]
 8004bba:	7008      	strb	r0, [r1, #0]
 8004bbc:	610a      	str	r2, [r1, #16]
 8004bbe:	70cb      	strb	r3, [r1, #3]
 8004bc0:	2b02      	cmp	r3, #2
 8004bc2:	d101      	bne.n	8004bc8 <HAL_PCD_EP_Open+0x34>
 8004bc4:	2300      	movs	r3, #0
 8004bc6:	710b      	strb	r3, [r1, #4]
 8004bc8:	24a4      	movs	r4, #164	@ 0xa4
 8004bca:	00a4      	lsls	r4, r4, #2
 8004bcc:	5d2b      	ldrb	r3, [r5, r4]
 8004bce:	2b01      	cmp	r3, #1
 8004bd0:	d00f      	beq.n	8004bf2 <HAL_PCD_EP_Open+0x5e>
 8004bd2:	2301      	movs	r3, #1
 8004bd4:	552b      	strb	r3, [r5, r4]
 8004bd6:	6828      	ldr	r0, [r5, #0]
 8004bd8:	f001 f904 	bl	8005de4 <USB_ActivateEndpoint>
 8004bdc:	2300      	movs	r3, #0
 8004bde:	2000      	movs	r0, #0
 8004be0:	552b      	strb	r3, [r5, r4]
 8004be2:	bd70      	pop	{r4, r5, r6, pc}
 8004be4:	0021      	movs	r1, r4
 8004be6:	2601      	movs	r6, #1
 8004be8:	3110      	adds	r1, #16
 8004bea:	192c      	adds	r4, r5, r4
 8004bec:	1869      	adds	r1, r5, r1
 8004bee:	7466      	strb	r6, [r4, #17]
 8004bf0:	e7e3      	b.n	8004bba <HAL_PCD_EP_Open+0x26>
 8004bf2:	2002      	movs	r0, #2
 8004bf4:	e7f5      	b.n	8004be2 <HAL_PCD_EP_Open+0x4e>
 8004bf6:	46c0      	nop			@ (mov r8, r8)

08004bf8 <HAL_PCD_EP_Close>:
 8004bf8:	2207      	movs	r2, #7
 8004bfa:	400a      	ands	r2, r1
 8004bfc:	0093      	lsls	r3, r2, #2
 8004bfe:	189b      	adds	r3, r3, r2
 8004c00:	b249      	sxtb	r1, r1
 8004c02:	b570      	push	{r4, r5, r6, lr}
 8004c04:	00db      	lsls	r3, r3, #3
 8004c06:	0004      	movs	r4, r0
 8004c08:	2900      	cmp	r1, #0
 8004c0a:	db17      	blt.n	8004c3c <HAL_PCD_EP_Close+0x44>
 8004c0c:	0019      	movs	r1, r3
 8004c0e:	3151      	adds	r1, #81	@ 0x51
 8004c10:	31ff      	adds	r1, #255	@ 0xff
 8004c12:	1841      	adds	r1, r0, r1
 8004c14:	18c3      	adds	r3, r0, r3
 8004c16:	25a4      	movs	r5, #164	@ 0xa4
 8004c18:	2000      	movs	r0, #0
 8004c1a:	3352      	adds	r3, #82	@ 0x52
 8004c1c:	33ff      	adds	r3, #255	@ 0xff
 8004c1e:	7018      	strb	r0, [r3, #0]
 8004c20:	00ad      	lsls	r5, r5, #2
 8004c22:	700a      	strb	r2, [r1, #0]
 8004c24:	5d63      	ldrb	r3, [r4, r5]
 8004c26:	2b01      	cmp	r3, #1
 8004c28:	d014      	beq.n	8004c54 <HAL_PCD_EP_Close+0x5c>
 8004c2a:	2301      	movs	r3, #1
 8004c2c:	5563      	strb	r3, [r4, r5]
 8004c2e:	6820      	ldr	r0, [r4, #0]
 8004c30:	f001 fa36 	bl	80060a0 <USB_DeactivateEndpoint>
 8004c34:	2300      	movs	r3, #0
 8004c36:	2000      	movs	r0, #0
 8004c38:	5563      	strb	r3, [r4, r5]
 8004c3a:	bd70      	pop	{r4, r5, r6, pc}
 8004c3c:	0019      	movs	r1, r3
 8004c3e:	3110      	adds	r1, #16
 8004c40:	18c3      	adds	r3, r0, r3
 8004c42:	1841      	adds	r1, r0, r1
 8004c44:	25a4      	movs	r5, #164	@ 0xa4
 8004c46:	2001      	movs	r0, #1
 8004c48:	00ad      	lsls	r5, r5, #2
 8004c4a:	7458      	strb	r0, [r3, #17]
 8004c4c:	700a      	strb	r2, [r1, #0]
 8004c4e:	5d63      	ldrb	r3, [r4, r5]
 8004c50:	2b01      	cmp	r3, #1
 8004c52:	d1ea      	bne.n	8004c2a <HAL_PCD_EP_Close+0x32>
 8004c54:	2002      	movs	r0, #2
 8004c56:	e7f0      	b.n	8004c3a <HAL_PCD_EP_Close+0x42>

08004c58 <HAL_PCD_EP_Receive>:
 8004c58:	b570      	push	{r4, r5, r6, lr}
 8004c5a:	2407      	movs	r4, #7
 8004c5c:	4021      	ands	r1, r4
 8004c5e:	008c      	lsls	r4, r1, #2
 8004c60:	1864      	adds	r4, r4, r1
 8004c62:	00e4      	lsls	r4, r4, #3
 8004c64:	1905      	adds	r5, r0, r4
 8004c66:	002e      	movs	r6, r5
 8004c68:	3665      	adds	r6, #101	@ 0x65
 8004c6a:	36ff      	adds	r6, #255	@ 0xff
 8004c6c:	6032      	str	r2, [r6, #0]
 8004c6e:	002a      	movs	r2, r5
 8004c70:	3269      	adds	r2, #105	@ 0x69
 8004c72:	32ff      	adds	r2, #255	@ 0xff
 8004c74:	6013      	str	r3, [r2, #0]
 8004c76:	2300      	movs	r3, #0
 8004c78:	3551      	adds	r5, #81	@ 0x51
 8004c7a:	3451      	adds	r4, #81	@ 0x51
 8004c7c:	6053      	str	r3, [r2, #4]
 8004c7e:	35ff      	adds	r5, #255	@ 0xff
 8004c80:	3a17      	subs	r2, #23
 8004c82:	34ff      	adds	r4, #255	@ 0xff
 8004c84:	7013      	strb	r3, [r2, #0]
 8004c86:	7029      	strb	r1, [r5, #0]
 8004c88:	1901      	adds	r1, r0, r4
 8004c8a:	6800      	ldr	r0, [r0, #0]
 8004c8c:	f001 fa8e 	bl	80061ac <USB_EPStartXfer>
 8004c90:	2000      	movs	r0, #0
 8004c92:	bd70      	pop	{r4, r5, r6, pc}

08004c94 <HAL_PCD_EP_GetRxCount>:
 8004c94:	2307      	movs	r3, #7
 8004c96:	400b      	ands	r3, r1
 8004c98:	0099      	lsls	r1, r3, #2
 8004c9a:	18c9      	adds	r1, r1, r3
 8004c9c:	00c9      	lsls	r1, r1, #3
 8004c9e:	1840      	adds	r0, r0, r1
 8004ca0:	306d      	adds	r0, #109	@ 0x6d
 8004ca2:	30ff      	adds	r0, #255	@ 0xff
 8004ca4:	6800      	ldr	r0, [r0, #0]
 8004ca6:	4770      	bx	lr

08004ca8 <HAL_PCD_EP_Transmit>:
 8004ca8:	b570      	push	{r4, r5, r6, lr}
 8004caa:	2407      	movs	r4, #7
 8004cac:	4021      	ands	r1, r4
 8004cae:	008c      	lsls	r4, r1, #2
 8004cb0:	1864      	adds	r4, r4, r1
 8004cb2:	00e4      	lsls	r4, r4, #3
 8004cb4:	1905      	adds	r5, r0, r4
 8004cb6:	002e      	movs	r6, r5
 8004cb8:	626a      	str	r2, [r5, #36]	@ 0x24
 8004cba:	2201      	movs	r2, #1
 8004cbc:	3634      	adds	r6, #52	@ 0x34
 8004cbe:	62ab      	str	r3, [r5, #40]	@ 0x28
 8004cc0:	7032      	strb	r2, [r6, #0]
 8004cc2:	632b      	str	r3, [r5, #48]	@ 0x30
 8004cc4:	2300      	movs	r3, #0
 8004cc6:	3410      	adds	r4, #16
 8004cc8:	7429      	strb	r1, [r5, #16]
 8004cca:	62eb      	str	r3, [r5, #44]	@ 0x2c
 8004ccc:	746a      	strb	r2, [r5, #17]
 8004cce:	1901      	adds	r1, r0, r4
 8004cd0:	6800      	ldr	r0, [r0, #0]
 8004cd2:	f001 fa6b 	bl	80061ac <USB_EPStartXfer>
 8004cd6:	2000      	movs	r0, #0
 8004cd8:	bd70      	pop	{r4, r5, r6, pc}
 8004cda:	46c0      	nop			@ (mov r8, r8)

08004cdc <HAL_PCD_EP_SetStall>:
 8004cdc:	2307      	movs	r3, #7
 8004cde:	b570      	push	{r4, r5, r6, lr}
 8004ce0:	7902      	ldrb	r2, [r0, #4]
 8004ce2:	0004      	movs	r4, r0
 8004ce4:	400b      	ands	r3, r1
 8004ce6:	429a      	cmp	r2, r3
 8004ce8:	d331      	bcc.n	8004d4e <HAL_PCD_EP_SetStall+0x72>
 8004cea:	b24a      	sxtb	r2, r1
 8004cec:	2a00      	cmp	r2, #0
 8004cee:	db1b      	blt.n	8004d28 <HAL_PCD_EP_SetStall+0x4c>
 8004cf0:	008a      	lsls	r2, r1, #2
 8004cf2:	1852      	adds	r2, r2, r1
 8004cf4:	00d2      	lsls	r2, r2, #3
 8004cf6:	0011      	movs	r1, r2
 8004cf8:	3151      	adds	r1, #81	@ 0x51
 8004cfa:	31ff      	adds	r1, #255	@ 0xff
 8004cfc:	1841      	adds	r1, r0, r1
 8004cfe:	1882      	adds	r2, r0, r2
 8004d00:	2000      	movs	r0, #0
 8004d02:	3252      	adds	r2, #82	@ 0x52
 8004d04:	32ff      	adds	r2, #255	@ 0xff
 8004d06:	7010      	strb	r0, [r2, #0]
 8004d08:	25a4      	movs	r5, #164	@ 0xa4
 8004d0a:	2201      	movs	r2, #1
 8004d0c:	700b      	strb	r3, [r1, #0]
 8004d0e:	708a      	strb	r2, [r1, #2]
 8004d10:	00ad      	lsls	r5, r5, #2
 8004d12:	5d63      	ldrb	r3, [r4, r5]
 8004d14:	2b01      	cmp	r3, #1
 8004d16:	d018      	beq.n	8004d4a <HAL_PCD_EP_SetStall+0x6e>
 8004d18:	5562      	strb	r2, [r4, r5]
 8004d1a:	6820      	ldr	r0, [r4, #0]
 8004d1c:	f001 fd3e 	bl	800679c <USB_EPSetStall>
 8004d20:	2300      	movs	r3, #0
 8004d22:	2000      	movs	r0, #0
 8004d24:	5563      	strb	r3, [r4, r5]
 8004d26:	bd70      	pop	{r4, r5, r6, pc}
 8004d28:	009a      	lsls	r2, r3, #2
 8004d2a:	18d2      	adds	r2, r2, r3
 8004d2c:	00d2      	lsls	r2, r2, #3
 8004d2e:	0011      	movs	r1, r2
 8004d30:	3110      	adds	r1, #16
 8004d32:	1841      	adds	r1, r0, r1
 8004d34:	1882      	adds	r2, r0, r2
 8004d36:	2001      	movs	r0, #1
 8004d38:	25a4      	movs	r5, #164	@ 0xa4
 8004d3a:	7450      	strb	r0, [r2, #17]
 8004d3c:	2201      	movs	r2, #1
 8004d3e:	700b      	strb	r3, [r1, #0]
 8004d40:	708a      	strb	r2, [r1, #2]
 8004d42:	00ad      	lsls	r5, r5, #2
 8004d44:	5d63      	ldrb	r3, [r4, r5]
 8004d46:	2b01      	cmp	r3, #1
 8004d48:	d1e6      	bne.n	8004d18 <HAL_PCD_EP_SetStall+0x3c>
 8004d4a:	2002      	movs	r0, #2
 8004d4c:	e7eb      	b.n	8004d26 <HAL_PCD_EP_SetStall+0x4a>
 8004d4e:	2001      	movs	r0, #1
 8004d50:	e7e9      	b.n	8004d26 <HAL_PCD_EP_SetStall+0x4a>
 8004d52:	46c0      	nop			@ (mov r8, r8)

08004d54 <HAL_PCD_EP_ClrStall>:
 8004d54:	230f      	movs	r3, #15
 8004d56:	b570      	push	{r4, r5, r6, lr}
 8004d58:	7902      	ldrb	r2, [r0, #4]
 8004d5a:	0004      	movs	r4, r0
 8004d5c:	400b      	ands	r3, r1
 8004d5e:	429a      	cmp	r2, r3
 8004d60:	d330      	bcc.n	8004dc4 <HAL_PCD_EP_ClrStall+0x70>
 8004d62:	2207      	movs	r2, #7
 8004d64:	400a      	ands	r2, r1
 8004d66:	0093      	lsls	r3, r2, #2
 8004d68:	189b      	adds	r3, r3, r2
 8004d6a:	b249      	sxtb	r1, r1
 8004d6c:	00db      	lsls	r3, r3, #3
 8004d6e:	2900      	cmp	r1, #0
 8004d70:	db18      	blt.n	8004da4 <HAL_PCD_EP_ClrStall+0x50>
 8004d72:	0019      	movs	r1, r3
 8004d74:	3151      	adds	r1, #81	@ 0x51
 8004d76:	31ff      	adds	r1, #255	@ 0xff
 8004d78:	1841      	adds	r1, r0, r1
 8004d7a:	18c3      	adds	r3, r0, r3
 8004d7c:	2600      	movs	r6, #0
 8004d7e:	2000      	movs	r0, #0
 8004d80:	25a4      	movs	r5, #164	@ 0xa4
 8004d82:	3352      	adds	r3, #82	@ 0x52
 8004d84:	33ff      	adds	r3, #255	@ 0xff
 8004d86:	7018      	strb	r0, [r3, #0]
 8004d88:	00ad      	lsls	r5, r5, #2
 8004d8a:	708e      	strb	r6, [r1, #2]
 8004d8c:	700a      	strb	r2, [r1, #0]
 8004d8e:	5d63      	ldrb	r3, [r4, r5]
 8004d90:	2b01      	cmp	r3, #1
 8004d92:	d015      	beq.n	8004dc0 <HAL_PCD_EP_ClrStall+0x6c>
 8004d94:	2301      	movs	r3, #1
 8004d96:	5563      	strb	r3, [r4, r5]
 8004d98:	6820      	ldr	r0, [r4, #0]
 8004d9a:	f001 fd21 	bl	80067e0 <USB_EPClearStall>
 8004d9e:	2000      	movs	r0, #0
 8004da0:	5566      	strb	r6, [r4, r5]
 8004da2:	bd70      	pop	{r4, r5, r6, pc}
 8004da4:	0019      	movs	r1, r3
 8004da6:	3110      	adds	r1, #16
 8004da8:	1841      	adds	r1, r0, r1
 8004daa:	18c3      	adds	r3, r0, r3
 8004dac:	2600      	movs	r6, #0
 8004dae:	2001      	movs	r0, #1
 8004db0:	25a4      	movs	r5, #164	@ 0xa4
 8004db2:	7458      	strb	r0, [r3, #17]
 8004db4:	00ad      	lsls	r5, r5, #2
 8004db6:	708e      	strb	r6, [r1, #2]
 8004db8:	700a      	strb	r2, [r1, #0]
 8004dba:	5d63      	ldrb	r3, [r4, r5]
 8004dbc:	2b01      	cmp	r3, #1
 8004dbe:	d1e9      	bne.n	8004d94 <HAL_PCD_EP_ClrStall+0x40>
 8004dc0:	2002      	movs	r0, #2
 8004dc2:	e7ee      	b.n	8004da2 <HAL_PCD_EP_ClrStall+0x4e>
 8004dc4:	2001      	movs	r0, #1
 8004dc6:	e7ec      	b.n	8004da2 <HAL_PCD_EP_ClrStall+0x4e>

08004dc8 <HAL_PCDEx_PMAConfig>:
 8004dc8:	b510      	push	{r4, lr}
 8004dca:	060c      	lsls	r4, r1, #24
 8004dcc:	d50e      	bpl.n	8004dec <HAL_PCDEx_PMAConfig+0x24>
 8004dce:	2407      	movs	r4, #7
 8004dd0:	400c      	ands	r4, r1
 8004dd2:	00a1      	lsls	r1, r4, #2
 8004dd4:	1909      	adds	r1, r1, r4
 8004dd6:	00c9      	lsls	r1, r1, #3
 8004dd8:	3110      	adds	r1, #16
 8004dda:	1840      	adds	r0, r0, r1
 8004ddc:	b299      	uxth	r1, r3
 8004dde:	2a00      	cmp	r2, #0
 8004de0:	d10d      	bne.n	8004dfe <HAL_PCDEx_PMAConfig+0x36>
 8004de2:	2300      	movs	r3, #0
 8004de4:	80c1      	strh	r1, [r0, #6]
 8004de6:	7303      	strb	r3, [r0, #12]
 8004de8:	2000      	movs	r0, #0
 8004dea:	bd10      	pop	{r4, pc}
 8004dec:	008c      	lsls	r4, r1, #2
 8004dee:	1861      	adds	r1, r4, r1
 8004df0:	00c9      	lsls	r1, r1, #3
 8004df2:	3151      	adds	r1, #81	@ 0x51
 8004df4:	31ff      	adds	r1, #255	@ 0xff
 8004df6:	1840      	adds	r0, r0, r1
 8004df8:	b299      	uxth	r1, r3
 8004dfa:	2a00      	cmp	r2, #0
 8004dfc:	d0f1      	beq.n	8004de2 <HAL_PCDEx_PMAConfig+0x1a>
 8004dfe:	6083      	str	r3, [r0, #8]
 8004e00:	2301      	movs	r3, #1
 8004e02:	e7f0      	b.n	8004de6 <HAL_PCDEx_PMAConfig+0x1e>

08004e04 <HAL_PCDEx_ActivateLPM>:
 8004e04:	23b4      	movs	r3, #180	@ 0xb4
 8004e06:	2101      	movs	r1, #1
 8004e08:	009b      	lsls	r3, r3, #2
 8004e0a:	6802      	ldr	r2, [r0, #0]
 8004e0c:	50c1      	str	r1, [r0, r3]
 8004e0e:	2100      	movs	r1, #0
 8004e10:	3b08      	subs	r3, #8
 8004e12:	54c1      	strb	r1, [r0, r3]
 8004e14:	2354      	movs	r3, #84	@ 0x54
 8004e16:	2001      	movs	r0, #1
 8004e18:	5ad1      	ldrh	r1, [r2, r3]
 8004e1a:	4301      	orrs	r1, r0
 8004e1c:	52d1      	strh	r1, [r2, r3]
 8004e1e:	5ad1      	ldrh	r1, [r2, r3]
 8004e20:	3001      	adds	r0, #1
 8004e22:	4301      	orrs	r1, r0
 8004e24:	52d1      	strh	r1, [r2, r3]
 8004e26:	2000      	movs	r0, #0
 8004e28:	4770      	bx	lr
 8004e2a:	46c0      	nop			@ (mov r8, r8)

08004e2c <HAL_PCDEx_LPM_Callback>:
 8004e2c:	4770      	bx	lr
 8004e2e:	46c0      	nop			@ (mov r8, r8)

08004e30 <HAL_RCC_OscConfig>:
 8004e30:	b5f0      	push	{r4, r5, r6, r7, lr}
 8004e32:	46ce      	mov	lr, r9
 8004e34:	4647      	mov	r7, r8
 8004e36:	b580      	push	{r7, lr}
 8004e38:	0004      	movs	r4, r0
 8004e3a:	b083      	sub	sp, #12
 8004e3c:	2800      	cmp	r0, #0
 8004e3e:	d100      	bne.n	8004e42 <HAL_RCC_OscConfig+0x12>
 8004e40:	e0f1      	b.n	8005026 <HAL_RCC_OscConfig+0x1f6>
 8004e42:	6803      	ldr	r3, [r0, #0]
 8004e44:	07da      	lsls	r2, r3, #31
 8004e46:	d52f      	bpl.n	8004ea8 <HAL_RCC_OscConfig+0x78>
 8004e48:	210c      	movs	r1, #12
 8004e4a:	48c2      	ldr	r0, [pc, #776]	@ (8005154 <HAL_RCC_OscConfig+0x324>)
 8004e4c:	6842      	ldr	r2, [r0, #4]
 8004e4e:	400a      	ands	r2, r1
 8004e50:	2a04      	cmp	r2, #4
 8004e52:	d100      	bne.n	8004e56 <HAL_RCC_OscConfig+0x26>
 8004e54:	e105      	b.n	8005062 <HAL_RCC_OscConfig+0x232>
 8004e56:	6842      	ldr	r2, [r0, #4]
 8004e58:	4011      	ands	r1, r2
 8004e5a:	2908      	cmp	r1, #8
 8004e5c:	d100      	bne.n	8004e60 <HAL_RCC_OscConfig+0x30>
 8004e5e:	e0f7      	b.n	8005050 <HAL_RCC_OscConfig+0x220>
 8004e60:	6863      	ldr	r3, [r4, #4]
 8004e62:	2b01      	cmp	r3, #1
 8004e64:	d100      	bne.n	8004e68 <HAL_RCC_OscConfig+0x38>
 8004e66:	e106      	b.n	8005076 <HAL_RCC_OscConfig+0x246>
 8004e68:	2b00      	cmp	r3, #0
 8004e6a:	d100      	bne.n	8004e6e <HAL_RCC_OscConfig+0x3e>
 8004e6c:	e128      	b.n	80050c0 <HAL_RCC_OscConfig+0x290>
 8004e6e:	2b05      	cmp	r3, #5
 8004e70:	d100      	bne.n	8004e74 <HAL_RCC_OscConfig+0x44>
 8004e72:	e22a      	b.n	80052ca <HAL_RCC_OscConfig+0x49a>
 8004e74:	4bb7      	ldr	r3, [pc, #732]	@ (8005154 <HAL_RCC_OscConfig+0x324>)
 8004e76:	49b8      	ldr	r1, [pc, #736]	@ (8005158 <HAL_RCC_OscConfig+0x328>)
 8004e78:	681a      	ldr	r2, [r3, #0]
 8004e7a:	400a      	ands	r2, r1
 8004e7c:	601a      	str	r2, [r3, #0]
 8004e7e:	681a      	ldr	r2, [r3, #0]
 8004e80:	49b6      	ldr	r1, [pc, #728]	@ (800515c <HAL_RCC_OscConfig+0x32c>)
 8004e82:	400a      	ands	r2, r1
 8004e84:	601a      	str	r2, [r3, #0]
 8004e86:	f7fd fcbf 	bl	8002808 <HAL_GetTick>
 8004e8a:	2680      	movs	r6, #128	@ 0x80
 8004e8c:	0005      	movs	r5, r0
 8004e8e:	4fb1      	ldr	r7, [pc, #708]	@ (8005154 <HAL_RCC_OscConfig+0x324>)
 8004e90:	02b6      	lsls	r6, r6, #10
 8004e92:	e005      	b.n	8004ea0 <HAL_RCC_OscConfig+0x70>
 8004e94:	f7fd fcb8 	bl	8002808 <HAL_GetTick>
 8004e98:	1b40      	subs	r0, r0, r5
 8004e9a:	2864      	cmp	r0, #100	@ 0x64
 8004e9c:	d900      	bls.n	8004ea0 <HAL_RCC_OscConfig+0x70>
 8004e9e:	e10d      	b.n	80050bc <HAL_RCC_OscConfig+0x28c>
 8004ea0:	683b      	ldr	r3, [r7, #0]
 8004ea2:	4233      	tst	r3, r6
 8004ea4:	d0f6      	beq.n	8004e94 <HAL_RCC_OscConfig+0x64>
 8004ea6:	6823      	ldr	r3, [r4, #0]
 8004ea8:	079a      	lsls	r2, r3, #30
 8004eaa:	d529      	bpl.n	8004f00 <HAL_RCC_OscConfig+0xd0>
 8004eac:	220c      	movs	r2, #12
 8004eae:	49a9      	ldr	r1, [pc, #676]	@ (8005154 <HAL_RCC_OscConfig+0x324>)
 8004eb0:	6848      	ldr	r0, [r1, #4]
 8004eb2:	4202      	tst	r2, r0
 8004eb4:	d100      	bne.n	8004eb8 <HAL_RCC_OscConfig+0x88>
 8004eb6:	e0af      	b.n	8005018 <HAL_RCC_OscConfig+0x1e8>
 8004eb8:	6848      	ldr	r0, [r1, #4]
 8004eba:	4002      	ands	r2, r0
 8004ebc:	2a08      	cmp	r2, #8
 8004ebe:	d100      	bne.n	8004ec2 <HAL_RCC_OscConfig+0x92>
 8004ec0:	e0a1      	b.n	8005006 <HAL_RCC_OscConfig+0x1d6>
 8004ec2:	68e3      	ldr	r3, [r4, #12]
 8004ec4:	4da3      	ldr	r5, [pc, #652]	@ (8005154 <HAL_RCC_OscConfig+0x324>)
 8004ec6:	2b00      	cmp	r3, #0
 8004ec8:	d100      	bne.n	8004ecc <HAL_RCC_OscConfig+0x9c>
 8004eca:	e130      	b.n	800512e <HAL_RCC_OscConfig+0x2fe>
 8004ecc:	2201      	movs	r2, #1
 8004ece:	682b      	ldr	r3, [r5, #0]
 8004ed0:	2702      	movs	r7, #2
 8004ed2:	4313      	orrs	r3, r2
 8004ed4:	602b      	str	r3, [r5, #0]
 8004ed6:	f7fd fc97 	bl	8002808 <HAL_GetTick>
 8004eda:	0006      	movs	r6, r0
 8004edc:	e005      	b.n	8004eea <HAL_RCC_OscConfig+0xba>
 8004ede:	f7fd fc93 	bl	8002808 <HAL_GetTick>
 8004ee2:	1b80      	subs	r0, r0, r6
 8004ee4:	2802      	cmp	r0, #2
 8004ee6:	d900      	bls.n	8004eea <HAL_RCC_OscConfig+0xba>
 8004ee8:	e0e8      	b.n	80050bc <HAL_RCC_OscConfig+0x28c>
 8004eea:	682b      	ldr	r3, [r5, #0]
 8004eec:	421f      	tst	r7, r3
 8004eee:	d0f6      	beq.n	8004ede <HAL_RCC_OscConfig+0xae>
 8004ef0:	21f8      	movs	r1, #248	@ 0xf8
 8004ef2:	682a      	ldr	r2, [r5, #0]
 8004ef4:	6923      	ldr	r3, [r4, #16]
 8004ef6:	438a      	bics	r2, r1
 8004ef8:	00db      	lsls	r3, r3, #3
 8004efa:	4313      	orrs	r3, r2
 8004efc:	602b      	str	r3, [r5, #0]
 8004efe:	6823      	ldr	r3, [r4, #0]
 8004f00:	071a      	lsls	r2, r3, #28
 8004f02:	d42d      	bmi.n	8004f60 <HAL_RCC_OscConfig+0x130>
 8004f04:	075a      	lsls	r2, r3, #29
 8004f06:	d544      	bpl.n	8004f92 <HAL_RCC_OscConfig+0x162>
 8004f08:	2280      	movs	r2, #128	@ 0x80
 8004f0a:	2000      	movs	r0, #0
 8004f0c:	4b91      	ldr	r3, [pc, #580]	@ (8005154 <HAL_RCC_OscConfig+0x324>)
 8004f0e:	0552      	lsls	r2, r2, #21
 8004f10:	69d9      	ldr	r1, [r3, #28]
 8004f12:	4681      	mov	r9, r0
 8004f14:	4211      	tst	r1, r2
 8004f16:	d108      	bne.n	8004f2a <HAL_RCC_OscConfig+0xfa>
 8004f18:	69d9      	ldr	r1, [r3, #28]
 8004f1a:	4311      	orrs	r1, r2
 8004f1c:	61d9      	str	r1, [r3, #28]
 8004f1e:	69db      	ldr	r3, [r3, #28]
 8004f20:	4013      	ands	r3, r2
 8004f22:	9301      	str	r3, [sp, #4]
 8004f24:	9b01      	ldr	r3, [sp, #4]
 8004f26:	2301      	movs	r3, #1
 8004f28:	4699      	mov	r9, r3
 8004f2a:	2780      	movs	r7, #128	@ 0x80
 8004f2c:	4e8c      	ldr	r6, [pc, #560]	@ (8005160 <HAL_RCC_OscConfig+0x330>)
 8004f2e:	007f      	lsls	r7, r7, #1
 8004f30:	6833      	ldr	r3, [r6, #0]
 8004f32:	423b      	tst	r3, r7
 8004f34:	d100      	bne.n	8004f38 <HAL_RCC_OscConfig+0x108>
 8004f36:	e0a5      	b.n	8005084 <HAL_RCC_OscConfig+0x254>
 8004f38:	68a3      	ldr	r3, [r4, #8]
 8004f3a:	2b01      	cmp	r3, #1
 8004f3c:	d100      	bne.n	8004f40 <HAL_RCC_OscConfig+0x110>
 8004f3e:	e115      	b.n	800516c <HAL_RCC_OscConfig+0x33c>
 8004f40:	2b00      	cmp	r3, #0
 8004f42:	d100      	bne.n	8004f46 <HAL_RCC_OscConfig+0x116>
 8004f44:	e0d5      	b.n	80050f2 <HAL_RCC_OscConfig+0x2c2>
 8004f46:	2b05      	cmp	r3, #5
 8004f48:	d100      	bne.n	8004f4c <HAL_RCC_OscConfig+0x11c>
 8004f4a:	e144      	b.n	80051d6 <HAL_RCC_OscConfig+0x3a6>
 8004f4c:	2101      	movs	r1, #1
 8004f4e:	4b81      	ldr	r3, [pc, #516]	@ (8005154 <HAL_RCC_OscConfig+0x324>)
 8004f50:	6a1a      	ldr	r2, [r3, #32]
 8004f52:	438a      	bics	r2, r1
 8004f54:	621a      	str	r2, [r3, #32]
 8004f56:	6a1a      	ldr	r2, [r3, #32]
 8004f58:	3103      	adds	r1, #3
 8004f5a:	438a      	bics	r2, r1
 8004f5c:	621a      	str	r2, [r3, #32]
 8004f5e:	e109      	b.n	8005174 <HAL_RCC_OscConfig+0x344>
 8004f60:	69e3      	ldr	r3, [r4, #28]
 8004f62:	4d7c      	ldr	r5, [pc, #496]	@ (8005154 <HAL_RCC_OscConfig+0x324>)
 8004f64:	2b00      	cmp	r3, #0
 8004f66:	d060      	beq.n	800502a <HAL_RCC_OscConfig+0x1fa>
 8004f68:	2201      	movs	r2, #1
 8004f6a:	6a6b      	ldr	r3, [r5, #36]	@ 0x24
 8004f6c:	2702      	movs	r7, #2
 8004f6e:	4313      	orrs	r3, r2
 8004f70:	626b      	str	r3, [r5, #36]	@ 0x24
 8004f72:	f7fd fc49 	bl	8002808 <HAL_GetTick>
 8004f76:	0006      	movs	r6, r0
 8004f78:	e005      	b.n	8004f86 <HAL_RCC_OscConfig+0x156>
 8004f7a:	f7fd fc45 	bl	8002808 <HAL_GetTick>
 8004f7e:	1b80      	subs	r0, r0, r6
 8004f80:	2802      	cmp	r0, #2
 8004f82:	d900      	bls.n	8004f86 <HAL_RCC_OscConfig+0x156>
 8004f84:	e09a      	b.n	80050bc <HAL_RCC_OscConfig+0x28c>
 8004f86:	6a6b      	ldr	r3, [r5, #36]	@ 0x24
 8004f88:	421f      	tst	r7, r3
 8004f8a:	d0f6      	beq.n	8004f7a <HAL_RCC_OscConfig+0x14a>
 8004f8c:	6823      	ldr	r3, [r4, #0]
 8004f8e:	075a      	lsls	r2, r3, #29
 8004f90:	d4ba      	bmi.n	8004f08 <HAL_RCC_OscConfig+0xd8>
 8004f92:	06db      	lsls	r3, r3, #27
 8004f94:	d512      	bpl.n	8004fbc <HAL_RCC_OscConfig+0x18c>
 8004f96:	6963      	ldr	r3, [r4, #20]
 8004f98:	2b01      	cmp	r3, #1
 8004f9a:	d100      	bne.n	8004f9e <HAL_RCC_OscConfig+0x16e>
 8004f9c:	e140      	b.n	8005220 <HAL_RCC_OscConfig+0x3f0>
 8004f9e:	3305      	adds	r3, #5
 8004fa0:	d000      	beq.n	8004fa4 <HAL_RCC_OscConfig+0x174>
 8004fa2:	e0f9      	b.n	8005198 <HAL_RCC_OscConfig+0x368>
 8004fa4:	2104      	movs	r1, #4
 8004fa6:	20f8      	movs	r0, #248	@ 0xf8
 8004fa8:	4a6a      	ldr	r2, [pc, #424]	@ (8005154 <HAL_RCC_OscConfig+0x324>)
 8004faa:	6b53      	ldr	r3, [r2, #52]	@ 0x34
 8004fac:	438b      	bics	r3, r1
 8004fae:	6353      	str	r3, [r2, #52]	@ 0x34
 8004fb0:	6b51      	ldr	r1, [r2, #52]	@ 0x34
 8004fb2:	69a3      	ldr	r3, [r4, #24]
 8004fb4:	4381      	bics	r1, r0
 8004fb6:	00db      	lsls	r3, r3, #3
 8004fb8:	430b      	orrs	r3, r1
 8004fba:	6353      	str	r3, [r2, #52]	@ 0x34
 8004fbc:	6a23      	ldr	r3, [r4, #32]
 8004fbe:	2b00      	cmp	r3, #0
 8004fc0:	d01b      	beq.n	8004ffa <HAL_RCC_OscConfig+0x1ca>
 8004fc2:	220c      	movs	r2, #12
 8004fc4:	4d63      	ldr	r5, [pc, #396]	@ (8005154 <HAL_RCC_OscConfig+0x324>)
 8004fc6:	6869      	ldr	r1, [r5, #4]
 8004fc8:	400a      	ands	r2, r1
 8004fca:	2a08      	cmp	r2, #8
 8004fcc:	d100      	bne.n	8004fd0 <HAL_RCC_OscConfig+0x1a0>
 8004fce:	e10c      	b.n	80051ea <HAL_RCC_OscConfig+0x3ba>
 8004fd0:	2b02      	cmp	r3, #2
 8004fd2:	d100      	bne.n	8004fd6 <HAL_RCC_OscConfig+0x1a6>
 8004fd4:	e142      	b.n	800525c <HAL_RCC_OscConfig+0x42c>
 8004fd6:	682b      	ldr	r3, [r5, #0]
 8004fd8:	4a62      	ldr	r2, [pc, #392]	@ (8005164 <HAL_RCC_OscConfig+0x334>)
 8004fda:	2680      	movs	r6, #128	@ 0x80
 8004fdc:	4013      	ands	r3, r2
 8004fde:	602b      	str	r3, [r5, #0]
 8004fe0:	f7fd fc12 	bl	8002808 <HAL_GetTick>
 8004fe4:	04b6      	lsls	r6, r6, #18
 8004fe6:	0004      	movs	r4, r0
 8004fe8:	e004      	b.n	8004ff4 <HAL_RCC_OscConfig+0x1c4>
 8004fea:	f7fd fc0d 	bl	8002808 <HAL_GetTick>
 8004fee:	1b00      	subs	r0, r0, r4
 8004ff0:	2802      	cmp	r0, #2
 8004ff2:	d863      	bhi.n	80050bc <HAL_RCC_OscConfig+0x28c>
 8004ff4:	682b      	ldr	r3, [r5, #0]
 8004ff6:	4233      	tst	r3, r6
 8004ff8:	d1f7      	bne.n	8004fea <HAL_RCC_OscConfig+0x1ba>
 8004ffa:	2000      	movs	r0, #0
 8004ffc:	b003      	add	sp, #12
 8004ffe:	bcc0      	pop	{r6, r7}
 8005000:	46b9      	mov	r9, r7
 8005002:	46b0      	mov	r8, r6
 8005004:	bdf0      	pop	{r4, r5, r6, r7, pc}
 8005006:	684a      	ldr	r2, [r1, #4]
 8005008:	21c0      	movs	r1, #192	@ 0xc0
 800500a:	0249      	lsls	r1, r1, #9
 800500c:	400a      	ands	r2, r1
 800500e:	2180      	movs	r1, #128	@ 0x80
 8005010:	0209      	lsls	r1, r1, #8
 8005012:	428a      	cmp	r2, r1
 8005014:	d000      	beq.n	8005018 <HAL_RCC_OscConfig+0x1e8>
 8005016:	e754      	b.n	8004ec2 <HAL_RCC_OscConfig+0x92>
 8005018:	4a4e      	ldr	r2, [pc, #312]	@ (8005154 <HAL_RCC_OscConfig+0x324>)
 800501a:	6812      	ldr	r2, [r2, #0]
 800501c:	0792      	lsls	r2, r2, #30
 800501e:	d541      	bpl.n	80050a4 <HAL_RCC_OscConfig+0x274>
 8005020:	68e2      	ldr	r2, [r4, #12]
 8005022:	2a01      	cmp	r2, #1
 8005024:	d03e      	beq.n	80050a4 <HAL_RCC_OscConfig+0x274>
 8005026:	2001      	movs	r0, #1
 8005028:	e7e8      	b.n	8004ffc <HAL_RCC_OscConfig+0x1cc>
 800502a:	2201      	movs	r2, #1
 800502c:	6a6b      	ldr	r3, [r5, #36]	@ 0x24
 800502e:	2702      	movs	r7, #2
 8005030:	4393      	bics	r3, r2
 8005032:	626b      	str	r3, [r5, #36]	@ 0x24
 8005034:	f7fd fbe8 	bl	8002808 <HAL_GetTick>
 8005038:	0006      	movs	r6, r0
 800503a:	e004      	b.n	8005046 <HAL_RCC_OscConfig+0x216>
 800503c:	f7fd fbe4 	bl	8002808 <HAL_GetTick>
 8005040:	1b80      	subs	r0, r0, r6
 8005042:	2802      	cmp	r0, #2
 8005044:	d83a      	bhi.n	80050bc <HAL_RCC_OscConfig+0x28c>
 8005046:	6a6b      	ldr	r3, [r5, #36]	@ 0x24
 8005048:	421f      	tst	r7, r3
 800504a:	d1f7      	bne.n	800503c <HAL_RCC_OscConfig+0x20c>
 800504c:	6823      	ldr	r3, [r4, #0]
 800504e:	e79e      	b.n	8004f8e <HAL_RCC_OscConfig+0x15e>
 8005050:	21c0      	movs	r1, #192	@ 0xc0
 8005052:	6842      	ldr	r2, [r0, #4]
 8005054:	0249      	lsls	r1, r1, #9
 8005056:	400a      	ands	r2, r1
 8005058:	2180      	movs	r1, #128	@ 0x80
 800505a:	0249      	lsls	r1, r1, #9
 800505c:	428a      	cmp	r2, r1
 800505e:	d000      	beq.n	8005062 <HAL_RCC_OscConfig+0x232>
 8005060:	e6fe      	b.n	8004e60 <HAL_RCC_OscConfig+0x30>
 8005062:	4a3c      	ldr	r2, [pc, #240]	@ (8005154 <HAL_RCC_OscConfig+0x324>)
 8005064:	6812      	ldr	r2, [r2, #0]
 8005066:	0392      	lsls	r2, r2, #14
 8005068:	d400      	bmi.n	800506c <HAL_RCC_OscConfig+0x23c>
 800506a:	e71d      	b.n	8004ea8 <HAL_RCC_OscConfig+0x78>
 800506c:	6862      	ldr	r2, [r4, #4]
 800506e:	2a00      	cmp	r2, #0
 8005070:	d000      	beq.n	8005074 <HAL_RCC_OscConfig+0x244>
 8005072:	e719      	b.n	8004ea8 <HAL_RCC_OscConfig+0x78>
 8005074:	e7d7      	b.n	8005026 <HAL_RCC_OscConfig+0x1f6>
 8005076:	2380      	movs	r3, #128	@ 0x80
 8005078:	4a36      	ldr	r2, [pc, #216]	@ (8005154 <HAL_RCC_OscConfig+0x324>)
 800507a:	025b      	lsls	r3, r3, #9
 800507c:	6811      	ldr	r1, [r2, #0]
 800507e:	430b      	orrs	r3, r1
 8005080:	6013      	str	r3, [r2, #0]
 8005082:	e700      	b.n	8004e86 <HAL_RCC_OscConfig+0x56>
 8005084:	6833      	ldr	r3, [r6, #0]
 8005086:	433b      	orrs	r3, r7
 8005088:	6033      	str	r3, [r6, #0]
 800508a:	f7fd fbbd 	bl	8002808 <HAL_GetTick>
 800508e:	0005      	movs	r5, r0
 8005090:	e004      	b.n	800509c <HAL_RCC_OscConfig+0x26c>
 8005092:	f7fd fbb9 	bl	8002808 <HAL_GetTick>
 8005096:	1b40      	subs	r0, r0, r5
 8005098:	2864      	cmp	r0, #100	@ 0x64
 800509a:	d80f      	bhi.n	80050bc <HAL_RCC_OscConfig+0x28c>
 800509c:	6833      	ldr	r3, [r6, #0]
 800509e:	423b      	tst	r3, r7
 80050a0:	d0f7      	beq.n	8005092 <HAL_RCC_OscConfig+0x262>
 80050a2:	e749      	b.n	8004f38 <HAL_RCC_OscConfig+0x108>
 80050a4:	25f8      	movs	r5, #248	@ 0xf8
 80050a6:	482b      	ldr	r0, [pc, #172]	@ (8005154 <HAL_RCC_OscConfig+0x324>)
 80050a8:	6922      	ldr	r2, [r4, #16]
 80050aa:	6801      	ldr	r1, [r0, #0]
 80050ac:	00d2      	lsls	r2, r2, #3
 80050ae:	43a9      	bics	r1, r5
 80050b0:	430a      	orrs	r2, r1
 80050b2:	6002      	str	r2, [r0, #0]
 80050b4:	071a      	lsls	r2, r3, #28
 80050b6:	d400      	bmi.n	80050ba <HAL_RCC_OscConfig+0x28a>
 80050b8:	e724      	b.n	8004f04 <HAL_RCC_OscConfig+0xd4>
 80050ba:	e751      	b.n	8004f60 <HAL_RCC_OscConfig+0x130>
 80050bc:	2003      	movs	r0, #3
 80050be:	e79d      	b.n	8004ffc <HAL_RCC_OscConfig+0x1cc>
 80050c0:	4d24      	ldr	r5, [pc, #144]	@ (8005154 <HAL_RCC_OscConfig+0x324>)
 80050c2:	4a25      	ldr	r2, [pc, #148]	@ (8005158 <HAL_RCC_OscConfig+0x328>)
 80050c4:	682b      	ldr	r3, [r5, #0]
 80050c6:	2780      	movs	r7, #128	@ 0x80
 80050c8:	4013      	ands	r3, r2
 80050ca:	602b      	str	r3, [r5, #0]
 80050cc:	682b      	ldr	r3, [r5, #0]
 80050ce:	4a23      	ldr	r2, [pc, #140]	@ (800515c <HAL_RCC_OscConfig+0x32c>)
 80050d0:	02bf      	lsls	r7, r7, #10
 80050d2:	4013      	ands	r3, r2
 80050d4:	602b      	str	r3, [r5, #0]
 80050d6:	f7fd fb97 	bl	8002808 <HAL_GetTick>
 80050da:	0006      	movs	r6, r0
 80050dc:	e004      	b.n	80050e8 <HAL_RCC_OscConfig+0x2b8>
 80050de:	f7fd fb93 	bl	8002808 <HAL_GetTick>
 80050e2:	1b80      	subs	r0, r0, r6
 80050e4:	2864      	cmp	r0, #100	@ 0x64
 80050e6:	d8e9      	bhi.n	80050bc <HAL_RCC_OscConfig+0x28c>
 80050e8:	682b      	ldr	r3, [r5, #0]
 80050ea:	423b      	tst	r3, r7
 80050ec:	d1f7      	bne.n	80050de <HAL_RCC_OscConfig+0x2ae>
 80050ee:	6823      	ldr	r3, [r4, #0]
 80050f0:	e6da      	b.n	8004ea8 <HAL_RCC_OscConfig+0x78>
 80050f2:	2201      	movs	r2, #1
 80050f4:	4e17      	ldr	r6, [pc, #92]	@ (8005154 <HAL_RCC_OscConfig+0x324>)
 80050f6:	4d1c      	ldr	r5, [pc, #112]	@ (8005168 <HAL_RCC_OscConfig+0x338>)
 80050f8:	6a33      	ldr	r3, [r6, #32]
 80050fa:	4393      	bics	r3, r2
 80050fc:	6233      	str	r3, [r6, #32]
 80050fe:	6a33      	ldr	r3, [r6, #32]
 8005100:	3203      	adds	r2, #3
 8005102:	4393      	bics	r3, r2
 8005104:	6233      	str	r3, [r6, #32]
 8005106:	f7fd fb7f 	bl	8002808 <HAL_GetTick>
 800510a:	2302      	movs	r3, #2
 800510c:	0007      	movs	r7, r0
 800510e:	4698      	mov	r8, r3
 8005110:	e004      	b.n	800511c <HAL_RCC_OscConfig+0x2ec>
 8005112:	f7fd fb79 	bl	8002808 <HAL_GetTick>
 8005116:	1bc0      	subs	r0, r0, r7
 8005118:	42a8      	cmp	r0, r5
 800511a:	d8cf      	bhi.n	80050bc <HAL_RCC_OscConfig+0x28c>
 800511c:	4642      	mov	r2, r8
 800511e:	6a33      	ldr	r3, [r6, #32]
 8005120:	421a      	tst	r2, r3
 8005122:	d1f6      	bne.n	8005112 <HAL_RCC_OscConfig+0x2e2>
 8005124:	464b      	mov	r3, r9
 8005126:	2b01      	cmp	r3, #1
 8005128:	d04e      	beq.n	80051c8 <HAL_RCC_OscConfig+0x398>
 800512a:	6823      	ldr	r3, [r4, #0]
 800512c:	e731      	b.n	8004f92 <HAL_RCC_OscConfig+0x162>
 800512e:	2201      	movs	r2, #1
 8005130:	682b      	ldr	r3, [r5, #0]
 8005132:	2702      	movs	r7, #2
 8005134:	4393      	bics	r3, r2
 8005136:	602b      	str	r3, [r5, #0]
 8005138:	f7fd fb66 	bl	8002808 <HAL_GetTick>
 800513c:	0006      	movs	r6, r0
 800513e:	e004      	b.n	800514a <HAL_RCC_OscConfig+0x31a>
 8005140:	f7fd fb62 	bl	8002808 <HAL_GetTick>
 8005144:	1b80      	subs	r0, r0, r6
 8005146:	2802      	cmp	r0, #2
 8005148:	d8b8      	bhi.n	80050bc <HAL_RCC_OscConfig+0x28c>
 800514a:	682b      	ldr	r3, [r5, #0]
 800514c:	421f      	tst	r7, r3
 800514e:	d1f7      	bne.n	8005140 <HAL_RCC_OscConfig+0x310>
 8005150:	6823      	ldr	r3, [r4, #0]
 8005152:	e6d5      	b.n	8004f00 <HAL_RCC_OscConfig+0xd0>
 8005154:	40021000 	.word	0x40021000
 8005158:	fffeffff 	.word	0xfffeffff
 800515c:	fffbffff 	.word	0xfffbffff
 8005160:	40007000 	.word	0x40007000
 8005164:	feffffff 	.word	0xfeffffff
 8005168:	00001388 	.word	0x00001388
 800516c:	495d      	ldr	r1, [pc, #372]	@ (80052e4 <HAL_RCC_OscConfig+0x4b4>)
 800516e:	6a0a      	ldr	r2, [r1, #32]
 8005170:	4313      	orrs	r3, r2
 8005172:	620b      	str	r3, [r1, #32]
 8005174:	f7fd fb48 	bl	8002808 <HAL_GetTick>
 8005178:	4b5a      	ldr	r3, [pc, #360]	@ (80052e4 <HAL_RCC_OscConfig+0x4b4>)
 800517a:	0006      	movs	r6, r0
 800517c:	4698      	mov	r8, r3
 800517e:	2702      	movs	r7, #2
 8005180:	4d59      	ldr	r5, [pc, #356]	@ (80052e8 <HAL_RCC_OscConfig+0x4b8>)
 8005182:	e004      	b.n	800518e <HAL_RCC_OscConfig+0x35e>
 8005184:	f7fd fb40 	bl	8002808 <HAL_GetTick>
 8005188:	1b80      	subs	r0, r0, r6
 800518a:	42a8      	cmp	r0, r5
 800518c:	d896      	bhi.n	80050bc <HAL_RCC_OscConfig+0x28c>
 800518e:	4643      	mov	r3, r8
 8005190:	6a1b      	ldr	r3, [r3, #32]
 8005192:	421f      	tst	r7, r3
 8005194:	d0f6      	beq.n	8005184 <HAL_RCC_OscConfig+0x354>
 8005196:	e7c5      	b.n	8005124 <HAL_RCC_OscConfig+0x2f4>
 8005198:	2204      	movs	r2, #4
 800519a:	4d52      	ldr	r5, [pc, #328]	@ (80052e4 <HAL_RCC_OscConfig+0x4b4>)
 800519c:	2702      	movs	r7, #2
 800519e:	6b6b      	ldr	r3, [r5, #52]	@ 0x34
 80051a0:	4313      	orrs	r3, r2
 80051a2:	636b      	str	r3, [r5, #52]	@ 0x34
 80051a4:	6b6b      	ldr	r3, [r5, #52]	@ 0x34
 80051a6:	3a03      	subs	r2, #3
 80051a8:	4393      	bics	r3, r2
 80051aa:	636b      	str	r3, [r5, #52]	@ 0x34
 80051ac:	f7fd fb2c 	bl	8002808 <HAL_GetTick>
 80051b0:	0006      	movs	r6, r0
 80051b2:	e005      	b.n	80051c0 <HAL_RCC_OscConfig+0x390>
 80051b4:	f7fd fb28 	bl	8002808 <HAL_GetTick>
 80051b8:	1b80      	subs	r0, r0, r6
 80051ba:	2802      	cmp	r0, #2
 80051bc:	d900      	bls.n	80051c0 <HAL_RCC_OscConfig+0x390>
 80051be:	e77d      	b.n	80050bc <HAL_RCC_OscConfig+0x28c>
 80051c0:	6b6b      	ldr	r3, [r5, #52]	@ 0x34
 80051c2:	421f      	tst	r7, r3
 80051c4:	d1f6      	bne.n	80051b4 <HAL_RCC_OscConfig+0x384>
 80051c6:	e6f9      	b.n	8004fbc <HAL_RCC_OscConfig+0x18c>
 80051c8:	4a46      	ldr	r2, [pc, #280]	@ (80052e4 <HAL_RCC_OscConfig+0x4b4>)
 80051ca:	4948      	ldr	r1, [pc, #288]	@ (80052ec <HAL_RCC_OscConfig+0x4bc>)
 80051cc:	69d3      	ldr	r3, [r2, #28]
 80051ce:	400b      	ands	r3, r1
 80051d0:	61d3      	str	r3, [r2, #28]
 80051d2:	6823      	ldr	r3, [r4, #0]
 80051d4:	e6dd      	b.n	8004f92 <HAL_RCC_OscConfig+0x162>
 80051d6:	2104      	movs	r1, #4
 80051d8:	4b42      	ldr	r3, [pc, #264]	@ (80052e4 <HAL_RCC_OscConfig+0x4b4>)
 80051da:	6a1a      	ldr	r2, [r3, #32]
 80051dc:	430a      	orrs	r2, r1
 80051de:	621a      	str	r2, [r3, #32]
 80051e0:	6a1a      	ldr	r2, [r3, #32]
 80051e2:	3903      	subs	r1, #3
 80051e4:	430a      	orrs	r2, r1
 80051e6:	621a      	str	r2, [r3, #32]
 80051e8:	e7c4      	b.n	8005174 <HAL_RCC_OscConfig+0x344>
 80051ea:	2b01      	cmp	r3, #1
 80051ec:	d100      	bne.n	80051f0 <HAL_RCC_OscConfig+0x3c0>
 80051ee:	e71a      	b.n	8005026 <HAL_RCC_OscConfig+0x1f6>
 80051f0:	22c0      	movs	r2, #192	@ 0xc0
 80051f2:	686b      	ldr	r3, [r5, #4]
 80051f4:	6a61      	ldr	r1, [r4, #36]	@ 0x24
 80051f6:	0252      	lsls	r2, r2, #9
 80051f8:	6ae8      	ldr	r0, [r5, #44]	@ 0x2c
 80051fa:	401a      	ands	r2, r3
 80051fc:	428a      	cmp	r2, r1
 80051fe:	d000      	beq.n	8005202 <HAL_RCC_OscConfig+0x3d2>
 8005200:	e711      	b.n	8005026 <HAL_RCC_OscConfig+0x1f6>
 8005202:	220f      	movs	r2, #15
 8005204:	6ae1      	ldr	r1, [r4, #44]	@ 0x2c
 8005206:	4002      	ands	r2, r0
 8005208:	428a      	cmp	r2, r1
 800520a:	d000      	beq.n	800520e <HAL_RCC_OscConfig+0x3de>
 800520c:	e70b      	b.n	8005026 <HAL_RCC_OscConfig+0x1f6>
 800520e:	22f0      	movs	r2, #240	@ 0xf0
 8005210:	6aa0      	ldr	r0, [r4, #40]	@ 0x28
 8005212:	0392      	lsls	r2, r2, #14
 8005214:	4013      	ands	r3, r2
 8005216:	1a18      	subs	r0, r3, r0
 8005218:	1e43      	subs	r3, r0, #1
 800521a:	4198      	sbcs	r0, r3
 800521c:	b2c0      	uxtb	r0, r0
 800521e:	e6ed      	b.n	8004ffc <HAL_RCC_OscConfig+0x1cc>
 8005220:	2104      	movs	r1, #4
 8005222:	4d30      	ldr	r5, [pc, #192]	@ (80052e4 <HAL_RCC_OscConfig+0x4b4>)
 8005224:	2702      	movs	r7, #2
 8005226:	6b6a      	ldr	r2, [r5, #52]	@ 0x34
 8005228:	430a      	orrs	r2, r1
 800522a:	636a      	str	r2, [r5, #52]	@ 0x34
 800522c:	6b6a      	ldr	r2, [r5, #52]	@ 0x34
 800522e:	4313      	orrs	r3, r2
 8005230:	636b      	str	r3, [r5, #52]	@ 0x34
 8005232:	f7fd fae9 	bl	8002808 <HAL_GetTick>
 8005236:	0006      	movs	r6, r0
 8005238:	e005      	b.n	8005246 <HAL_RCC_OscConfig+0x416>
 800523a:	f7fd fae5 	bl	8002808 <HAL_GetTick>
 800523e:	1b80      	subs	r0, r0, r6
 8005240:	2802      	cmp	r0, #2
 8005242:	d900      	bls.n	8005246 <HAL_RCC_OscConfig+0x416>
 8005244:	e73a      	b.n	80050bc <HAL_RCC_OscConfig+0x28c>
 8005246:	6b6b      	ldr	r3, [r5, #52]	@ 0x34
 8005248:	421f      	tst	r7, r3
 800524a:	d0f6      	beq.n	800523a <HAL_RCC_OscConfig+0x40a>
 800524c:	21f8      	movs	r1, #248	@ 0xf8
 800524e:	6b6a      	ldr	r2, [r5, #52]	@ 0x34
 8005250:	69a3      	ldr	r3, [r4, #24]
 8005252:	438a      	bics	r2, r1
 8005254:	00db      	lsls	r3, r3, #3
 8005256:	4313      	orrs	r3, r2
 8005258:	636b      	str	r3, [r5, #52]	@ 0x34
 800525a:	e6af      	b.n	8004fbc <HAL_RCC_OscConfig+0x18c>
 800525c:	682b      	ldr	r3, [r5, #0]
 800525e:	4a24      	ldr	r2, [pc, #144]	@ (80052f0 <HAL_RCC_OscConfig+0x4c0>)
 8005260:	2780      	movs	r7, #128	@ 0x80
 8005262:	4013      	ands	r3, r2
 8005264:	602b      	str	r3, [r5, #0]
 8005266:	f7fd facf 	bl	8002808 <HAL_GetTick>
 800526a:	04bf      	lsls	r7, r7, #18
 800526c:	0006      	movs	r6, r0
 800526e:	e005      	b.n	800527c <HAL_RCC_OscConfig+0x44c>
 8005270:	f7fd faca 	bl	8002808 <HAL_GetTick>
 8005274:	1b80      	subs	r0, r0, r6
 8005276:	2802      	cmp	r0, #2
 8005278:	d900      	bls.n	800527c <HAL_RCC_OscConfig+0x44c>
 800527a:	e71f      	b.n	80050bc <HAL_RCC_OscConfig+0x28c>
 800527c:	682b      	ldr	r3, [r5, #0]
 800527e:	423b      	tst	r3, r7
 8005280:	d1f6      	bne.n	8005270 <HAL_RCC_OscConfig+0x440>
 8005282:	220f      	movs	r2, #15
 8005284:	6aeb      	ldr	r3, [r5, #44]	@ 0x2c
 8005286:	4e17      	ldr	r6, [pc, #92]	@ (80052e4 <HAL_RCC_OscConfig+0x4b4>)
 8005288:	4393      	bics	r3, r2
 800528a:	6ae2      	ldr	r2, [r4, #44]	@ 0x2c
 800528c:	4313      	orrs	r3, r2
 800528e:	62eb      	str	r3, [r5, #44]	@ 0x2c
 8005290:	6a61      	ldr	r1, [r4, #36]	@ 0x24
 8005292:	6aa3      	ldr	r3, [r4, #40]	@ 0x28
 8005294:	686a      	ldr	r2, [r5, #4]
 8005296:	430b      	orrs	r3, r1
 8005298:	4916      	ldr	r1, [pc, #88]	@ (80052f4 <HAL_RCC_OscConfig+0x4c4>)
 800529a:	400a      	ands	r2, r1
 800529c:	4313      	orrs	r3, r2
 800529e:	606b      	str	r3, [r5, #4]
 80052a0:	2380      	movs	r3, #128	@ 0x80
 80052a2:	682a      	ldr	r2, [r5, #0]
 80052a4:	045b      	lsls	r3, r3, #17
 80052a6:	4313      	orrs	r3, r2
 80052a8:	602b      	str	r3, [r5, #0]
 80052aa:	f7fd faad 	bl	8002808 <HAL_GetTick>
 80052ae:	2580      	movs	r5, #128	@ 0x80
 80052b0:	0004      	movs	r4, r0
 80052b2:	04ad      	lsls	r5, r5, #18
 80052b4:	e005      	b.n	80052c2 <HAL_RCC_OscConfig+0x492>
 80052b6:	f7fd faa7 	bl	8002808 <HAL_GetTick>
 80052ba:	1b00      	subs	r0, r0, r4
 80052bc:	2802      	cmp	r0, #2
 80052be:	d900      	bls.n	80052c2 <HAL_RCC_OscConfig+0x492>
 80052c0:	e6fc      	b.n	80050bc <HAL_RCC_OscConfig+0x28c>
 80052c2:	6833      	ldr	r3, [r6, #0]
 80052c4:	422b      	tst	r3, r5
 80052c6:	d0f6      	beq.n	80052b6 <HAL_RCC_OscConfig+0x486>
 80052c8:	e697      	b.n	8004ffa <HAL_RCC_OscConfig+0x1ca>
 80052ca:	2280      	movs	r2, #128	@ 0x80
 80052cc:	4b05      	ldr	r3, [pc, #20]	@ (80052e4 <HAL_RCC_OscConfig+0x4b4>)
 80052ce:	02d2      	lsls	r2, r2, #11
 80052d0:	6819      	ldr	r1, [r3, #0]
 80052d2:	430a      	orrs	r2, r1
 80052d4:	601a      	str	r2, [r3, #0]
 80052d6:	2280      	movs	r2, #128	@ 0x80
 80052d8:	6819      	ldr	r1, [r3, #0]
 80052da:	0252      	lsls	r2, r2, #9
 80052dc:	430a      	orrs	r2, r1
 80052de:	601a      	str	r2, [r3, #0]
 80052e0:	e5d1      	b.n	8004e86 <HAL_RCC_OscConfig+0x56>
 80052e2:	46c0      	nop			@ (mov r8, r8)
 80052e4:	40021000 	.word	0x40021000
 80052e8:	00001388 	.word	0x00001388
 80052ec:	efffffff 	.word	0xefffffff
 80052f0:	feffffff 	.word	0xfeffffff
 80052f4:	ffc27fff 	.word	0xffc27fff

080052f8 <HAL_RCC_ClockConfig>:
 80052f8:	b5f8      	push	{r3, r4, r5, r6, r7, lr}
 80052fa:	46ce      	mov	lr, r9
 80052fc:	4647      	mov	r7, r8
 80052fe:	0004      	movs	r4, r0
 8005300:	000d      	movs	r5, r1
 8005302:	b580      	push	{r7, lr}
 8005304:	2800      	cmp	r0, #0
 8005306:	d00d      	beq.n	8005324 <HAL_RCC_ClockConfig+0x2c>
 8005308:	2301      	movs	r3, #1
 800530a:	4945      	ldr	r1, [pc, #276]	@ (8005420 <HAL_RCC_ClockConfig+0x128>)
 800530c:	680a      	ldr	r2, [r1, #0]
 800530e:	401a      	ands	r2, r3
 8005310:	42aa      	cmp	r2, r5
 8005312:	d20c      	bcs.n	800532e <HAL_RCC_ClockConfig+0x36>
 8005314:	680a      	ldr	r2, [r1, #0]
 8005316:	439a      	bics	r2, r3
 8005318:	432a      	orrs	r2, r5
 800531a:	600a      	str	r2, [r1, #0]
 800531c:	680a      	ldr	r2, [r1, #0]
 800531e:	4013      	ands	r3, r2
 8005320:	42ab      	cmp	r3, r5
 8005322:	d004      	beq.n	800532e <HAL_RCC_ClockConfig+0x36>
 8005324:	2001      	movs	r0, #1
 8005326:	bcc0      	pop	{r6, r7}
 8005328:	46b9      	mov	r9, r7
 800532a:	46b0      	mov	r8, r6
 800532c:	bdf8      	pop	{r3, r4, r5, r6, r7, pc}
 800532e:	6823      	ldr	r3, [r4, #0]
 8005330:	079a      	lsls	r2, r3, #30
 8005332:	d50e      	bpl.n	8005352 <HAL_RCC_ClockConfig+0x5a>
 8005334:	075a      	lsls	r2, r3, #29
 8005336:	d505      	bpl.n	8005344 <HAL_RCC_ClockConfig+0x4c>
 8005338:	22e0      	movs	r2, #224	@ 0xe0
 800533a:	493a      	ldr	r1, [pc, #232]	@ (8005424 <HAL_RCC_ClockConfig+0x12c>)
 800533c:	00d2      	lsls	r2, r2, #3
 800533e:	6848      	ldr	r0, [r1, #4]
 8005340:	4302      	orrs	r2, r0
 8005342:	604a      	str	r2, [r1, #4]
 8005344:	20f0      	movs	r0, #240	@ 0xf0
 8005346:	4937      	ldr	r1, [pc, #220]	@ (8005424 <HAL_RCC_ClockConfig+0x12c>)
 8005348:	684a      	ldr	r2, [r1, #4]
 800534a:	4382      	bics	r2, r0
 800534c:	68a0      	ldr	r0, [r4, #8]
 800534e:	4302      	orrs	r2, r0
 8005350:	604a      	str	r2, [r1, #4]
 8005352:	07db      	lsls	r3, r3, #31
 8005354:	d522      	bpl.n	800539c <HAL_RCC_ClockConfig+0xa4>
 8005356:	4b33      	ldr	r3, [pc, #204]	@ (8005424 <HAL_RCC_ClockConfig+0x12c>)
 8005358:	6862      	ldr	r2, [r4, #4]
 800535a:	681b      	ldr	r3, [r3, #0]
 800535c:	2a01      	cmp	r2, #1
 800535e:	d059      	beq.n	8005414 <HAL_RCC_ClockConfig+0x11c>
 8005360:	2a02      	cmp	r2, #2
 8005362:	d054      	beq.n	800540e <HAL_RCC_ClockConfig+0x116>
 8005364:	079b      	lsls	r3, r3, #30
 8005366:	d5dd      	bpl.n	8005324 <HAL_RCC_ClockConfig+0x2c>
 8005368:	2103      	movs	r1, #3
 800536a:	4e2e      	ldr	r6, [pc, #184]	@ (8005424 <HAL_RCC_ClockConfig+0x12c>)
 800536c:	6873      	ldr	r3, [r6, #4]
 800536e:	438b      	bics	r3, r1
 8005370:	4313      	orrs	r3, r2
 8005372:	6073      	str	r3, [r6, #4]
 8005374:	f7fd fa48 	bl	8002808 <HAL_GetTick>
 8005378:	230c      	movs	r3, #12
 800537a:	4698      	mov	r8, r3
 800537c:	4b2a      	ldr	r3, [pc, #168]	@ (8005428 <HAL_RCC_ClockConfig+0x130>)
 800537e:	0007      	movs	r7, r0
 8005380:	4699      	mov	r9, r3
 8005382:	e004      	b.n	800538e <HAL_RCC_ClockConfig+0x96>
 8005384:	f7fd fa40 	bl	8002808 <HAL_GetTick>
 8005388:	1bc0      	subs	r0, r0, r7
 800538a:	4548      	cmp	r0, r9
 800538c:	d845      	bhi.n	800541a <HAL_RCC_ClockConfig+0x122>
 800538e:	4643      	mov	r3, r8
 8005390:	6872      	ldr	r2, [r6, #4]
 8005392:	401a      	ands	r2, r3
 8005394:	6863      	ldr	r3, [r4, #4]
 8005396:	009b      	lsls	r3, r3, #2
 8005398:	429a      	cmp	r2, r3
 800539a:	d1f3      	bne.n	8005384 <HAL_RCC_ClockConfig+0x8c>
 800539c:	2101      	movs	r1, #1
 800539e:	4a20      	ldr	r2, [pc, #128]	@ (8005420 <HAL_RCC_ClockConfig+0x128>)
 80053a0:	6813      	ldr	r3, [r2, #0]
 80053a2:	400b      	ands	r3, r1
 80053a4:	42ab      	cmp	r3, r5
 80053a6:	d905      	bls.n	80053b4 <HAL_RCC_ClockConfig+0xbc>
 80053a8:	6813      	ldr	r3, [r2, #0]
 80053aa:	438b      	bics	r3, r1
 80053ac:	6013      	str	r3, [r2, #0]
 80053ae:	6813      	ldr	r3, [r2, #0]
 80053b0:	4219      	tst	r1, r3
 80053b2:	d1b7      	bne.n	8005324 <HAL_RCC_ClockConfig+0x2c>
 80053b4:	6823      	ldr	r3, [r4, #0]
 80053b6:	075b      	lsls	r3, r3, #29
 80053b8:	d506      	bpl.n	80053c8 <HAL_RCC_ClockConfig+0xd0>
 80053ba:	4a1a      	ldr	r2, [pc, #104]	@ (8005424 <HAL_RCC_ClockConfig+0x12c>)
 80053bc:	491b      	ldr	r1, [pc, #108]	@ (800542c <HAL_RCC_ClockConfig+0x134>)
 80053be:	6853      	ldr	r3, [r2, #4]
 80053c0:	400b      	ands	r3, r1
 80053c2:	68e1      	ldr	r1, [r4, #12]
 80053c4:	430b      	orrs	r3, r1
 80053c6:	6053      	str	r3, [r2, #4]
 80053c8:	220c      	movs	r2, #12
 80053ca:	4916      	ldr	r1, [pc, #88]	@ (8005424 <HAL_RCC_ClockConfig+0x12c>)
 80053cc:	684b      	ldr	r3, [r1, #4]
 80053ce:	401a      	ands	r2, r3
 80053d0:	2a08      	cmp	r2, #8
 80053d2:	d00e      	beq.n	80053f2 <HAL_RCC_ClockConfig+0xfa>
 80053d4:	4816      	ldr	r0, [pc, #88]	@ (8005430 <HAL_RCC_ClockConfig+0x138>)
 80053d6:	4b13      	ldr	r3, [pc, #76]	@ (8005424 <HAL_RCC_ClockConfig+0x12c>)
 80053d8:	4a16      	ldr	r2, [pc, #88]	@ (8005434 <HAL_RCC_ClockConfig+0x13c>)
 80053da:	685b      	ldr	r3, [r3, #4]
 80053dc:	4916      	ldr	r1, [pc, #88]	@ (8005438 <HAL_RCC_ClockConfig+0x140>)
 80053de:	061b      	lsls	r3, r3, #24
 80053e0:	0f1b      	lsrs	r3, r3, #28
 80053e2:	5cd3      	ldrb	r3, [r2, r3]
 80053e4:	40d8      	lsrs	r0, r3
 80053e6:	6008      	str	r0, [r1, #0]
 80053e8:	2003      	movs	r0, #3
 80053ea:	f7fd f9cb 	bl	8002784 <HAL_InitTick>
 80053ee:	2000      	movs	r0, #0
 80053f0:	e799      	b.n	8005326 <HAL_RCC_ClockConfig+0x2e>
 80053f2:	6ac8      	ldr	r0, [r1, #44]	@ 0x2c
 80053f4:	3207      	adds	r2, #7
 80053f6:	4911      	ldr	r1, [pc, #68]	@ (800543c <HAL_RCC_ClockConfig+0x144>)
 80053f8:	0c9b      	lsrs	r3, r3, #18
 80053fa:	4013      	ands	r3, r2
 80053fc:	5ccc      	ldrb	r4, [r1, r3]
 80053fe:	4b10      	ldr	r3, [pc, #64]	@ (8005440 <HAL_RCC_ClockConfig+0x148>)
 8005400:	4002      	ands	r2, r0
 8005402:	5c99      	ldrb	r1, [r3, r2]
 8005404:	480a      	ldr	r0, [pc, #40]	@ (8005430 <HAL_RCC_ClockConfig+0x138>)
 8005406:	f7fa fe91 	bl	800012c <__udivsi3>
 800540a:	4360      	muls	r0, r4
 800540c:	e7e3      	b.n	80053d6 <HAL_RCC_ClockConfig+0xde>
 800540e:	019b      	lsls	r3, r3, #6
 8005410:	d4aa      	bmi.n	8005368 <HAL_RCC_ClockConfig+0x70>
 8005412:	e787      	b.n	8005324 <HAL_RCC_ClockConfig+0x2c>
 8005414:	039b      	lsls	r3, r3, #14
 8005416:	d4a7      	bmi.n	8005368 <HAL_RCC_ClockConfig+0x70>
 8005418:	e784      	b.n	8005324 <HAL_RCC_ClockConfig+0x2c>
 800541a:	2003      	movs	r0, #3
 800541c:	e783      	b.n	8005326 <HAL_RCC_ClockConfig+0x2e>
 800541e:	46c0      	nop			@ (mov r8, r8)
 8005420:	40022000 	.word	0x40022000
 8005424:	40021000 	.word	0x40021000
 8005428:	00001388 	.word	0x00001388
 800542c:	fffff8ff 	.word	0xfffff8ff
 8005430:	007a1200 	.word	0x007a1200
 8005434:	08009238 	.word	0x08009238
 8005438:	20000014 	.word	0x20000014
 800543c:	08009258 	.word	0x08009258
 8005440:	08009248 	.word	0x08009248

08005444 <HAL_RCCEx_PeriphCLKConfig>:
 8005444:	b5f0      	push	{r4, r5, r6, r7, lr}
 8005446:	46ce      	mov	lr, r9
 8005448:	4647      	mov	r7, r8
 800544a:	b580      	push	{r7, lr}
 800544c:	6803      	ldr	r3, [r0, #0]
 800544e:	0004      	movs	r4, r0
 8005450:	b083      	sub	sp, #12
 8005452:	03da      	lsls	r2, r3, #15
 8005454:	d530      	bpl.n	80054b8 <HAL_RCCEx_PeriphCLKConfig+0x74>
 8005456:	2280      	movs	r2, #128	@ 0x80
 8005458:	4b44      	ldr	r3, [pc, #272]	@ (800556c <HAL_RCCEx_PeriphCLKConfig+0x128>)
 800545a:	0552      	lsls	r2, r2, #21
 800545c:	69d9      	ldr	r1, [r3, #28]
 800545e:	2700      	movs	r7, #0
 8005460:	4211      	tst	r1, r2
 8005462:	d04b      	beq.n	80054fc <HAL_RCCEx_PeriphCLKConfig+0xb8>
 8005464:	2680      	movs	r6, #128	@ 0x80
 8005466:	4d42      	ldr	r5, [pc, #264]	@ (8005570 <HAL_RCCEx_PeriphCLKConfig+0x12c>)
 8005468:	0076      	lsls	r6, r6, #1
 800546a:	682b      	ldr	r3, [r5, #0]
 800546c:	4233      	tst	r3, r6
 800546e:	d053      	beq.n	8005518 <HAL_RCCEx_PeriphCLKConfig+0xd4>
 8005470:	4d3e      	ldr	r5, [pc, #248]	@ (800556c <HAL_RCCEx_PeriphCLKConfig+0x128>)
 8005472:	23c0      	movs	r3, #192	@ 0xc0
 8005474:	6a2a      	ldr	r2, [r5, #32]
 8005476:	009b      	lsls	r3, r3, #2
 8005478:	0010      	movs	r0, r2
 800547a:	6861      	ldr	r1, [r4, #4]
 800547c:	4018      	ands	r0, r3
 800547e:	421a      	tst	r2, r3
 8005480:	d011      	beq.n	80054a6 <HAL_RCCEx_PeriphCLKConfig+0x62>
 8005482:	400b      	ands	r3, r1
 8005484:	4283      	cmp	r3, r0
 8005486:	d00e      	beq.n	80054a6 <HAL_RCCEx_PeriphCLKConfig+0x62>
 8005488:	2080      	movs	r0, #128	@ 0x80
 800548a:	6a2b      	ldr	r3, [r5, #32]
 800548c:	6a2e      	ldr	r6, [r5, #32]
 800548e:	0240      	lsls	r0, r0, #9
 8005490:	4330      	orrs	r0, r6
 8005492:	6228      	str	r0, [r5, #32]
 8005494:	6a28      	ldr	r0, [r5, #32]
 8005496:	4a37      	ldr	r2, [pc, #220]	@ (8005574 <HAL_RCCEx_PeriphCLKConfig+0x130>)
 8005498:	4e37      	ldr	r6, [pc, #220]	@ (8005578 <HAL_RCCEx_PeriphCLKConfig+0x134>)
 800549a:	401a      	ands	r2, r3
 800549c:	4030      	ands	r0, r6
 800549e:	6228      	str	r0, [r5, #32]
 80054a0:	622a      	str	r2, [r5, #32]
 80054a2:	07db      	lsls	r3, r3, #31
 80054a4:	d44f      	bmi.n	8005546 <HAL_RCCEx_PeriphCLKConfig+0x102>
 80054a6:	4a31      	ldr	r2, [pc, #196]	@ (800556c <HAL_RCCEx_PeriphCLKConfig+0x128>)
 80054a8:	4832      	ldr	r0, [pc, #200]	@ (8005574 <HAL_RCCEx_PeriphCLKConfig+0x130>)
 80054aa:	6a13      	ldr	r3, [r2, #32]
 80054ac:	4003      	ands	r3, r0
 80054ae:	430b      	orrs	r3, r1
 80054b0:	6213      	str	r3, [r2, #32]
 80054b2:	2f01      	cmp	r7, #1
 80054b4:	d041      	beq.n	800553a <HAL_RCCEx_PeriphCLKConfig+0xf6>
 80054b6:	6823      	ldr	r3, [r4, #0]
 80054b8:	07da      	lsls	r2, r3, #31
 80054ba:	d506      	bpl.n	80054ca <HAL_RCCEx_PeriphCLKConfig+0x86>
 80054bc:	2003      	movs	r0, #3
 80054be:	492b      	ldr	r1, [pc, #172]	@ (800556c <HAL_RCCEx_PeriphCLKConfig+0x128>)
 80054c0:	6b0a      	ldr	r2, [r1, #48]	@ 0x30
 80054c2:	4382      	bics	r2, r0
 80054c4:	68a0      	ldr	r0, [r4, #8]
 80054c6:	4302      	orrs	r2, r0
 80054c8:	630a      	str	r2, [r1, #48]	@ 0x30
 80054ca:	069a      	lsls	r2, r3, #26
 80054cc:	d506      	bpl.n	80054dc <HAL_RCCEx_PeriphCLKConfig+0x98>
 80054ce:	2010      	movs	r0, #16
 80054d0:	4926      	ldr	r1, [pc, #152]	@ (800556c <HAL_RCCEx_PeriphCLKConfig+0x128>)
 80054d2:	6b0a      	ldr	r2, [r1, #48]	@ 0x30
 80054d4:	4382      	bics	r2, r0
 80054d6:	68e0      	ldr	r0, [r4, #12]
 80054d8:	4302      	orrs	r2, r0
 80054da:	630a      	str	r2, [r1, #48]	@ 0x30
 80054dc:	039b      	lsls	r3, r3, #14
 80054de:	d405      	bmi.n	80054ec <HAL_RCCEx_PeriphCLKConfig+0xa8>
 80054e0:	2000      	movs	r0, #0
 80054e2:	b003      	add	sp, #12
 80054e4:	bcc0      	pop	{r6, r7}
 80054e6:	46b9      	mov	r9, r7
 80054e8:	46b0      	mov	r8, r6
 80054ea:	bdf0      	pop	{r4, r5, r6, r7, pc}
 80054ec:	2180      	movs	r1, #128	@ 0x80
 80054ee:	4a1f      	ldr	r2, [pc, #124]	@ (800556c <HAL_RCCEx_PeriphCLKConfig+0x128>)
 80054f0:	6b13      	ldr	r3, [r2, #48]	@ 0x30
 80054f2:	438b      	bics	r3, r1
 80054f4:	6921      	ldr	r1, [r4, #16]
 80054f6:	430b      	orrs	r3, r1
 80054f8:	6313      	str	r3, [r2, #48]	@ 0x30
 80054fa:	e7f1      	b.n	80054e0 <HAL_RCCEx_PeriphCLKConfig+0x9c>
 80054fc:	2680      	movs	r6, #128	@ 0x80
 80054fe:	69d9      	ldr	r1, [r3, #28]
 8005500:	4d1b      	ldr	r5, [pc, #108]	@ (8005570 <HAL_RCCEx_PeriphCLKConfig+0x12c>)
 8005502:	4311      	orrs	r1, r2
 8005504:	61d9      	str	r1, [r3, #28]
 8005506:	69db      	ldr	r3, [r3, #28]
 8005508:	0076      	lsls	r6, r6, #1
 800550a:	4013      	ands	r3, r2
 800550c:	9301      	str	r3, [sp, #4]
 800550e:	9b01      	ldr	r3, [sp, #4]
 8005510:	682b      	ldr	r3, [r5, #0]
 8005512:	3701      	adds	r7, #1
 8005514:	4233      	tst	r3, r6
 8005516:	d1ab      	bne.n	8005470 <HAL_RCCEx_PeriphCLKConfig+0x2c>
 8005518:	682b      	ldr	r3, [r5, #0]
 800551a:	4333      	orrs	r3, r6
 800551c:	602b      	str	r3, [r5, #0]
 800551e:	f7fd f973 	bl	8002808 <HAL_GetTick>
 8005522:	4680      	mov	r8, r0
 8005524:	682b      	ldr	r3, [r5, #0]
 8005526:	4233      	tst	r3, r6
 8005528:	d1a2      	bne.n	8005470 <HAL_RCCEx_PeriphCLKConfig+0x2c>
 800552a:	f7fd f96d 	bl	8002808 <HAL_GetTick>
 800552e:	4643      	mov	r3, r8
 8005530:	1ac0      	subs	r0, r0, r3
 8005532:	2864      	cmp	r0, #100	@ 0x64
 8005534:	d9f6      	bls.n	8005524 <HAL_RCCEx_PeriphCLKConfig+0xe0>
 8005536:	2003      	movs	r0, #3
 8005538:	e7d3      	b.n	80054e2 <HAL_RCCEx_PeriphCLKConfig+0x9e>
 800553a:	69d3      	ldr	r3, [r2, #28]
 800553c:	490f      	ldr	r1, [pc, #60]	@ (800557c <HAL_RCCEx_PeriphCLKConfig+0x138>)
 800553e:	400b      	ands	r3, r1
 8005540:	61d3      	str	r3, [r2, #28]
 8005542:	6823      	ldr	r3, [r4, #0]
 8005544:	e7b8      	b.n	80054b8 <HAL_RCCEx_PeriphCLKConfig+0x74>
 8005546:	f7fd f95f 	bl	8002808 <HAL_GetTick>
 800554a:	2302      	movs	r3, #2
 800554c:	4698      	mov	r8, r3
 800554e:	4b0c      	ldr	r3, [pc, #48]	@ (8005580 <HAL_RCCEx_PeriphCLKConfig+0x13c>)
 8005550:	0006      	movs	r6, r0
 8005552:	4699      	mov	r9, r3
 8005554:	e004      	b.n	8005560 <HAL_RCCEx_PeriphCLKConfig+0x11c>
 8005556:	f7fd f957 	bl	8002808 <HAL_GetTick>
 800555a:	1b80      	subs	r0, r0, r6
 800555c:	4548      	cmp	r0, r9
 800555e:	d8ea      	bhi.n	8005536 <HAL_RCCEx_PeriphCLKConfig+0xf2>
 8005560:	4642      	mov	r2, r8
 8005562:	6a2b      	ldr	r3, [r5, #32]
 8005564:	421a      	tst	r2, r3
 8005566:	d0f6      	beq.n	8005556 <HAL_RCCEx_PeriphCLKConfig+0x112>
 8005568:	6861      	ldr	r1, [r4, #4]
 800556a:	e79c      	b.n	80054a6 <HAL_RCCEx_PeriphCLKConfig+0x62>
 800556c:	40021000 	.word	0x40021000
 8005570:	40007000 	.word	0x40007000
 8005574:	fffffcff 	.word	0xfffffcff
 8005578:	fffeffff 	.word	0xfffeffff
 800557c:	efffffff 	.word	0xefffffff
 8005580:	00001388 	.word	0x00001388

08005584 <TIM_OC1_SetConfig>:
 8005584:	b570      	push	{r4, r5, r6, lr}
 8005586:	2401      	movs	r4, #1
 8005588:	2573      	movs	r5, #115	@ 0x73
 800558a:	6a03      	ldr	r3, [r0, #32]
 800558c:	6a02      	ldr	r2, [r0, #32]
 800558e:	43a2      	bics	r2, r4
 8005590:	6202      	str	r2, [r0, #32]
 8005592:	6842      	ldr	r2, [r0, #4]
 8005594:	6984      	ldr	r4, [r0, #24]
 8005596:	43ac      	bics	r4, r5
 8005598:	680d      	ldr	r5, [r1, #0]
 800559a:	432c      	orrs	r4, r5
 800559c:	2502      	movs	r5, #2
 800559e:	43ab      	bics	r3, r5
 80055a0:	688d      	ldr	r5, [r1, #8]
 80055a2:	432b      	orrs	r3, r5
 80055a4:	4d0e      	ldr	r5, [pc, #56]	@ (80055e0 <TIM_OC1_SetConfig+0x5c>)
 80055a6:	42a8      	cmp	r0, r5
 80055a8:	d008      	beq.n	80055bc <TIM_OC1_SetConfig+0x38>
 80055aa:	4d0e      	ldr	r5, [pc, #56]	@ (80055e4 <TIM_OC1_SetConfig+0x60>)
 80055ac:	42a8      	cmp	r0, r5
 80055ae:	d005      	beq.n	80055bc <TIM_OC1_SetConfig+0x38>
 80055b0:	4d0d      	ldr	r5, [pc, #52]	@ (80055e8 <TIM_OC1_SetConfig+0x64>)
 80055b2:	42a8      	cmp	r0, r5
 80055b4:	d002      	beq.n	80055bc <TIM_OC1_SetConfig+0x38>
 80055b6:	4d0d      	ldr	r5, [pc, #52]	@ (80055ec <TIM_OC1_SetConfig+0x68>)
 80055b8:	42a8      	cmp	r0, r5
 80055ba:	d10b      	bne.n	80055d4 <TIM_OC1_SetConfig+0x50>
 80055bc:	2508      	movs	r5, #8
 80055be:	43ab      	bics	r3, r5
 80055c0:	68cd      	ldr	r5, [r1, #12]
 80055c2:	698e      	ldr	r6, [r1, #24]
 80055c4:	432b      	orrs	r3, r5
 80055c6:	2504      	movs	r5, #4
 80055c8:	43ab      	bics	r3, r5
 80055ca:	4d09      	ldr	r5, [pc, #36]	@ (80055f0 <TIM_OC1_SetConfig+0x6c>)
 80055cc:	4015      	ands	r5, r2
 80055ce:	694a      	ldr	r2, [r1, #20]
 80055d0:	4332      	orrs	r2, r6
 80055d2:	432a      	orrs	r2, r5
 80055d4:	6042      	str	r2, [r0, #4]
 80055d6:	684a      	ldr	r2, [r1, #4]
 80055d8:	6184      	str	r4, [r0, #24]
 80055da:	6342      	str	r2, [r0, #52]	@ 0x34
 80055dc:	6203      	str	r3, [r0, #32]
 80055de:	bd70      	pop	{r4, r5, r6, pc}
 80055e0:	40012c00 	.word	0x40012c00
 80055e4:	40014000 	.word	0x40014000
 80055e8:	40014400 	.word	0x40014400
 80055ec:	40014800 	.word	0x40014800
 80055f0:	fffffcff 	.word	0xfffffcff

080055f4 <HAL_TIM_Base_Init>:
 80055f4:	b570      	push	{r4, r5, r6, lr}
 80055f6:	1e04      	subs	r4, r0, #0
 80055f8:	d100      	bne.n	80055fc <HAL_TIM_Base_Init+0x8>
 80055fa:	e06d      	b.n	80056d8 <HAL_TIM_Base_Init+0xe4>
 80055fc:	233d      	movs	r3, #61	@ 0x3d
 80055fe:	5cc3      	ldrb	r3, [r0, r3]
 8005600:	b2da      	uxtb	r2, r3
 8005602:	2b00      	cmp	r3, #0
 8005604:	d020      	beq.n	8005648 <HAL_TIM_Base_Init+0x54>
 8005606:	233d      	movs	r3, #61	@ 0x3d
 8005608:	2202      	movs	r2, #2
 800560a:	54e2      	strb	r2, [r4, r3]
 800560c:	6823      	ldr	r3, [r4, #0]
 800560e:	4e33      	ldr	r6, [pc, #204]	@ (80056dc <HAL_TIM_Base_Init+0xe8>)
 8005610:	681a      	ldr	r2, [r3, #0]
 8005612:	6861      	ldr	r1, [r4, #4]
 8005614:	68e0      	ldr	r0, [r4, #12]
 8005616:	69a5      	ldr	r5, [r4, #24]
 8005618:	42b3      	cmp	r3, r6
 800561a:	d01a      	beq.n	8005652 <HAL_TIM_Base_Init+0x5e>
 800561c:	4e30      	ldr	r6, [pc, #192]	@ (80056e0 <HAL_TIM_Base_Init+0xec>)
 800561e:	42b3      	cmp	r3, r6
 8005620:	d046      	beq.n	80056b0 <HAL_TIM_Base_Init+0xbc>
 8005622:	4e30      	ldr	r6, [pc, #192]	@ (80056e4 <HAL_TIM_Base_Init+0xf0>)
 8005624:	42b3      	cmp	r3, r6
 8005626:	d047      	beq.n	80056b8 <HAL_TIM_Base_Init+0xc4>
 8005628:	4e2f      	ldr	r6, [pc, #188]	@ (80056e8 <HAL_TIM_Base_Init+0xf4>)
 800562a:	42b3      	cmp	r3, r6
 800562c:	d049      	beq.n	80056c2 <HAL_TIM_Base_Init+0xce>
 800562e:	4e2f      	ldr	r6, [pc, #188]	@ (80056ec <HAL_TIM_Base_Init+0xf8>)
 8005630:	42b3      	cmp	r3, r6
 8005632:	d012      	beq.n	800565a <HAL_TIM_Base_Init+0x66>
 8005634:	4e2e      	ldr	r6, [pc, #184]	@ (80056f0 <HAL_TIM_Base_Init+0xfc>)
 8005636:	42b3      	cmp	r3, r6
 8005638:	d00f      	beq.n	800565a <HAL_TIM_Base_Init+0x66>
 800563a:	2680      	movs	r6, #128	@ 0x80
 800563c:	43b2      	bics	r2, r6
 800563e:	432a      	orrs	r2, r5
 8005640:	601a      	str	r2, [r3, #0]
 8005642:	62d8      	str	r0, [r3, #44]	@ 0x2c
 8005644:	6299      	str	r1, [r3, #40]	@ 0x28
 8005646:	e014      	b.n	8005672 <HAL_TIM_Base_Init+0x7e>
 8005648:	333c      	adds	r3, #60	@ 0x3c
 800564a:	54c2      	strb	r2, [r0, r3]
 800564c:	f7fc ff0e 	bl	800246c <HAL_TIM_Base_MspInit>
 8005650:	e7d9      	b.n	8005606 <HAL_TIM_Base_Init+0x12>
 8005652:	2670      	movs	r6, #112	@ 0x70
 8005654:	43b2      	bics	r2, r6
 8005656:	68a6      	ldr	r6, [r4, #8]
 8005658:	4332      	orrs	r2, r6
 800565a:	4e26      	ldr	r6, [pc, #152]	@ (80056f4 <HAL_TIM_Base_Init+0x100>)
 800565c:	4032      	ands	r2, r6
 800565e:	6926      	ldr	r6, [r4, #16]
 8005660:	4332      	orrs	r2, r6
 8005662:	2680      	movs	r6, #128	@ 0x80
 8005664:	43b2      	bics	r2, r6
 8005666:	432a      	orrs	r2, r5
 8005668:	601a      	str	r2, [r3, #0]
 800566a:	62d8      	str	r0, [r3, #44]	@ 0x2c
 800566c:	6299      	str	r1, [r3, #40]	@ 0x28
 800566e:	6962      	ldr	r2, [r4, #20]
 8005670:	631a      	str	r2, [r3, #48]	@ 0x30
 8005672:	2201      	movs	r2, #1
 8005674:	615a      	str	r2, [r3, #20]
 8005676:	6919      	ldr	r1, [r3, #16]
 8005678:	420a      	tst	r2, r1
 800567a:	d002      	beq.n	8005682 <HAL_TIM_Base_Init+0x8e>
 800567c:	6919      	ldr	r1, [r3, #16]
 800567e:	4391      	bics	r1, r2
 8005680:	6119      	str	r1, [r3, #16]
 8005682:	2301      	movs	r3, #1
 8005684:	2246      	movs	r2, #70	@ 0x46
 8005686:	2000      	movs	r0, #0
 8005688:	54a3      	strb	r3, [r4, r2]
 800568a:	3a08      	subs	r2, #8
 800568c:	54a3      	strb	r3, [r4, r2]
 800568e:	3201      	adds	r2, #1
 8005690:	54a3      	strb	r3, [r4, r2]
 8005692:	3201      	adds	r2, #1
 8005694:	54a3      	strb	r3, [r4, r2]
 8005696:	3201      	adds	r2, #1
 8005698:	54a3      	strb	r3, [r4, r2]
 800569a:	3201      	adds	r2, #1
 800569c:	54a3      	strb	r3, [r4, r2]
 800569e:	3201      	adds	r2, #1
 80056a0:	54a3      	strb	r3, [r4, r2]
 80056a2:	3201      	adds	r2, #1
 80056a4:	54a3      	strb	r3, [r4, r2]
 80056a6:	3201      	adds	r2, #1
 80056a8:	54a3      	strb	r3, [r4, r2]
 80056aa:	3a08      	subs	r2, #8
 80056ac:	54a3      	strb	r3, [r4, r2]
 80056ae:	bd70      	pop	{r4, r5, r6, pc}
 80056b0:	2670      	movs	r6, #112	@ 0x70
 80056b2:	43b2      	bics	r2, r6
 80056b4:	68a6      	ldr	r6, [r4, #8]
 80056b6:	4332      	orrs	r2, r6
 80056b8:	4e0e      	ldr	r6, [pc, #56]	@ (80056f4 <HAL_TIM_Base_Init+0x100>)
 80056ba:	4032      	ands	r2, r6
 80056bc:	6926      	ldr	r6, [r4, #16]
 80056be:	4332      	orrs	r2, r6
 80056c0:	e7bb      	b.n	800563a <HAL_TIM_Base_Init+0x46>
 80056c2:	4e0c      	ldr	r6, [pc, #48]	@ (80056f4 <HAL_TIM_Base_Init+0x100>)
 80056c4:	4032      	ands	r2, r6
 80056c6:	6926      	ldr	r6, [r4, #16]
 80056c8:	4332      	orrs	r2, r6
 80056ca:	2680      	movs	r6, #128	@ 0x80
 80056cc:	43b2      	bics	r2, r6
 80056ce:	4315      	orrs	r5, r2
 80056d0:	601d      	str	r5, [r3, #0]
 80056d2:	62d8      	str	r0, [r3, #44]	@ 0x2c
 80056d4:	6299      	str	r1, [r3, #40]	@ 0x28
 80056d6:	e7ca      	b.n	800566e <HAL_TIM_Base_Init+0x7a>
 80056d8:	2001      	movs	r0, #1
 80056da:	e7e8      	b.n	80056ae <HAL_TIM_Base_Init+0xba>
 80056dc:	40012c00 	.word	0x40012c00
 80056e0:	40000400 	.word	0x40000400
 80056e4:	40002000 	.word	0x40002000
 80056e8:	40014000 	.word	0x40014000
 80056ec:	40014400 	.word	0x40014400
 80056f0:	40014800 	.word	0x40014800
 80056f4:	fffffcff 	.word	0xfffffcff

080056f8 <HAL_TIM_Base_Start>:
 80056f8:	213d      	movs	r1, #61	@ 0x3d
 80056fa:	b510      	push	{r4, lr}
 80056fc:	5c42      	ldrb	r2, [r0, r1]
 80056fe:	0003      	movs	r3, r0
 8005700:	b2d4      	uxtb	r4, r2
 8005702:	2001      	movs	r0, #1
 8005704:	2a01      	cmp	r2, #1
 8005706:	d10f      	bne.n	8005728 <HAL_TIM_Base_Start+0x30>
 8005708:	3201      	adds	r2, #1
 800570a:	545a      	strb	r2, [r3, r1]
 800570c:	681b      	ldr	r3, [r3, #0]
 800570e:	4a0c      	ldr	r2, [pc, #48]	@ (8005740 <HAL_TIM_Base_Start+0x48>)
 8005710:	4293      	cmp	r3, r2
 8005712:	d00a      	beq.n	800572a <HAL_TIM_Base_Start+0x32>
 8005714:	4a0b      	ldr	r2, [pc, #44]	@ (8005744 <HAL_TIM_Base_Start+0x4c>)
 8005716:	4293      	cmp	r3, r2
 8005718:	d007      	beq.n	800572a <HAL_TIM_Base_Start+0x32>
 800571a:	4a0b      	ldr	r2, [pc, #44]	@ (8005748 <HAL_TIM_Base_Start+0x50>)
 800571c:	4293      	cmp	r3, r2
 800571e:	d004      	beq.n	800572a <HAL_TIM_Base_Start+0x32>
 8005720:	681a      	ldr	r2, [r3, #0]
 8005722:	4322      	orrs	r2, r4
 8005724:	601a      	str	r2, [r3, #0]
 8005726:	2000      	movs	r0, #0
 8005728:	bd10      	pop	{r4, pc}
 800572a:	2207      	movs	r2, #7
 800572c:	6899      	ldr	r1, [r3, #8]
 800572e:	400a      	ands	r2, r1
 8005730:	2a06      	cmp	r2, #6
 8005732:	d0f8      	beq.n	8005726 <HAL_TIM_Base_Start+0x2e>
 8005734:	2101      	movs	r1, #1
 8005736:	681a      	ldr	r2, [r3, #0]
 8005738:	2000      	movs	r0, #0
 800573a:	430a      	orrs	r2, r1
 800573c:	601a      	str	r2, [r3, #0]
 800573e:	e7f3      	b.n	8005728 <HAL_TIM_Base_Start+0x30>
 8005740:	40012c00 	.word	0x40012c00
 8005744:	40000400 	.word	0x40000400
 8005748:	40014000 	.word	0x40014000

0800574c <HAL_TIM_PWM_MspInit>:
 800574c:	4770      	bx	lr
 800574e:	46c0      	nop			@ (mov r8, r8)

08005750 <HAL_TIM_PWM_Init>:
 8005750:	b570      	push	{r4, r5, r6, lr}
 8005752:	1e04      	subs	r4, r0, #0
 8005754:	d100      	bne.n	8005758 <HAL_TIM_PWM_Init+0x8>
 8005756:	e06d      	b.n	8005834 <HAL_TIM_PWM_Init+0xe4>
 8005758:	233d      	movs	r3, #61	@ 0x3d
 800575a:	5cc3      	ldrb	r3, [r0, r3]
 800575c:	b2da      	uxtb	r2, r3
 800575e:	2b00      	cmp	r3, #0
 8005760:	d020      	beq.n	80057a4 <HAL_TIM_PWM_Init+0x54>
 8005762:	233d      	movs	r3, #61	@ 0x3d
 8005764:	2202      	movs	r2, #2
 8005766:	54e2      	strb	r2, [r4, r3]
 8005768:	6823      	ldr	r3, [r4, #0]
 800576a:	4e33      	ldr	r6, [pc, #204]	@ (8005838 <HAL_TIM_PWM_Init+0xe8>)
 800576c:	681a      	ldr	r2, [r3, #0]
 800576e:	6861      	ldr	r1, [r4, #4]
 8005770:	68e0      	ldr	r0, [r4, #12]
 8005772:	69a5      	ldr	r5, [r4, #24]
 8005774:	42b3      	cmp	r3, r6
 8005776:	d01a      	beq.n	80057ae <HAL_TIM_PWM_Init+0x5e>
 8005778:	4e30      	ldr	r6, [pc, #192]	@ (800583c <HAL_TIM_PWM_Init+0xec>)
 800577a:	42b3      	cmp	r3, r6
 800577c:	d046      	beq.n	800580c <HAL_TIM_PWM_Init+0xbc>
 800577e:	4e30      	ldr	r6, [pc, #192]	@ (8005840 <HAL_TIM_PWM_Init+0xf0>)
 8005780:	42b3      	cmp	r3, r6
 8005782:	d047      	beq.n	8005814 <HAL_TIM_PWM_Init+0xc4>
 8005784:	4e2f      	ldr	r6, [pc, #188]	@ (8005844 <HAL_TIM_PWM_Init+0xf4>)
 8005786:	42b3      	cmp	r3, r6
 8005788:	d049      	beq.n	800581e <HAL_TIM_PWM_Init+0xce>
 800578a:	4e2f      	ldr	r6, [pc, #188]	@ (8005848 <HAL_TIM_PWM_Init+0xf8>)
 800578c:	42b3      	cmp	r3, r6
 800578e:	d012      	beq.n	80057b6 <HAL_TIM_PWM_Init+0x66>
 8005790:	4e2e      	ldr	r6, [pc, #184]	@ (800584c <HAL_TIM_PWM_Init+0xfc>)
 8005792:	42b3      	cmp	r3, r6
 8005794:	d00f      	beq.n	80057b6 <HAL_TIM_PWM_Init+0x66>
 8005796:	2680      	movs	r6, #128	@ 0x80
 8005798:	43b2      	bics	r2, r6
 800579a:	432a      	orrs	r2, r5
 800579c:	601a      	str	r2, [r3, #0]
 800579e:	62d8      	str	r0, [r3, #44]	@ 0x2c
 80057a0:	6299      	str	r1, [r3, #40]	@ 0x28
 80057a2:	e014      	b.n	80057ce <HAL_TIM_PWM_Init+0x7e>
 80057a4:	333c      	adds	r3, #60	@ 0x3c
 80057a6:	54c2      	strb	r2, [r0, r3]
 80057a8:	f7ff ffd0 	bl	800574c <HAL_TIM_PWM_MspInit>
 80057ac:	e7d9      	b.n	8005762 <HAL_TIM_PWM_Init+0x12>
 80057ae:	2670      	movs	r6, #112	@ 0x70
 80057b0:	43b2      	bics	r2, r6
 80057b2:	68a6      	ldr	r6, [r4, #8]
 80057b4:	4332      	orrs	r2, r6
 80057b6:	4e26      	ldr	r6, [pc, #152]	@ (8005850 <HAL_TIM_PWM_Init+0x100>)
 80057b8:	4032      	ands	r2, r6
 80057ba:	6926      	ldr	r6, [r4, #16]
 80057bc:	4332      	orrs	r2, r6
 80057be:	2680      	movs	r6, #128	@ 0x80
 80057c0:	43b2      	bics	r2, r6
 80057c2:	432a      	orrs	r2, r5
 80057c4:	601a      	str	r2, [r3, #0]
 80057c6:	62d8      	str	r0, [r3, #44]	@ 0x2c
 80057c8:	6299      	str	r1, [r3, #40]	@ 0x28
 80057ca:	6962      	ldr	r2, [r4, #20]
 80057cc:	631a      	str	r2, [r3, #48]	@ 0x30
 80057ce:	2201      	movs	r2, #1
 80057d0:	615a      	str	r2, [r3, #20]
 80057d2:	6919      	ldr	r1, [r3, #16]
 80057d4:	420a      	tst	r2, r1
 80057d6:	d002      	beq.n	80057de <HAL_TIM_PWM_Init+0x8e>
 80057d8:	6919      	ldr	r1, [r3, #16]
 80057da:	4391      	bics	r1, r2
 80057dc:	6119      	str	r1, [r3, #16]
 80057de:	2301      	movs	r3, #1
 80057e0:	2246      	movs	r2, #70	@ 0x46
 80057e2:	2000      	movs	r0, #0
 80057e4:	54a3      	strb	r3, [r4, r2]
 80057e6:	3a08      	subs	r2, #8
 80057e8:	54a3      	strb	r3, [r4, r2]
 80057ea:	3201      	adds	r2, #1
 80057ec:	54a3      	strb	r3, [r4, r2]
 80057ee:	3201      	adds	r2, #1
 80057f0:	54a3      	strb	r3, [r4, r2]
 80057f2:	3201      	adds	r2, #1
 80057f4:	54a3      	strb	r3, [r4, r2]
 80057f6:	3201      	adds	r2, #1
 80057f8:	54a3      	strb	r3, [r4, r2]
 80057fa:	3201      	adds	r2, #1
 80057fc:	54a3      	strb	r3, [r4, r2]
 80057fe:	3201      	adds	r2, #1
 8005800:	54a3      	strb	r3, [r4, r2]
 8005802:	3201      	adds	r2, #1
 8005804:	54a3      	strb	r3, [r4, r2]
 8005806:	3a08      	subs	r2, #8
 8005808:	54a3      	strb	r3, [r4, r2]
 800580a:	bd70      	pop	{r4, r5, r6, pc}
 800580c:	2670      	movs	r6, #112	@ 0x70
 800580e:	43b2      	bics	r2, r6
 8005810:	68a6      	ldr	r6, [r4, #8]
 8005812:	4332      	orrs	r2, r6
 8005814:	4e0e      	ldr	r6, [pc, #56]	@ (8005850 <HAL_TIM_PWM_Init+0x100>)
 8005816:	4032      	ands	r2, r6
 8005818:	6926      	ldr	r6, [r4, #16]
 800581a:	4332      	orrs	r2, r6
 800581c:	e7bb      	b.n	8005796 <HAL_TIM_PWM_Init+0x46>
 800581e:	4e0c      	ldr	r6, [pc, #48]	@ (8005850 <HAL_TIM_PWM_Init+0x100>)
 8005820:	4032      	ands	r2, r6
 8005822:	6926      	ldr	r6, [r4, #16]
 8005824:	4332      	orrs	r2, r6
 8005826:	2680      	movs	r6, #128	@ 0x80
 8005828:	43b2      	bics	r2, r6
 800582a:	4315      	orrs	r5, r2
 800582c:	601d      	str	r5, [r3, #0]
 800582e:	62d8      	str	r0, [r3, #44]	@ 0x2c
 8005830:	6299      	str	r1, [r3, #40]	@ 0x28
 8005832:	e7ca      	b.n	80057ca <HAL_TIM_PWM_Init+0x7a>
 8005834:	2001      	movs	r0, #1
 8005836:	e7e8      	b.n	800580a <HAL_TIM_PWM_Init+0xba>
 8005838:	40012c00 	.word	0x40012c00
 800583c:	40000400 	.word	0x40000400
 8005840:	40002000 	.word	0x40002000
 8005844:	40014000 	.word	0x40014000
 8005848:	40014400 	.word	0x40014400
 800584c:	40014800 	.word	0x40014800
 8005850:	fffffcff 	.word	0xfffffcff

08005854 <HAL_TIM_PWM_ConfigChannel>:
 8005854:	b5f8      	push	{r3, r4, r5, r6, r7, lr}
 8005856:	233c      	movs	r3, #60	@ 0x3c
 8005858:	000d      	movs	r5, r1
 800585a:	5cc1      	ldrb	r1, [r0, r3]
 800585c:	0004      	movs	r4, r0
 800585e:	2901      	cmp	r1, #1
 8005860:	d100      	bne.n	8005864 <HAL_TIM_PWM_ConfigChannel+0x10>
 8005862:	e0de      	b.n	8005a22 <HAL_TIM_PWM_ConfigChannel+0x1ce>
 8005864:	2101      	movs	r1, #1
 8005866:	54c1      	strb	r1, [r0, r3]
 8005868:	2a08      	cmp	r2, #8
 800586a:	d100      	bne.n	800586e <HAL_TIM_PWM_ConfigChannel+0x1a>
 800586c:	e09a      	b.n	80059a4 <HAL_TIM_PWM_ConfigChannel+0x150>
 800586e:	d823      	bhi.n	80058b8 <HAL_TIM_PWM_ConfigChannel+0x64>
 8005870:	2a00      	cmp	r2, #0
 8005872:	d100      	bne.n	8005876 <HAL_TIM_PWM_ConfigChannel+0x22>
 8005874:	e083      	b.n	800597e <HAL_TIM_PWM_ConfigChannel+0x12a>
 8005876:	2a04      	cmp	r2, #4
 8005878:	d158      	bne.n	800592c <HAL_TIM_PWM_ConfigChannel+0xd8>
 800587a:	2110      	movs	r1, #16
 800587c:	6803      	ldr	r3, [r0, #0]
 800587e:	4e6a      	ldr	r6, [pc, #424]	@ (8005a28 <HAL_TIM_PWM_ConfigChannel+0x1d4>)
 8005880:	6a18      	ldr	r0, [r3, #32]
 8005882:	6a1a      	ldr	r2, [r3, #32]
 8005884:	438a      	bics	r2, r1
 8005886:	621a      	str	r2, [r3, #32]
 8005888:	6859      	ldr	r1, [r3, #4]
 800588a:	699a      	ldr	r2, [r3, #24]
 800588c:	4032      	ands	r2, r6
 800588e:	682e      	ldr	r6, [r5, #0]
 8005890:	0236      	lsls	r6, r6, #8
 8005892:	4316      	orrs	r6, r2
 8005894:	2220      	movs	r2, #32
 8005896:	4390      	bics	r0, r2
 8005898:	68aa      	ldr	r2, [r5, #8]
 800589a:	0112      	lsls	r2, r2, #4
 800589c:	4302      	orrs	r2, r0
 800589e:	4863      	ldr	r0, [pc, #396]	@ (8005a2c <HAL_TIM_PWM_ConfigChannel+0x1d8>)
 80058a0:	4283      	cmp	r3, r0
 80058a2:	d048      	beq.n	8005936 <HAL_TIM_PWM_ConfigChannel+0xe2>
 80058a4:	4862      	ldr	r0, [pc, #392]	@ (8005a30 <HAL_TIM_PWM_ConfigChannel+0x1dc>)
 80058a6:	4283      	cmp	r3, r0
 80058a8:	d04d      	beq.n	8005946 <HAL_TIM_PWM_ConfigChannel+0xf2>
 80058aa:	4862      	ldr	r0, [pc, #392]	@ (8005a34 <HAL_TIM_PWM_ConfigChannel+0x1e0>)
 80058ac:	4283      	cmp	r3, r0
 80058ae:	d04a      	beq.n	8005946 <HAL_TIM_PWM_ConfigChannel+0xf2>
 80058b0:	4861      	ldr	r0, [pc, #388]	@ (8005a38 <HAL_TIM_PWM_ConfigChannel+0x1e4>)
 80058b2:	4283      	cmp	r3, r0
 80058b4:	d14e      	bne.n	8005954 <HAL_TIM_PWM_ConfigChannel+0x100>
 80058b6:	e046      	b.n	8005946 <HAL_TIM_PWM_ConfigChannel+0xf2>
 80058b8:	2a0c      	cmp	r2, #12
 80058ba:	d137      	bne.n	800592c <HAL_TIM_PWM_ConfigChannel+0xd8>
 80058bc:	6803      	ldr	r3, [r0, #0]
 80058be:	485f      	ldr	r0, [pc, #380]	@ (8005a3c <HAL_TIM_PWM_ConfigChannel+0x1e8>)
 80058c0:	6a19      	ldr	r1, [r3, #32]
 80058c2:	6a1a      	ldr	r2, [r3, #32]
 80058c4:	4002      	ands	r2, r0
 80058c6:	621a      	str	r2, [r3, #32]
 80058c8:	4857      	ldr	r0, [pc, #348]	@ (8005a28 <HAL_TIM_PWM_ConfigChannel+0x1d4>)
 80058ca:	685e      	ldr	r6, [r3, #4]
 80058cc:	69da      	ldr	r2, [r3, #28]
 80058ce:	4002      	ands	r2, r0
 80058d0:	6828      	ldr	r0, [r5, #0]
 80058d2:	0200      	lsls	r0, r0, #8
 80058d4:	4310      	orrs	r0, r2
 80058d6:	4a5a      	ldr	r2, [pc, #360]	@ (8005a40 <HAL_TIM_PWM_ConfigChannel+0x1ec>)
 80058d8:	4011      	ands	r1, r2
 80058da:	68aa      	ldr	r2, [r5, #8]
 80058dc:	0312      	lsls	r2, r2, #12
 80058de:	430a      	orrs	r2, r1
 80058e0:	4952      	ldr	r1, [pc, #328]	@ (8005a2c <HAL_TIM_PWM_ConfigChannel+0x1d8>)
 80058e2:	428b      	cmp	r3, r1
 80058e4:	d008      	beq.n	80058f8 <HAL_TIM_PWM_ConfigChannel+0xa4>
 80058e6:	4952      	ldr	r1, [pc, #328]	@ (8005a30 <HAL_TIM_PWM_ConfigChannel+0x1dc>)
 80058e8:	428b      	cmp	r3, r1
 80058ea:	d005      	beq.n	80058f8 <HAL_TIM_PWM_ConfigChannel+0xa4>
 80058ec:	4951      	ldr	r1, [pc, #324]	@ (8005a34 <HAL_TIM_PWM_ConfigChannel+0x1e0>)
 80058ee:	428b      	cmp	r3, r1
 80058f0:	d002      	beq.n	80058f8 <HAL_TIM_PWM_ConfigChannel+0xa4>
 80058f2:	4951      	ldr	r1, [pc, #324]	@ (8005a38 <HAL_TIM_PWM_ConfigChannel+0x1e4>)
 80058f4:	428b      	cmp	r3, r1
 80058f6:	d104      	bne.n	8005902 <HAL_TIM_PWM_ConfigChannel+0xae>
 80058f8:	4952      	ldr	r1, [pc, #328]	@ (8005a44 <HAL_TIM_PWM_ConfigChannel+0x1f0>)
 80058fa:	4031      	ands	r1, r6
 80058fc:	696e      	ldr	r6, [r5, #20]
 80058fe:	01b6      	lsls	r6, r6, #6
 8005900:	430e      	orrs	r6, r1
 8005902:	6869      	ldr	r1, [r5, #4]
 8005904:	605e      	str	r6, [r3, #4]
 8005906:	61d8      	str	r0, [r3, #28]
 8005908:	6419      	str	r1, [r3, #64]	@ 0x40
 800590a:	621a      	str	r2, [r3, #32]
 800590c:	2280      	movs	r2, #128	@ 0x80
 800590e:	69d9      	ldr	r1, [r3, #28]
 8005910:	0112      	lsls	r2, r2, #4
 8005912:	430a      	orrs	r2, r1
 8005914:	61da      	str	r2, [r3, #28]
 8005916:	69da      	ldr	r2, [r3, #28]
 8005918:	494b      	ldr	r1, [pc, #300]	@ (8005a48 <HAL_TIM_PWM_ConfigChannel+0x1f4>)
 800591a:	2000      	movs	r0, #0
 800591c:	400a      	ands	r2, r1
 800591e:	61da      	str	r2, [r3, #28]
 8005920:	692a      	ldr	r2, [r5, #16]
 8005922:	69d9      	ldr	r1, [r3, #28]
 8005924:	0212      	lsls	r2, r2, #8
 8005926:	430a      	orrs	r2, r1
 8005928:	61da      	str	r2, [r3, #28]
 800592a:	e000      	b.n	800592e <HAL_TIM_PWM_ConfigChannel+0xda>
 800592c:	2001      	movs	r0, #1
 800592e:	233c      	movs	r3, #60	@ 0x3c
 8005930:	2200      	movs	r2, #0
 8005932:	54e2      	strb	r2, [r4, r3]
 8005934:	bdf8      	pop	{r3, r4, r5, r6, r7, pc}
 8005936:	2080      	movs	r0, #128	@ 0x80
 8005938:	4382      	bics	r2, r0
 800593a:	0017      	movs	r7, r2
 800593c:	68ea      	ldr	r2, [r5, #12]
 800593e:	3840      	subs	r0, #64	@ 0x40
 8005940:	0112      	lsls	r2, r2, #4
 8005942:	433a      	orrs	r2, r7
 8005944:	4382      	bics	r2, r0
 8005946:	4841      	ldr	r0, [pc, #260]	@ (8005a4c <HAL_TIM_PWM_ConfigChannel+0x1f8>)
 8005948:	696f      	ldr	r7, [r5, #20]
 800594a:	4008      	ands	r0, r1
 800594c:	69a9      	ldr	r1, [r5, #24]
 800594e:	4339      	orrs	r1, r7
 8005950:	0089      	lsls	r1, r1, #2
 8005952:	4301      	orrs	r1, r0
 8005954:	6059      	str	r1, [r3, #4]
 8005956:	6869      	ldr	r1, [r5, #4]
 8005958:	619e      	str	r6, [r3, #24]
 800595a:	6399      	str	r1, [r3, #56]	@ 0x38
 800595c:	621a      	str	r2, [r3, #32]
 800595e:	2280      	movs	r2, #128	@ 0x80
 8005960:	6999      	ldr	r1, [r3, #24]
 8005962:	0112      	lsls	r2, r2, #4
 8005964:	430a      	orrs	r2, r1
 8005966:	619a      	str	r2, [r3, #24]
 8005968:	699a      	ldr	r2, [r3, #24]
 800596a:	4937      	ldr	r1, [pc, #220]	@ (8005a48 <HAL_TIM_PWM_ConfigChannel+0x1f4>)
 800596c:	2000      	movs	r0, #0
 800596e:	400a      	ands	r2, r1
 8005970:	619a      	str	r2, [r3, #24]
 8005972:	692a      	ldr	r2, [r5, #16]
 8005974:	6999      	ldr	r1, [r3, #24]
 8005976:	0212      	lsls	r2, r2, #8
 8005978:	430a      	orrs	r2, r1
 800597a:	619a      	str	r2, [r3, #24]
 800597c:	e7d7      	b.n	800592e <HAL_TIM_PWM_ConfigChannel+0xda>
 800597e:	6806      	ldr	r6, [r0, #0]
 8005980:	0029      	movs	r1, r5
 8005982:	0030      	movs	r0, r6
 8005984:	f7ff fdfe 	bl	8005584 <TIM_OC1_SetConfig>
 8005988:	2208      	movs	r2, #8
 800598a:	69b3      	ldr	r3, [r6, #24]
 800598c:	2000      	movs	r0, #0
 800598e:	4313      	orrs	r3, r2
 8005990:	61b3      	str	r3, [r6, #24]
 8005992:	69b3      	ldr	r3, [r6, #24]
 8005994:	3a04      	subs	r2, #4
 8005996:	4393      	bics	r3, r2
 8005998:	61b3      	str	r3, [r6, #24]
 800599a:	69b3      	ldr	r3, [r6, #24]
 800599c:	692a      	ldr	r2, [r5, #16]
 800599e:	4313      	orrs	r3, r2
 80059a0:	61b3      	str	r3, [r6, #24]
 80059a2:	e7c4      	b.n	800592e <HAL_TIM_PWM_ConfigChannel+0xda>
 80059a4:	2673      	movs	r6, #115	@ 0x73
 80059a6:	6803      	ldr	r3, [r0, #0]
 80059a8:	4929      	ldr	r1, [pc, #164]	@ (8005a50 <HAL_TIM_PWM_ConfigChannel+0x1fc>)
 80059aa:	6a18      	ldr	r0, [r3, #32]
 80059ac:	6a1a      	ldr	r2, [r3, #32]
 80059ae:	400a      	ands	r2, r1
 80059b0:	621a      	str	r2, [r3, #32]
 80059b2:	6859      	ldr	r1, [r3, #4]
 80059b4:	69da      	ldr	r2, [r3, #28]
 80059b6:	43b2      	bics	r2, r6
 80059b8:	682e      	ldr	r6, [r5, #0]
 80059ba:	4316      	orrs	r6, r2
 80059bc:	4a25      	ldr	r2, [pc, #148]	@ (8005a54 <HAL_TIM_PWM_ConfigChannel+0x200>)
 80059be:	4010      	ands	r0, r2
 80059c0:	68aa      	ldr	r2, [r5, #8]
 80059c2:	0212      	lsls	r2, r2, #8
 80059c4:	4302      	orrs	r2, r0
 80059c6:	4819      	ldr	r0, [pc, #100]	@ (8005a2c <HAL_TIM_PWM_ConfigChannel+0x1d8>)
 80059c8:	4283      	cmp	r3, r0
 80059ca:	d01b      	beq.n	8005a04 <HAL_TIM_PWM_ConfigChannel+0x1b0>
 80059cc:	4818      	ldr	r0, [pc, #96]	@ (8005a30 <HAL_TIM_PWM_ConfigChannel+0x1dc>)
 80059ce:	4283      	cmp	r3, r0
 80059d0:	d01f      	beq.n	8005a12 <HAL_TIM_PWM_ConfigChannel+0x1be>
 80059d2:	4818      	ldr	r0, [pc, #96]	@ (8005a34 <HAL_TIM_PWM_ConfigChannel+0x1e0>)
 80059d4:	4283      	cmp	r3, r0
 80059d6:	d01c      	beq.n	8005a12 <HAL_TIM_PWM_ConfigChannel+0x1be>
 80059d8:	4817      	ldr	r0, [pc, #92]	@ (8005a38 <HAL_TIM_PWM_ConfigChannel+0x1e4>)
 80059da:	4283      	cmp	r3, r0
 80059dc:	d019      	beq.n	8005a12 <HAL_TIM_PWM_ConfigChannel+0x1be>
 80059de:	6059      	str	r1, [r3, #4]
 80059e0:	6869      	ldr	r1, [r5, #4]
 80059e2:	61de      	str	r6, [r3, #28]
 80059e4:	63d9      	str	r1, [r3, #60]	@ 0x3c
 80059e6:	2108      	movs	r1, #8
 80059e8:	621a      	str	r2, [r3, #32]
 80059ea:	69da      	ldr	r2, [r3, #28]
 80059ec:	2000      	movs	r0, #0
 80059ee:	430a      	orrs	r2, r1
 80059f0:	61da      	str	r2, [r3, #28]
 80059f2:	69da      	ldr	r2, [r3, #28]
 80059f4:	3904      	subs	r1, #4
 80059f6:	438a      	bics	r2, r1
 80059f8:	61da      	str	r2, [r3, #28]
 80059fa:	69da      	ldr	r2, [r3, #28]
 80059fc:	6929      	ldr	r1, [r5, #16]
 80059fe:	430a      	orrs	r2, r1
 8005a00:	61da      	str	r2, [r3, #28]
 8005a02:	e794      	b.n	800592e <HAL_TIM_PWM_ConfigChannel+0xda>
 8005a04:	4814      	ldr	r0, [pc, #80]	@ (8005a58 <HAL_TIM_PWM_ConfigChannel+0x204>)
 8005a06:	4010      	ands	r0, r2
 8005a08:	68ea      	ldr	r2, [r5, #12]
 8005a0a:	0212      	lsls	r2, r2, #8
 8005a0c:	4302      	orrs	r2, r0
 8005a0e:	480e      	ldr	r0, [pc, #56]	@ (8005a48 <HAL_TIM_PWM_ConfigChannel+0x1f4>)
 8005a10:	4002      	ands	r2, r0
 8005a12:	4812      	ldr	r0, [pc, #72]	@ (8005a5c <HAL_TIM_PWM_ConfigChannel+0x208>)
 8005a14:	696f      	ldr	r7, [r5, #20]
 8005a16:	4008      	ands	r0, r1
 8005a18:	69a9      	ldr	r1, [r5, #24]
 8005a1a:	4339      	orrs	r1, r7
 8005a1c:	0109      	lsls	r1, r1, #4
 8005a1e:	4301      	orrs	r1, r0
 8005a20:	e7dd      	b.n	80059de <HAL_TIM_PWM_ConfigChannel+0x18a>
 8005a22:	2002      	movs	r0, #2
 8005a24:	e786      	b.n	8005934 <HAL_TIM_PWM_ConfigChannel+0xe0>
 8005a26:	46c0      	nop			@ (mov r8, r8)
 8005a28:	ffff8cff 	.word	0xffff8cff
 8005a2c:	40012c00 	.word	0x40012c00
 8005a30:	40014000 	.word	0x40014000
 8005a34:	40014400 	.word	0x40014400
 8005a38:	40014800 	.word	0x40014800
 8005a3c:	ffffefff 	.word	0xffffefff
 8005a40:	ffffdfff 	.word	0xffffdfff
 8005a44:	ffffbfff 	.word	0xffffbfff
 8005a48:	fffffbff 	.word	0xfffffbff
 8005a4c:	fffff3ff 	.word	0xfffff3ff
 8005a50:	fffffeff 	.word	0xfffffeff
 8005a54:	fffffdff 	.word	0xfffffdff
 8005a58:	fffff7ff 	.word	0xfffff7ff
 8005a5c:	ffffcfff 	.word	0xffffcfff

08005a60 <HAL_TIM_ConfigClockSource>:
 8005a60:	233c      	movs	r3, #60	@ 0x3c
 8005a62:	b570      	push	{r4, r5, r6, lr}
 8005a64:	0002      	movs	r2, r0
 8005a66:	5cc0      	ldrb	r0, [r0, r3]
 8005a68:	2801      	cmp	r0, #1
 8005a6a:	d100      	bne.n	8005a6e <HAL_TIM_ConfigClockSource+0xe>
 8005a6c:	e073      	b.n	8005b56 <HAL_TIM_ConfigClockSource+0xf6>
 8005a6e:	2401      	movs	r4, #1
 8005a70:	2002      	movs	r0, #2
 8005a72:	54d4      	strb	r4, [r2, r3]
 8005a74:	3301      	adds	r3, #1
 8005a76:	54d0      	strb	r0, [r2, r3]
 8005a78:	6810      	ldr	r0, [r2, #0]
 8005a7a:	4d51      	ldr	r5, [pc, #324]	@ (8005bc0 <HAL_TIM_ConfigClockSource+0x160>)
 8005a7c:	6883      	ldr	r3, [r0, #8]
 8005a7e:	402b      	ands	r3, r5
 8005a80:	6083      	str	r3, [r0, #8]
 8005a82:	680b      	ldr	r3, [r1, #0]
 8005a84:	2b60      	cmp	r3, #96	@ 0x60
 8005a86:	d100      	bne.n	8005a8a <HAL_TIM_ConfigClockSource+0x2a>
 8005a88:	e067      	b.n	8005b5a <HAL_TIM_ConfigClockSource+0xfa>
 8005a8a:	d81d      	bhi.n	8005ac8 <HAL_TIM_ConfigClockSource+0x68>
 8005a8c:	2b40      	cmp	r3, #64	@ 0x40
 8005a8e:	d100      	bne.n	8005a92 <HAL_TIM_ConfigClockSource+0x32>
 8005a90:	e07d      	b.n	8005b8e <HAL_TIM_ConfigClockSource+0x12e>
 8005a92:	d93f      	bls.n	8005b14 <HAL_TIM_ConfigClockSource+0xb4>
 8005a94:	2b50      	cmp	r3, #80	@ 0x50
 8005a96:	d135      	bne.n	8005b04 <HAL_TIM_ConfigClockSource+0xa4>
 8005a98:	684d      	ldr	r5, [r1, #4]
 8005a9a:	68cb      	ldr	r3, [r1, #12]
 8005a9c:	6a01      	ldr	r1, [r0, #32]
 8005a9e:	6a06      	ldr	r6, [r0, #32]
 8005aa0:	011b      	lsls	r3, r3, #4
 8005aa2:	43a6      	bics	r6, r4
 8005aa4:	6206      	str	r6, [r0, #32]
 8005aa6:	26f0      	movs	r6, #240	@ 0xf0
 8005aa8:	6984      	ldr	r4, [r0, #24]
 8005aaa:	43b4      	bics	r4, r6
 8005aac:	4323      	orrs	r3, r4
 8005aae:	240a      	movs	r4, #10
 8005ab0:	43a1      	bics	r1, r4
 8005ab2:	4329      	orrs	r1, r5
 8005ab4:	6183      	str	r3, [r0, #24]
 8005ab6:	6201      	str	r1, [r0, #32]
 8005ab8:	2170      	movs	r1, #112	@ 0x70
 8005aba:	6883      	ldr	r3, [r0, #8]
 8005abc:	438b      	bics	r3, r1
 8005abe:	3919      	subs	r1, #25
 8005ac0:	430b      	orrs	r3, r1
 8005ac2:	6083      	str	r3, [r0, #8]
 8005ac4:	2000      	movs	r0, #0
 8005ac6:	e01e      	b.n	8005b06 <HAL_TIM_ConfigClockSource+0xa6>
 8005ac8:	2480      	movs	r4, #128	@ 0x80
 8005aca:	0164      	lsls	r4, r4, #5
 8005acc:	42a3      	cmp	r3, r4
 8005ace:	d0f9      	beq.n	8005ac4 <HAL_TIM_ConfigClockSource+0x64>
 8005ad0:	2480      	movs	r4, #128	@ 0x80
 8005ad2:	01a4      	lsls	r4, r4, #6
 8005ad4:	42a3      	cmp	r3, r4
 8005ad6:	d12b      	bne.n	8005b30 <HAL_TIM_ConfigClockSource+0xd0>
 8005ad8:	6884      	ldr	r4, [r0, #8]
 8005ada:	4b3a      	ldr	r3, [pc, #232]	@ (8005bc4 <HAL_TIM_ConfigClockSource+0x164>)
 8005adc:	684d      	ldr	r5, [r1, #4]
 8005ade:	401c      	ands	r4, r3
 8005ae0:	688b      	ldr	r3, [r1, #8]
 8005ae2:	68c9      	ldr	r1, [r1, #12]
 8005ae4:	432b      	orrs	r3, r5
 8005ae6:	0209      	lsls	r1, r1, #8
 8005ae8:	430b      	orrs	r3, r1
 8005aea:	4323      	orrs	r3, r4
 8005aec:	6083      	str	r3, [r0, #8]
 8005aee:	2380      	movs	r3, #128	@ 0x80
 8005af0:	6881      	ldr	r1, [r0, #8]
 8005af2:	01db      	lsls	r3, r3, #7
 8005af4:	430b      	orrs	r3, r1
 8005af6:	6083      	str	r3, [r0, #8]
 8005af8:	2000      	movs	r0, #0
 8005afa:	e004      	b.n	8005b06 <HAL_TIM_ConfigClockSource+0xa6>
 8005afc:	2110      	movs	r1, #16
 8005afe:	001c      	movs	r4, r3
 8005b00:	438c      	bics	r4, r1
 8005b02:	d00c      	beq.n	8005b1e <HAL_TIM_ConfigClockSource+0xbe>
 8005b04:	2001      	movs	r0, #1
 8005b06:	233d      	movs	r3, #61	@ 0x3d
 8005b08:	2101      	movs	r1, #1
 8005b0a:	54d1      	strb	r1, [r2, r3]
 8005b0c:	2100      	movs	r1, #0
 8005b0e:	3b01      	subs	r3, #1
 8005b10:	54d1      	strb	r1, [r2, r3]
 8005b12:	bd70      	pop	{r4, r5, r6, pc}
 8005b14:	2b20      	cmp	r3, #32
 8005b16:	d002      	beq.n	8005b1e <HAL_TIM_ConfigClockSource+0xbe>
 8005b18:	d9f0      	bls.n	8005afc <HAL_TIM_ConfigClockSource+0x9c>
 8005b1a:	2b30      	cmp	r3, #48	@ 0x30
 8005b1c:	d1f2      	bne.n	8005b04 <HAL_TIM_ConfigClockSource+0xa4>
 8005b1e:	2470      	movs	r4, #112	@ 0x70
 8005b20:	6881      	ldr	r1, [r0, #8]
 8005b22:	43a1      	bics	r1, r4
 8005b24:	430b      	orrs	r3, r1
 8005b26:	2107      	movs	r1, #7
 8005b28:	430b      	orrs	r3, r1
 8005b2a:	6083      	str	r3, [r0, #8]
 8005b2c:	2000      	movs	r0, #0
 8005b2e:	e7ea      	b.n	8005b06 <HAL_TIM_ConfigClockSource+0xa6>
 8005b30:	2b70      	cmp	r3, #112	@ 0x70
 8005b32:	d1e7      	bne.n	8005b04 <HAL_TIM_ConfigClockSource+0xa4>
 8005b34:	6884      	ldr	r4, [r0, #8]
 8005b36:	4b23      	ldr	r3, [pc, #140]	@ (8005bc4 <HAL_TIM_ConfigClockSource+0x164>)
 8005b38:	684d      	ldr	r5, [r1, #4]
 8005b3a:	401c      	ands	r4, r3
 8005b3c:	688b      	ldr	r3, [r1, #8]
 8005b3e:	68c9      	ldr	r1, [r1, #12]
 8005b40:	432b      	orrs	r3, r5
 8005b42:	0209      	lsls	r1, r1, #8
 8005b44:	430b      	orrs	r3, r1
 8005b46:	2177      	movs	r1, #119	@ 0x77
 8005b48:	4323      	orrs	r3, r4
 8005b4a:	6083      	str	r3, [r0, #8]
 8005b4c:	6883      	ldr	r3, [r0, #8]
 8005b4e:	430b      	orrs	r3, r1
 8005b50:	6083      	str	r3, [r0, #8]
 8005b52:	2000      	movs	r0, #0
 8005b54:	e7d7      	b.n	8005b06 <HAL_TIM_ConfigClockSource+0xa6>
 8005b56:	2002      	movs	r0, #2
 8005b58:	e7db      	b.n	8005b12 <HAL_TIM_ConfigClockSource+0xb2>
 8005b5a:	2610      	movs	r6, #16
 8005b5c:	6a04      	ldr	r4, [r0, #32]
 8005b5e:	6a05      	ldr	r5, [r0, #32]
 8005b60:	684b      	ldr	r3, [r1, #4]
 8005b62:	43b5      	bics	r5, r6
 8005b64:	68c9      	ldr	r1, [r1, #12]
 8005b66:	6205      	str	r5, [r0, #32]
 8005b68:	6985      	ldr	r5, [r0, #24]
 8005b6a:	4e17      	ldr	r6, [pc, #92]	@ (8005bc8 <HAL_TIM_ConfigClockSource+0x168>)
 8005b6c:	0309      	lsls	r1, r1, #12
 8005b6e:	4035      	ands	r5, r6
 8005b70:	4329      	orrs	r1, r5
 8005b72:	25a0      	movs	r5, #160	@ 0xa0
 8005b74:	6181      	str	r1, [r0, #24]
 8005b76:	2170      	movs	r1, #112	@ 0x70
 8005b78:	43ac      	bics	r4, r5
 8005b7a:	011b      	lsls	r3, r3, #4
 8005b7c:	4323      	orrs	r3, r4
 8005b7e:	6203      	str	r3, [r0, #32]
 8005b80:	6883      	ldr	r3, [r0, #8]
 8005b82:	438b      	bics	r3, r1
 8005b84:	3909      	subs	r1, #9
 8005b86:	430b      	orrs	r3, r1
 8005b88:	6083      	str	r3, [r0, #8]
 8005b8a:	2000      	movs	r0, #0
 8005b8c:	e7bb      	b.n	8005b06 <HAL_TIM_ConfigClockSource+0xa6>
 8005b8e:	684d      	ldr	r5, [r1, #4]
 8005b90:	68cb      	ldr	r3, [r1, #12]
 8005b92:	6a01      	ldr	r1, [r0, #32]
 8005b94:	6a06      	ldr	r6, [r0, #32]
 8005b96:	011b      	lsls	r3, r3, #4
 8005b98:	43a6      	bics	r6, r4
 8005b9a:	6206      	str	r6, [r0, #32]
 8005b9c:	26f0      	movs	r6, #240	@ 0xf0
 8005b9e:	6984      	ldr	r4, [r0, #24]
 8005ba0:	43b4      	bics	r4, r6
 8005ba2:	4323      	orrs	r3, r4
 8005ba4:	240a      	movs	r4, #10
 8005ba6:	43a1      	bics	r1, r4
 8005ba8:	4329      	orrs	r1, r5
 8005baa:	6183      	str	r3, [r0, #24]
 8005bac:	6201      	str	r1, [r0, #32]
 8005bae:	2170      	movs	r1, #112	@ 0x70
 8005bb0:	6883      	ldr	r3, [r0, #8]
 8005bb2:	438b      	bics	r3, r1
 8005bb4:	3929      	subs	r1, #41	@ 0x29
 8005bb6:	430b      	orrs	r3, r1
 8005bb8:	6083      	str	r3, [r0, #8]
 8005bba:	2000      	movs	r0, #0
 8005bbc:	e7a3      	b.n	8005b06 <HAL_TIM_ConfigClockSource+0xa6>
 8005bbe:	46c0      	nop			@ (mov r8, r8)
 8005bc0:	ffff0088 	.word	0xffff0088
 8005bc4:	ffff00ff 	.word	0xffff00ff
 8005bc8:	ffff0fff 	.word	0xffff0fff

08005bcc <HAL_TIMEx_PWMN_Start>:
 8005bcc:	2900      	cmp	r1, #0
 8005bce:	d124      	bne.n	8005c1a <HAL_TIMEx_PWMN_Start+0x4e>
 8005bd0:	2342      	movs	r3, #66	@ 0x42
 8005bd2:	5cc2      	ldrb	r2, [r0, r3]
 8005bd4:	2a01      	cmp	r2, #1
 8005bd6:	d128      	bne.n	8005c2a <HAL_TIMEx_PWMN_Start+0x5e>
 8005bd8:	2202      	movs	r2, #2
 8005bda:	54c2      	strb	r2, [r0, r3]
 8005bdc:	220f      	movs	r2, #15
 8005bde:	4011      	ands	r1, r2
 8005be0:	3a0b      	subs	r2, #11
 8005be2:	408a      	lsls	r2, r1
 8005be4:	6803      	ldr	r3, [r0, #0]
 8005be6:	6a19      	ldr	r1, [r3, #32]
 8005be8:	4391      	bics	r1, r2
 8005bea:	6219      	str	r1, [r3, #32]
 8005bec:	6a19      	ldr	r1, [r3, #32]
 8005bee:	430a      	orrs	r2, r1
 8005bf0:	621a      	str	r2, [r3, #32]
 8005bf2:	2280      	movs	r2, #128	@ 0x80
 8005bf4:	6c59      	ldr	r1, [r3, #68]	@ 0x44
 8005bf6:	0212      	lsls	r2, r2, #8
 8005bf8:	430a      	orrs	r2, r1
 8005bfa:	645a      	str	r2, [r3, #68]	@ 0x44
 8005bfc:	4a14      	ldr	r2, [pc, #80]	@ (8005c50 <HAL_TIMEx_PWMN_Start+0x84>)
 8005bfe:	4293      	cmp	r3, r2
 8005c00:	d015      	beq.n	8005c2e <HAL_TIMEx_PWMN_Start+0x62>
 8005c02:	4a14      	ldr	r2, [pc, #80]	@ (8005c54 <HAL_TIMEx_PWMN_Start+0x88>)
 8005c04:	4293      	cmp	r3, r2
 8005c06:	d012      	beq.n	8005c2e <HAL_TIMEx_PWMN_Start+0x62>
 8005c08:	4a13      	ldr	r2, [pc, #76]	@ (8005c58 <HAL_TIMEx_PWMN_Start+0x8c>)
 8005c0a:	4293      	cmp	r3, r2
 8005c0c:	d00f      	beq.n	8005c2e <HAL_TIMEx_PWMN_Start+0x62>
 8005c0e:	2101      	movs	r1, #1
 8005c10:	681a      	ldr	r2, [r3, #0]
 8005c12:	430a      	orrs	r2, r1
 8005c14:	601a      	str	r2, [r3, #0]
 8005c16:	2000      	movs	r0, #0
 8005c18:	4770      	bx	lr
 8005c1a:	2904      	cmp	r1, #4
 8005c1c:	d00d      	beq.n	8005c3a <HAL_TIMEx_PWMN_Start+0x6e>
 8005c1e:	2908      	cmp	r1, #8
 8005c20:	d010      	beq.n	8005c44 <HAL_TIMEx_PWMN_Start+0x78>
 8005c22:	2345      	movs	r3, #69	@ 0x45
 8005c24:	5cc2      	ldrb	r2, [r0, r3]
 8005c26:	2a01      	cmp	r2, #1
 8005c28:	d0d6      	beq.n	8005bd8 <HAL_TIMEx_PWMN_Start+0xc>
 8005c2a:	2001      	movs	r0, #1
 8005c2c:	e7f4      	b.n	8005c18 <HAL_TIMEx_PWMN_Start+0x4c>
 8005c2e:	2207      	movs	r2, #7
 8005c30:	6899      	ldr	r1, [r3, #8]
 8005c32:	400a      	ands	r2, r1
 8005c34:	2a06      	cmp	r2, #6
 8005c36:	d1ea      	bne.n	8005c0e <HAL_TIMEx_PWMN_Start+0x42>
 8005c38:	e7ed      	b.n	8005c16 <HAL_TIMEx_PWMN_Start+0x4a>
 8005c3a:	2343      	movs	r3, #67	@ 0x43
 8005c3c:	5cc2      	ldrb	r2, [r0, r3]
 8005c3e:	2a01      	cmp	r2, #1
 8005c40:	d0ca      	beq.n	8005bd8 <HAL_TIMEx_PWMN_Start+0xc>
 8005c42:	e7f2      	b.n	8005c2a <HAL_TIMEx_PWMN_Start+0x5e>
 8005c44:	2344      	movs	r3, #68	@ 0x44
 8005c46:	5cc2      	ldrb	r2, [r0, r3]
 8005c48:	2a01      	cmp	r2, #1
 8005c4a:	d0c5      	beq.n	8005bd8 <HAL_TIMEx_PWMN_Start+0xc>
 8005c4c:	e7ed      	b.n	8005c2a <HAL_TIMEx_PWMN_Start+0x5e>
 8005c4e:	46c0      	nop			@ (mov r8, r8)
 8005c50:	40012c00 	.word	0x40012c00
 8005c54:	40000400 	.word	0x40000400
 8005c58:	40014000 	.word	0x40014000

08005c5c <HAL_TIMEx_PWMN_Stop>:
 8005c5c:	b530      	push	{r4, r5, lr}
 8005c5e:	250f      	movs	r5, #15
 8005c60:	2404      	movs	r4, #4
 8005c62:	400d      	ands	r5, r1
 8005c64:	40ac      	lsls	r4, r5
 8005c66:	6803      	ldr	r3, [r0, #0]
 8005c68:	6a1a      	ldr	r2, [r3, #32]
 8005c6a:	43a2      	bics	r2, r4
 8005c6c:	621a      	str	r2, [r3, #32]
 8005c6e:	6a1a      	ldr	r2, [r3, #32]
 8005c70:	621a      	str	r2, [r3, #32]
 8005c72:	6a1c      	ldr	r4, [r3, #32]
 8005c74:	4a17      	ldr	r2, [pc, #92]	@ (8005cd4 <HAL_TIMEx_PWMN_Stop+0x78>)
 8005c76:	4214      	tst	r4, r2
 8005c78:	d103      	bne.n	8005c82 <HAL_TIMEx_PWMN_Stop+0x26>
 8005c7a:	6a1c      	ldr	r4, [r3, #32]
 8005c7c:	4a16      	ldr	r2, [pc, #88]	@ (8005cd8 <HAL_TIMEx_PWMN_Stop+0x7c>)
 8005c7e:	4214      	tst	r4, r2
 8005c80:	d01b      	beq.n	8005cba <HAL_TIMEx_PWMN_Stop+0x5e>
 8005c82:	6a1c      	ldr	r4, [r3, #32]
 8005c84:	4a13      	ldr	r2, [pc, #76]	@ (8005cd4 <HAL_TIMEx_PWMN_Stop+0x78>)
 8005c86:	4214      	tst	r4, r2
 8005c88:	d103      	bne.n	8005c92 <HAL_TIMEx_PWMN_Stop+0x36>
 8005c8a:	6a1c      	ldr	r4, [r3, #32]
 8005c8c:	4a12      	ldr	r2, [pc, #72]	@ (8005cd8 <HAL_TIMEx_PWMN_Stop+0x7c>)
 8005c8e:	4214      	tst	r4, r2
 8005c90:	d00e      	beq.n	8005cb0 <HAL_TIMEx_PWMN_Stop+0x54>
 8005c92:	2900      	cmp	r1, #0
 8005c94:	d104      	bne.n	8005ca0 <HAL_TIMEx_PWMN_Stop+0x44>
 8005c96:	2342      	movs	r3, #66	@ 0x42
 8005c98:	2201      	movs	r2, #1
 8005c9a:	54c2      	strb	r2, [r0, r3]
 8005c9c:	2000      	movs	r0, #0
 8005c9e:	bd30      	pop	{r4, r5, pc}
 8005ca0:	2904      	cmp	r1, #4
 8005ca2:	d00f      	beq.n	8005cc4 <HAL_TIMEx_PWMN_Stop+0x68>
 8005ca4:	2908      	cmp	r1, #8
 8005ca6:	d011      	beq.n	8005ccc <HAL_TIMEx_PWMN_Stop+0x70>
 8005ca8:	2345      	movs	r3, #69	@ 0x45
 8005caa:	2201      	movs	r2, #1
 8005cac:	54c2      	strb	r2, [r0, r3]
 8005cae:	e7f5      	b.n	8005c9c <HAL_TIMEx_PWMN_Stop+0x40>
 8005cb0:	2401      	movs	r4, #1
 8005cb2:	681a      	ldr	r2, [r3, #0]
 8005cb4:	43a2      	bics	r2, r4
 8005cb6:	601a      	str	r2, [r3, #0]
 8005cb8:	e7eb      	b.n	8005c92 <HAL_TIMEx_PWMN_Stop+0x36>
 8005cba:	6c5a      	ldr	r2, [r3, #68]	@ 0x44
 8005cbc:	4c07      	ldr	r4, [pc, #28]	@ (8005cdc <HAL_TIMEx_PWMN_Stop+0x80>)
 8005cbe:	4022      	ands	r2, r4
 8005cc0:	645a      	str	r2, [r3, #68]	@ 0x44
 8005cc2:	e7de      	b.n	8005c82 <HAL_TIMEx_PWMN_Stop+0x26>
 8005cc4:	2343      	movs	r3, #67	@ 0x43
 8005cc6:	2201      	movs	r2, #1
 8005cc8:	54c2      	strb	r2, [r0, r3]
 8005cca:	e7e7      	b.n	8005c9c <HAL_TIMEx_PWMN_Stop+0x40>
 8005ccc:	2344      	movs	r3, #68	@ 0x44
 8005cce:	2201      	movs	r2, #1
 8005cd0:	54c2      	strb	r2, [r0, r3]
 8005cd2:	e7e3      	b.n	8005c9c <HAL_TIMEx_PWMN_Stop+0x40>
 8005cd4:	00001111 	.word	0x00001111
 8005cd8:	00000444 	.word	0x00000444
 8005cdc:	ffff7fff 	.word	0xffff7fff

08005ce0 <HAL_TIMEx_MasterConfigSynchronization>:
 8005ce0:	233c      	movs	r3, #60	@ 0x3c
 8005ce2:	b530      	push	{r4, r5, lr}
 8005ce4:	5cc3      	ldrb	r3, [r0, r3]
 8005ce6:	2b01      	cmp	r3, #1
 8005ce8:	d020      	beq.n	8005d2c <HAL_TIMEx_MasterConfigSynchronization+0x4c>
 8005cea:	233d      	movs	r3, #61	@ 0x3d
 8005cec:	2202      	movs	r2, #2
 8005cee:	2570      	movs	r5, #112	@ 0x70
 8005cf0:	54c2      	strb	r2, [r0, r3]
 8005cf2:	6803      	ldr	r3, [r0, #0]
 8005cf4:	685a      	ldr	r2, [r3, #4]
 8005cf6:	689c      	ldr	r4, [r3, #8]
 8005cf8:	43aa      	bics	r2, r5
 8005cfa:	680d      	ldr	r5, [r1, #0]
 8005cfc:	432a      	orrs	r2, r5
 8005cfe:	605a      	str	r2, [r3, #4]
 8005d00:	4a0b      	ldr	r2, [pc, #44]	@ (8005d30 <HAL_TIMEx_MasterConfigSynchronization+0x50>)
 8005d02:	4293      	cmp	r3, r2
 8005d04:	d005      	beq.n	8005d12 <HAL_TIMEx_MasterConfigSynchronization+0x32>
 8005d06:	4a0b      	ldr	r2, [pc, #44]	@ (8005d34 <HAL_TIMEx_MasterConfigSynchronization+0x54>)
 8005d08:	4293      	cmp	r3, r2
 8005d0a:	d002      	beq.n	8005d12 <HAL_TIMEx_MasterConfigSynchronization+0x32>
 8005d0c:	4a0a      	ldr	r2, [pc, #40]	@ (8005d38 <HAL_TIMEx_MasterConfigSynchronization+0x58>)
 8005d0e:	4293      	cmp	r3, r2
 8005d10:	d104      	bne.n	8005d1c <HAL_TIMEx_MasterConfigSynchronization+0x3c>
 8005d12:	2280      	movs	r2, #128	@ 0x80
 8005d14:	4394      	bics	r4, r2
 8005d16:	684a      	ldr	r2, [r1, #4]
 8005d18:	4314      	orrs	r4, r2
 8005d1a:	609c      	str	r4, [r3, #8]
 8005d1c:	233d      	movs	r3, #61	@ 0x3d
 8005d1e:	2201      	movs	r2, #1
 8005d20:	54c2      	strb	r2, [r0, r3]
 8005d22:	2200      	movs	r2, #0
 8005d24:	3b01      	subs	r3, #1
 8005d26:	54c2      	strb	r2, [r0, r3]
 8005d28:	2000      	movs	r0, #0
 8005d2a:	bd30      	pop	{r4, r5, pc}
 8005d2c:	2002      	movs	r0, #2
 8005d2e:	e7fc      	b.n	8005d2a <HAL_TIMEx_MasterConfigSynchronization+0x4a>
 8005d30:	40012c00 	.word	0x40012c00
 8005d34:	40000400 	.word	0x40000400
 8005d38:	40014000 	.word	0x40014000

08005d3c <HAL_TIMEx_ConfigBreakDeadTime>:
 8005d3c:	223c      	movs	r2, #60	@ 0x3c
 8005d3e:	b510      	push	{r4, lr}
 8005d40:	5c83      	ldrb	r3, [r0, r2]
 8005d42:	2b01      	cmp	r3, #1
 8005d44:	d01e      	beq.n	8005d84 <HAL_TIMEx_ConfigBreakDeadTime+0x48>
 8005d46:	68cb      	ldr	r3, [r1, #12]
 8005d48:	4c0f      	ldr	r4, [pc, #60]	@ (8005d88 <HAL_TIMEx_ConfigBreakDeadTime+0x4c>)
 8005d4a:	4023      	ands	r3, r4
 8005d4c:	688c      	ldr	r4, [r1, #8]
 8005d4e:	4323      	orrs	r3, r4
 8005d50:	4c0e      	ldr	r4, [pc, #56]	@ (8005d8c <HAL_TIMEx_ConfigBreakDeadTime+0x50>)
 8005d52:	4023      	ands	r3, r4
 8005d54:	684c      	ldr	r4, [r1, #4]
 8005d56:	4323      	orrs	r3, r4
 8005d58:	4c0d      	ldr	r4, [pc, #52]	@ (8005d90 <HAL_TIMEx_ConfigBreakDeadTime+0x54>)
 8005d5a:	4023      	ands	r3, r4
 8005d5c:	680c      	ldr	r4, [r1, #0]
 8005d5e:	4323      	orrs	r3, r4
 8005d60:	4c0c      	ldr	r4, [pc, #48]	@ (8005d94 <HAL_TIMEx_ConfigBreakDeadTime+0x58>)
 8005d62:	4023      	ands	r3, r4
 8005d64:	690c      	ldr	r4, [r1, #16]
 8005d66:	4323      	orrs	r3, r4
 8005d68:	4c0b      	ldr	r4, [pc, #44]	@ (8005d98 <HAL_TIMEx_ConfigBreakDeadTime+0x5c>)
 8005d6a:	4023      	ands	r3, r4
 8005d6c:	694c      	ldr	r4, [r1, #20]
 8005d6e:	69c9      	ldr	r1, [r1, #28]
 8005d70:	4323      	orrs	r3, r4
 8005d72:	4c0a      	ldr	r4, [pc, #40]	@ (8005d9c <HAL_TIMEx_ConfigBreakDeadTime+0x60>)
 8005d74:	4023      	ands	r3, r4
 8005d76:	430b      	orrs	r3, r1
 8005d78:	6801      	ldr	r1, [r0, #0]
 8005d7a:	644b      	str	r3, [r1, #68]	@ 0x44
 8005d7c:	2300      	movs	r3, #0
 8005d7e:	5483      	strb	r3, [r0, r2]
 8005d80:	2000      	movs	r0, #0
 8005d82:	bd10      	pop	{r4, pc}
 8005d84:	2002      	movs	r0, #2
 8005d86:	e7fc      	b.n	8005d82 <HAL_TIMEx_ConfigBreakDeadTime+0x46>
 8005d88:	fffffcff 	.word	0xfffffcff
 8005d8c:	fffffbff 	.word	0xfffffbff
 8005d90:	fffff7ff 	.word	0xfffff7ff
 8005d94:	ffffefff 	.word	0xffffefff
 8005d98:	ffffdfff 	.word	0xffffdfff
 8005d9c:	ffffbfff 	.word	0xffffbfff

08005da0 <USB_EnableGlobalInt>:
 8005da0:	2344      	movs	r3, #68	@ 0x44
 8005da2:	2200      	movs	r2, #0
 8005da4:	52c2      	strh	r2, [r0, r3]
 8005da6:	4a02      	ldr	r2, [pc, #8]	@ (8005db0 <USB_EnableGlobalInt+0x10>)
 8005da8:	3b04      	subs	r3, #4
 8005daa:	52c2      	strh	r2, [r0, r3]
 8005dac:	2000      	movs	r0, #0
 8005dae:	4770      	bx	lr
 8005db0:	ffffbf80 	.word	0xffffbf80

08005db4 <USB_DisableGlobalInt>:
 8005db4:	2240      	movs	r2, #64	@ 0x40
 8005db6:	5a83      	ldrh	r3, [r0, r2]
 8005db8:	4902      	ldr	r1, [pc, #8]	@ (8005dc4 <USB_DisableGlobalInt+0x10>)
 8005dba:	400b      	ands	r3, r1
 8005dbc:	5283      	strh	r3, [r0, r2]
 8005dbe:	2000      	movs	r0, #0
 8005dc0:	4770      	bx	lr
 8005dc2:	46c0      	nop			@ (mov r8, r8)
 8005dc4:	0000407f 	.word	0x0000407f

08005dc8 <USB_DevInit>:
 8005dc8:	2240      	movs	r2, #64	@ 0x40
 8005dca:	2301      	movs	r3, #1
 8005dcc:	5283      	strh	r3, [r0, r2]
 8005dce:	2300      	movs	r3, #0
 8005dd0:	5283      	strh	r3, [r0, r2]
 8005dd2:	3204      	adds	r2, #4
 8005dd4:	5283      	strh	r3, [r0, r2]
 8005dd6:	320c      	adds	r2, #12
 8005dd8:	5283      	strh	r3, [r0, r2]
 8005dda:	2000      	movs	r0, #0
 8005ddc:	b082      	sub	sp, #8
 8005dde:	b002      	add	sp, #8
 8005de0:	4770      	bx	lr
 8005de2:	46c0      	nop			@ (mov r8, r8)

08005de4 <USB_ActivateEndpoint>:
 8005de4:	b5f0      	push	{r4, r5, r6, r7, lr}
 8005de6:	46ce      	mov	lr, r9
 8005de8:	4647      	mov	r7, r8
 8005dea:	b580      	push	{r7, lr}
 8005dec:	780d      	ldrb	r5, [r1, #0]
 8005dee:	0004      	movs	r4, r0
 8005df0:	00ab      	lsls	r3, r5, #2
 8005df2:	18c3      	adds	r3, r0, r3
 8005df4:	881a      	ldrh	r2, [r3, #0]
 8005df6:	489d      	ldr	r0, [pc, #628]	@ (800606c <USB_ActivateEndpoint+0x288>)
 8005df8:	78ce      	ldrb	r6, [r1, #3]
 8005dfa:	4002      	ands	r2, r0
 8005dfc:	2e02      	cmp	r6, #2
 8005dfe:	d100      	bne.n	8005e02 <USB_ActivateEndpoint+0x1e>
 8005e00:	e110      	b.n	8006024 <USB_ActivateEndpoint+0x240>
 8005e02:	d856      	bhi.n	8005eb2 <USB_ActivateEndpoint+0xce>
 8005e04:	2e00      	cmp	r6, #0
 8005e06:	d100      	bne.n	8005e0a <USB_ActivateEndpoint+0x26>
 8005e08:	e0ed      	b.n	8005fe6 <USB_ActivateEndpoint+0x202>
 8005e0a:	2080      	movs	r0, #128	@ 0x80
 8005e0c:	00c0      	lsls	r0, r0, #3
 8005e0e:	4302      	orrs	r2, r0
 8005e10:	4897      	ldr	r0, [pc, #604]	@ (8006070 <USB_ActivateEndpoint+0x28c>)
 8005e12:	4f98      	ldr	r7, [pc, #608]	@ (8006074 <USB_ActivateEndpoint+0x290>)
 8005e14:	4302      	orrs	r2, r0
 8005e16:	b292      	uxth	r2, r2
 8005e18:	801a      	strh	r2, [r3, #0]
 8005e1a:	881a      	ldrh	r2, [r3, #0]
 8005e1c:	403a      	ands	r2, r7
 8005e1e:	432a      	orrs	r2, r5
 8005e20:	4310      	orrs	r0, r2
 8005e22:	b280      	uxth	r0, r0
 8005e24:	8018      	strh	r0, [r3, #0]
 8005e26:	7b0a      	ldrb	r2, [r1, #12]
 8005e28:	2000      	movs	r0, #0
 8005e2a:	2a00      	cmp	r2, #0
 8005e2c:	d047      	beq.n	8005ebe <USB_ActivateEndpoint+0xda>
 8005e2e:	881a      	ldrh	r2, [r3, #0]
 8005e30:	4f91      	ldr	r7, [pc, #580]	@ (8006078 <USB_ActivateEndpoint+0x294>)
 8005e32:	403a      	ands	r2, r7
 8005e34:	4f91      	ldr	r7, [pc, #580]	@ (800607c <USB_ActivateEndpoint+0x298>)
 8005e36:	433a      	orrs	r2, r7
 8005e38:	801a      	strh	r2, [r3, #0]
 8005e3a:	2780      	movs	r7, #128	@ 0x80
 8005e3c:	2250      	movs	r2, #80	@ 0x50
 8005e3e:	00ff      	lsls	r7, r7, #3
 8005e40:	46b8      	mov	r8, r7
 8005e42:	4694      	mov	ip, r2
 8005e44:	890f      	ldrh	r7, [r1, #8]
 8005e46:	5aa2      	ldrh	r2, [r4, r2]
 8005e48:	00ed      	lsls	r5, r5, #3
 8005e4a:	1965      	adds	r5, r4, r5
 8005e4c:	1952      	adds	r2, r2, r5
 8005e4e:	087f      	lsrs	r7, r7, #1
 8005e50:	4442      	add	r2, r8
 8005e52:	007f      	lsls	r7, r7, #1
 8005e54:	8017      	strh	r7, [r2, #0]
 8005e56:	4662      	mov	r2, ip
 8005e58:	5aa2      	ldrh	r2, [r4, r2]
 8005e5a:	4c89      	ldr	r4, [pc, #548]	@ (8006080 <USB_ActivateEndpoint+0x29c>)
 8005e5c:	1952      	adds	r2, r2, r5
 8005e5e:	46a4      	mov	ip, r4
 8005e60:	894c      	ldrh	r4, [r1, #10]
 8005e62:	4462      	add	r2, ip
 8005e64:	0864      	lsrs	r4, r4, #1
 8005e66:	0064      	lsls	r4, r4, #1
 8005e68:	8014      	strh	r4, [r2, #0]
 8005e6a:	784a      	ldrb	r2, [r1, #1]
 8005e6c:	2a00      	cmp	r2, #0
 8005e6e:	d15f      	bne.n	8005f30 <USB_ActivateEndpoint+0x14c>
 8005e70:	881a      	ldrh	r2, [r3, #0]
 8005e72:	0452      	lsls	r2, r2, #17
 8005e74:	d505      	bpl.n	8005e82 <USB_ActivateEndpoint+0x9e>
 8005e76:	881a      	ldrh	r2, [r3, #0]
 8005e78:	497e      	ldr	r1, [pc, #504]	@ (8006074 <USB_ActivateEndpoint+0x290>)
 8005e7a:	400a      	ands	r2, r1
 8005e7c:	4981      	ldr	r1, [pc, #516]	@ (8006084 <USB_ActivateEndpoint+0x2a0>)
 8005e7e:	430a      	orrs	r2, r1
 8005e80:	801a      	strh	r2, [r3, #0]
 8005e82:	881a      	ldrh	r2, [r3, #0]
 8005e84:	0652      	lsls	r2, r2, #25
 8005e86:	d500      	bpl.n	8005e8a <USB_ActivateEndpoint+0xa6>
 8005e88:	e0b1      	b.n	8005fee <USB_ActivateEndpoint+0x20a>
 8005e8a:	8819      	ldrh	r1, [r3, #0]
 8005e8c:	4a7e      	ldr	r2, [pc, #504]	@ (8006088 <USB_ActivateEndpoint+0x2a4>)
 8005e8e:	4c7f      	ldr	r4, [pc, #508]	@ (800608c <USB_ActivateEndpoint+0x2a8>)
 8005e90:	4011      	ands	r1, r2
 8005e92:	22c0      	movs	r2, #192	@ 0xc0
 8005e94:	0192      	lsls	r2, r2, #6
 8005e96:	404a      	eors	r2, r1
 8005e98:	4975      	ldr	r1, [pc, #468]	@ (8006070 <USB_ActivateEndpoint+0x28c>)
 8005e9a:	430a      	orrs	r2, r1
 8005e9c:	b292      	uxth	r2, r2
 8005e9e:	801a      	strh	r2, [r3, #0]
 8005ea0:	881a      	ldrh	r2, [r3, #0]
 8005ea2:	4022      	ands	r2, r4
 8005ea4:	4311      	orrs	r1, r2
 8005ea6:	b289      	uxth	r1, r1
 8005ea8:	8019      	strh	r1, [r3, #0]
 8005eaa:	bcc0      	pop	{r6, r7}
 8005eac:	46b9      	mov	r9, r7
 8005eae:	46b0      	mov	r8, r6
 8005eb0:	bdf0      	pop	{r4, r5, r6, r7, pc}
 8005eb2:	2e03      	cmp	r6, #3
 8005eb4:	d12c      	bne.n	8005f10 <USB_ActivateEndpoint+0x12c>
 8005eb6:	20c0      	movs	r0, #192	@ 0xc0
 8005eb8:	00c0      	lsls	r0, r0, #3
 8005eba:	4302      	orrs	r2, r0
 8005ebc:	e7a8      	b.n	8005e10 <USB_ActivateEndpoint+0x2c>
 8005ebe:	2000      	movs	r0, #0
 8005ec0:	88ca      	ldrh	r2, [r1, #6]
 8005ec2:	00ef      	lsls	r7, r5, #3
 8005ec4:	0852      	lsrs	r2, r2, #1
 8005ec6:	0052      	lsls	r2, r2, #1
 8005ec8:	4691      	mov	r9, r2
 8005eca:	784a      	ldrb	r2, [r1, #1]
 8005ecc:	19e7      	adds	r7, r4, r7
 8005ece:	2a00      	cmp	r2, #0
 8005ed0:	d052      	beq.n	8005f78 <USB_ActivateEndpoint+0x194>
 8005ed2:	2280      	movs	r2, #128	@ 0x80
 8005ed4:	2150      	movs	r1, #80	@ 0x50
 8005ed6:	00d2      	lsls	r2, r2, #3
 8005ed8:	4694      	mov	ip, r2
 8005eda:	464a      	mov	r2, r9
 8005edc:	5a61      	ldrh	r1, [r4, r1]
 8005ede:	19c9      	adds	r1, r1, r7
 8005ee0:	4461      	add	r1, ip
 8005ee2:	800a      	strh	r2, [r1, #0]
 8005ee4:	881a      	ldrh	r2, [r3, #0]
 8005ee6:	0652      	lsls	r2, r2, #25
 8005ee8:	d505      	bpl.n	8005ef6 <USB_ActivateEndpoint+0x112>
 8005eea:	881a      	ldrh	r2, [r3, #0]
 8005eec:	4961      	ldr	r1, [pc, #388]	@ (8006074 <USB_ActivateEndpoint+0x290>)
 8005eee:	400a      	ands	r2, r1
 8005ef0:	4967      	ldr	r1, [pc, #412]	@ (8006090 <USB_ActivateEndpoint+0x2ac>)
 8005ef2:	430a      	orrs	r2, r1
 8005ef4:	801a      	strh	r2, [r3, #0]
 8005ef6:	2e01      	cmp	r6, #1
 8005ef8:	d100      	bne.n	8005efc <USB_ActivateEndpoint+0x118>
 8005efa:	e08c      	b.n	8006016 <USB_ActivateEndpoint+0x232>
 8005efc:	8819      	ldrh	r1, [r3, #0]
 8005efe:	4a63      	ldr	r2, [pc, #396]	@ (800608c <USB_ActivateEndpoint+0x2a8>)
 8005f00:	4011      	ands	r1, r2
 8005f02:	2220      	movs	r2, #32
 8005f04:	4051      	eors	r1, r2
 8005f06:	4a5a      	ldr	r2, [pc, #360]	@ (8006070 <USB_ActivateEndpoint+0x28c>)
 8005f08:	430a      	orrs	r2, r1
 8005f0a:	b292      	uxth	r2, r2
 8005f0c:	801a      	strh	r2, [r3, #0]
 8005f0e:	e7cc      	b.n	8005eaa <USB_ActivateEndpoint+0xc6>
 8005f10:	4857      	ldr	r0, [pc, #348]	@ (8006070 <USB_ActivateEndpoint+0x28c>)
 8005f12:	4f58      	ldr	r7, [pc, #352]	@ (8006074 <USB_ActivateEndpoint+0x290>)
 8005f14:	4302      	orrs	r2, r0
 8005f16:	b292      	uxth	r2, r2
 8005f18:	801a      	strh	r2, [r3, #0]
 8005f1a:	881a      	ldrh	r2, [r3, #0]
 8005f1c:	403a      	ands	r2, r7
 8005f1e:	432a      	orrs	r2, r5
 8005f20:	4310      	orrs	r0, r2
 8005f22:	b280      	uxth	r0, r0
 8005f24:	8018      	strh	r0, [r3, #0]
 8005f26:	7b0a      	ldrb	r2, [r1, #12]
 8005f28:	2001      	movs	r0, #1
 8005f2a:	2a00      	cmp	r2, #0
 8005f2c:	d0c8      	beq.n	8005ec0 <USB_ActivateEndpoint+0xdc>
 8005f2e:	e77e      	b.n	8005e2e <USB_ActivateEndpoint+0x4a>
 8005f30:	881a      	ldrh	r2, [r3, #0]
 8005f32:	0452      	lsls	r2, r2, #17
 8005f34:	d505      	bpl.n	8005f42 <USB_ActivateEndpoint+0x15e>
 8005f36:	881a      	ldrh	r2, [r3, #0]
 8005f38:	494e      	ldr	r1, [pc, #312]	@ (8006074 <USB_ActivateEndpoint+0x290>)
 8005f3a:	400a      	ands	r2, r1
 8005f3c:	4951      	ldr	r1, [pc, #324]	@ (8006084 <USB_ActivateEndpoint+0x2a0>)
 8005f3e:	430a      	orrs	r2, r1
 8005f40:	801a      	strh	r2, [r3, #0]
 8005f42:	881a      	ldrh	r2, [r3, #0]
 8005f44:	0652      	lsls	r2, r2, #25
 8005f46:	d505      	bpl.n	8005f54 <USB_ActivateEndpoint+0x170>
 8005f48:	881a      	ldrh	r2, [r3, #0]
 8005f4a:	494a      	ldr	r1, [pc, #296]	@ (8006074 <USB_ActivateEndpoint+0x290>)
 8005f4c:	400a      	ands	r2, r1
 8005f4e:	4950      	ldr	r1, [pc, #320]	@ (8006090 <USB_ActivateEndpoint+0x2ac>)
 8005f50:	430a      	orrs	r2, r1
 8005f52:	801a      	strh	r2, [r3, #0]
 8005f54:	2e01      	cmp	r6, #1
 8005f56:	d057      	beq.n	8006008 <USB_ActivateEndpoint+0x224>
 8005f58:	8819      	ldrh	r1, [r3, #0]
 8005f5a:	4a4c      	ldr	r2, [pc, #304]	@ (800608c <USB_ActivateEndpoint+0x2a8>)
 8005f5c:	4011      	ands	r1, r2
 8005f5e:	2220      	movs	r2, #32
 8005f60:	4051      	eors	r1, r2
 8005f62:	4a43      	ldr	r2, [pc, #268]	@ (8006070 <USB_ActivateEndpoint+0x28c>)
 8005f64:	430a      	orrs	r2, r1
 8005f66:	b292      	uxth	r2, r2
 8005f68:	801a      	strh	r2, [r3, #0]
 8005f6a:	881a      	ldrh	r2, [r3, #0]
 8005f6c:	4946      	ldr	r1, [pc, #280]	@ (8006088 <USB_ActivateEndpoint+0x2a4>)
 8005f6e:	400a      	ands	r2, r1
 8005f70:	4942      	ldr	r1, [pc, #264]	@ (800607c <USB_ActivateEndpoint+0x298>)
 8005f72:	430a      	orrs	r2, r1
 8005f74:	801a      	strh	r2, [r3, #0]
 8005f76:	e798      	b.n	8005eaa <USB_ActivateEndpoint+0xc6>
 8005f78:	2250      	movs	r2, #80	@ 0x50
 8005f7a:	5aa6      	ldrh	r6, [r4, r2]
 8005f7c:	4694      	mov	ip, r2
 8005f7e:	4a40      	ldr	r2, [pc, #256]	@ (8006080 <USB_ActivateEndpoint+0x29c>)
 8005f80:	19f6      	adds	r6, r6, r7
 8005f82:	4690      	mov	r8, r2
 8005f84:	464a      	mov	r2, r9
 8005f86:	4446      	add	r6, r8
 8005f88:	8032      	strh	r2, [r6, #0]
 8005f8a:	4662      	mov	r2, ip
 8005f8c:	5aa2      	ldrh	r2, [r4, r2]
 8005f8e:	4c41      	ldr	r4, [pc, #260]	@ (8006094 <USB_ActivateEndpoint+0x2b0>)
 8005f90:	19d2      	adds	r2, r2, r7
 8005f92:	46a4      	mov	ip, r4
 8005f94:	4462      	add	r2, ip
 8005f96:	8814      	ldrh	r4, [r2, #0]
 8005f98:	6909      	ldr	r1, [r1, #16]
 8005f9a:	05a4      	lsls	r4, r4, #22
 8005f9c:	0da4      	lsrs	r4, r4, #22
 8005f9e:	8014      	strh	r4, [r2, #0]
 8005fa0:	2900      	cmp	r1, #0
 8005fa2:	d02b      	beq.n	8005ffc <USB_ActivateEndpoint+0x218>
 8005fa4:	293e      	cmp	r1, #62	@ 0x3e
 8005fa6:	d853      	bhi.n	8006050 <USB_ActivateEndpoint+0x26c>
 8005fa8:	2601      	movs	r6, #1
 8005faa:	084c      	lsrs	r4, r1, #1
 8005fac:	4031      	ands	r1, r6
 8005fae:	1864      	adds	r4, r4, r1
 8005fb0:	8811      	ldrh	r1, [r2, #0]
 8005fb2:	02a4      	lsls	r4, r4, #10
 8005fb4:	4321      	orrs	r1, r4
 8005fb6:	b289      	uxth	r1, r1
 8005fb8:	8011      	strh	r1, [r2, #0]
 8005fba:	881a      	ldrh	r2, [r3, #0]
 8005fbc:	0452      	lsls	r2, r2, #17
 8005fbe:	d505      	bpl.n	8005fcc <USB_ActivateEndpoint+0x1e8>
 8005fc0:	881a      	ldrh	r2, [r3, #0]
 8005fc2:	492c      	ldr	r1, [pc, #176]	@ (8006074 <USB_ActivateEndpoint+0x290>)
 8005fc4:	400a      	ands	r2, r1
 8005fc6:	492f      	ldr	r1, [pc, #188]	@ (8006084 <USB_ActivateEndpoint+0x2a0>)
 8005fc8:	430a      	orrs	r2, r1
 8005fca:	801a      	strh	r2, [r3, #0]
 8005fcc:	4a2e      	ldr	r2, [pc, #184]	@ (8006088 <USB_ActivateEndpoint+0x2a4>)
 8005fce:	8819      	ldrh	r1, [r3, #0]
 8005fd0:	4011      	ands	r1, r2
 8005fd2:	22c0      	movs	r2, #192	@ 0xc0
 8005fd4:	2d00      	cmp	r5, #0
 8005fd6:	d000      	beq.n	8005fda <USB_ActivateEndpoint+0x1f6>
 8005fd8:	2280      	movs	r2, #128	@ 0x80
 8005fda:	0192      	lsls	r2, r2, #6
 8005fdc:	404a      	eors	r2, r1
 8005fde:	4927      	ldr	r1, [pc, #156]	@ (800607c <USB_ActivateEndpoint+0x298>)
 8005fe0:	430a      	orrs	r2, r1
 8005fe2:	801a      	strh	r2, [r3, #0]
 8005fe4:	e761      	b.n	8005eaa <USB_ActivateEndpoint+0xc6>
 8005fe6:	2080      	movs	r0, #128	@ 0x80
 8005fe8:	0080      	lsls	r0, r0, #2
 8005fea:	4302      	orrs	r2, r0
 8005fec:	e710      	b.n	8005e10 <USB_ActivateEndpoint+0x2c>
 8005fee:	881a      	ldrh	r2, [r3, #0]
 8005ff0:	4920      	ldr	r1, [pc, #128]	@ (8006074 <USB_ActivateEndpoint+0x290>)
 8005ff2:	400a      	ands	r2, r1
 8005ff4:	4926      	ldr	r1, [pc, #152]	@ (8006090 <USB_ActivateEndpoint+0x2ac>)
 8005ff6:	430a      	orrs	r2, r1
 8005ff8:	801a      	strh	r2, [r3, #0]
 8005ffa:	e746      	b.n	8005e8a <USB_ActivateEndpoint+0xa6>
 8005ffc:	2480      	movs	r4, #128	@ 0x80
 8005ffe:	8811      	ldrh	r1, [r2, #0]
 8006000:	0224      	lsls	r4, r4, #8
 8006002:	4321      	orrs	r1, r4
 8006004:	8011      	strh	r1, [r2, #0]
 8006006:	e7d8      	b.n	8005fba <USB_ActivateEndpoint+0x1d6>
 8006008:	881a      	ldrh	r2, [r3, #0]
 800600a:	4920      	ldr	r1, [pc, #128]	@ (800608c <USB_ActivateEndpoint+0x2a8>)
 800600c:	400a      	ands	r2, r1
 800600e:	491b      	ldr	r1, [pc, #108]	@ (800607c <USB_ActivateEndpoint+0x298>)
 8006010:	430a      	orrs	r2, r1
 8006012:	801a      	strh	r2, [r3, #0]
 8006014:	e7a9      	b.n	8005f6a <USB_ActivateEndpoint+0x186>
 8006016:	881a      	ldrh	r2, [r3, #0]
 8006018:	491c      	ldr	r1, [pc, #112]	@ (800608c <USB_ActivateEndpoint+0x2a8>)
 800601a:	400a      	ands	r2, r1
 800601c:	4917      	ldr	r1, [pc, #92]	@ (800607c <USB_ActivateEndpoint+0x298>)
 800601e:	430a      	orrs	r2, r1
 8006020:	801a      	strh	r2, [r3, #0]
 8006022:	e742      	b.n	8005eaa <USB_ActivateEndpoint+0xc6>
 8006024:	4812      	ldr	r0, [pc, #72]	@ (8006070 <USB_ActivateEndpoint+0x28c>)
 8006026:	4f13      	ldr	r7, [pc, #76]	@ (8006074 <USB_ActivateEndpoint+0x290>)
 8006028:	4302      	orrs	r2, r0
 800602a:	b292      	uxth	r2, r2
 800602c:	801a      	strh	r2, [r3, #0]
 800602e:	881a      	ldrh	r2, [r3, #0]
 8006030:	403a      	ands	r2, r7
 8006032:	432a      	orrs	r2, r5
 8006034:	4310      	orrs	r0, r2
 8006036:	b280      	uxth	r0, r0
 8006038:	8018      	strh	r0, [r3, #0]
 800603a:	7b0a      	ldrb	r2, [r1, #12]
 800603c:	2a00      	cmp	r2, #0
 800603e:	d100      	bne.n	8006042 <USB_ActivateEndpoint+0x25e>
 8006040:	e73d      	b.n	8005ebe <USB_ActivateEndpoint+0xda>
 8006042:	881a      	ldrh	r2, [r3, #0]
 8006044:	4814      	ldr	r0, [pc, #80]	@ (8006098 <USB_ActivateEndpoint+0x2b4>)
 8006046:	403a      	ands	r2, r7
 8006048:	4302      	orrs	r2, r0
 800604a:	801a      	strh	r2, [r3, #0]
 800604c:	2000      	movs	r0, #0
 800604e:	e6f4      	b.n	8005e3a <USB_ActivateEndpoint+0x56>
 8006050:	261f      	movs	r6, #31
 8006052:	094c      	lsrs	r4, r1, #5
 8006054:	4031      	ands	r1, r6
 8006056:	424e      	negs	r6, r1
 8006058:	4171      	adcs	r1, r6
 800605a:	1a64      	subs	r4, r4, r1
 800605c:	8811      	ldrh	r1, [r2, #0]
 800605e:	02a4      	lsls	r4, r4, #10
 8006060:	430c      	orrs	r4, r1
 8006062:	490e      	ldr	r1, [pc, #56]	@ (800609c <USB_ActivateEndpoint+0x2b8>)
 8006064:	4321      	orrs	r1, r4
 8006066:	b289      	uxth	r1, r1
 8006068:	8011      	strh	r1, [r2, #0]
 800606a:	e7a6      	b.n	8005fba <USB_ActivateEndpoint+0x1d6>
 800606c:	ffff898f 	.word	0xffff898f
 8006070:	ffff8080 	.word	0xffff8080
 8006074:	ffff8f8f 	.word	0xffff8f8f
 8006078:	ffff8e8f 	.word	0xffff8e8f
 800607c:	00008080 	.word	0x00008080
 8006080:	00000404 	.word	0x00000404
 8006084:	0000c080 	.word	0x0000c080
 8006088:	ffffbf8f 	.word	0xffffbf8f
 800608c:	ffff8fbf 	.word	0xffff8fbf
 8006090:	000080c0 	.word	0x000080c0
 8006094:	00000406 	.word	0x00000406
 8006098:	00008180 	.word	0x00008180
 800609c:	ffff8000 	.word	0xffff8000

080060a0 <USB_DeactivateEndpoint>:
 80060a0:	780b      	ldrb	r3, [r1, #0]
 80060a2:	784a      	ldrb	r2, [r1, #1]
 80060a4:	009b      	lsls	r3, r3, #2
 80060a6:	18c0      	adds	r0, r0, r3
 80060a8:	7b0b      	ldrb	r3, [r1, #12]
 80060aa:	2b00      	cmp	r3, #0
 80060ac:	d10d      	bne.n	80060ca <USB_DeactivateEndpoint+0x2a>
 80060ae:	8803      	ldrh	r3, [r0, #0]
 80060b0:	2a00      	cmp	r2, #0
 80060b2:	d057      	beq.n	8006164 <USB_DeactivateEndpoint+0xc4>
 80060b4:	065b      	lsls	r3, r3, #25
 80060b6:	d500      	bpl.n	80060ba <USB_DeactivateEndpoint+0x1a>
 80060b8:	e063      	b.n	8006182 <USB_DeactivateEndpoint+0xe2>
 80060ba:	8803      	ldrh	r3, [r0, #0]
 80060bc:	4a34      	ldr	r2, [pc, #208]	@ (8006190 <USB_DeactivateEndpoint+0xf0>)
 80060be:	4013      	ands	r3, r2
 80060c0:	4a34      	ldr	r2, [pc, #208]	@ (8006194 <USB_DeactivateEndpoint+0xf4>)
 80060c2:	4313      	orrs	r3, r2
 80060c4:	8003      	strh	r3, [r0, #0]
 80060c6:	2000      	movs	r0, #0
 80060c8:	4770      	bx	lr
 80060ca:	8803      	ldrh	r3, [r0, #0]
 80060cc:	2a00      	cmp	r2, #0
 80060ce:	d124      	bne.n	800611a <USB_DeactivateEndpoint+0x7a>
 80060d0:	045b      	lsls	r3, r3, #17
 80060d2:	d505      	bpl.n	80060e0 <USB_DeactivateEndpoint+0x40>
 80060d4:	8803      	ldrh	r3, [r0, #0]
 80060d6:	4a30      	ldr	r2, [pc, #192]	@ (8006198 <USB_DeactivateEndpoint+0xf8>)
 80060d8:	4013      	ands	r3, r2
 80060da:	4a30      	ldr	r2, [pc, #192]	@ (800619c <USB_DeactivateEndpoint+0xfc>)
 80060dc:	4313      	orrs	r3, r2
 80060de:	8003      	strh	r3, [r0, #0]
 80060e0:	8803      	ldrh	r3, [r0, #0]
 80060e2:	065b      	lsls	r3, r3, #25
 80060e4:	d505      	bpl.n	80060f2 <USB_DeactivateEndpoint+0x52>
 80060e6:	8803      	ldrh	r3, [r0, #0]
 80060e8:	4a2b      	ldr	r2, [pc, #172]	@ (8006198 <USB_DeactivateEndpoint+0xf8>)
 80060ea:	4013      	ands	r3, r2
 80060ec:	4a2c      	ldr	r2, [pc, #176]	@ (80061a0 <USB_DeactivateEndpoint+0x100>)
 80060ee:	4313      	orrs	r3, r2
 80060f0:	8003      	strh	r3, [r0, #0]
 80060f2:	8803      	ldrh	r3, [r0, #0]
 80060f4:	4a28      	ldr	r2, [pc, #160]	@ (8006198 <USB_DeactivateEndpoint+0xf8>)
 80060f6:	4926      	ldr	r1, [pc, #152]	@ (8006190 <USB_DeactivateEndpoint+0xf0>)
 80060f8:	4013      	ands	r3, r2
 80060fa:	4a29      	ldr	r2, [pc, #164]	@ (80061a0 <USB_DeactivateEndpoint+0x100>)
 80060fc:	4313      	orrs	r3, r2
 80060fe:	8003      	strh	r3, [r0, #0]
 8006100:	8803      	ldrh	r3, [r0, #0]
 8006102:	4a28      	ldr	r2, [pc, #160]	@ (80061a4 <USB_DeactivateEndpoint+0x104>)
 8006104:	4013      	ands	r3, r2
 8006106:	4a28      	ldr	r2, [pc, #160]	@ (80061a8 <USB_DeactivateEndpoint+0x108>)
 8006108:	4313      	orrs	r3, r2
 800610a:	b29b      	uxth	r3, r3
 800610c:	8003      	strh	r3, [r0, #0]
 800610e:	8803      	ldrh	r3, [r0, #0]
 8006110:	400b      	ands	r3, r1
 8006112:	431a      	orrs	r2, r3
 8006114:	b292      	uxth	r2, r2
 8006116:	8002      	strh	r2, [r0, #0]
 8006118:	e7d5      	b.n	80060c6 <USB_DeactivateEndpoint+0x26>
 800611a:	045b      	lsls	r3, r3, #17
 800611c:	d505      	bpl.n	800612a <USB_DeactivateEndpoint+0x8a>
 800611e:	8803      	ldrh	r3, [r0, #0]
 8006120:	4a1d      	ldr	r2, [pc, #116]	@ (8006198 <USB_DeactivateEndpoint+0xf8>)
 8006122:	4013      	ands	r3, r2
 8006124:	4a1d      	ldr	r2, [pc, #116]	@ (800619c <USB_DeactivateEndpoint+0xfc>)
 8006126:	4313      	orrs	r3, r2
 8006128:	8003      	strh	r3, [r0, #0]
 800612a:	8803      	ldrh	r3, [r0, #0]
 800612c:	065b      	lsls	r3, r3, #25
 800612e:	d505      	bpl.n	800613c <USB_DeactivateEndpoint+0x9c>
 8006130:	8803      	ldrh	r3, [r0, #0]
 8006132:	4a19      	ldr	r2, [pc, #100]	@ (8006198 <USB_DeactivateEndpoint+0xf8>)
 8006134:	4013      	ands	r3, r2
 8006136:	4a1a      	ldr	r2, [pc, #104]	@ (80061a0 <USB_DeactivateEndpoint+0x100>)
 8006138:	4313      	orrs	r3, r2
 800613a:	8003      	strh	r3, [r0, #0]
 800613c:	8803      	ldrh	r3, [r0, #0]
 800613e:	4a16      	ldr	r2, [pc, #88]	@ (8006198 <USB_DeactivateEndpoint+0xf8>)
 8006140:	4918      	ldr	r1, [pc, #96]	@ (80061a4 <USB_DeactivateEndpoint+0x104>)
 8006142:	4013      	ands	r3, r2
 8006144:	4a15      	ldr	r2, [pc, #84]	@ (800619c <USB_DeactivateEndpoint+0xfc>)
 8006146:	4313      	orrs	r3, r2
 8006148:	8003      	strh	r3, [r0, #0]
 800614a:	8803      	ldrh	r3, [r0, #0]
 800614c:	4a10      	ldr	r2, [pc, #64]	@ (8006190 <USB_DeactivateEndpoint+0xf0>)
 800614e:	4013      	ands	r3, r2
 8006150:	4a15      	ldr	r2, [pc, #84]	@ (80061a8 <USB_DeactivateEndpoint+0x108>)
 8006152:	4313      	orrs	r3, r2
 8006154:	b29b      	uxth	r3, r3
 8006156:	8003      	strh	r3, [r0, #0]
 8006158:	8803      	ldrh	r3, [r0, #0]
 800615a:	400b      	ands	r3, r1
 800615c:	431a      	orrs	r2, r3
 800615e:	b292      	uxth	r2, r2
 8006160:	8002      	strh	r2, [r0, #0]
 8006162:	e7b0      	b.n	80060c6 <USB_DeactivateEndpoint+0x26>
 8006164:	045b      	lsls	r3, r3, #17
 8006166:	d505      	bpl.n	8006174 <USB_DeactivateEndpoint+0xd4>
 8006168:	8803      	ldrh	r3, [r0, #0]
 800616a:	4a0b      	ldr	r2, [pc, #44]	@ (8006198 <USB_DeactivateEndpoint+0xf8>)
 800616c:	4013      	ands	r3, r2
 800616e:	4a0b      	ldr	r2, [pc, #44]	@ (800619c <USB_DeactivateEndpoint+0xfc>)
 8006170:	4313      	orrs	r3, r2
 8006172:	8003      	strh	r3, [r0, #0]
 8006174:	8803      	ldrh	r3, [r0, #0]
 8006176:	4a0b      	ldr	r2, [pc, #44]	@ (80061a4 <USB_DeactivateEndpoint+0x104>)
 8006178:	4013      	ands	r3, r2
 800617a:	4a06      	ldr	r2, [pc, #24]	@ (8006194 <USB_DeactivateEndpoint+0xf4>)
 800617c:	4313      	orrs	r3, r2
 800617e:	8003      	strh	r3, [r0, #0]
 8006180:	e7a1      	b.n	80060c6 <USB_DeactivateEndpoint+0x26>
 8006182:	8803      	ldrh	r3, [r0, #0]
 8006184:	4a04      	ldr	r2, [pc, #16]	@ (8006198 <USB_DeactivateEndpoint+0xf8>)
 8006186:	4013      	ands	r3, r2
 8006188:	4a05      	ldr	r2, [pc, #20]	@ (80061a0 <USB_DeactivateEndpoint+0x100>)
 800618a:	4313      	orrs	r3, r2
 800618c:	8003      	strh	r3, [r0, #0]
 800618e:	e794      	b.n	80060ba <USB_DeactivateEndpoint+0x1a>
 8006190:	ffff8fbf 	.word	0xffff8fbf
 8006194:	00008080 	.word	0x00008080
 8006198:	ffff8f8f 	.word	0xffff8f8f
 800619c:	0000c080 	.word	0x0000c080
 80061a0:	000080c0 	.word	0x000080c0
 80061a4:	ffffbf8f 	.word	0xffffbf8f
 80061a8:	ffff8080 	.word	0xffff8080

080061ac <USB_EPStartXfer>:
 80061ac:	b5f0      	push	{r4, r5, r6, r7, lr}
 80061ae:	4645      	mov	r5, r8
 80061b0:	46de      	mov	lr, fp
 80061b2:	4657      	mov	r7, sl
 80061b4:	464e      	mov	r6, r9
 80061b6:	b5e0      	push	{r5, r6, r7, lr}
 80061b8:	784b      	ldrb	r3, [r1, #1]
 80061ba:	0002      	movs	r2, r0
 80061bc:	7b0d      	ldrb	r5, [r1, #12]
 80061be:	b087      	sub	sp, #28
 80061c0:	2b01      	cmp	r3, #1
 80061c2:	d100      	bne.n	80061c6 <USB_EPStartXfer+0x1a>
 80061c4:	e072      	b.n	80062ac <USB_EPStartXfer+0x100>
 80061c6:	2d00      	cmp	r5, #0
 80061c8:	d04c      	beq.n	8006264 <USB_EPStartXfer+0xb8>
 80061ca:	78cc      	ldrb	r4, [r1, #3]
 80061cc:	2c02      	cmp	r4, #2
 80061ce:	d100      	bne.n	80061d2 <USB_EPStartXfer+0x26>
 80061d0:	e0e7      	b.n	80063a2 <USB_EPStartXfer+0x1f6>
 80061d2:	2001      	movs	r0, #1
 80061d4:	2c01      	cmp	r4, #1
 80061d6:	d13e      	bne.n	8006256 <USB_EPStartXfer+0xaa>
 80061d8:	698d      	ldr	r5, [r1, #24]
 80061da:	6908      	ldr	r0, [r1, #16]
 80061dc:	2400      	movs	r4, #0
 80061de:	4285      	cmp	r5, r0
 80061e0:	d901      	bls.n	80061e6 <USB_EPStartXfer+0x3a>
 80061e2:	1a2c      	subs	r4, r5, r0
 80061e4:	0005      	movs	r5, r0
 80061e6:	618c      	str	r4, [r1, #24]
 80061e8:	2b00      	cmp	r3, #0
 80061ea:	d127      	bne.n	800623c <USB_EPStartXfer+0x90>
 80061ec:	2650      	movs	r6, #80	@ 0x50
 80061ee:	4b95      	ldr	r3, [pc, #596]	@ (8006444 <USB_EPStartXfer+0x298>)
 80061f0:	5b90      	ldrh	r0, [r2, r6]
 80061f2:	780c      	ldrb	r4, [r1, #0]
 80061f4:	18d3      	adds	r3, r2, r3
 80061f6:	181b      	adds	r3, r3, r0
 80061f8:	00e4      	lsls	r4, r4, #3
 80061fa:	191b      	adds	r3, r3, r4
 80061fc:	8818      	ldrh	r0, [r3, #0]
 80061fe:	0580      	lsls	r0, r0, #22
 8006200:	0d80      	lsrs	r0, r0, #22
 8006202:	8018      	strh	r0, [r3, #0]
 8006204:	4890      	ldr	r0, [pc, #576]	@ (8006448 <USB_EPStartXfer+0x29c>)
 8006206:	4680      	mov	r8, r0
 8006208:	4490      	add	r8, r2
 800620a:	2d00      	cmp	r5, #0
 800620c:	d100      	bne.n	8006210 <USB_EPStartXfer+0x64>
 800620e:	e207      	b.n	8006620 <USB_EPStartXfer+0x474>
 8006210:	2d3e      	cmp	r5, #62	@ 0x3e
 8006212:	d900      	bls.n	8006216 <USB_EPStartXfer+0x6a>
 8006214:	e295      	b.n	8006742 <USB_EPStartXfer+0x596>
 8006216:	2001      	movs	r0, #1
 8006218:	086f      	lsrs	r7, r5, #1
 800621a:	4005      	ands	r5, r0
 800621c:	197f      	adds	r7, r7, r5
 800621e:	02bf      	lsls	r7, r7, #10
 8006220:	881d      	ldrh	r5, [r3, #0]
 8006222:	b2bf      	uxth	r7, r7
 8006224:	433d      	orrs	r5, r7
 8006226:	801d      	strh	r5, [r3, #0]
 8006228:	5b93      	ldrh	r3, [r2, r6]
 800622a:	4443      	add	r3, r8
 800622c:	191b      	adds	r3, r3, r4
 800622e:	8818      	ldrh	r0, [r3, #0]
 8006230:	0580      	lsls	r0, r0, #22
 8006232:	0d80      	lsrs	r0, r0, #22
 8006234:	8018      	strh	r0, [r3, #0]
 8006236:	8818      	ldrh	r0, [r3, #0]
 8006238:	4307      	orrs	r7, r0
 800623a:	801f      	strh	r7, [r3, #0]
 800623c:	780b      	ldrb	r3, [r1, #0]
 800623e:	009b      	lsls	r3, r3, #2
 8006240:	18d2      	adds	r2, r2, r3
 8006242:	8811      	ldrh	r1, [r2, #0]
 8006244:	4b81      	ldr	r3, [pc, #516]	@ (800644c <USB_EPStartXfer+0x2a0>)
 8006246:	2000      	movs	r0, #0
 8006248:	4019      	ands	r1, r3
 800624a:	23c0      	movs	r3, #192	@ 0xc0
 800624c:	019b      	lsls	r3, r3, #6
 800624e:	404b      	eors	r3, r1
 8006250:	497f      	ldr	r1, [pc, #508]	@ (8006450 <USB_EPStartXfer+0x2a4>)
 8006252:	430b      	orrs	r3, r1
 8006254:	8013      	strh	r3, [r2, #0]
 8006256:	b007      	add	sp, #28
 8006258:	bcf0      	pop	{r4, r5, r6, r7}
 800625a:	46bb      	mov	fp, r7
 800625c:	46b2      	mov	sl, r6
 800625e:	46a9      	mov	r9, r5
 8006260:	46a0      	mov	r8, r4
 8006262:	bdf0      	pop	{r4, r5, r6, r7, pc}
 8006264:	698c      	ldr	r4, [r1, #24]
 8006266:	690b      	ldr	r3, [r1, #16]
 8006268:	2000      	movs	r0, #0
 800626a:	429c      	cmp	r4, r3
 800626c:	d901      	bls.n	8006272 <USB_EPStartXfer+0xc6>
 800626e:	1ae0      	subs	r0, r4, r3
 8006270:	001c      	movs	r4, r3
 8006272:	2350      	movs	r3, #80	@ 0x50
 8006274:	6188      	str	r0, [r1, #24]
 8006276:	5ad5      	ldrh	r5, [r2, r3]
 8006278:	4b73      	ldr	r3, [pc, #460]	@ (8006448 <USB_EPStartXfer+0x29c>)
 800627a:	7808      	ldrb	r0, [r1, #0]
 800627c:	18d3      	adds	r3, r2, r3
 800627e:	195b      	adds	r3, r3, r5
 8006280:	00c0      	lsls	r0, r0, #3
 8006282:	18c0      	adds	r0, r0, r3
 8006284:	8803      	ldrh	r3, [r0, #0]
 8006286:	059b      	lsls	r3, r3, #22
 8006288:	0d9b      	lsrs	r3, r3, #22
 800628a:	8003      	strh	r3, [r0, #0]
 800628c:	2c00      	cmp	r4, #0
 800628e:	d100      	bne.n	8006292 <USB_EPStartXfer+0xe6>
 8006290:	e081      	b.n	8006396 <USB_EPStartXfer+0x1ea>
 8006292:	2c3e      	cmp	r4, #62	@ 0x3e
 8006294:	d900      	bls.n	8006298 <USB_EPStartXfer+0xec>
 8006296:	e0c6      	b.n	8006426 <USB_EPStartXfer+0x27a>
 8006298:	2301      	movs	r3, #1
 800629a:	0865      	lsrs	r5, r4, #1
 800629c:	4023      	ands	r3, r4
 800629e:	18ed      	adds	r5, r5, r3
 80062a0:	8803      	ldrh	r3, [r0, #0]
 80062a2:	02ad      	lsls	r5, r5, #10
 80062a4:	432b      	orrs	r3, r5
 80062a6:	b29b      	uxth	r3, r3
 80062a8:	8003      	strh	r3, [r0, #0]
 80062aa:	e7c7      	b.n	800623c <USB_EPStartXfer+0x90>
 80062ac:	690c      	ldr	r4, [r1, #16]
 80062ae:	6988      	ldr	r0, [r1, #24]
 80062b0:	42a0      	cmp	r0, r4
 80062b2:	d868      	bhi.n	8006386 <USB_EPStartXfer+0x1da>
 80062b4:	2680      	movs	r6, #128	@ 0x80
 80062b6:	00f6      	lsls	r6, r6, #3
 80062b8:	694b      	ldr	r3, [r1, #20]
 80062ba:	1997      	adds	r7, r2, r6
 80062bc:	2d00      	cmp	r5, #0
 80062be:	d12f      	bne.n	8006320 <USB_EPStartXfer+0x174>
 80062c0:	0404      	lsls	r4, r0, #16
 80062c2:	b286      	uxth	r6, r0
 80062c4:	0c24      	lsrs	r4, r4, #16
 80062c6:	88c8      	ldrh	r0, [r1, #6]
 80062c8:	3401      	adds	r4, #1
 80062ca:	0864      	lsrs	r4, r4, #1
 80062cc:	19c0      	adds	r0, r0, r7
 80062ce:	2c00      	cmp	r4, #0
 80062d0:	d00f      	beq.n	80062f2 <USB_EPStartXfer+0x146>
 80062d2:	0064      	lsls	r4, r4, #1
 80062d4:	1ac5      	subs	r5, r0, r3
 80062d6:	191c      	adds	r4, r3, r4
 80062d8:	4694      	mov	ip, r2
 80062da:	002a      	movs	r2, r5
 80062dc:	0025      	movs	r5, r4
 80062de:	7858      	ldrb	r0, [r3, #1]
 80062e0:	781c      	ldrb	r4, [r3, #0]
 80062e2:	0200      	lsls	r0, r0, #8
 80062e4:	189f      	adds	r7, r3, r2
 80062e6:	4320      	orrs	r0, r4
 80062e8:	3302      	adds	r3, #2
 80062ea:	8038      	strh	r0, [r7, #0]
 80062ec:	42ab      	cmp	r3, r5
 80062ee:	d1f6      	bne.n	80062de <USB_EPStartXfer+0x132>
 80062f0:	4662      	mov	r2, ip
 80062f2:	2350      	movs	r3, #80	@ 0x50
 80062f4:	4853      	ldr	r0, [pc, #332]	@ (8006444 <USB_EPStartXfer+0x298>)
 80062f6:	5ad4      	ldrh	r4, [r2, r3]
 80062f8:	780b      	ldrb	r3, [r1, #0]
 80062fa:	1810      	adds	r0, r2, r0
 80062fc:	00db      	lsls	r3, r3, #3
 80062fe:	1900      	adds	r0, r0, r4
 8006300:	181b      	adds	r3, r3, r0
 8006302:	801e      	strh	r6, [r3, #0]
 8006304:	780b      	ldrb	r3, [r1, #0]
 8006306:	2000      	movs	r0, #0
 8006308:	009b      	lsls	r3, r3, #2
 800630a:	18d3      	adds	r3, r2, r3
 800630c:	8819      	ldrh	r1, [r3, #0]
 800630e:	4a51      	ldr	r2, [pc, #324]	@ (8006454 <USB_EPStartXfer+0x2a8>)
 8006310:	4011      	ands	r1, r2
 8006312:	2230      	movs	r2, #48	@ 0x30
 8006314:	4051      	eors	r1, r2
 8006316:	4a50      	ldr	r2, [pc, #320]	@ (8006458 <USB_EPStartXfer+0x2ac>)
 8006318:	430a      	orrs	r2, r1
 800631a:	b292      	uxth	r2, r2
 800631c:	801a      	strh	r2, [r3, #0]
 800631e:	e79a      	b.n	8006256 <USB_EPStartXfer+0xaa>
 8006320:	6a0d      	ldr	r5, [r1, #32]
 8006322:	46ab      	mov	fp, r5
 8006324:	780d      	ldrb	r5, [r1, #0]
 8006326:	00ae      	lsls	r6, r5, #2
 8006328:	46b4      	mov	ip, r6
 800632a:	00ed      	lsls	r5, r5, #3
 800632c:	9501      	str	r5, [sp, #4]
 800632e:	78ce      	ldrb	r6, [r1, #3]
 8006330:	4494      	add	ip, r2
 8006332:	2e02      	cmp	r6, #2
 8006334:	d100      	bne.n	8006338 <USB_EPStartXfer+0x18c>
 8006336:	e099      	b.n	800646c <USB_EPStartXfer+0x2c0>
 8006338:	465c      	mov	r4, fp
 800633a:	1a26      	subs	r6, r4, r0
 800633c:	4664      	mov	r4, ip
 800633e:	620e      	str	r6, [r1, #32]
 8006340:	b286      	uxth	r6, r0
 8006342:	0400      	lsls	r0, r0, #16
 8006344:	0c00      	lsrs	r0, r0, #16
 8006346:	8824      	ldrh	r4, [r4, #0]
 8006348:	3001      	adds	r0, #1
 800634a:	0840      	lsrs	r0, r0, #1
 800634c:	0664      	lsls	r4, r4, #25
 800634e:	d400      	bmi.n	8006352 <USB_EPStartXfer+0x1a6>
 8006350:	e112      	b.n	8006578 <USB_EPStartXfer+0x3cc>
 8006352:	2450      	movs	r4, #80	@ 0x50
 8006354:	5b14      	ldrh	r4, [r2, r4]
 8006356:	46a4      	mov	ip, r4
 8006358:	4c3b      	ldr	r4, [pc, #236]	@ (8006448 <USB_EPStartXfer+0x29c>)
 800635a:	1914      	adds	r4, r2, r4
 800635c:	4464      	add	r4, ip
 800635e:	46ac      	mov	ip, r5
 8006360:	4464      	add	r4, ip
 8006362:	8026      	strh	r6, [r4, #0]
 8006364:	894d      	ldrh	r5, [r1, #10]
 8006366:	19ef      	adds	r7, r5, r7
 8006368:	2800      	cmp	r0, #0
 800636a:	d0cb      	beq.n	8006304 <USB_EPStartXfer+0x158>
 800636c:	0044      	lsls	r4, r0, #1
 800636e:	191c      	adds	r4, r3, r4
 8006370:	1aff      	subs	r7, r7, r3
 8006372:	7858      	ldrb	r0, [r3, #1]
 8006374:	781e      	ldrb	r6, [r3, #0]
 8006376:	0200      	lsls	r0, r0, #8
 8006378:	19dd      	adds	r5, r3, r7
 800637a:	4330      	orrs	r0, r6
 800637c:	3302      	adds	r3, #2
 800637e:	8028      	strh	r0, [r5, #0]
 8006380:	42a3      	cmp	r3, r4
 8006382:	d1f6      	bne.n	8006372 <USB_EPStartXfer+0x1c6>
 8006384:	e7be      	b.n	8006304 <USB_EPStartXfer+0x158>
 8006386:	2680      	movs	r6, #128	@ 0x80
 8006388:	00f6      	lsls	r6, r6, #3
 800638a:	0020      	movs	r0, r4
 800638c:	694b      	ldr	r3, [r1, #20]
 800638e:	1997      	adds	r7, r2, r6
 8006390:	2d00      	cmp	r5, #0
 8006392:	d1c5      	bne.n	8006320 <USB_EPStartXfer+0x174>
 8006394:	e794      	b.n	80062c0 <USB_EPStartXfer+0x114>
 8006396:	2480      	movs	r4, #128	@ 0x80
 8006398:	8803      	ldrh	r3, [r0, #0]
 800639a:	0224      	lsls	r4, r4, #8
 800639c:	4323      	orrs	r3, r4
 800639e:	8003      	strh	r3, [r0, #0]
 80063a0:	e74c      	b.n	800623c <USB_EPStartXfer+0x90>
 80063a2:	2b00      	cmp	r3, #0
 80063a4:	d129      	bne.n	80063fa <USB_EPStartXfer+0x24e>
 80063a6:	2650      	movs	r6, #80	@ 0x50
 80063a8:	4b26      	ldr	r3, [pc, #152]	@ (8006444 <USB_EPStartXfer+0x298>)
 80063aa:	5b80      	ldrh	r0, [r0, r6]
 80063ac:	780c      	ldrb	r4, [r1, #0]
 80063ae:	18d3      	adds	r3, r2, r3
 80063b0:	181b      	adds	r3, r3, r0
 80063b2:	00e4      	lsls	r4, r4, #3
 80063b4:	191b      	adds	r3, r3, r4
 80063b6:	8818      	ldrh	r0, [r3, #0]
 80063b8:	690d      	ldr	r5, [r1, #16]
 80063ba:	0580      	lsls	r0, r0, #22
 80063bc:	0d80      	lsrs	r0, r0, #22
 80063be:	8018      	strh	r0, [r3, #0]
 80063c0:	4821      	ldr	r0, [pc, #132]	@ (8006448 <USB_EPStartXfer+0x29c>)
 80063c2:	1810      	adds	r0, r2, r0
 80063c4:	2d00      	cmp	r5, #0
 80063c6:	d100      	bne.n	80063ca <USB_EPStartXfer+0x21e>
 80063c8:	e119      	b.n	80065fe <USB_EPStartXfer+0x452>
 80063ca:	2d3e      	cmp	r5, #62	@ 0x3e
 80063cc:	d900      	bls.n	80063d0 <USB_EPStartXfer+0x224>
 80063ce:	e195      	b.n	80066fc <USB_EPStartXfer+0x550>
 80063d0:	086f      	lsrs	r7, r5, #1
 80063d2:	46b8      	mov	r8, r7
 80063d4:	2701      	movs	r7, #1
 80063d6:	403d      	ands	r5, r7
 80063d8:	44a8      	add	r8, r5
 80063da:	4647      	mov	r7, r8
 80063dc:	881d      	ldrh	r5, [r3, #0]
 80063de:	02bf      	lsls	r7, r7, #10
 80063e0:	b2bf      	uxth	r7, r7
 80063e2:	433d      	orrs	r5, r7
 80063e4:	801d      	strh	r5, [r3, #0]
 80063e6:	5b93      	ldrh	r3, [r2, r6]
 80063e8:	18c3      	adds	r3, r0, r3
 80063ea:	191b      	adds	r3, r3, r4
 80063ec:	8818      	ldrh	r0, [r3, #0]
 80063ee:	0580      	lsls	r0, r0, #22
 80063f0:	0d80      	lsrs	r0, r0, #22
 80063f2:	8018      	strh	r0, [r3, #0]
 80063f4:	8818      	ldrh	r0, [r3, #0]
 80063f6:	4307      	orrs	r7, r0
 80063f8:	801f      	strh	r7, [r3, #0]
 80063fa:	69cb      	ldr	r3, [r1, #28]
 80063fc:	2b00      	cmp	r3, #0
 80063fe:	d100      	bne.n	8006402 <USB_EPStartXfer+0x256>
 8006400:	e71c      	b.n	800623c <USB_EPStartXfer+0x90>
 8006402:	780b      	ldrb	r3, [r1, #0]
 8006404:	4d15      	ldr	r5, [pc, #84]	@ (800645c <USB_EPStartXfer+0x2b0>)
 8006406:	0098      	lsls	r0, r3, #2
 8006408:	1810      	adds	r0, r2, r0
 800640a:	8804      	ldrh	r4, [r0, #0]
 800640c:	402c      	ands	r4, r5
 800640e:	42ac      	cmp	r4, r5
 8006410:	d002      	beq.n	8006418 <USB_EPStartXfer+0x26c>
 8006412:	2c00      	cmp	r4, #0
 8006414:	d000      	beq.n	8006418 <USB_EPStartXfer+0x26c>
 8006416:	e712      	b.n	800623e <USB_EPStartXfer+0x92>
 8006418:	8803      	ldrh	r3, [r0, #0]
 800641a:	4c11      	ldr	r4, [pc, #68]	@ (8006460 <USB_EPStartXfer+0x2b4>)
 800641c:	4023      	ands	r3, r4
 800641e:	4c11      	ldr	r4, [pc, #68]	@ (8006464 <USB_EPStartXfer+0x2b8>)
 8006420:	4323      	orrs	r3, r4
 8006422:	8003      	strh	r3, [r0, #0]
 8006424:	e70a      	b.n	800623c <USB_EPStartXfer+0x90>
 8006426:	251f      	movs	r5, #31
 8006428:	0963      	lsrs	r3, r4, #5
 800642a:	402c      	ands	r4, r5
 800642c:	4265      	negs	r5, r4
 800642e:	416c      	adcs	r4, r5
 8006430:	1b1b      	subs	r3, r3, r4
 8006432:	8804      	ldrh	r4, [r0, #0]
 8006434:	029b      	lsls	r3, r3, #10
 8006436:	431c      	orrs	r4, r3
 8006438:	4b0b      	ldr	r3, [pc, #44]	@ (8006468 <USB_EPStartXfer+0x2bc>)
 800643a:	4323      	orrs	r3, r4
 800643c:	b29b      	uxth	r3, r3
 800643e:	8003      	strh	r3, [r0, #0]
 8006440:	e6fc      	b.n	800623c <USB_EPStartXfer+0x90>
 8006442:	46c0      	nop			@ (mov r8, r8)
 8006444:	00000402 	.word	0x00000402
 8006448:	00000406 	.word	0x00000406
 800644c:	ffffbf8f 	.word	0xffffbf8f
 8006450:	00008080 	.word	0x00008080
 8006454:	ffff8fbf 	.word	0xffff8fbf
 8006458:	ffff8080 	.word	0xffff8080
 800645c:	00004040 	.word	0x00004040
 8006460:	ffff8f8f 	.word	0xffff8f8f
 8006464:	000080c0 	.word	0x000080c0
 8006468:	ffff8000 	.word	0xffff8000
 800646c:	4ec4      	ldr	r6, [pc, #784]	@ (8006780 <USB_EPStartXfer+0x5d4>)
 800646e:	46b1      	mov	r9, r6
 8006470:	4491      	add	r9, r2
 8006472:	455c      	cmp	r4, fp
 8006474:	d300      	bcc.n	8006478 <USB_EPStartXfer+0x2cc>
 8006476:	e09a      	b.n	80065ae <USB_EPStartXfer+0x402>
 8006478:	4665      	mov	r5, ip
 800647a:	882d      	ldrh	r5, [r5, #0]
 800647c:	46a8      	mov	r8, r5
 800647e:	4646      	mov	r6, r8
 8006480:	4dc0      	ldr	r5, [pc, #768]	@ (8006784 <USB_EPStartXfer+0x5d8>)
 8006482:	402e      	ands	r6, r5
 8006484:	4dc0      	ldr	r5, [pc, #768]	@ (8006788 <USB_EPStartXfer+0x5dc>)
 8006486:	432e      	orrs	r6, r5
 8006488:	4665      	mov	r5, ip
 800648a:	802e      	strh	r6, [r5, #0]
 800648c:	465d      	mov	r5, fp
 800648e:	1a2d      	subs	r5, r5, r0
 8006490:	46ab      	mov	fp, r5
 8006492:	620d      	str	r5, [r1, #32]
 8006494:	4665      	mov	r5, ip
 8006496:	882e      	ldrh	r6, [r5, #0]
 8006498:	0405      	lsls	r5, r0, #16
 800649a:	0c2d      	lsrs	r5, r5, #16
 800649c:	46ac      	mov	ip, r5
 800649e:	2501      	movs	r5, #1
 80064a0:	46a8      	mov	r8, r5
 80064a2:	44c4      	add	ip, r8
 80064a4:	4665      	mov	r5, ip
 80064a6:	086d      	lsrs	r5, r5, #1
 80064a8:	46aa      	mov	sl, r5
 80064aa:	4db8      	ldr	r5, [pc, #736]	@ (800678c <USB_EPStartXfer+0x5e0>)
 80064ac:	9603      	str	r6, [sp, #12]
 80064ae:	46ac      	mov	ip, r5
 80064b0:	4494      	add	ip, r2
 80064b2:	4665      	mov	r5, ip
 80064b4:	b286      	uxth	r6, r0
 80064b6:	9602      	str	r6, [sp, #8]
 80064b8:	9e03      	ldr	r6, [sp, #12]
 80064ba:	9504      	str	r5, [sp, #16]
 80064bc:	0676      	lsls	r6, r6, #25
 80064be:	d400      	bmi.n	80064c2 <USB_EPStartXfer+0x316>
 80064c0:	e0bf      	b.n	8006642 <USB_EPStartXfer+0x496>
 80064c2:	2650      	movs	r6, #80	@ 0x50
 80064c4:	9d01      	ldr	r5, [sp, #4]
 80064c6:	5b96      	ldrh	r6, [r2, r6]
 80064c8:	4466      	add	r6, ip
 80064ca:	46ac      	mov	ip, r5
 80064cc:	b285      	uxth	r5, r0
 80064ce:	4466      	add	r6, ip
 80064d0:	8035      	strh	r5, [r6, #0]
 80064d2:	894e      	ldrh	r6, [r1, #10]
 80064d4:	4655      	mov	r5, sl
 80064d6:	46b4      	mov	ip, r6
 80064d8:	44bc      	add	ip, r7
 80064da:	2d00      	cmp	r5, #0
 80064dc:	d022      	beq.n	8006524 <USB_EPStartXfer+0x378>
 80064de:	006e      	lsls	r6, r5, #1
 80064e0:	4665      	mov	r5, ip
 80064e2:	46b0      	mov	r8, r6
 80064e4:	1aed      	subs	r5, r5, r3
 80064e6:	46ac      	mov	ip, r5
 80064e8:	9005      	str	r0, [sp, #20]
 80064ea:	0010      	movs	r0, r2
 80064ec:	4498      	add	r8, r3
 80064ee:	9403      	str	r4, [sp, #12]
 80064f0:	465c      	mov	r4, fp
 80064f2:	4642      	mov	r2, r8
 80064f4:	468b      	mov	fp, r1
 80064f6:	001e      	movs	r6, r3
 80064f8:	4661      	mov	r1, ip
 80064fa:	4680      	mov	r8, r0
 80064fc:	469c      	mov	ip, r3
 80064fe:	9d01      	ldr	r5, [sp, #4]
 8006500:	9404      	str	r4, [sp, #16]
 8006502:	7870      	ldrb	r0, [r6, #1]
 8006504:	7833      	ldrb	r3, [r6, #0]
 8006506:	0200      	lsls	r0, r0, #8
 8006508:	1874      	adds	r4, r6, r1
 800650a:	4318      	orrs	r0, r3
 800650c:	3602      	adds	r6, #2
 800650e:	8020      	strh	r0, [r4, #0]
 8006510:	4296      	cmp	r6, r2
 8006512:	d1f6      	bne.n	8006502 <USB_EPStartXfer+0x356>
 8006514:	9501      	str	r5, [sp, #4]
 8006516:	9d04      	ldr	r5, [sp, #16]
 8006518:	4659      	mov	r1, fp
 800651a:	4663      	mov	r3, ip
 800651c:	4642      	mov	r2, r8
 800651e:	46ab      	mov	fp, r5
 8006520:	9c03      	ldr	r4, [sp, #12]
 8006522:	9805      	ldr	r0, [sp, #20]
 8006524:	465d      	mov	r5, fp
 8006526:	181b      	adds	r3, r3, r0
 8006528:	614b      	str	r3, [r1, #20]
 800652a:	1a28      	subs	r0, r5, r0
 800652c:	455c      	cmp	r4, fp
 800652e:	d307      	bcc.n	8006540 <USB_EPStartXfer+0x394>
 8006530:	b2a8      	uxth	r0, r5
 8006532:	9002      	str	r0, [sp, #8]
 8006534:	0428      	lsls	r0, r5, #16
 8006536:	0c00      	lsrs	r0, r0, #16
 8006538:	3001      	adds	r0, #1
 800653a:	0840      	lsrs	r0, r0, #1
 800653c:	4682      	mov	sl, r0
 800653e:	2000      	movs	r0, #0
 8006540:	6208      	str	r0, [r1, #32]
 8006542:	2050      	movs	r0, #80	@ 0x50
 8006544:	9c01      	ldr	r4, [sp, #4]
 8006546:	5a10      	ldrh	r0, [r2, r0]
 8006548:	46a4      	mov	ip, r4
 800654a:	4448      	add	r0, r9
 800654c:	9c02      	ldr	r4, [sp, #8]
 800654e:	4460      	add	r0, ip
 8006550:	8004      	strh	r4, [r0, #0]
 8006552:	4650      	mov	r0, sl
 8006554:	890e      	ldrh	r6, [r1, #8]
 8006556:	19f6      	adds	r6, r6, r7
 8006558:	2800      	cmp	r0, #0
 800655a:	d100      	bne.n	800655e <USB_EPStartXfer+0x3b2>
 800655c:	e6d2      	b.n	8006304 <USB_EPStartXfer+0x158>
 800655e:	0047      	lsls	r7, r0, #1
 8006560:	19df      	adds	r7, r3, r7
 8006562:	1af6      	subs	r6, r6, r3
 8006564:	7858      	ldrb	r0, [r3, #1]
 8006566:	781d      	ldrb	r5, [r3, #0]
 8006568:	0200      	lsls	r0, r0, #8
 800656a:	199c      	adds	r4, r3, r6
 800656c:	4328      	orrs	r0, r5
 800656e:	3302      	adds	r3, #2
 8006570:	8020      	strh	r0, [r4, #0]
 8006572:	42bb      	cmp	r3, r7
 8006574:	d1f6      	bne.n	8006564 <USB_EPStartXfer+0x3b8>
 8006576:	e6c5      	b.n	8006304 <USB_EPStartXfer+0x158>
 8006578:	2450      	movs	r4, #80	@ 0x50
 800657a:	5b14      	ldrh	r4, [r2, r4]
 800657c:	46a4      	mov	ip, r4
 800657e:	4c80      	ldr	r4, [pc, #512]	@ (8006780 <USB_EPStartXfer+0x5d4>)
 8006580:	1914      	adds	r4, r2, r4
 8006582:	4464      	add	r4, ip
 8006584:	46ac      	mov	ip, r5
 8006586:	4464      	add	r4, ip
 8006588:	8026      	strh	r6, [r4, #0]
 800658a:	890d      	ldrh	r5, [r1, #8]
 800658c:	19ef      	adds	r7, r5, r7
 800658e:	2800      	cmp	r0, #0
 8006590:	d100      	bne.n	8006594 <USB_EPStartXfer+0x3e8>
 8006592:	e6b7      	b.n	8006304 <USB_EPStartXfer+0x158>
 8006594:	0044      	lsls	r4, r0, #1
 8006596:	191c      	adds	r4, r3, r4
 8006598:	1aff      	subs	r7, r7, r3
 800659a:	7858      	ldrb	r0, [r3, #1]
 800659c:	781e      	ldrb	r6, [r3, #0]
 800659e:	0200      	lsls	r0, r0, #8
 80065a0:	19dd      	adds	r5, r3, r7
 80065a2:	4330      	orrs	r0, r6
 80065a4:	3302      	adds	r3, #2
 80065a6:	8028      	strh	r0, [r5, #0]
 80065a8:	42a3      	cmp	r3, r4
 80065aa:	d1f6      	bne.n	800659a <USB_EPStartXfer+0x3ee>
 80065ac:	e6aa      	b.n	8006304 <USB_EPStartXfer+0x158>
 80065ae:	4660      	mov	r0, ip
 80065b0:	4c77      	ldr	r4, [pc, #476]	@ (8006790 <USB_EPStartXfer+0x5e4>)
 80065b2:	8800      	ldrh	r0, [r0, #0]
 80065b4:	4020      	ands	r0, r4
 80065b6:	4c77      	ldr	r4, [pc, #476]	@ (8006794 <USB_EPStartXfer+0x5e8>)
 80065b8:	4320      	orrs	r0, r4
 80065ba:	4664      	mov	r4, ip
 80065bc:	8020      	strh	r0, [r4, #0]
 80065be:	2050      	movs	r0, #80	@ 0x50
 80065c0:	9c01      	ldr	r4, [sp, #4]
 80065c2:	5a10      	ldrh	r0, [r2, r0]
 80065c4:	46a4      	mov	ip, r4
 80065c6:	465c      	mov	r4, fp
 80065c8:	4448      	add	r0, r9
 80065ca:	4460      	add	r0, ip
 80065cc:	b2a4      	uxth	r4, r4
 80065ce:	8004      	strh	r4, [r0, #0]
 80065d0:	4658      	mov	r0, fp
 80065d2:	0404      	lsls	r4, r0, #16
 80065d4:	0c24      	lsrs	r4, r4, #16
 80065d6:	8908      	ldrh	r0, [r1, #8]
 80065d8:	3401      	adds	r4, #1
 80065da:	0864      	lsrs	r4, r4, #1
 80065dc:	19c7      	adds	r7, r0, r7
 80065de:	2c00      	cmp	r4, #0
 80065e0:	d100      	bne.n	80065e4 <USB_EPStartXfer+0x438>
 80065e2:	e68f      	b.n	8006304 <USB_EPStartXfer+0x158>
 80065e4:	0064      	lsls	r4, r4, #1
 80065e6:	191c      	adds	r4, r3, r4
 80065e8:	1aff      	subs	r7, r7, r3
 80065ea:	7858      	ldrb	r0, [r3, #1]
 80065ec:	781e      	ldrb	r6, [r3, #0]
 80065ee:	0200      	lsls	r0, r0, #8
 80065f0:	19dd      	adds	r5, r3, r7
 80065f2:	4330      	orrs	r0, r6
 80065f4:	3302      	adds	r3, #2
 80065f6:	8028      	strh	r0, [r5, #0]
 80065f8:	42a3      	cmp	r3, r4
 80065fa:	d1f6      	bne.n	80065ea <USB_EPStartXfer+0x43e>
 80065fc:	e682      	b.n	8006304 <USB_EPStartXfer+0x158>
 80065fe:	881f      	ldrh	r7, [r3, #0]
 8006600:	4d65      	ldr	r5, [pc, #404]	@ (8006798 <USB_EPStartXfer+0x5ec>)
 8006602:	432f      	orrs	r7, r5
 8006604:	b2bf      	uxth	r7, r7
 8006606:	801f      	strh	r7, [r3, #0]
 8006608:	5b93      	ldrh	r3, [r2, r6]
 800660a:	18c3      	adds	r3, r0, r3
 800660c:	191b      	adds	r3, r3, r4
 800660e:	8818      	ldrh	r0, [r3, #0]
 8006610:	0580      	lsls	r0, r0, #22
 8006612:	0d80      	lsrs	r0, r0, #22
 8006614:	8018      	strh	r0, [r3, #0]
 8006616:	8818      	ldrh	r0, [r3, #0]
 8006618:	4305      	orrs	r5, r0
 800661a:	b2ad      	uxth	r5, r5
 800661c:	801d      	strh	r5, [r3, #0]
 800661e:	e6ec      	b.n	80063fa <USB_EPStartXfer+0x24e>
 8006620:	881f      	ldrh	r7, [r3, #0]
 8006622:	4d5d      	ldr	r5, [pc, #372]	@ (8006798 <USB_EPStartXfer+0x5ec>)
 8006624:	432f      	orrs	r7, r5
 8006626:	b2bf      	uxth	r7, r7
 8006628:	801f      	strh	r7, [r3, #0]
 800662a:	5b93      	ldrh	r3, [r2, r6]
 800662c:	4443      	add	r3, r8
 800662e:	191b      	adds	r3, r3, r4
 8006630:	8818      	ldrh	r0, [r3, #0]
 8006632:	0580      	lsls	r0, r0, #22
 8006634:	0d80      	lsrs	r0, r0, #22
 8006636:	8018      	strh	r0, [r3, #0]
 8006638:	8818      	ldrh	r0, [r3, #0]
 800663a:	4305      	orrs	r5, r0
 800663c:	b2ad      	uxth	r5, r5
 800663e:	801d      	strh	r5, [r3, #0]
 8006640:	e5fc      	b.n	800623c <USB_EPStartXfer+0x90>
 8006642:	2650      	movs	r6, #80	@ 0x50
 8006644:	9d01      	ldr	r5, [sp, #4]
 8006646:	5b96      	ldrh	r6, [r2, r6]
 8006648:	46ac      	mov	ip, r5
 800664a:	444e      	add	r6, r9
 800664c:	4466      	add	r6, ip
 800664e:	b285      	uxth	r5, r0
 8006650:	8035      	strh	r5, [r6, #0]
 8006652:	890e      	ldrh	r6, [r1, #8]
 8006654:	4655      	mov	r5, sl
 8006656:	46b4      	mov	ip, r6
 8006658:	44bc      	add	ip, r7
 800665a:	2d00      	cmp	r5, #0
 800665c:	d022      	beq.n	80066a4 <USB_EPStartXfer+0x4f8>
 800665e:	006e      	lsls	r6, r5, #1
 8006660:	4665      	mov	r5, ip
 8006662:	46b0      	mov	r8, r6
 8006664:	1aed      	subs	r5, r5, r3
 8006666:	46ac      	mov	ip, r5
 8006668:	4498      	add	r8, r3
 800666a:	001e      	movs	r6, r3
 800666c:	9403      	str	r4, [sp, #12]
 800666e:	465c      	mov	r4, fp
 8006670:	468b      	mov	fp, r1
 8006672:	4641      	mov	r1, r8
 8006674:	4698      	mov	r8, r3
 8006676:	4663      	mov	r3, ip
 8006678:	4691      	mov	r9, r2
 800667a:	4684      	mov	ip, r0
 800667c:	0018      	movs	r0, r3
 800667e:	9d01      	ldr	r5, [sp, #4]
 8006680:	9405      	str	r4, [sp, #20]
 8006682:	7874      	ldrb	r4, [r6, #1]
 8006684:	7832      	ldrb	r2, [r6, #0]
 8006686:	0224      	lsls	r4, r4, #8
 8006688:	1833      	adds	r3, r6, r0
 800668a:	4314      	orrs	r4, r2
 800668c:	3602      	adds	r6, #2
 800668e:	801c      	strh	r4, [r3, #0]
 8006690:	428e      	cmp	r6, r1
 8006692:	d1f6      	bne.n	8006682 <USB_EPStartXfer+0x4d6>
 8006694:	9501      	str	r5, [sp, #4]
 8006696:	9d05      	ldr	r5, [sp, #20]
 8006698:	4659      	mov	r1, fp
 800669a:	4660      	mov	r0, ip
 800669c:	4643      	mov	r3, r8
 800669e:	464a      	mov	r2, r9
 80066a0:	46ab      	mov	fp, r5
 80066a2:	9c03      	ldr	r4, [sp, #12]
 80066a4:	465d      	mov	r5, fp
 80066a6:	181b      	adds	r3, r3, r0
 80066a8:	614b      	str	r3, [r1, #20]
 80066aa:	1a28      	subs	r0, r5, r0
 80066ac:	455c      	cmp	r4, fp
 80066ae:	d307      	bcc.n	80066c0 <USB_EPStartXfer+0x514>
 80066b0:	b2a8      	uxth	r0, r5
 80066b2:	9002      	str	r0, [sp, #8]
 80066b4:	0428      	lsls	r0, r5, #16
 80066b6:	0c00      	lsrs	r0, r0, #16
 80066b8:	3001      	adds	r0, #1
 80066ba:	0840      	lsrs	r0, r0, #1
 80066bc:	4682      	mov	sl, r0
 80066be:	2000      	movs	r0, #0
 80066c0:	6208      	str	r0, [r1, #32]
 80066c2:	9c04      	ldr	r4, [sp, #16]
 80066c4:	2050      	movs	r0, #80	@ 0x50
 80066c6:	46a4      	mov	ip, r4
 80066c8:	5a10      	ldrh	r0, [r2, r0]
 80066ca:	9c01      	ldr	r4, [sp, #4]
 80066cc:	4460      	add	r0, ip
 80066ce:	46a4      	mov	ip, r4
 80066d0:	9c02      	ldr	r4, [sp, #8]
 80066d2:	4460      	add	r0, ip
 80066d4:	8004      	strh	r4, [r0, #0]
 80066d6:	8948      	ldrh	r0, [r1, #10]
 80066d8:	19c7      	adds	r7, r0, r7
 80066da:	4650      	mov	r0, sl
 80066dc:	2800      	cmp	r0, #0
 80066de:	d100      	bne.n	80066e2 <USB_EPStartXfer+0x536>
 80066e0:	e610      	b.n	8006304 <USB_EPStartXfer+0x158>
 80066e2:	0044      	lsls	r4, r0, #1
 80066e4:	191c      	adds	r4, r3, r4
 80066e6:	1aff      	subs	r7, r7, r3
 80066e8:	7858      	ldrb	r0, [r3, #1]
 80066ea:	781e      	ldrb	r6, [r3, #0]
 80066ec:	0200      	lsls	r0, r0, #8
 80066ee:	19dd      	adds	r5, r3, r7
 80066f0:	4330      	orrs	r0, r6
 80066f2:	3302      	adds	r3, #2
 80066f4:	8028      	strh	r0, [r5, #0]
 80066f6:	42a3      	cmp	r3, r4
 80066f8:	d1f6      	bne.n	80066e8 <USB_EPStartXfer+0x53c>
 80066fa:	e603      	b.n	8006304 <USB_EPStartXfer+0x158>
 80066fc:	096f      	lsrs	r7, r5, #5
 80066fe:	46bc      	mov	ip, r7
 8006700:	271f      	movs	r7, #31
 8006702:	403d      	ands	r5, r7
 8006704:	426f      	negs	r7, r5
 8006706:	417d      	adcs	r5, r7
 8006708:	4667      	mov	r7, ip
 800670a:	1b7d      	subs	r5, r7, r5
 800670c:	02ad      	lsls	r5, r5, #10
 800670e:	881f      	ldrh	r7, [r3, #0]
 8006710:	b2ad      	uxth	r5, r5
 8006712:	432f      	orrs	r7, r5
 8006714:	46b8      	mov	r8, r7
 8006716:	46a9      	mov	r9, r5
 8006718:	4645      	mov	r5, r8
 800671a:	4f1f      	ldr	r7, [pc, #124]	@ (8006798 <USB_EPStartXfer+0x5ec>)
 800671c:	433d      	orrs	r5, r7
 800671e:	46bc      	mov	ip, r7
 8006720:	b2af      	uxth	r7, r5
 8006722:	464d      	mov	r5, r9
 8006724:	801f      	strh	r7, [r3, #0]
 8006726:	5b93      	ldrh	r3, [r2, r6]
 8006728:	18c0      	adds	r0, r0, r3
 800672a:	1900      	adds	r0, r0, r4
 800672c:	8803      	ldrh	r3, [r0, #0]
 800672e:	059b      	lsls	r3, r3, #22
 8006730:	0d9b      	lsrs	r3, r3, #22
 8006732:	8003      	strh	r3, [r0, #0]
 8006734:	8803      	ldrh	r3, [r0, #0]
 8006736:	431d      	orrs	r5, r3
 8006738:	4663      	mov	r3, ip
 800673a:	431d      	orrs	r5, r3
 800673c:	b2ab      	uxth	r3, r5
 800673e:	8003      	strh	r3, [r0, #0]
 8006740:	e65b      	b.n	80063fa <USB_EPStartXfer+0x24e>
 8006742:	201f      	movs	r0, #31
 8006744:	096f      	lsrs	r7, r5, #5
 8006746:	4005      	ands	r5, r0
 8006748:	0028      	movs	r0, r5
 800674a:	4245      	negs	r5, r0
 800674c:	4145      	adcs	r5, r0
 800674e:	4812      	ldr	r0, [pc, #72]	@ (8006798 <USB_EPStartXfer+0x5ec>)
 8006750:	1b7f      	subs	r7, r7, r5
 8006752:	4684      	mov	ip, r0
 8006754:	881d      	ldrh	r5, [r3, #0]
 8006756:	02bf      	lsls	r7, r7, #10
 8006758:	b2bf      	uxth	r7, r7
 800675a:	433d      	orrs	r5, r7
 800675c:	4305      	orrs	r5, r0
 800675e:	b2ad      	uxth	r5, r5
 8006760:	801d      	strh	r5, [r3, #0]
 8006762:	5b93      	ldrh	r3, [r2, r6]
 8006764:	4443      	add	r3, r8
 8006766:	1918      	adds	r0, r3, r4
 8006768:	8803      	ldrh	r3, [r0, #0]
 800676a:	059b      	lsls	r3, r3, #22
 800676c:	0d9b      	lsrs	r3, r3, #22
 800676e:	8003      	strh	r3, [r0, #0]
 8006770:	8803      	ldrh	r3, [r0, #0]
 8006772:	431f      	orrs	r7, r3
 8006774:	4663      	mov	r3, ip
 8006776:	431f      	orrs	r7, r3
 8006778:	b2bb      	uxth	r3, r7
 800677a:	8003      	strh	r3, [r0, #0]
 800677c:	e55e      	b.n	800623c <USB_EPStartXfer+0x90>
 800677e:	46c0      	nop			@ (mov r8, r8)
 8006780:	00000402 	.word	0x00000402
 8006784:	ffff8f8f 	.word	0xffff8f8f
 8006788:	00008180 	.word	0x00008180
 800678c:	00000406 	.word	0x00000406
 8006790:	ffff8e8f 	.word	0xffff8e8f
 8006794:	00008080 	.word	0x00008080
 8006798:	ffff8000 	.word	0xffff8000

0800679c <USB_EPSetStall>:
 800679c:	780b      	ldrb	r3, [r1, #0]
 800679e:	009b      	lsls	r3, r3, #2
 80067a0:	18c0      	adds	r0, r0, r3
 80067a2:	784b      	ldrb	r3, [r1, #1]
 80067a4:	8802      	ldrh	r2, [r0, #0]
 80067a6:	2b00      	cmp	r3, #0
 80067a8:	d009      	beq.n	80067be <USB_EPSetStall+0x22>
 80067aa:	4b09      	ldr	r3, [pc, #36]	@ (80067d0 <USB_EPSetStall+0x34>)
 80067ac:	401a      	ands	r2, r3
 80067ae:	2310      	movs	r3, #16
 80067b0:	405a      	eors	r2, r3
 80067b2:	4b08      	ldr	r3, [pc, #32]	@ (80067d4 <USB_EPSetStall+0x38>)
 80067b4:	4313      	orrs	r3, r2
 80067b6:	b29b      	uxth	r3, r3
 80067b8:	8003      	strh	r3, [r0, #0]
 80067ba:	2000      	movs	r0, #0
 80067bc:	4770      	bx	lr
 80067be:	4b06      	ldr	r3, [pc, #24]	@ (80067d8 <USB_EPSetStall+0x3c>)
 80067c0:	401a      	ands	r2, r3
 80067c2:	2380      	movs	r3, #128	@ 0x80
 80067c4:	015b      	lsls	r3, r3, #5
 80067c6:	4053      	eors	r3, r2
 80067c8:	4a04      	ldr	r2, [pc, #16]	@ (80067dc <USB_EPSetStall+0x40>)
 80067ca:	4313      	orrs	r3, r2
 80067cc:	8003      	strh	r3, [r0, #0]
 80067ce:	e7f4      	b.n	80067ba <USB_EPSetStall+0x1e>
 80067d0:	ffff8fbf 	.word	0xffff8fbf
 80067d4:	ffff8080 	.word	0xffff8080
 80067d8:	ffffbf8f 	.word	0xffffbf8f
 80067dc:	00008080 	.word	0x00008080

080067e0 <USB_EPClearStall>:
 80067e0:	7b0b      	ldrb	r3, [r1, #12]
 80067e2:	2b00      	cmp	r3, #0
 80067e4:	d11a      	bne.n	800681c <USB_EPClearStall+0x3c>
 80067e6:	780b      	ldrb	r3, [r1, #0]
 80067e8:	009b      	lsls	r3, r3, #2
 80067ea:	18c0      	adds	r0, r0, r3
 80067ec:	784b      	ldrb	r3, [r1, #1]
 80067ee:	2b00      	cmp	r3, #0
 80067f0:	d016      	beq.n	8006820 <USB_EPClearStall+0x40>
 80067f2:	8803      	ldrh	r3, [r0, #0]
 80067f4:	065b      	lsls	r3, r3, #25
 80067f6:	d505      	bpl.n	8006804 <USB_EPClearStall+0x24>
 80067f8:	8803      	ldrh	r3, [r0, #0]
 80067fa:	4a13      	ldr	r2, [pc, #76]	@ (8006848 <USB_EPClearStall+0x68>)
 80067fc:	4013      	ands	r3, r2
 80067fe:	4a13      	ldr	r2, [pc, #76]	@ (800684c <USB_EPClearStall+0x6c>)
 8006800:	4313      	orrs	r3, r2
 8006802:	8003      	strh	r3, [r0, #0]
 8006804:	78cb      	ldrb	r3, [r1, #3]
 8006806:	2b01      	cmp	r3, #1
 8006808:	d008      	beq.n	800681c <USB_EPClearStall+0x3c>
 800680a:	8802      	ldrh	r2, [r0, #0]
 800680c:	4b10      	ldr	r3, [pc, #64]	@ (8006850 <USB_EPClearStall+0x70>)
 800680e:	401a      	ands	r2, r3
 8006810:	2320      	movs	r3, #32
 8006812:	405a      	eors	r2, r3
 8006814:	4b0f      	ldr	r3, [pc, #60]	@ (8006854 <USB_EPClearStall+0x74>)
 8006816:	4313      	orrs	r3, r2
 8006818:	b29b      	uxth	r3, r3
 800681a:	8003      	strh	r3, [r0, #0]
 800681c:	2000      	movs	r0, #0
 800681e:	4770      	bx	lr
 8006820:	8803      	ldrh	r3, [r0, #0]
 8006822:	045b      	lsls	r3, r3, #17
 8006824:	d505      	bpl.n	8006832 <USB_EPClearStall+0x52>
 8006826:	8803      	ldrh	r3, [r0, #0]
 8006828:	4a07      	ldr	r2, [pc, #28]	@ (8006848 <USB_EPClearStall+0x68>)
 800682a:	4013      	ands	r3, r2
 800682c:	4a0a      	ldr	r2, [pc, #40]	@ (8006858 <USB_EPClearStall+0x78>)
 800682e:	4313      	orrs	r3, r2
 8006830:	8003      	strh	r3, [r0, #0]
 8006832:	8802      	ldrh	r2, [r0, #0]
 8006834:	4b09      	ldr	r3, [pc, #36]	@ (800685c <USB_EPClearStall+0x7c>)
 8006836:	401a      	ands	r2, r3
 8006838:	23c0      	movs	r3, #192	@ 0xc0
 800683a:	019b      	lsls	r3, r3, #6
 800683c:	4053      	eors	r3, r2
 800683e:	4a08      	ldr	r2, [pc, #32]	@ (8006860 <USB_EPClearStall+0x80>)
 8006840:	4313      	orrs	r3, r2
 8006842:	8003      	strh	r3, [r0, #0]
 8006844:	e7ea      	b.n	800681c <USB_EPClearStall+0x3c>
 8006846:	46c0      	nop			@ (mov r8, r8)
 8006848:	ffff8f8f 	.word	0xffff8f8f
 800684c:	000080c0 	.word	0x000080c0
 8006850:	ffff8fbf 	.word	0xffff8fbf
 8006854:	ffff8080 	.word	0xffff8080
 8006858:	0000c080 	.word	0x0000c080
 800685c:	ffffbf8f 	.word	0xffffbf8f
 8006860:	00008080 	.word	0x00008080

08006864 <USB_SetDevAddress>:
 8006864:	2900      	cmp	r1, #0
 8006866:	d102      	bne.n	800686e <USB_SetDevAddress+0xa>
 8006868:	234c      	movs	r3, #76	@ 0x4c
 800686a:	2280      	movs	r2, #128	@ 0x80
 800686c:	52c2      	strh	r2, [r0, r3]
 800686e:	2000      	movs	r0, #0
 8006870:	4770      	bx	lr
 8006872:	46c0      	nop			@ (mov r8, r8)

08006874 <USB_DevConnect>:
 8006874:	2258      	movs	r2, #88	@ 0x58
 8006876:	2180      	movs	r1, #128	@ 0x80
 8006878:	5a83      	ldrh	r3, [r0, r2]
 800687a:	0209      	lsls	r1, r1, #8
 800687c:	430b      	orrs	r3, r1
 800687e:	5283      	strh	r3, [r0, r2]
 8006880:	2000      	movs	r0, #0
 8006882:	4770      	bx	lr

08006884 <USB_ReadInterrupts>:
 8006884:	2344      	movs	r3, #68	@ 0x44
 8006886:	5ac0      	ldrh	r0, [r0, r3]
 8006888:	b280      	uxth	r0, r0
 800688a:	4770      	bx	lr

0800688c <USB_WritePMA>:
 800688c:	b530      	push	{r4, r5, lr}
 800688e:	2480      	movs	r4, #128	@ 0x80
 8006890:	00e4      	lsls	r4, r4, #3
 8006892:	46a4      	mov	ip, r4
 8006894:	3301      	adds	r3, #1
 8006896:	4462      	add	r2, ip
 8006898:	085b      	lsrs	r3, r3, #1
 800689a:	1880      	adds	r0, r0, r2
 800689c:	2b00      	cmp	r3, #0
 800689e:	d00b      	beq.n	80068b8 <USB_WritePMA+0x2c>
 80068a0:	005a      	lsls	r2, r3, #1
 80068a2:	188a      	adds	r2, r1, r2
 80068a4:	1a45      	subs	r5, r0, r1
 80068a6:	784b      	ldrb	r3, [r1, #1]
 80068a8:	780c      	ldrb	r4, [r1, #0]
 80068aa:	021b      	lsls	r3, r3, #8
 80068ac:	1948      	adds	r0, r1, r5
 80068ae:	4323      	orrs	r3, r4
 80068b0:	3102      	adds	r1, #2
 80068b2:	8003      	strh	r3, [r0, #0]
 80068b4:	428a      	cmp	r2, r1
 80068b6:	d1f6      	bne.n	80068a6 <USB_WritePMA+0x1a>
 80068b8:	bd30      	pop	{r4, r5, pc}
 80068ba:	46c0      	nop			@ (mov r8, r8)

080068bc <USB_ReadPMA>:
 80068bc:	b5f0      	push	{r4, r5, r6, r7, lr}
 80068be:	2480      	movs	r4, #128	@ 0x80
 80068c0:	00e4      	lsls	r4, r4, #3
 80068c2:	46a4      	mov	ip, r4
 80068c4:	4462      	add	r2, ip
 80068c6:	1880      	adds	r0, r0, r2
 80068c8:	0002      	movs	r2, r0
 80068ca:	085f      	lsrs	r7, r3, #1
 80068cc:	d00f      	beq.n	80068ee <USB_ReadPMA+0x32>
 80068ce:	000c      	movs	r4, r1
 80068d0:	003d      	movs	r5, r7
 80068d2:	1a46      	subs	r6, r0, r1
 80068d4:	19a2      	adds	r2, r4, r6
 80068d6:	8812      	ldrh	r2, [r2, #0]
 80068d8:	3d01      	subs	r5, #1
 80068da:	b292      	uxth	r2, r2
 80068dc:	7022      	strb	r2, [r4, #0]
 80068de:	0a12      	lsrs	r2, r2, #8
 80068e0:	7062      	strb	r2, [r4, #1]
 80068e2:	3402      	adds	r4, #2
 80068e4:	2d00      	cmp	r5, #0
 80068e6:	d1f5      	bne.n	80068d4 <USB_ReadPMA+0x18>
 80068e8:	007f      	lsls	r7, r7, #1
 80068ea:	19c2      	adds	r2, r0, r7
 80068ec:	19c9      	adds	r1, r1, r7
 80068ee:	07db      	lsls	r3, r3, #31
 80068f0:	d501      	bpl.n	80068f6 <USB_ReadPMA+0x3a>
 80068f2:	8813      	ldrh	r3, [r2, #0]
 80068f4:	700b      	strb	r3, [r1, #0]
 80068f6:	bdf0      	pop	{r4, r5, r6, r7, pc}

080068f8 <USBD_CDC_EP0_RxReady>:
 80068f8:	23af      	movs	r3, #175	@ 0xaf
 80068fa:	009b      	lsls	r3, r3, #2
 80068fc:	58c3      	ldr	r3, [r0, r3]
 80068fe:	b570      	push	{r4, r5, r6, lr}
 8006900:	2b00      	cmp	r3, #0
 8006902:	d00e      	beq.n	8006922 <USBD_CDC_EP0_RxReady+0x2a>
 8006904:	22ae      	movs	r2, #174	@ 0xae
 8006906:	2580      	movs	r5, #128	@ 0x80
 8006908:	0092      	lsls	r2, r2, #2
 800690a:	5884      	ldr	r4, [r0, r2]
 800690c:	00ad      	lsls	r5, r5, #2
 800690e:	5d60      	ldrb	r0, [r4, r5]
 8006910:	28ff      	cmp	r0, #255	@ 0xff
 8006912:	d006      	beq.n	8006922 <USBD_CDC_EP0_RxReady+0x2a>
 8006914:	4a04      	ldr	r2, [pc, #16]	@ (8006928 <USBD_CDC_EP0_RxReady+0x30>)
 8006916:	689b      	ldr	r3, [r3, #8]
 8006918:	0021      	movs	r1, r4
 800691a:	5ca2      	ldrb	r2, [r4, r2]
 800691c:	4798      	blx	r3
 800691e:	23ff      	movs	r3, #255	@ 0xff
 8006920:	5563      	strb	r3, [r4, r5]
 8006922:	2000      	movs	r0, #0
 8006924:	bd70      	pop	{r4, r5, r6, pc}
 8006926:	46c0      	nop			@ (mov r8, r8)
 8006928:	00000201 	.word	0x00000201

0800692c <USBD_CDC_GetFSCfgDesc>:
 800692c:	2343      	movs	r3, #67	@ 0x43
 800692e:	8003      	strh	r3, [r0, #0]
 8006930:	4800      	ldr	r0, [pc, #0]	@ (8006934 <USBD_CDC_GetFSCfgDesc+0x8>)
 8006932:	4770      	bx	lr
 8006934:	20000064 	.word	0x20000064

08006938 <USBD_CDC_GetHSCfgDesc>:
 8006938:	2343      	movs	r3, #67	@ 0x43
 800693a:	8003      	strh	r3, [r0, #0]
 800693c:	4800      	ldr	r0, [pc, #0]	@ (8006940 <USBD_CDC_GetHSCfgDesc+0x8>)
 800693e:	4770      	bx	lr
 8006940:	200000a8 	.word	0x200000a8

08006944 <USBD_CDC_GetOtherSpeedCfgDesc>:
 8006944:	2343      	movs	r3, #67	@ 0x43
 8006946:	8003      	strh	r3, [r0, #0]
 8006948:	4800      	ldr	r0, [pc, #0]	@ (800694c <USBD_CDC_GetOtherSpeedCfgDesc+0x8>)
 800694a:	4770      	bx	lr
 800694c:	20000020 	.word	0x20000020

08006950 <USBD_CDC_GetDeviceQualifierDescriptor>:
 8006950:	230a      	movs	r3, #10
 8006952:	8003      	strh	r3, [r0, #0]
 8006954:	4800      	ldr	r0, [pc, #0]	@ (8006958 <USBD_CDC_GetDeviceQualifierDescriptor+0x8>)
 8006956:	4770      	bx	lr
 8006958:	20000124 	.word	0x20000124

0800695c <USBD_CDC_DataOut>:
 800695c:	b570      	push	{r4, r5, r6, lr}
 800695e:	26ae      	movs	r6, #174	@ 0xae
 8006960:	00b6      	lsls	r6, r6, #2
 8006962:	0004      	movs	r4, r0
 8006964:	5985      	ldr	r5, [r0, r6]
 8006966:	f001 f8a9 	bl	8007abc <USBD_LL_GetRxDataSize>
 800696a:	2383      	movs	r3, #131	@ 0x83
 800696c:	009b      	lsls	r3, r3, #2
 800696e:	50e8      	str	r0, [r5, r3]
 8006970:	59a3      	ldr	r3, [r4, r6]
 8006972:	2b00      	cmp	r3, #0
 8006974:	d00a      	beq.n	800698c <USBD_CDC_DataOut+0x30>
 8006976:	2383      	movs	r3, #131	@ 0x83
 8006978:	009b      	lsls	r3, r3, #2
 800697a:	18e9      	adds	r1, r5, r3
 800697c:	3b08      	subs	r3, #8
 800697e:	58e8      	ldr	r0, [r5, r3]
 8006980:	33b8      	adds	r3, #184	@ 0xb8
 8006982:	58e3      	ldr	r3, [r4, r3]
 8006984:	68db      	ldr	r3, [r3, #12]
 8006986:	4798      	blx	r3
 8006988:	2000      	movs	r0, #0
 800698a:	bd70      	pop	{r4, r5, r6, pc}
 800698c:	2002      	movs	r0, #2
 800698e:	e7fc      	b.n	800698a <USBD_CDC_DataOut+0x2e>

08006990 <USBD_CDC_DataIn>:
 8006990:	b5f8      	push	{r3, r4, r5, r6, r7, lr}
 8006992:	23ae      	movs	r3, #174	@ 0xae
 8006994:	009b      	lsls	r3, r3, #2
 8006996:	58c7      	ldr	r7, [r0, r3]
 8006998:	0004      	movs	r4, r0
 800699a:	000d      	movs	r5, r1
 800699c:	2f00      	cmp	r7, #0
 800699e:	d01d      	beq.n	80069dc <USBD_CDC_DataIn+0x4c>
 80069a0:	3308      	adds	r3, #8
 80069a2:	58c2      	ldr	r2, [r0, r3]
 80069a4:	008b      	lsls	r3, r1, #2
 80069a6:	185b      	adds	r3, r3, r1
 80069a8:	009e      	lsls	r6, r3, #2
 80069aa:	1986      	adds	r6, r0, r6
 80069ac:	69f0      	ldr	r0, [r6, #28]
 80069ae:	2800      	cmp	r0, #0
 80069b0:	d006      	beq.n	80069c0 <USBD_CDC_DataIn+0x30>
 80069b2:	00db      	lsls	r3, r3, #3
 80069b4:	18d2      	adds	r2, r2, r3
 80069b6:	6a11      	ldr	r1, [r2, #32]
 80069b8:	f7f9 fc3e 	bl	8000238 <__aeabi_uidivmod>
 80069bc:	2900      	cmp	r1, #0
 80069be:	d005      	beq.n	80069cc <USBD_CDC_DataIn+0x3c>
 80069c0:	2385      	movs	r3, #133	@ 0x85
 80069c2:	2200      	movs	r2, #0
 80069c4:	009b      	lsls	r3, r3, #2
 80069c6:	50fa      	str	r2, [r7, r3]
 80069c8:	2000      	movs	r0, #0
 80069ca:	bdf8      	pop	{r3, r4, r5, r6, r7, pc}
 80069cc:	61f1      	str	r1, [r6, #28]
 80069ce:	2300      	movs	r3, #0
 80069d0:	2200      	movs	r2, #0
 80069d2:	0029      	movs	r1, r5
 80069d4:	0020      	movs	r0, r4
 80069d6:	f001 f855 	bl	8007a84 <USBD_LL_Transmit>
 80069da:	e7f5      	b.n	80069c8 <USBD_CDC_DataIn+0x38>
 80069dc:	2002      	movs	r0, #2
 80069de:	e7f4      	b.n	80069ca <USBD_CDC_DataIn+0x3a>

080069e0 <USBD_CDC_Setup>:
 80069e0:	b5f0      	push	{r4, r5, r6, r7, lr}
 80069e2:	23ae      	movs	r3, #174	@ 0xae
 80069e4:	b083      	sub	sp, #12
 80069e6:	466a      	mov	r2, sp
 80069e8:	009b      	lsls	r3, r3, #2
 80069ea:	58c6      	ldr	r6, [r0, r3]
 80069ec:	466b      	mov	r3, sp
 80069ee:	0005      	movs	r5, r0
 80069f0:	1d90      	adds	r0, r2, #6
 80069f2:	2260      	movs	r2, #96	@ 0x60
 80069f4:	000c      	movs	r4, r1
 80069f6:	1d59      	adds	r1, r3, #5
 80069f8:	2300      	movs	r3, #0
 80069fa:	0017      	movs	r7, r2
 80069fc:	700b      	strb	r3, [r1, #0]
 80069fe:	8003      	strh	r3, [r0, #0]
 8006a00:	7823      	ldrb	r3, [r4, #0]
 8006a02:	401f      	ands	r7, r3
 8006a04:	421a      	tst	r2, r3
 8006a06:	d015      	beq.n	8006a34 <USBD_CDC_Setup+0x54>
 8006a08:	2f20      	cmp	r7, #32
 8006a0a:	d11a      	bne.n	8006a42 <USBD_CDC_Setup+0x62>
 8006a0c:	88e2      	ldrh	r2, [r4, #6]
 8006a0e:	7860      	ldrb	r0, [r4, #1]
 8006a10:	2a00      	cmp	r2, #0
 8006a12:	d01d      	beq.n	8006a50 <USBD_CDC_Setup+0x70>
 8006a14:	b25b      	sxtb	r3, r3
 8006a16:	2b00      	cmp	r3, #0
 8006a18:	da41      	bge.n	8006a9e <USBD_CDC_Setup+0xbe>
 8006a1a:	23af      	movs	r3, #175	@ 0xaf
 8006a1c:	009b      	lsls	r3, r3, #2
 8006a1e:	58eb      	ldr	r3, [r5, r3]
 8006a20:	0031      	movs	r1, r6
 8006a22:	689b      	ldr	r3, [r3, #8]
 8006a24:	4798      	blx	r3
 8006a26:	0031      	movs	r1, r6
 8006a28:	0028      	movs	r0, r5
 8006a2a:	88e2      	ldrh	r2, [r4, #6]
 8006a2c:	f000 fd26 	bl	800747c <USBD_CtlSendData>
 8006a30:	2000      	movs	r0, #0
 8006a32:	e00b      	b.n	8006a4c <USBD_CDC_Setup+0x6c>
 8006a34:	7863      	ldrb	r3, [r4, #1]
 8006a36:	2b0a      	cmp	r3, #10
 8006a38:	d026      	beq.n	8006a88 <USBD_CDC_Setup+0xa8>
 8006a3a:	2b0b      	cmp	r3, #11
 8006a3c:	d01d      	beq.n	8006a7a <USBD_CDC_Setup+0x9a>
 8006a3e:	2b00      	cmp	r3, #0
 8006a40:	d00f      	beq.n	8006a62 <USBD_CDC_Setup+0x82>
 8006a42:	0028      	movs	r0, r5
 8006a44:	0021      	movs	r1, r4
 8006a46:	f000 fce7 	bl	8007418 <USBD_CtlError>
 8006a4a:	2002      	movs	r0, #2
 8006a4c:	b003      	add	sp, #12
 8006a4e:	bdf0      	pop	{r4, r5, r6, r7, pc}
 8006a50:	23af      	movs	r3, #175	@ 0xaf
 8006a52:	009b      	lsls	r3, r3, #2
 8006a54:	58eb      	ldr	r3, [r5, r3]
 8006a56:	2200      	movs	r2, #0
 8006a58:	0021      	movs	r1, r4
 8006a5a:	689b      	ldr	r3, [r3, #8]
 8006a5c:	4798      	blx	r3
 8006a5e:	2000      	movs	r0, #0
 8006a60:	e7f4      	b.n	8006a4c <USBD_CDC_Setup+0x6c>
 8006a62:	23a7      	movs	r3, #167	@ 0xa7
 8006a64:	009b      	lsls	r3, r3, #2
 8006a66:	5ceb      	ldrb	r3, [r5, r3]
 8006a68:	2b03      	cmp	r3, #3
 8006a6a:	d1ea      	bne.n	8006a42 <USBD_CDC_Setup+0x62>
 8006a6c:	0001      	movs	r1, r0
 8006a6e:	2202      	movs	r2, #2
 8006a70:	0028      	movs	r0, r5
 8006a72:	f000 fd03 	bl	800747c <USBD_CtlSendData>
 8006a76:	2000      	movs	r0, #0
 8006a78:	e7e8      	b.n	8006a4c <USBD_CDC_Setup+0x6c>
 8006a7a:	23a7      	movs	r3, #167	@ 0xa7
 8006a7c:	009b      	lsls	r3, r3, #2
 8006a7e:	5ceb      	ldrb	r3, [r5, r3]
 8006a80:	2b03      	cmp	r3, #3
 8006a82:	d1de      	bne.n	8006a42 <USBD_CDC_Setup+0x62>
 8006a84:	2000      	movs	r0, #0
 8006a86:	e7e1      	b.n	8006a4c <USBD_CDC_Setup+0x6c>
 8006a88:	23a7      	movs	r3, #167	@ 0xa7
 8006a8a:	009b      	lsls	r3, r3, #2
 8006a8c:	5ceb      	ldrb	r3, [r5, r3]
 8006a8e:	2b03      	cmp	r3, #3
 8006a90:	d1d7      	bne.n	8006a42 <USBD_CDC_Setup+0x62>
 8006a92:	2201      	movs	r2, #1
 8006a94:	0028      	movs	r0, r5
 8006a96:	f000 fcf1 	bl	800747c <USBD_CtlSendData>
 8006a9a:	2000      	movs	r0, #0
 8006a9c:	e7d6      	b.n	8006a4c <USBD_CDC_Setup+0x6c>
 8006a9e:	2380      	movs	r3, #128	@ 0x80
 8006aa0:	009b      	lsls	r3, r3, #2
 8006aa2:	54f0      	strb	r0, [r6, r3]
 8006aa4:	4b03      	ldr	r3, [pc, #12]	@ (8006ab4 <USBD_CDC_Setup+0xd4>)
 8006aa6:	0031      	movs	r1, r6
 8006aa8:	0028      	movs	r0, r5
 8006aaa:	54f2      	strb	r2, [r6, r3]
 8006aac:	f000 fcfc 	bl	80074a8 <USBD_CtlPrepareRx>
 8006ab0:	2000      	movs	r0, #0
 8006ab2:	e7cb      	b.n	8006a4c <USBD_CDC_Setup+0x6c>
 8006ab4:	00000201 	.word	0x00000201

08006ab8 <USBD_CDC_DeInit>:
 8006ab8:	b570      	push	{r4, r5, r6, lr}
 8006aba:	0004      	movs	r4, r0
 8006abc:	2600      	movs	r6, #0
 8006abe:	2181      	movs	r1, #129	@ 0x81
 8006ac0:	f000 ff92 	bl	80079e8 <USBD_LL_CloseEP>
 8006ac4:	2101      	movs	r1, #1
 8006ac6:	0020      	movs	r0, r4
 8006ac8:	62e6      	str	r6, [r4, #44]	@ 0x2c
 8006aca:	f000 ff8d 	bl	80079e8 <USBD_LL_CloseEP>
 8006ace:	23b6      	movs	r3, #182	@ 0xb6
 8006ad0:	25ae      	movs	r5, #174	@ 0xae
 8006ad2:	005b      	lsls	r3, r3, #1
 8006ad4:	50e6      	str	r6, [r4, r3]
 8006ad6:	2182      	movs	r1, #130	@ 0x82
 8006ad8:	0020      	movs	r0, r4
 8006ada:	00ad      	lsls	r5, r5, #2
 8006adc:	f000 ff84 	bl	80079e8 <USBD_LL_CloseEP>
 8006ae0:	5963      	ldr	r3, [r4, r5]
 8006ae2:	6426      	str	r6, [r4, #64]	@ 0x40
 8006ae4:	2b00      	cmp	r3, #0
 8006ae6:	d008      	beq.n	8006afa <USBD_CDC_DeInit+0x42>
 8006ae8:	23af      	movs	r3, #175	@ 0xaf
 8006aea:	009b      	lsls	r3, r3, #2
 8006aec:	58e3      	ldr	r3, [r4, r3]
 8006aee:	685b      	ldr	r3, [r3, #4]
 8006af0:	4798      	blx	r3
 8006af2:	5960      	ldr	r0, [r4, r5]
 8006af4:	f000 ffee 	bl	8007ad4 <USBD_static_free>
 8006af8:	5166      	str	r6, [r4, r5]
 8006afa:	2000      	movs	r0, #0
 8006afc:	bd70      	pop	{r4, r5, r6, pc}
 8006afe:	46c0      	nop			@ (mov r8, r8)

08006b00 <USBD_CDC_Init>:
 8006b00:	b570      	push	{r4, r5, r6, lr}
 8006b02:	7c03      	ldrb	r3, [r0, #16]
 8006b04:	0004      	movs	r4, r0
 8006b06:	2b00      	cmp	r3, #0
 8006b08:	d13a      	bne.n	8006b80 <USBD_CDC_Init+0x80>
 8006b0a:	2380      	movs	r3, #128	@ 0x80
 8006b0c:	2202      	movs	r2, #2
 8006b0e:	2181      	movs	r1, #129	@ 0x81
 8006b10:	009b      	lsls	r3, r3, #2
 8006b12:	f000 ff59 	bl	80079c8 <USBD_LL_OpenEP>
 8006b16:	2301      	movs	r3, #1
 8006b18:	62e3      	str	r3, [r4, #44]	@ 0x2c
 8006b1a:	2380      	movs	r3, #128	@ 0x80
 8006b1c:	2202      	movs	r2, #2
 8006b1e:	2101      	movs	r1, #1
 8006b20:	0020      	movs	r0, r4
 8006b22:	009b      	lsls	r3, r3, #2
 8006b24:	f000 ff50 	bl	80079c8 <USBD_LL_OpenEP>
 8006b28:	23b6      	movs	r3, #182	@ 0xb6
 8006b2a:	2501      	movs	r5, #1
 8006b2c:	005b      	lsls	r3, r3, #1
 8006b2e:	50e5      	str	r5, [r4, r3]
 8006b30:	3b65      	subs	r3, #101	@ 0x65
 8006b32:	3bff      	subs	r3, #255	@ 0xff
 8006b34:	2203      	movs	r2, #3
 8006b36:	2182      	movs	r1, #130	@ 0x82
 8006b38:	0020      	movs	r0, r4
 8006b3a:	f000 ff45 	bl	80079c8 <USBD_LL_OpenEP>
 8006b3e:	2087      	movs	r0, #135	@ 0x87
 8006b40:	6425      	str	r5, [r4, #64]	@ 0x40
 8006b42:	0080      	lsls	r0, r0, #2
 8006b44:	f000 ffc2 	bl	8007acc <USBD_static_malloc>
 8006b48:	23ae      	movs	r3, #174	@ 0xae
 8006b4a:	009b      	lsls	r3, r3, #2
 8006b4c:	1e05      	subs	r5, r0, #0
 8006b4e:	50e0      	str	r0, [r4, r3]
 8006b50:	d02e      	beq.n	8006bb0 <USBD_CDC_Init+0xb0>
 8006b52:	3304      	adds	r3, #4
 8006b54:	58e3      	ldr	r3, [r4, r3]
 8006b56:	681b      	ldr	r3, [r3, #0]
 8006b58:	4798      	blx	r3
 8006b5a:	2285      	movs	r2, #133	@ 0x85
 8006b5c:	2300      	movs	r3, #0
 8006b5e:	0092      	lsls	r2, r2, #2
 8006b60:	50ab      	str	r3, [r5, r2]
 8006b62:	3204      	adds	r2, #4
 8006b64:	50ab      	str	r3, [r5, r2]
 8006b66:	7c23      	ldrb	r3, [r4, #16]
 8006b68:	2b00      	cmp	r3, #0
 8006b6a:	d117      	bne.n	8006b9c <USBD_CDC_Init+0x9c>
 8006b6c:	2381      	movs	r3, #129	@ 0x81
 8006b6e:	009b      	lsls	r3, r3, #2
 8006b70:	58ea      	ldr	r2, [r5, r3]
 8006b72:	2101      	movs	r1, #1
 8006b74:	0020      	movs	r0, r4
 8006b76:	3b04      	subs	r3, #4
 8006b78:	f000 ff92 	bl	8007aa0 <USBD_LL_PrepareReceive>
 8006b7c:	2000      	movs	r0, #0
 8006b7e:	bd70      	pop	{r4, r5, r6, pc}
 8006b80:	2340      	movs	r3, #64	@ 0x40
 8006b82:	2202      	movs	r2, #2
 8006b84:	2181      	movs	r1, #129	@ 0x81
 8006b86:	f000 ff1f 	bl	80079c8 <USBD_LL_OpenEP>
 8006b8a:	2301      	movs	r3, #1
 8006b8c:	2202      	movs	r2, #2
 8006b8e:	62e3      	str	r3, [r4, #44]	@ 0x2c
 8006b90:	2101      	movs	r1, #1
 8006b92:	0020      	movs	r0, r4
 8006b94:	333f      	adds	r3, #63	@ 0x3f
 8006b96:	f000 ff17 	bl	80079c8 <USBD_LL_OpenEP>
 8006b9a:	e7c5      	b.n	8006b28 <USBD_CDC_Init+0x28>
 8006b9c:	2381      	movs	r3, #129	@ 0x81
 8006b9e:	009b      	lsls	r3, r3, #2
 8006ba0:	58ea      	ldr	r2, [r5, r3]
 8006ba2:	3bc5      	subs	r3, #197	@ 0xc5
 8006ba4:	2101      	movs	r1, #1
 8006ba6:	0020      	movs	r0, r4
 8006ba8:	3bff      	subs	r3, #255	@ 0xff
 8006baa:	f000 ff79 	bl	8007aa0 <USBD_LL_PrepareReceive>
 8006bae:	e7e5      	b.n	8006b7c <USBD_CDC_Init+0x7c>
 8006bb0:	2001      	movs	r0, #1
 8006bb2:	e7e4      	b.n	8006b7e <USBD_CDC_Init+0x7e>

08006bb4 <USBD_CDC_RegisterInterface>:
 8006bb4:	2900      	cmp	r1, #0
 8006bb6:	d004      	beq.n	8006bc2 <USBD_CDC_RegisterInterface+0xe>
 8006bb8:	23af      	movs	r3, #175	@ 0xaf
 8006bba:	009b      	lsls	r3, r3, #2
 8006bbc:	50c1      	str	r1, [r0, r3]
 8006bbe:	2000      	movs	r0, #0
 8006bc0:	4770      	bx	lr
 8006bc2:	2002      	movs	r0, #2
 8006bc4:	e7fc      	b.n	8006bc0 <USBD_CDC_RegisterInterface+0xc>
 8006bc6:	46c0      	nop			@ (mov r8, r8)

08006bc8 <USBD_CDC_SetTxBuffer>:
 8006bc8:	23ae      	movs	r3, #174	@ 0xae
 8006bca:	009b      	lsls	r3, r3, #2
 8006bcc:	58c3      	ldr	r3, [r0, r3]
 8006bce:	2082      	movs	r0, #130	@ 0x82
 8006bd0:	0080      	lsls	r0, r0, #2
 8006bd2:	5019      	str	r1, [r3, r0]
 8006bd4:	2184      	movs	r1, #132	@ 0x84
 8006bd6:	0089      	lsls	r1, r1, #2
 8006bd8:	2000      	movs	r0, #0
 8006bda:	505a      	str	r2, [r3, r1]
 8006bdc:	4770      	bx	lr
 8006bde:	46c0      	nop			@ (mov r8, r8)

08006be0 <USBD_CDC_SetRxBuffer>:
 8006be0:	23ae      	movs	r3, #174	@ 0xae
 8006be2:	009b      	lsls	r3, r3, #2
 8006be4:	58c2      	ldr	r2, [r0, r3]
 8006be6:	3bb4      	subs	r3, #180	@ 0xb4
 8006be8:	2000      	movs	r0, #0
 8006bea:	50d1      	str	r1, [r2, r3]
 8006bec:	4770      	bx	lr
 8006bee:	46c0      	nop			@ (mov r8, r8)

08006bf0 <USBD_CDC_TransmitPacket>:
 8006bf0:	23ae      	movs	r3, #174	@ 0xae
 8006bf2:	009b      	lsls	r3, r3, #2
 8006bf4:	58c2      	ldr	r2, [r0, r3]
 8006bf6:	b510      	push	{r4, lr}
 8006bf8:	0004      	movs	r4, r0
 8006bfa:	2a00      	cmp	r2, #0
 8006bfc:	d014      	beq.n	8006c28 <USBD_CDC_TransmitPacket+0x38>
 8006bfe:	3ba4      	subs	r3, #164	@ 0xa4
 8006c00:	58d1      	ldr	r1, [r2, r3]
 8006c02:	2001      	movs	r0, #1
 8006c04:	2900      	cmp	r1, #0
 8006c06:	d000      	beq.n	8006c0a <USBD_CDC_TransmitPacket+0x1a>
 8006c08:	bd10      	pop	{r4, pc}
 8006c0a:	2182      	movs	r1, #130	@ 0x82
 8006c0c:	50d0      	str	r0, [r2, r3]
 8006c0e:	3b04      	subs	r3, #4
 8006c10:	58d3      	ldr	r3, [r2, r3]
 8006c12:	0089      	lsls	r1, r1, #2
 8006c14:	5852      	ldr	r2, [r2, r1]
 8006c16:	3988      	subs	r1, #136	@ 0x88
 8006c18:	6323      	str	r3, [r4, #48]	@ 0x30
 8006c1a:	0020      	movs	r0, r4
 8006c1c:	b29b      	uxth	r3, r3
 8006c1e:	39ff      	subs	r1, #255	@ 0xff
 8006c20:	f000 ff30 	bl	8007a84 <USBD_LL_Transmit>
 8006c24:	2000      	movs	r0, #0
 8006c26:	e7ef      	b.n	8006c08 <USBD_CDC_TransmitPacket+0x18>
 8006c28:	2002      	movs	r0, #2
 8006c2a:	e7ed      	b.n	8006c08 <USBD_CDC_TransmitPacket+0x18>

08006c2c <USBD_CDC_ReceivePacket>:
 8006c2c:	23ae      	movs	r3, #174	@ 0xae
 8006c2e:	009b      	lsls	r3, r3, #2
 8006c30:	58c3      	ldr	r3, [r0, r3]
 8006c32:	b510      	push	{r4, lr}
 8006c34:	2b00      	cmp	r3, #0
 8006c36:	d011      	beq.n	8006c5c <USBD_CDC_ReceivePacket+0x30>
 8006c38:	2281      	movs	r2, #129	@ 0x81
 8006c3a:	0092      	lsls	r2, r2, #2
 8006c3c:	589a      	ldr	r2, [r3, r2]
 8006c3e:	7c03      	ldrb	r3, [r0, #16]
 8006c40:	2b00      	cmp	r3, #0
 8006c42:	d106      	bne.n	8006c52 <USBD_CDC_ReceivePacket+0x26>
 8006c44:	2380      	movs	r3, #128	@ 0x80
 8006c46:	2101      	movs	r1, #1
 8006c48:	009b      	lsls	r3, r3, #2
 8006c4a:	f000 ff29 	bl	8007aa0 <USBD_LL_PrepareReceive>
 8006c4e:	2000      	movs	r0, #0
 8006c50:	bd10      	pop	{r4, pc}
 8006c52:	2340      	movs	r3, #64	@ 0x40
 8006c54:	2101      	movs	r1, #1
 8006c56:	f000 ff23 	bl	8007aa0 <USBD_LL_PrepareReceive>
 8006c5a:	e7f8      	b.n	8006c4e <USBD_CDC_ReceivePacket+0x22>
 8006c5c:	2002      	movs	r0, #2
 8006c5e:	e7f7      	b.n	8006c50 <USBD_CDC_ReceivePacket+0x24>

08006c60 <USBD_Init>:
 8006c60:	b510      	push	{r4, lr}
 8006c62:	2800      	cmp	r0, #0
 8006c64:	d014      	beq.n	8006c90 <USBD_Init+0x30>
 8006c66:	23ad      	movs	r3, #173	@ 0xad
 8006c68:	009b      	lsls	r3, r3, #2
 8006c6a:	58c4      	ldr	r4, [r0, r3]
 8006c6c:	2c00      	cmp	r4, #0
 8006c6e:	d001      	beq.n	8006c74 <USBD_Init+0x14>
 8006c70:	2400      	movs	r4, #0
 8006c72:	50c4      	str	r4, [r0, r3]
 8006c74:	2900      	cmp	r1, #0
 8006c76:	d002      	beq.n	8006c7e <USBD_Init+0x1e>
 8006c78:	23ac      	movs	r3, #172	@ 0xac
 8006c7a:	009b      	lsls	r3, r3, #2
 8006c7c:	50c1      	str	r1, [r0, r3]
 8006c7e:	23a7      	movs	r3, #167	@ 0xa7
 8006c80:	2101      	movs	r1, #1
 8006c82:	009b      	lsls	r3, r3, #2
 8006c84:	54c1      	strb	r1, [r0, r3]
 8006c86:	7002      	strb	r2, [r0, #0]
 8006c88:	f000 fe4e 	bl	8007928 <USBD_LL_Init>
 8006c8c:	2000      	movs	r0, #0
 8006c8e:	bd10      	pop	{r4, pc}
 8006c90:	2002      	movs	r0, #2
 8006c92:	e7fc      	b.n	8006c8e <USBD_Init+0x2e>

08006c94 <USBD_RegisterClass>:
 8006c94:	2900      	cmp	r1, #0
 8006c96:	d004      	beq.n	8006ca2 <USBD_RegisterClass+0xe>
 8006c98:	23ad      	movs	r3, #173	@ 0xad
 8006c9a:	009b      	lsls	r3, r3, #2
 8006c9c:	50c1      	str	r1, [r0, r3]
 8006c9e:	2000      	movs	r0, #0
 8006ca0:	4770      	bx	lr
 8006ca2:	2002      	movs	r0, #2
 8006ca4:	e7fc      	b.n	8006ca0 <USBD_RegisterClass+0xc>
 8006ca6:	46c0      	nop			@ (mov r8, r8)

08006ca8 <USBD_Start>:
 8006ca8:	b510      	push	{r4, lr}
 8006caa:	f000 fe7f 	bl	80079ac <USBD_LL_Start>
 8006cae:	2000      	movs	r0, #0
 8006cb0:	bd10      	pop	{r4, pc}
 8006cb2:	46c0      	nop			@ (mov r8, r8)

08006cb4 <USBD_SetClassConfig>:
 8006cb4:	23ad      	movs	r3, #173	@ 0xad
 8006cb6:	009b      	lsls	r3, r3, #2
 8006cb8:	58c3      	ldr	r3, [r0, r3]
 8006cba:	b510      	push	{r4, lr}
 8006cbc:	2b00      	cmp	r3, #0
 8006cbe:	d005      	beq.n	8006ccc <USBD_SetClassConfig+0x18>
 8006cc0:	681b      	ldr	r3, [r3, #0]
 8006cc2:	4798      	blx	r3
 8006cc4:	1e43      	subs	r3, r0, #1
 8006cc6:	4198      	sbcs	r0, r3
 8006cc8:	0040      	lsls	r0, r0, #1
 8006cca:	bd10      	pop	{r4, pc}
 8006ccc:	2002      	movs	r0, #2
 8006cce:	e7fc      	b.n	8006cca <USBD_SetClassConfig+0x16>

08006cd0 <USBD_ClrClassConfig>:
 8006cd0:	23ad      	movs	r3, #173	@ 0xad
 8006cd2:	b510      	push	{r4, lr}
 8006cd4:	009b      	lsls	r3, r3, #2
 8006cd6:	58c3      	ldr	r3, [r0, r3]
 8006cd8:	685b      	ldr	r3, [r3, #4]
 8006cda:	4798      	blx	r3
 8006cdc:	2000      	movs	r0, #0
 8006cde:	bd10      	pop	{r4, pc}

08006ce0 <USBD_LL_SetupStage>:
 8006ce0:	23aa      	movs	r3, #170	@ 0xaa
 8006ce2:	009b      	lsls	r3, r3, #2
 8006ce4:	b570      	push	{r4, r5, r6, lr}
 8006ce6:	18c5      	adds	r5, r0, r3
 8006ce8:	0004      	movs	r4, r0
 8006cea:	0028      	movs	r0, r5
 8006cec:	f000 fb80 	bl	80073f0 <USBD_ParseSetupRequest>
 8006cf0:	23a5      	movs	r3, #165	@ 0xa5
 8006cf2:	2201      	movs	r2, #1
 8006cf4:	009b      	lsls	r3, r3, #2
 8006cf6:	50e2      	str	r2, [r4, r3]
 8006cf8:	4b11      	ldr	r3, [pc, #68]	@ (8006d40 <USBD_LL_SetupStage+0x60>)
 8006cfa:	5ae2      	ldrh	r2, [r4, r3]
 8006cfc:	3b16      	subs	r3, #22
 8006cfe:	50e2      	str	r2, [r4, r3]
 8006d00:	3310      	adds	r3, #16
 8006d02:	5ce1      	ldrb	r1, [r4, r3]
 8006d04:	231f      	movs	r3, #31
 8006d06:	400b      	ands	r3, r1
 8006d08:	2b01      	cmp	r3, #1
 8006d0a:	d00a      	beq.n	8006d22 <USBD_LL_SetupStage+0x42>
 8006d0c:	2b02      	cmp	r3, #2
 8006d0e:	d012      	beq.n	8006d36 <USBD_LL_SetupStage+0x56>
 8006d10:	2b00      	cmp	r3, #0
 8006d12:	d00b      	beq.n	8006d2c <USBD_LL_SetupStage+0x4c>
 8006d14:	237f      	movs	r3, #127	@ 0x7f
 8006d16:	0020      	movs	r0, r4
 8006d18:	4399      	bics	r1, r3
 8006d1a:	f000 fe73 	bl	8007a04 <USBD_LL_StallEP>
 8006d1e:	2000      	movs	r0, #0
 8006d20:	bd70      	pop	{r4, r5, r6, pc}
 8006d22:	0029      	movs	r1, r5
 8006d24:	0020      	movs	r0, r4
 8006d26:	f000 fa8f 	bl	8007248 <USBD_StdItfReq>
 8006d2a:	e7f8      	b.n	8006d1e <USBD_LL_SetupStage+0x3e>
 8006d2c:	0029      	movs	r1, r5
 8006d2e:	0020      	movs	r0, r4
 8006d30:	f000 f916 	bl	8006f60 <USBD_StdDevReq>
 8006d34:	e7f3      	b.n	8006d1e <USBD_LL_SetupStage+0x3e>
 8006d36:	0029      	movs	r1, r5
 8006d38:	0020      	movs	r0, r4
 8006d3a:	f000 fab3 	bl	80072a4 <USBD_StdEPReq>
 8006d3e:	e7ee      	b.n	8006d1e <USBD_LL_SetupStage+0x3e>
 8006d40:	000002ae 	.word	0x000002ae

08006d44 <USBD_LL_DataOutStage>:
 8006d44:	b510      	push	{r4, lr}
 8006d46:	0013      	movs	r3, r2
 8006d48:	0004      	movs	r4, r0
 8006d4a:	2900      	cmp	r1, #0
 8006d4c:	d108      	bne.n	8006d60 <USBD_LL_DataOutStage+0x1c>
 8006d4e:	20a5      	movs	r0, #165	@ 0xa5
 8006d50:	0080      	lsls	r0, r0, #2
 8006d52:	5822      	ldr	r2, [r4, r0]
 8006d54:	2a03      	cmp	r2, #3
 8006d56:	d013      	beq.n	8006d80 <USBD_LL_DataOutStage+0x3c>
 8006d58:	2a05      	cmp	r2, #5
 8006d5a:	d023      	beq.n	8006da4 <USBD_LL_DataOutStage+0x60>
 8006d5c:	2000      	movs	r0, #0
 8006d5e:	e00e      	b.n	8006d7e <USBD_LL_DataOutStage+0x3a>
 8006d60:	23ad      	movs	r3, #173	@ 0xad
 8006d62:	009b      	lsls	r3, r3, #2
 8006d64:	58c3      	ldr	r3, [r0, r3]
 8006d66:	699b      	ldr	r3, [r3, #24]
 8006d68:	2b00      	cmp	r3, #0
 8006d6a:	d007      	beq.n	8006d7c <USBD_LL_DataOutStage+0x38>
 8006d6c:	22a7      	movs	r2, #167	@ 0xa7
 8006d6e:	0092      	lsls	r2, r2, #2
 8006d70:	5c82      	ldrb	r2, [r0, r2]
 8006d72:	2a03      	cmp	r2, #3
 8006d74:	d102      	bne.n	8006d7c <USBD_LL_DataOutStage+0x38>
 8006d76:	4798      	blx	r3
 8006d78:	2000      	movs	r0, #0
 8006d7a:	e000      	b.n	8006d7e <USBD_LL_DataOutStage+0x3a>
 8006d7c:	2002      	movs	r0, #2
 8006d7e:	bd10      	pop	{r4, pc}
 8006d80:	0020      	movs	r0, r4
 8006d82:	3055      	adds	r0, #85	@ 0x55
 8006d84:	30ff      	adds	r0, #255	@ 0xff
 8006d86:	68c1      	ldr	r1, [r0, #12]
 8006d88:	6902      	ldr	r2, [r0, #16]
 8006d8a:	4291      	cmp	r1, r2
 8006d8c:	d911      	bls.n	8006db2 <USBD_LL_DataOutStage+0x6e>
 8006d8e:	1a89      	subs	r1, r1, r2
 8006d90:	60c1      	str	r1, [r0, #12]
 8006d92:	428a      	cmp	r2, r1
 8006d94:	d81d      	bhi.n	8006dd2 <USBD_LL_DataOutStage+0x8e>
 8006d96:	b292      	uxth	r2, r2
 8006d98:	0019      	movs	r1, r3
 8006d9a:	0020      	movs	r0, r4
 8006d9c:	f000 fb96 	bl	80074cc <USBD_CtlContinueRx>
 8006da0:	2000      	movs	r0, #0
 8006da2:	e7ec      	b.n	8006d7e <USBD_LL_DataOutStage+0x3a>
 8006da4:	5021      	str	r1, [r4, r0]
 8006da6:	2100      	movs	r1, #0
 8006da8:	0020      	movs	r0, r4
 8006daa:	f000 fe2b 	bl	8007a04 <USBD_LL_StallEP>
 8006dae:	2000      	movs	r0, #0
 8006db0:	e7e5      	b.n	8006d7e <USBD_LL_DataOutStage+0x3a>
 8006db2:	23ad      	movs	r3, #173	@ 0xad
 8006db4:	009b      	lsls	r3, r3, #2
 8006db6:	58e3      	ldr	r3, [r4, r3]
 8006db8:	691b      	ldr	r3, [r3, #16]
 8006dba:	2b00      	cmp	r3, #0
 8006dbc:	d004      	beq.n	8006dc8 <USBD_LL_DataOutStage+0x84>
 8006dbe:	22a7      	movs	r2, #167	@ 0xa7
 8006dc0:	0092      	lsls	r2, r2, #2
 8006dc2:	5ca2      	ldrb	r2, [r4, r2]
 8006dc4:	2a03      	cmp	r2, #3
 8006dc6:	d006      	beq.n	8006dd6 <USBD_LL_DataOutStage+0x92>
 8006dc8:	0020      	movs	r0, r4
 8006dca:	f000 fb87 	bl	80074dc <USBD_CtlSendStatus>
 8006dce:	2000      	movs	r0, #0
 8006dd0:	e7d5      	b.n	8006d7e <USBD_LL_DataOutStage+0x3a>
 8006dd2:	b28a      	uxth	r2, r1
 8006dd4:	e7e0      	b.n	8006d98 <USBD_LL_DataOutStage+0x54>
 8006dd6:	0020      	movs	r0, r4
 8006dd8:	4798      	blx	r3
 8006dda:	e7f5      	b.n	8006dc8 <USBD_LL_DataOutStage+0x84>

08006ddc <USBD_LL_DataInStage>:
 8006ddc:	b5f8      	push	{r3, r4, r5, r6, r7, lr}
 8006dde:	0004      	movs	r4, r0
 8006de0:	0013      	movs	r3, r2
 8006de2:	2900      	cmp	r1, #0
 8006de4:	d111      	bne.n	8006e0a <USBD_LL_DataInStage+0x2e>
 8006de6:	22a5      	movs	r2, #165	@ 0xa5
 8006de8:	0092      	lsls	r2, r2, #2
 8006dea:	5882      	ldr	r2, [r0, r2]
 8006dec:	2a02      	cmp	r2, #2
 8006dee:	d01e      	beq.n	8006e2e <USBD_LL_DataInStage+0x52>
 8006df0:	2304      	movs	r3, #4
 8006df2:	439a      	bics	r2, r3
 8006df4:	d102      	bne.n	8006dfc <USBD_LL_DataInStage+0x20>
 8006df6:	2180      	movs	r1, #128	@ 0x80
 8006df8:	f000 fe04 	bl	8007a04 <USBD_LL_StallEP>
 8006dfc:	23a8      	movs	r3, #168	@ 0xa8
 8006dfe:	009b      	lsls	r3, r3, #2
 8006e00:	5ce2      	ldrb	r2, [r4, r3]
 8006e02:	2a01      	cmp	r2, #1
 8006e04:	d010      	beq.n	8006e28 <USBD_LL_DataInStage+0x4c>
 8006e06:	2000      	movs	r0, #0
 8006e08:	bdf8      	pop	{r3, r4, r5, r6, r7, pc}
 8006e0a:	23ad      	movs	r3, #173	@ 0xad
 8006e0c:	009b      	lsls	r3, r3, #2
 8006e0e:	58c3      	ldr	r3, [r0, r3]
 8006e10:	695b      	ldr	r3, [r3, #20]
 8006e12:	2b00      	cmp	r3, #0
 8006e14:	d006      	beq.n	8006e24 <USBD_LL_DataInStage+0x48>
 8006e16:	22a7      	movs	r2, #167	@ 0xa7
 8006e18:	0092      	lsls	r2, r2, #2
 8006e1a:	5c82      	ldrb	r2, [r0, r2]
 8006e1c:	2a03      	cmp	r2, #3
 8006e1e:	d101      	bne.n	8006e24 <USBD_LL_DataInStage+0x48>
 8006e20:	4798      	blx	r3
 8006e22:	e7f0      	b.n	8006e06 <USBD_LL_DataInStage+0x2a>
 8006e24:	2002      	movs	r0, #2
 8006e26:	e7ef      	b.n	8006e08 <USBD_LL_DataInStage+0x2c>
 8006e28:	2200      	movs	r2, #0
 8006e2a:	54e2      	strb	r2, [r4, r3]
 8006e2c:	e7eb      	b.n	8006e06 <USBD_LL_DataInStage+0x2a>
 8006e2e:	6a02      	ldr	r2, [r0, #32]
 8006e30:	6a45      	ldr	r5, [r0, #36]	@ 0x24
 8006e32:	42aa      	cmp	r2, r5
 8006e34:	d827      	bhi.n	8006e86 <USBD_LL_DataInStage+0xaa>
 8006e36:	69c7      	ldr	r7, [r0, #28]
 8006e38:	0029      	movs	r1, r5
 8006e3a:	0038      	movs	r0, r7
 8006e3c:	f7f9 f9fc 	bl	8000238 <__aeabi_uidivmod>
 8006e40:	1e0e      	subs	r6, r1, #0
 8006e42:	d10d      	bne.n	8006e60 <USBD_LL_DataInStage+0x84>
 8006e44:	42bd      	cmp	r5, r7
 8006e46:	d80b      	bhi.n	8006e60 <USBD_LL_DataInStage+0x84>
 8006e48:	25a6      	movs	r5, #166	@ 0xa6
 8006e4a:	00ad      	lsls	r5, r5, #2
 8006e4c:	5963      	ldr	r3, [r4, r5]
 8006e4e:	429f      	cmp	r7, r3
 8006e50:	d206      	bcs.n	8006e60 <USBD_LL_DataInStage+0x84>
 8006e52:	2200      	movs	r2, #0
 8006e54:	2100      	movs	r1, #0
 8006e56:	0020      	movs	r0, r4
 8006e58:	f000 fb1e 	bl	8007498 <USBD_CtlContinueSendData>
 8006e5c:	5166      	str	r6, [r4, r5]
 8006e5e:	e018      	b.n	8006e92 <USBD_LL_DataInStage+0xb6>
 8006e60:	23ad      	movs	r3, #173	@ 0xad
 8006e62:	009b      	lsls	r3, r3, #2
 8006e64:	58e3      	ldr	r3, [r4, r3]
 8006e66:	68db      	ldr	r3, [r3, #12]
 8006e68:	2b00      	cmp	r3, #0
 8006e6a:	d004      	beq.n	8006e76 <USBD_LL_DataInStage+0x9a>
 8006e6c:	22a7      	movs	r2, #167	@ 0xa7
 8006e6e:	0092      	lsls	r2, r2, #2
 8006e70:	5ca2      	ldrb	r2, [r4, r2]
 8006e72:	2a03      	cmp	r2, #3
 8006e74:	d014      	beq.n	8006ea0 <USBD_LL_DataInStage+0xc4>
 8006e76:	2180      	movs	r1, #128	@ 0x80
 8006e78:	0020      	movs	r0, r4
 8006e7a:	f000 fdc3 	bl	8007a04 <USBD_LL_StallEP>
 8006e7e:	0020      	movs	r0, r4
 8006e80:	f000 fb38 	bl	80074f4 <USBD_CtlReceiveStatus>
 8006e84:	e7ba      	b.n	8006dfc <USBD_LL_DataInStage+0x20>
 8006e86:	1b52      	subs	r2, r2, r5
 8006e88:	6202      	str	r2, [r0, #32]
 8006e8a:	0019      	movs	r1, r3
 8006e8c:	b292      	uxth	r2, r2
 8006e8e:	f000 fb03 	bl	8007498 <USBD_CtlContinueSendData>
 8006e92:	2300      	movs	r3, #0
 8006e94:	2200      	movs	r2, #0
 8006e96:	2100      	movs	r1, #0
 8006e98:	0020      	movs	r0, r4
 8006e9a:	f000 fe01 	bl	8007aa0 <USBD_LL_PrepareReceive>
 8006e9e:	e7ad      	b.n	8006dfc <USBD_LL_DataInStage+0x20>
 8006ea0:	0020      	movs	r0, r4
 8006ea2:	4798      	blx	r3
 8006ea4:	e7e7      	b.n	8006e76 <USBD_LL_DataInStage+0x9a>
 8006ea6:	46c0      	nop			@ (mov r8, r8)

08006ea8 <USBD_LL_Reset>:
 8006ea8:	b570      	push	{r4, r5, r6, lr}
 8006eaa:	2340      	movs	r3, #64	@ 0x40
 8006eac:	2200      	movs	r2, #0
 8006eae:	2100      	movs	r1, #0
 8006eb0:	0004      	movs	r4, r0
 8006eb2:	f000 fd89 	bl	80079c8 <USBD_LL_OpenEP>
 8006eb6:	23ac      	movs	r3, #172	@ 0xac
 8006eb8:	2501      	movs	r5, #1
 8006eba:	2640      	movs	r6, #64	@ 0x40
 8006ebc:	005b      	lsls	r3, r3, #1
 8006ebe:	50e5      	str	r5, [r4, r3]
 8006ec0:	330c      	adds	r3, #12
 8006ec2:	50e6      	str	r6, [r4, r3]
 8006ec4:	3b25      	subs	r3, #37	@ 0x25
 8006ec6:	2200      	movs	r2, #0
 8006ec8:	3bff      	subs	r3, #255	@ 0xff
 8006eca:	2180      	movs	r1, #128	@ 0x80
 8006ecc:	0020      	movs	r0, r4
 8006ece:	f000 fd7b 	bl	80079c8 <USBD_LL_OpenEP>
 8006ed2:	23a7      	movs	r3, #167	@ 0xa7
 8006ed4:	22a5      	movs	r2, #165	@ 0xa5
 8006ed6:	009b      	lsls	r3, r3, #2
 8006ed8:	61a5      	str	r5, [r4, #24]
 8006eda:	6266      	str	r6, [r4, #36]	@ 0x24
 8006edc:	54e5      	strb	r5, [r4, r3]
 8006ede:	2300      	movs	r3, #0
 8006ee0:	0092      	lsls	r2, r2, #2
 8006ee2:	50a3      	str	r3, [r4, r2]
 8006ee4:	3210      	adds	r2, #16
 8006ee6:	6063      	str	r3, [r4, #4]
 8006ee8:	50a3      	str	r3, [r4, r2]
 8006eea:	23ae      	movs	r3, #174	@ 0xae
 8006eec:	009b      	lsls	r3, r3, #2
 8006eee:	58e3      	ldr	r3, [r4, r3]
 8006ef0:	2b00      	cmp	r3, #0
 8006ef2:	d006      	beq.n	8006f02 <USBD_LL_Reset+0x5a>
 8006ef4:	23ad      	movs	r3, #173	@ 0xad
 8006ef6:	009b      	lsls	r3, r3, #2
 8006ef8:	58e3      	ldr	r3, [r4, r3]
 8006efa:	2100      	movs	r1, #0
 8006efc:	0020      	movs	r0, r4
 8006efe:	685b      	ldr	r3, [r3, #4]
 8006f00:	4798      	blx	r3
 8006f02:	2000      	movs	r0, #0
 8006f04:	bd70      	pop	{r4, r5, r6, pc}
 8006f06:	46c0      	nop			@ (mov r8, r8)

08006f08 <USBD_LL_SetSpeed>:
 8006f08:	7401      	strb	r1, [r0, #16]
 8006f0a:	2000      	movs	r0, #0
 8006f0c:	4770      	bx	lr
 8006f0e:	46c0      	nop			@ (mov r8, r8)

08006f10 <USBD_LL_Suspend>:
 8006f10:	23a7      	movs	r3, #167	@ 0xa7
 8006f12:	009b      	lsls	r3, r3, #2
 8006f14:	5cc1      	ldrb	r1, [r0, r3]
 8006f16:	4a03      	ldr	r2, [pc, #12]	@ (8006f24 <USBD_LL_Suspend+0x14>)
 8006f18:	5481      	strb	r1, [r0, r2]
 8006f1a:	2204      	movs	r2, #4
 8006f1c:	54c2      	strb	r2, [r0, r3]
 8006f1e:	2000      	movs	r0, #0
 8006f20:	4770      	bx	lr
 8006f22:	46c0      	nop			@ (mov r8, r8)
 8006f24:	0000029d 	.word	0x0000029d

08006f28 <USBD_LL_Resume>:
 8006f28:	23a7      	movs	r3, #167	@ 0xa7
 8006f2a:	009b      	lsls	r3, r3, #2
 8006f2c:	5cc2      	ldrb	r2, [r0, r3]
 8006f2e:	2a04      	cmp	r2, #4
 8006f30:	d102      	bne.n	8006f38 <USBD_LL_Resume+0x10>
 8006f32:	4a02      	ldr	r2, [pc, #8]	@ (8006f3c <USBD_LL_Resume+0x14>)
 8006f34:	5c82      	ldrb	r2, [r0, r2]
 8006f36:	54c2      	strb	r2, [r0, r3]
 8006f38:	2000      	movs	r0, #0
 8006f3a:	4770      	bx	lr
 8006f3c:	0000029d 	.word	0x0000029d

08006f40 <USBD_LL_SOF>:
 8006f40:	23a7      	movs	r3, #167	@ 0xa7
 8006f42:	b510      	push	{r4, lr}
 8006f44:	009b      	lsls	r3, r3, #2
 8006f46:	5cc3      	ldrb	r3, [r0, r3]
 8006f48:	2b03      	cmp	r3, #3
 8006f4a:	d001      	beq.n	8006f50 <USBD_LL_SOF+0x10>
 8006f4c:	2000      	movs	r0, #0
 8006f4e:	bd10      	pop	{r4, pc}
 8006f50:	23ad      	movs	r3, #173	@ 0xad
 8006f52:	009b      	lsls	r3, r3, #2
 8006f54:	58c3      	ldr	r3, [r0, r3]
 8006f56:	69db      	ldr	r3, [r3, #28]
 8006f58:	2b00      	cmp	r3, #0
 8006f5a:	d0f7      	beq.n	8006f4c <USBD_LL_SOF+0xc>
 8006f5c:	4798      	blx	r3
 8006f5e:	e7f5      	b.n	8006f4c <USBD_LL_SOF+0xc>

08006f60 <USBD_StdDevReq>:
 8006f60:	2360      	movs	r3, #96	@ 0x60
 8006f62:	780a      	ldrb	r2, [r1, #0]
 8006f64:	b570      	push	{r4, r5, r6, lr}
 8006f66:	4013      	ands	r3, r2
 8006f68:	000d      	movs	r5, r1
 8006f6a:	0019      	movs	r1, r3
 8006f6c:	22c0      	movs	r2, #192	@ 0xc0
 8006f6e:	3920      	subs	r1, #32
 8006f70:	0004      	movs	r4, r0
 8006f72:	b082      	sub	sp, #8
 8006f74:	4211      	tst	r1, r2
 8006f76:	d00c      	beq.n	8006f92 <USBD_StdDevReq+0x32>
 8006f78:	2b00      	cmp	r3, #0
 8006f7a:	d011      	beq.n	8006fa0 <USBD_StdDevReq+0x40>
 8006f7c:	2180      	movs	r1, #128	@ 0x80
 8006f7e:	0020      	movs	r0, r4
 8006f80:	f000 fd40 	bl	8007a04 <USBD_LL_StallEP>
 8006f84:	2100      	movs	r1, #0
 8006f86:	0020      	movs	r0, r4
 8006f88:	f000 fd3c 	bl	8007a04 <USBD_LL_StallEP>
 8006f8c:	2000      	movs	r0, #0
 8006f8e:	b002      	add	sp, #8
 8006f90:	bd70      	pop	{r4, r5, r6, pc}
 8006f92:	23ad      	movs	r3, #173	@ 0xad
 8006f94:	009b      	lsls	r3, r3, #2
 8006f96:	58c3      	ldr	r3, [r0, r3]
 8006f98:	0029      	movs	r1, r5
 8006f9a:	689b      	ldr	r3, [r3, #8]
 8006f9c:	4798      	blx	r3
 8006f9e:	e7f5      	b.n	8006f8c <USBD_StdDevReq+0x2c>
 8006fa0:	786b      	ldrb	r3, [r5, #1]
 8006fa2:	2b09      	cmp	r3, #9
 8006fa4:	d8ea      	bhi.n	8006f7c <USBD_StdDevReq+0x1c>
 8006fa6:	4aa3      	ldr	r2, [pc, #652]	@ (8007234 <USBD_StdDevReq+0x2d4>)
 8006fa8:	009b      	lsls	r3, r3, #2
 8006faa:	58d3      	ldr	r3, [r2, r3]
 8006fac:	469f      	mov	pc, r3
 8006fae:	78ab      	ldrb	r3, [r5, #2]
 8006fb0:	4da1      	ldr	r5, [pc, #644]	@ (8007238 <USBD_StdDevReq+0x2d8>)
 8006fb2:	702b      	strb	r3, [r5, #0]
 8006fb4:	2b01      	cmp	r3, #1
 8006fb6:	d8e1      	bhi.n	8006f7c <USBD_StdDevReq+0x1c>
 8006fb8:	21a7      	movs	r1, #167	@ 0xa7
 8006fba:	0089      	lsls	r1, r1, #2
 8006fbc:	5c42      	ldrb	r2, [r0, r1]
 8006fbe:	2a02      	cmp	r2, #2
 8006fc0:	d100      	bne.n	8006fc4 <USBD_StdDevReq+0x64>
 8006fc2:	e119      	b.n	80071f8 <USBD_StdDevReq+0x298>
 8006fc4:	2a03      	cmp	r2, #3
 8006fc6:	d100      	bne.n	8006fca <USBD_StdDevReq+0x6a>
 8006fc8:	e104      	b.n	80071d4 <USBD_StdDevReq+0x274>
 8006fca:	2180      	movs	r1, #128	@ 0x80
 8006fcc:	f000 fd1a 	bl	8007a04 <USBD_LL_StallEP>
 8006fd0:	2100      	movs	r1, #0
 8006fd2:	0020      	movs	r0, r4
 8006fd4:	f000 fd16 	bl	8007a04 <USBD_LL_StallEP>
 8006fd8:	0020      	movs	r0, r4
 8006fda:	7829      	ldrb	r1, [r5, #0]
 8006fdc:	f7ff fe78 	bl	8006cd0 <USBD_ClrClassConfig>
 8006fe0:	e7d4      	b.n	8006f8c <USBD_StdDevReq+0x2c>
 8006fe2:	23a7      	movs	r3, #167	@ 0xa7
 8006fe4:	009b      	lsls	r3, r3, #2
 8006fe6:	5cc3      	ldrb	r3, [r0, r3]
 8006fe8:	3b01      	subs	r3, #1
 8006fea:	2b02      	cmp	r3, #2
 8006fec:	d8c6      	bhi.n	8006f7c <USBD_StdDevReq+0x1c>
 8006fee:	88eb      	ldrh	r3, [r5, #6]
 8006ff0:	2b02      	cmp	r3, #2
 8006ff2:	d1c3      	bne.n	8006f7c <USBD_StdDevReq+0x1c>
 8006ff4:	23a9      	movs	r3, #169	@ 0xa9
 8006ff6:	009b      	lsls	r3, r3, #2
 8006ff8:	58c3      	ldr	r3, [r0, r3]
 8006ffa:	0001      	movs	r1, r0
 8006ffc:	425a      	negs	r2, r3
 8006ffe:	4153      	adcs	r3, r2
 8007000:	2201      	movs	r2, #1
 8007002:	425b      	negs	r3, r3
 8007004:	4393      	bics	r3, r2
 8007006:	3303      	adds	r3, #3
 8007008:	60c3      	str	r3, [r0, #12]
 800700a:	310c      	adds	r1, #12
 800700c:	3201      	adds	r2, #1
 800700e:	f000 fa35 	bl	800747c <USBD_CtlSendData>
 8007012:	e7bb      	b.n	8006f8c <USBD_StdDevReq+0x2c>
 8007014:	23a7      	movs	r3, #167	@ 0xa7
 8007016:	009b      	lsls	r3, r3, #2
 8007018:	5cc3      	ldrb	r3, [r0, r3]
 800701a:	3b01      	subs	r3, #1
 800701c:	2b02      	cmp	r3, #2
 800701e:	d8ad      	bhi.n	8006f7c <USBD_StdDevReq+0x1c>
 8007020:	886b      	ldrh	r3, [r5, #2]
 8007022:	2b01      	cmp	r3, #1
 8007024:	d1b2      	bne.n	8006f8c <USBD_StdDevReq+0x2c>
 8007026:	23a9      	movs	r3, #169	@ 0xa9
 8007028:	2200      	movs	r2, #0
 800702a:	009b      	lsls	r3, r3, #2
 800702c:	50c2      	str	r2, [r0, r3]
 800702e:	0020      	movs	r0, r4
 8007030:	f000 fa54 	bl	80074dc <USBD_CtlSendStatus>
 8007034:	e7aa      	b.n	8006f8c <USBD_StdDevReq+0x2c>
 8007036:	886b      	ldrh	r3, [r5, #2]
 8007038:	2b01      	cmp	r3, #1
 800703a:	d1a7      	bne.n	8006f8c <USBD_StdDevReq+0x2c>
 800703c:	22a9      	movs	r2, #169	@ 0xa9
 800703e:	0092      	lsls	r2, r2, #2
 8007040:	5083      	str	r3, [r0, r2]
 8007042:	f000 fa4b 	bl	80074dc <USBD_CtlSendStatus>
 8007046:	e7a1      	b.n	8006f8c <USBD_StdDevReq+0x2c>
 8007048:	88ab      	ldrh	r3, [r5, #4]
 800704a:	2b00      	cmp	r3, #0
 800704c:	d000      	beq.n	8007050 <USBD_StdDevReq+0xf0>
 800704e:	e795      	b.n	8006f7c <USBD_StdDevReq+0x1c>
 8007050:	88eb      	ldrh	r3, [r5, #6]
 8007052:	2b00      	cmp	r3, #0
 8007054:	d000      	beq.n	8007058 <USBD_StdDevReq+0xf8>
 8007056:	e791      	b.n	8006f7c <USBD_StdDevReq+0x1c>
 8007058:	886d      	ldrh	r5, [r5, #2]
 800705a:	2d7f      	cmp	r5, #127	@ 0x7f
 800705c:	d900      	bls.n	8007060 <USBD_StdDevReq+0x100>
 800705e:	e78d      	b.n	8006f7c <USBD_StdDevReq+0x1c>
 8007060:	26a7      	movs	r6, #167	@ 0xa7
 8007062:	00b6      	lsls	r6, r6, #2
 8007064:	5d83      	ldrb	r3, [r0, r6]
 8007066:	2b03      	cmp	r3, #3
 8007068:	d100      	bne.n	800706c <USBD_StdDevReq+0x10c>
 800706a:	e787      	b.n	8006f7c <USBD_StdDevReq+0x1c>
 800706c:	4b73      	ldr	r3, [pc, #460]	@ (800723c <USBD_StdDevReq+0x2dc>)
 800706e:	b2e9      	uxtb	r1, r5
 8007070:	54c1      	strb	r1, [r0, r3]
 8007072:	f000 fcf9 	bl	8007a68 <USBD_LL_SetUSBAddress>
 8007076:	0020      	movs	r0, r4
 8007078:	f000 fa30 	bl	80074dc <USBD_CtlSendStatus>
 800707c:	2d00      	cmp	r5, #0
 800707e:	d100      	bne.n	8007082 <USBD_StdDevReq+0x122>
 8007080:	e0d4      	b.n	800722c <USBD_StdDevReq+0x2cc>
 8007082:	2302      	movs	r3, #2
 8007084:	55a3      	strb	r3, [r4, r6]
 8007086:	e781      	b.n	8006f8c <USBD_StdDevReq+0x2c>
 8007088:	2300      	movs	r3, #0
 800708a:	466a      	mov	r2, sp
 800708c:	80d3      	strh	r3, [r2, #6]
 800708e:	886a      	ldrh	r2, [r5, #2]
 8007090:	0a13      	lsrs	r3, r2, #8
 8007092:	2b07      	cmp	r3, #7
 8007094:	d900      	bls.n	8007098 <USBD_StdDevReq+0x138>
 8007096:	e771      	b.n	8006f7c <USBD_StdDevReq+0x1c>
 8007098:	4969      	ldr	r1, [pc, #420]	@ (8007240 <USBD_StdDevReq+0x2e0>)
 800709a:	009b      	lsls	r3, r3, #2
 800709c:	58cb      	ldr	r3, [r1, r3]
 800709e:	469f      	mov	pc, r3
 80070a0:	88eb      	ldrh	r3, [r5, #6]
 80070a2:	2b01      	cmp	r3, #1
 80070a4:	d000      	beq.n	80070a8 <USBD_StdDevReq+0x148>
 80070a6:	e769      	b.n	8006f7c <USBD_StdDevReq+0x1c>
 80070a8:	23a7      	movs	r3, #167	@ 0xa7
 80070aa:	009b      	lsls	r3, r3, #2
 80070ac:	5cc3      	ldrb	r3, [r0, r3]
 80070ae:	2b02      	cmp	r3, #2
 80070b0:	d900      	bls.n	80070b4 <USBD_StdDevReq+0x154>
 80070b2:	e087      	b.n	80071c4 <USBD_StdDevReq+0x264>
 80070b4:	2b00      	cmp	r3, #0
 80070b6:	d100      	bne.n	80070ba <USBD_StdDevReq+0x15a>
 80070b8:	e760      	b.n	8006f7c <USBD_StdDevReq+0x1c>
 80070ba:	2300      	movs	r3, #0
 80070bc:	0001      	movs	r1, r0
 80070be:	2201      	movs	r2, #1
 80070c0:	6083      	str	r3, [r0, #8]
 80070c2:	3108      	adds	r1, #8
 80070c4:	f000 f9da 	bl	800747c <USBD_CtlSendData>
 80070c8:	e760      	b.n	8006f8c <USBD_StdDevReq+0x2c>
 80070ca:	7c03      	ldrb	r3, [r0, #16]
 80070cc:	2b00      	cmp	r3, #0
 80070ce:	d000      	beq.n	80070d2 <USBD_StdDevReq+0x172>
 80070d0:	e754      	b.n	8006f7c <USBD_StdDevReq+0x1c>
 80070d2:	23ad      	movs	r3, #173	@ 0xad
 80070d4:	466a      	mov	r2, sp
 80070d6:	009b      	lsls	r3, r3, #2
 80070d8:	58c3      	ldr	r3, [r0, r3]
 80070da:	1d90      	adds	r0, r2, #6
 80070dc:	6b1b      	ldr	r3, [r3, #48]	@ 0x30
 80070de:	4798      	blx	r3
 80070e0:	2307      	movs	r3, #7
 80070e2:	7043      	strb	r3, [r0, #1]
 80070e4:	466b      	mov	r3, sp
 80070e6:	88da      	ldrh	r2, [r3, #6]
 80070e8:	88eb      	ldrh	r3, [r5, #6]
 80070ea:	2a00      	cmp	r2, #0
 80070ec:	d00d      	beq.n	800710a <USBD_StdDevReq+0x1aa>
 80070ee:	2b00      	cmp	r3, #0
 80070f0:	d09d      	beq.n	800702e <USBD_StdDevReq+0xce>
 80070f2:	1c11      	adds	r1, r2, #0
 80070f4:	429a      	cmp	r2, r3
 80070f6:	d900      	bls.n	80070fa <USBD_StdDevReq+0x19a>
 80070f8:	1c19      	adds	r1, r3, #0
 80070fa:	466b      	mov	r3, sp
 80070fc:	b28a      	uxth	r2, r1
 80070fe:	80d9      	strh	r1, [r3, #6]
 8007100:	0001      	movs	r1, r0
 8007102:	0020      	movs	r0, r4
 8007104:	f000 f9ba 	bl	800747c <USBD_CtlSendData>
 8007108:	88eb      	ldrh	r3, [r5, #6]
 800710a:	2b00      	cmp	r3, #0
 800710c:	d000      	beq.n	8007110 <USBD_StdDevReq+0x1b0>
 800710e:	e73d      	b.n	8006f8c <USBD_StdDevReq+0x2c>
 8007110:	e78d      	b.n	800702e <USBD_StdDevReq+0xce>
 8007112:	7c03      	ldrb	r3, [r0, #16]
 8007114:	2b00      	cmp	r3, #0
 8007116:	d000      	beq.n	800711a <USBD_StdDevReq+0x1ba>
 8007118:	e730      	b.n	8006f7c <USBD_StdDevReq+0x1c>
 800711a:	23ad      	movs	r3, #173	@ 0xad
 800711c:	466a      	mov	r2, sp
 800711e:	009b      	lsls	r3, r3, #2
 8007120:	58c3      	ldr	r3, [r0, r3]
 8007122:	1d90      	adds	r0, r2, #6
 8007124:	6b5b      	ldr	r3, [r3, #52]	@ 0x34
 8007126:	4798      	blx	r3
 8007128:	e7dc      	b.n	80070e4 <USBD_StdDevReq+0x184>
 800712a:	b2d2      	uxtb	r2, r2
 800712c:	2a05      	cmp	r2, #5
 800712e:	d900      	bls.n	8007132 <USBD_StdDevReq+0x1d2>
 8007130:	e724      	b.n	8006f7c <USBD_StdDevReq+0x1c>
 8007132:	4b44      	ldr	r3, [pc, #272]	@ (8007244 <USBD_StdDevReq+0x2e4>)
 8007134:	0092      	lsls	r2, r2, #2
 8007136:	589b      	ldr	r3, [r3, r2]
 8007138:	469f      	mov	pc, r3
 800713a:	23ad      	movs	r3, #173	@ 0xad
 800713c:	7c02      	ldrb	r2, [r0, #16]
 800713e:	009b      	lsls	r3, r3, #2
 8007140:	58c3      	ldr	r3, [r0, r3]
 8007142:	2a00      	cmp	r2, #0
 8007144:	d166      	bne.n	8007214 <USBD_StdDevReq+0x2b4>
 8007146:	6a9b      	ldr	r3, [r3, #40]	@ 0x28
 8007148:	466a      	mov	r2, sp
 800714a:	1d90      	adds	r0, r2, #6
 800714c:	4798      	blx	r3
 800714e:	2302      	movs	r3, #2
 8007150:	7043      	strb	r3, [r0, #1]
 8007152:	e7c7      	b.n	80070e4 <USBD_StdDevReq+0x184>
 8007154:	23ac      	movs	r3, #172	@ 0xac
 8007156:	466a      	mov	r2, sp
 8007158:	009b      	lsls	r3, r3, #2
 800715a:	58e3      	ldr	r3, [r4, r3]
 800715c:	1d91      	adds	r1, r2, #6
 800715e:	681b      	ldr	r3, [r3, #0]
 8007160:	7c00      	ldrb	r0, [r0, #16]
 8007162:	4798      	blx	r3
 8007164:	e7be      	b.n	80070e4 <USBD_StdDevReq+0x184>
 8007166:	23ac      	movs	r3, #172	@ 0xac
 8007168:	009b      	lsls	r3, r3, #2
 800716a:	58c3      	ldr	r3, [r0, r3]
 800716c:	695b      	ldr	r3, [r3, #20]
 800716e:	2b00      	cmp	r3, #0
 8007170:	d100      	bne.n	8007174 <USBD_StdDevReq+0x214>
 8007172:	e703      	b.n	8006f7c <USBD_StdDevReq+0x1c>
 8007174:	466a      	mov	r2, sp
 8007176:	7c20      	ldrb	r0, [r4, #16]
 8007178:	1d91      	adds	r1, r2, #6
 800717a:	4798      	blx	r3
 800717c:	e7b2      	b.n	80070e4 <USBD_StdDevReq+0x184>
 800717e:	23ac      	movs	r3, #172	@ 0xac
 8007180:	009b      	lsls	r3, r3, #2
 8007182:	58c3      	ldr	r3, [r0, r3]
 8007184:	691b      	ldr	r3, [r3, #16]
 8007186:	2b00      	cmp	r3, #0
 8007188:	d1f4      	bne.n	8007174 <USBD_StdDevReq+0x214>
 800718a:	e6f7      	b.n	8006f7c <USBD_StdDevReq+0x1c>
 800718c:	23ac      	movs	r3, #172	@ 0xac
 800718e:	009b      	lsls	r3, r3, #2
 8007190:	58c3      	ldr	r3, [r0, r3]
 8007192:	68db      	ldr	r3, [r3, #12]
 8007194:	2b00      	cmp	r3, #0
 8007196:	d1ed      	bne.n	8007174 <USBD_StdDevReq+0x214>
 8007198:	e6f0      	b.n	8006f7c <USBD_StdDevReq+0x1c>
 800719a:	23ac      	movs	r3, #172	@ 0xac
 800719c:	009b      	lsls	r3, r3, #2
 800719e:	58c3      	ldr	r3, [r0, r3]
 80071a0:	689b      	ldr	r3, [r3, #8]
 80071a2:	2b00      	cmp	r3, #0
 80071a4:	d1e6      	bne.n	8007174 <USBD_StdDevReq+0x214>
 80071a6:	e6e9      	b.n	8006f7c <USBD_StdDevReq+0x1c>
 80071a8:	23ac      	movs	r3, #172	@ 0xac
 80071aa:	009b      	lsls	r3, r3, #2
 80071ac:	58c3      	ldr	r3, [r0, r3]
 80071ae:	685b      	ldr	r3, [r3, #4]
 80071b0:	2b00      	cmp	r3, #0
 80071b2:	d1df      	bne.n	8007174 <USBD_StdDevReq+0x214>
 80071b4:	e6e2      	b.n	8006f7c <USBD_StdDevReq+0x1c>
 80071b6:	23ac      	movs	r3, #172	@ 0xac
 80071b8:	009b      	lsls	r3, r3, #2
 80071ba:	58c3      	ldr	r3, [r0, r3]
 80071bc:	699b      	ldr	r3, [r3, #24]
 80071be:	2b00      	cmp	r3, #0
 80071c0:	d1d8      	bne.n	8007174 <USBD_StdDevReq+0x214>
 80071c2:	e6db      	b.n	8006f7c <USBD_StdDevReq+0x1c>
 80071c4:	2b03      	cmp	r3, #3
 80071c6:	d000      	beq.n	80071ca <USBD_StdDevReq+0x26a>
 80071c8:	e6d8      	b.n	8006f7c <USBD_StdDevReq+0x1c>
 80071ca:	2201      	movs	r2, #1
 80071cc:	1d01      	adds	r1, r0, #4
 80071ce:	f000 f955 	bl	800747c <USBD_CtlSendData>
 80071d2:	e6db      	b.n	8006f8c <USBD_StdDevReq+0x2c>
 80071d4:	2b00      	cmp	r3, #0
 80071d6:	d01f      	beq.n	8007218 <USBD_StdDevReq+0x2b8>
 80071d8:	6841      	ldr	r1, [r0, #4]
 80071da:	2901      	cmp	r1, #1
 80071dc:	d100      	bne.n	80071e0 <USBD_StdDevReq+0x280>
 80071de:	e726      	b.n	800702e <USBD_StdDevReq+0xce>
 80071e0:	b2c9      	uxtb	r1, r1
 80071e2:	f7ff fd75 	bl	8006cd0 <USBD_ClrClassConfig>
 80071e6:	7829      	ldrb	r1, [r5, #0]
 80071e8:	0020      	movs	r0, r4
 80071ea:	6061      	str	r1, [r4, #4]
 80071ec:	f7ff fd62 	bl	8006cb4 <USBD_SetClassConfig>
 80071f0:	2802      	cmp	r0, #2
 80071f2:	d000      	beq.n	80071f6 <USBD_StdDevReq+0x296>
 80071f4:	e71b      	b.n	800702e <USBD_StdDevReq+0xce>
 80071f6:	e6c1      	b.n	8006f7c <USBD_StdDevReq+0x1c>
 80071f8:	2b00      	cmp	r3, #0
 80071fa:	d100      	bne.n	80071fe <USBD_StdDevReq+0x29e>
 80071fc:	e717      	b.n	800702e <USBD_StdDevReq+0xce>
 80071fe:	2301      	movs	r3, #1
 8007200:	6043      	str	r3, [r0, #4]
 8007202:	3302      	adds	r3, #2
 8007204:	5443      	strb	r3, [r0, r1]
 8007206:	2101      	movs	r1, #1
 8007208:	f7ff fd54 	bl	8006cb4 <USBD_SetClassConfig>
 800720c:	2802      	cmp	r0, #2
 800720e:	d000      	beq.n	8007212 <USBD_StdDevReq+0x2b2>
 8007210:	e70d      	b.n	800702e <USBD_StdDevReq+0xce>
 8007212:	e6b3      	b.n	8006f7c <USBD_StdDevReq+0x1c>
 8007214:	6adb      	ldr	r3, [r3, #44]	@ 0x2c
 8007216:	e797      	b.n	8007148 <USBD_StdDevReq+0x1e8>
 8007218:	2202      	movs	r2, #2
 800721a:	5442      	strb	r2, [r0, r1]
 800721c:	2100      	movs	r1, #0
 800721e:	6043      	str	r3, [r0, #4]
 8007220:	f7ff fd56 	bl	8006cd0 <USBD_ClrClassConfig>
 8007224:	0020      	movs	r0, r4
 8007226:	f000 f959 	bl	80074dc <USBD_CtlSendStatus>
 800722a:	e6af      	b.n	8006f8c <USBD_StdDevReq+0x2c>
 800722c:	2301      	movs	r3, #1
 800722e:	55a3      	strb	r3, [r4, r6]
 8007230:	e6ac      	b.n	8006f8c <USBD_StdDevReq+0x2c>
 8007232:	46c0      	nop			@ (mov r8, r8)
 8007234:	08009268 	.word	0x08009268
 8007238:	20002458 	.word	0x20002458
 800723c:	0000029e 	.word	0x0000029e
 8007240:	08009290 	.word	0x08009290
 8007244:	080092b0 	.word	0x080092b0

08007248 <USBD_StdItfReq>:
 8007248:	2360      	movs	r3, #96	@ 0x60
 800724a:	780a      	ldrb	r2, [r1, #0]
 800724c:	b570      	push	{r4, r5, r6, lr}
 800724e:	4013      	ands	r3, r2
 8007250:	0004      	movs	r4, r0
 8007252:	000d      	movs	r5, r1
 8007254:	0652      	lsls	r2, r2, #25
 8007256:	d50b      	bpl.n	8007270 <USBD_StdItfReq+0x28>
 8007258:	2b40      	cmp	r3, #64	@ 0x40
 800725a:	d009      	beq.n	8007270 <USBD_StdItfReq+0x28>
 800725c:	2180      	movs	r1, #128	@ 0x80
 800725e:	0020      	movs	r0, r4
 8007260:	f000 fbd0 	bl	8007a04 <USBD_LL_StallEP>
 8007264:	2100      	movs	r1, #0
 8007266:	0020      	movs	r0, r4
 8007268:	f000 fbcc 	bl	8007a04 <USBD_LL_StallEP>
 800726c:	2000      	movs	r0, #0
 800726e:	bd70      	pop	{r4, r5, r6, pc}
 8007270:	23a7      	movs	r3, #167	@ 0xa7
 8007272:	009b      	lsls	r3, r3, #2
 8007274:	5ce3      	ldrb	r3, [r4, r3]
 8007276:	3b01      	subs	r3, #1
 8007278:	2b02      	cmp	r3, #2
 800727a:	d8ef      	bhi.n	800725c <USBD_StdItfReq+0x14>
 800727c:	792b      	ldrb	r3, [r5, #4]
 800727e:	2b01      	cmp	r3, #1
 8007280:	d8ec      	bhi.n	800725c <USBD_StdItfReq+0x14>
 8007282:	23ad      	movs	r3, #173	@ 0xad
 8007284:	009b      	lsls	r3, r3, #2
 8007286:	58e3      	ldr	r3, [r4, r3]
 8007288:	0029      	movs	r1, r5
 800728a:	689b      	ldr	r3, [r3, #8]
 800728c:	0020      	movs	r0, r4
 800728e:	4798      	blx	r3
 8007290:	88eb      	ldrh	r3, [r5, #6]
 8007292:	2b00      	cmp	r3, #0
 8007294:	d1ea      	bne.n	800726c <USBD_StdItfReq+0x24>
 8007296:	2800      	cmp	r0, #0
 8007298:	d1e8      	bne.n	800726c <USBD_StdItfReq+0x24>
 800729a:	0020      	movs	r0, r4
 800729c:	f000 f91e 	bl	80074dc <USBD_CtlSendStatus>
 80072a0:	e7e4      	b.n	800726c <USBD_StdItfReq+0x24>
 80072a2:	46c0      	nop			@ (mov r8, r8)

080072a4 <USBD_StdEPReq>:
 80072a4:	2360      	movs	r3, #96	@ 0x60
 80072a6:	780a      	ldrb	r2, [r1, #0]
 80072a8:	b570      	push	{r4, r5, r6, lr}
 80072aa:	4013      	ands	r3, r2
 80072ac:	001c      	movs	r4, r3
 80072ae:	22c0      	movs	r2, #192	@ 0xc0
 80072b0:	3c20      	subs	r4, #32
 80072b2:	0005      	movs	r5, r0
 80072b4:	8888      	ldrh	r0, [r1, #4]
 80072b6:	4214      	tst	r4, r2
 80072b8:	d00b      	beq.n	80072d2 <USBD_StdEPReq+0x2e>
 80072ba:	2b00      	cmp	r3, #0
 80072bc:	d010      	beq.n	80072e0 <USBD_StdEPReq+0x3c>
 80072be:	2180      	movs	r1, #128	@ 0x80
 80072c0:	0028      	movs	r0, r5
 80072c2:	f000 fb9f 	bl	8007a04 <USBD_LL_StallEP>
 80072c6:	2100      	movs	r1, #0
 80072c8:	0028      	movs	r0, r5
 80072ca:	f000 fb9b 	bl	8007a04 <USBD_LL_StallEP>
 80072ce:	2000      	movs	r0, #0
 80072d0:	bd70      	pop	{r4, r5, r6, pc}
 80072d2:	23ad      	movs	r3, #173	@ 0xad
 80072d4:	009b      	lsls	r3, r3, #2
 80072d6:	58eb      	ldr	r3, [r5, r3]
 80072d8:	0028      	movs	r0, r5
 80072da:	689b      	ldr	r3, [r3, #8]
 80072dc:	4798      	blx	r3
 80072de:	e7f6      	b.n	80072ce <USBD_StdEPReq+0x2a>
 80072e0:	784b      	ldrb	r3, [r1, #1]
 80072e2:	b2c2      	uxtb	r2, r0
 80072e4:	2b01      	cmp	r3, #1
 80072e6:	d043      	beq.n	8007370 <USBD_StdEPReq+0xcc>
 80072e8:	2b03      	cmp	r3, #3
 80072ea:	d02d      	beq.n	8007348 <USBD_StdEPReq+0xa4>
 80072ec:	2b00      	cmp	r3, #0
 80072ee:	d1e6      	bne.n	80072be <USBD_StdEPReq+0x1a>
 80072f0:	23a7      	movs	r3, #167	@ 0xa7
 80072f2:	009b      	lsls	r3, r3, #2
 80072f4:	5ceb      	ldrb	r3, [r5, r3]
 80072f6:	2b02      	cmp	r3, #2
 80072f8:	d056      	beq.n	80073a8 <USBD_StdEPReq+0x104>
 80072fa:	2b03      	cmp	r3, #3
 80072fc:	d1df      	bne.n	80072be <USBD_StdEPReq+0x1a>
 80072fe:	210f      	movs	r1, #15
 8007300:	4011      	ands	r1, r2
 8007302:	008b      	lsls	r3, r1, #2
 8007304:	185b      	adds	r3, r3, r1
 8007306:	009b      	lsls	r3, r3, #2
 8007308:	18eb      	adds	r3, r5, r3
 800730a:	0600      	lsls	r0, r0, #24
 800730c:	d45d      	bmi.n	80073ca <USBD_StdEPReq+0x126>
 800730e:	3359      	adds	r3, #89	@ 0x59
 8007310:	33ff      	adds	r3, #255	@ 0xff
 8007312:	681b      	ldr	r3, [r3, #0]
 8007314:	2b00      	cmp	r3, #0
 8007316:	d0d2      	beq.n	80072be <USBD_StdEPReq+0x1a>
 8007318:	237f      	movs	r3, #127	@ 0x7f
 800731a:	4013      	ands	r3, r2
 800731c:	009c      	lsls	r4, r3, #2
 800731e:	18e4      	adds	r4, r4, r3
 8007320:	00a4      	lsls	r4, r4, #2
 8007322:	3455      	adds	r4, #85	@ 0x55
 8007324:	34ff      	adds	r4, #255	@ 0xff
 8007326:	192c      	adds	r4, r5, r4
 8007328:	2b00      	cmp	r3, #0
 800732a:	d05a      	beq.n	80073e2 <USBD_StdEPReq+0x13e>
 800732c:	0011      	movs	r1, r2
 800732e:	0028      	movs	r0, r5
 8007330:	f000 fb84 	bl	8007a3c <USBD_LL_IsStallEP>
 8007334:	2800      	cmp	r0, #0
 8007336:	d054      	beq.n	80073e2 <USBD_StdEPReq+0x13e>
 8007338:	2301      	movs	r3, #1
 800733a:	2202      	movs	r2, #2
 800733c:	0021      	movs	r1, r4
 800733e:	0028      	movs	r0, r5
 8007340:	6023      	str	r3, [r4, #0]
 8007342:	f000 f89b 	bl	800747c <USBD_CtlSendData>
 8007346:	e7c2      	b.n	80072ce <USBD_StdEPReq+0x2a>
 8007348:	23a7      	movs	r3, #167	@ 0xa7
 800734a:	009b      	lsls	r3, r3, #2
 800734c:	5ceb      	ldrb	r3, [r5, r3]
 800734e:	2b02      	cmp	r3, #2
 8007350:	d01e      	beq.n	8007390 <USBD_StdEPReq+0xec>
 8007352:	2b03      	cmp	r3, #3
 8007354:	d1b3      	bne.n	80072be <USBD_StdEPReq+0x1a>
 8007356:	884b      	ldrh	r3, [r1, #2]
 8007358:	2b00      	cmp	r3, #0
 800735a:	d115      	bne.n	8007388 <USBD_StdEPReq+0xe4>
 800735c:	0653      	lsls	r3, r2, #25
 800735e:	d013      	beq.n	8007388 <USBD_StdEPReq+0xe4>
 8007360:	88cb      	ldrh	r3, [r1, #6]
 8007362:	2b00      	cmp	r3, #0
 8007364:	d110      	bne.n	8007388 <USBD_StdEPReq+0xe4>
 8007366:	0011      	movs	r1, r2
 8007368:	0028      	movs	r0, r5
 800736a:	f000 fb4b 	bl	8007a04 <USBD_LL_StallEP>
 800736e:	e00b      	b.n	8007388 <USBD_StdEPReq+0xe4>
 8007370:	23a7      	movs	r3, #167	@ 0xa7
 8007372:	009b      	lsls	r3, r3, #2
 8007374:	5ceb      	ldrb	r3, [r5, r3]
 8007376:	2b02      	cmp	r3, #2
 8007378:	d00a      	beq.n	8007390 <USBD_StdEPReq+0xec>
 800737a:	2b03      	cmp	r3, #3
 800737c:	d19f      	bne.n	80072be <USBD_StdEPReq+0x1a>
 800737e:	884b      	ldrh	r3, [r1, #2]
 8007380:	2b00      	cmp	r3, #0
 8007382:	d1a4      	bne.n	80072ce <USBD_StdEPReq+0x2a>
 8007384:	0653      	lsls	r3, r2, #25
 8007386:	d12e      	bne.n	80073e6 <USBD_StdEPReq+0x142>
 8007388:	0028      	movs	r0, r5
 800738a:	f000 f8a7 	bl	80074dc <USBD_CtlSendStatus>
 800738e:	e79e      	b.n	80072ce <USBD_StdEPReq+0x2a>
 8007390:	0653      	lsls	r3, r2, #25
 8007392:	d100      	bne.n	8007396 <USBD_StdEPReq+0xf2>
 8007394:	e793      	b.n	80072be <USBD_StdEPReq+0x1a>
 8007396:	0011      	movs	r1, r2
 8007398:	0028      	movs	r0, r5
 800739a:	f000 fb33 	bl	8007a04 <USBD_LL_StallEP>
 800739e:	2180      	movs	r1, #128	@ 0x80
 80073a0:	0028      	movs	r0, r5
 80073a2:	f000 fb2f 	bl	8007a04 <USBD_LL_StallEP>
 80073a6:	e792      	b.n	80072ce <USBD_StdEPReq+0x2a>
 80073a8:	0652      	lsls	r2, r2, #25
 80073aa:	d000      	beq.n	80073ae <USBD_StdEPReq+0x10a>
 80073ac:	e787      	b.n	80072be <USBD_StdEPReq+0x1a>
 80073ae:	0029      	movs	r1, r5
 80073b0:	3155      	adds	r1, #85	@ 0x55
 80073b2:	31ff      	adds	r1, #255	@ 0xff
 80073b4:	0600      	lsls	r0, r0, #24
 80073b6:	d501      	bpl.n	80073bc <USBD_StdEPReq+0x118>
 80073b8:	3941      	subs	r1, #65	@ 0x41
 80073ba:	39ff      	subs	r1, #255	@ 0xff
 80073bc:	2300      	movs	r3, #0
 80073be:	2202      	movs	r2, #2
 80073c0:	0028      	movs	r0, r5
 80073c2:	600b      	str	r3, [r1, #0]
 80073c4:	f000 f85a 	bl	800747c <USBD_CtlSendData>
 80073c8:	e781      	b.n	80072ce <USBD_StdEPReq+0x2a>
 80073ca:	699b      	ldr	r3, [r3, #24]
 80073cc:	2b00      	cmp	r3, #0
 80073ce:	d100      	bne.n	80073d2 <USBD_StdEPReq+0x12e>
 80073d0:	e775      	b.n	80072be <USBD_StdEPReq+0x1a>
 80073d2:	237f      	movs	r3, #127	@ 0x7f
 80073d4:	4013      	ands	r3, r2
 80073d6:	1c59      	adds	r1, r3, #1
 80073d8:	008c      	lsls	r4, r1, #2
 80073da:	1864      	adds	r4, r4, r1
 80073dc:	00a4      	lsls	r4, r4, #2
 80073de:	192c      	adds	r4, r5, r4
 80073e0:	e7a2      	b.n	8007328 <USBD_StdEPReq+0x84>
 80073e2:	2300      	movs	r3, #0
 80073e4:	e7a9      	b.n	800733a <USBD_StdEPReq+0x96>
 80073e6:	0011      	movs	r1, r2
 80073e8:	0028      	movs	r0, r5
 80073ea:	f000 fb19 	bl	8007a20 <USBD_LL_ClearStallEP>
 80073ee:	e7cb      	b.n	8007388 <USBD_StdEPReq+0xe4>

080073f0 <USBD_ParseSetupRequest>:
 80073f0:	780b      	ldrb	r3, [r1, #0]
 80073f2:	7003      	strb	r3, [r0, #0]
 80073f4:	784b      	ldrb	r3, [r1, #1]
 80073f6:	7043      	strb	r3, [r0, #1]
 80073f8:	78cb      	ldrb	r3, [r1, #3]
 80073fa:	788a      	ldrb	r2, [r1, #2]
 80073fc:	021b      	lsls	r3, r3, #8
 80073fe:	4313      	orrs	r3, r2
 8007400:	8043      	strh	r3, [r0, #2]
 8007402:	794b      	ldrb	r3, [r1, #5]
 8007404:	790a      	ldrb	r2, [r1, #4]
 8007406:	021b      	lsls	r3, r3, #8
 8007408:	4313      	orrs	r3, r2
 800740a:	8083      	strh	r3, [r0, #4]
 800740c:	79cb      	ldrb	r3, [r1, #7]
 800740e:	798a      	ldrb	r2, [r1, #6]
 8007410:	021b      	lsls	r3, r3, #8
 8007412:	4313      	orrs	r3, r2
 8007414:	80c3      	strh	r3, [r0, #6]
 8007416:	4770      	bx	lr

08007418 <USBD_CtlError>:
 8007418:	b510      	push	{r4, lr}
 800741a:	0004      	movs	r4, r0
 800741c:	2180      	movs	r1, #128	@ 0x80
 800741e:	f000 faf1 	bl	8007a04 <USBD_LL_StallEP>
 8007422:	2100      	movs	r1, #0
 8007424:	0020      	movs	r0, r4
 8007426:	f000 faed 	bl	8007a04 <USBD_LL_StallEP>
 800742a:	bd10      	pop	{r4, pc}

0800742c <USBD_GetString>:
 800742c:	b570      	push	{r4, r5, r6, lr}
 800742e:	0004      	movs	r4, r0
 8007430:	000d      	movs	r5, r1
 8007432:	0016      	movs	r6, r2
 8007434:	2800      	cmp	r0, #0
 8007436:	d01d      	beq.n	8007474 <USBD_GetString+0x48>
 8007438:	7803      	ldrb	r3, [r0, #0]
 800743a:	2b00      	cmp	r3, #0
 800743c:	d01b      	beq.n	8007476 <USBD_GetString+0x4a>
 800743e:	3001      	adds	r0, #1
 8007440:	f7f8 fe62 	bl	8000108 <strlen>
 8007444:	3001      	adds	r0, #1
 8007446:	b2c3      	uxtb	r3, r0
 8007448:	3301      	adds	r3, #1
 800744a:	005b      	lsls	r3, r3, #1
 800744c:	b2da      	uxtb	r2, r3
 800744e:	8033      	strh	r3, [r6, #0]
 8007450:	2303      	movs	r3, #3
 8007452:	702a      	strb	r2, [r5, #0]
 8007454:	706b      	strb	r3, [r5, #1]
 8007456:	7820      	ldrb	r0, [r4, #0]
 8007458:	2800      	cmp	r0, #0
 800745a:	d00b      	beq.n	8007474 <USBD_GetString+0x48>
 800745c:	2100      	movs	r1, #0
 800745e:	3b01      	subs	r3, #1
 8007460:	1c5a      	adds	r2, r3, #1
 8007462:	b2d2      	uxtb	r2, r2
 8007464:	54e8      	strb	r0, [r5, r3]
 8007466:	3401      	adds	r4, #1
 8007468:	54a9      	strb	r1, [r5, r2]
 800746a:	7820      	ldrb	r0, [r4, #0]
 800746c:	3302      	adds	r3, #2
 800746e:	b2db      	uxtb	r3, r3
 8007470:	2800      	cmp	r0, #0
 8007472:	d1f5      	bne.n	8007460 <USBD_GetString+0x34>
 8007474:	bd70      	pop	{r4, r5, r6, pc}
 8007476:	2202      	movs	r2, #2
 8007478:	2302      	movs	r3, #2
 800747a:	e7e8      	b.n	800744e <USBD_GetString+0x22>

0800747c <USBD_CtlSendData>:
 800747c:	0013      	movs	r3, r2
 800747e:	22a5      	movs	r2, #165	@ 0xa5
 8007480:	b510      	push	{r4, lr}
 8007482:	2402      	movs	r4, #2
 8007484:	0092      	lsls	r2, r2, #2
 8007486:	5084      	str	r4, [r0, r2]
 8007488:	000a      	movs	r2, r1
 800748a:	61c3      	str	r3, [r0, #28]
 800748c:	2100      	movs	r1, #0
 800748e:	6203      	str	r3, [r0, #32]
 8007490:	f000 faf8 	bl	8007a84 <USBD_LL_Transmit>
 8007494:	2000      	movs	r0, #0
 8007496:	bd10      	pop	{r4, pc}

08007498 <USBD_CtlContinueSendData>:
 8007498:	b510      	push	{r4, lr}
 800749a:	0013      	movs	r3, r2
 800749c:	000a      	movs	r2, r1
 800749e:	2100      	movs	r1, #0
 80074a0:	f000 faf0 	bl	8007a84 <USBD_LL_Transmit>
 80074a4:	2000      	movs	r0, #0
 80074a6:	bd10      	pop	{r4, pc}

080074a8 <USBD_CtlPrepareRx>:
 80074a8:	0013      	movs	r3, r2
 80074aa:	22a5      	movs	r2, #165	@ 0xa5
 80074ac:	b510      	push	{r4, lr}
 80074ae:	2403      	movs	r4, #3
 80074b0:	0092      	lsls	r2, r2, #2
 80074b2:	5084      	str	r4, [r0, r2]
 80074b4:	3a39      	subs	r2, #57	@ 0x39
 80074b6:	3aff      	subs	r2, #255	@ 0xff
 80074b8:	5083      	str	r3, [r0, r2]
 80074ba:	3204      	adds	r2, #4
 80074bc:	5083      	str	r3, [r0, r2]
 80074be:	000a      	movs	r2, r1
 80074c0:	2100      	movs	r1, #0
 80074c2:	f000 faed 	bl	8007aa0 <USBD_LL_PrepareReceive>
 80074c6:	2000      	movs	r0, #0
 80074c8:	bd10      	pop	{r4, pc}
 80074ca:	46c0      	nop			@ (mov r8, r8)

080074cc <USBD_CtlContinueRx>:
 80074cc:	b510      	push	{r4, lr}
 80074ce:	0013      	movs	r3, r2
 80074d0:	000a      	movs	r2, r1
 80074d2:	2100      	movs	r1, #0
 80074d4:	f000 fae4 	bl	8007aa0 <USBD_LL_PrepareReceive>
 80074d8:	2000      	movs	r0, #0
 80074da:	bd10      	pop	{r4, pc}

080074dc <USBD_CtlSendStatus>:
 80074dc:	23a5      	movs	r3, #165	@ 0xa5
 80074de:	2204      	movs	r2, #4
 80074e0:	b510      	push	{r4, lr}
 80074e2:	009b      	lsls	r3, r3, #2
 80074e4:	50c2      	str	r2, [r0, r3]
 80074e6:	2100      	movs	r1, #0
 80074e8:	2300      	movs	r3, #0
 80074ea:	2200      	movs	r2, #0
 80074ec:	f000 faca 	bl	8007a84 <USBD_LL_Transmit>
 80074f0:	2000      	movs	r0, #0
 80074f2:	bd10      	pop	{r4, pc}

080074f4 <USBD_CtlReceiveStatus>:
 80074f4:	23a5      	movs	r3, #165	@ 0xa5
 80074f6:	2205      	movs	r2, #5
 80074f8:	b510      	push	{r4, lr}
 80074fa:	009b      	lsls	r3, r3, #2
 80074fc:	50c2      	str	r2, [r0, r3]
 80074fe:	2100      	movs	r1, #0
 8007500:	2300      	movs	r3, #0
 8007502:	2200      	movs	r2, #0
 8007504:	f000 facc 	bl	8007aa0 <USBD_LL_PrepareReceive>
 8007508:	2000      	movs	r0, #0
 800750a:	bd10      	pop	{r4, pc}

0800750c <MX_USB_DEVICE_Init>:
 800750c:	b510      	push	{r4, lr}
 800750e:	4c1a      	ldr	r4, [pc, #104]	@ (8007578 <MX_USB_DEVICE_Init+0x6c>)
 8007510:	2200      	movs	r2, #0
 8007512:	0020      	movs	r0, r4
 8007514:	4919      	ldr	r1, [pc, #100]	@ (800757c <MX_USB_DEVICE_Init+0x70>)
 8007516:	f7ff fba3 	bl	8006c60 <USBD_Init>
 800751a:	2800      	cmp	r0, #0
 800751c:	d111      	bne.n	8007542 <MX_USB_DEVICE_Init+0x36>
 800751e:	0020      	movs	r0, r4
 8007520:	4917      	ldr	r1, [pc, #92]	@ (8007580 <MX_USB_DEVICE_Init+0x74>)
 8007522:	f7ff fbb7 	bl	8006c94 <USBD_RegisterClass>
 8007526:	2800      	cmp	r0, #0
 8007528:	d113      	bne.n	8007552 <MX_USB_DEVICE_Init+0x46>
 800752a:	0020      	movs	r0, r4
 800752c:	4915      	ldr	r1, [pc, #84]	@ (8007584 <MX_USB_DEVICE_Init+0x78>)
 800752e:	f7ff fb41 	bl	8006bb4 <USBD_CDC_RegisterInterface>
 8007532:	2800      	cmp	r0, #0
 8007534:	d115      	bne.n	8007562 <MX_USB_DEVICE_Init+0x56>
 8007536:	0020      	movs	r0, r4
 8007538:	f7ff fbb6 	bl	8006ca8 <USBD_Start>
 800753c:	2800      	cmp	r0, #0
 800753e:	d117      	bne.n	8007570 <MX_USB_DEVICE_Init+0x64>
 8007540:	bd10      	pop	{r4, pc}
 8007542:	f7f9 fd07 	bl	8000f54 <Error_Handler>
 8007546:	0020      	movs	r0, r4
 8007548:	490d      	ldr	r1, [pc, #52]	@ (8007580 <MX_USB_DEVICE_Init+0x74>)
 800754a:	f7ff fba3 	bl	8006c94 <USBD_RegisterClass>
 800754e:	2800      	cmp	r0, #0
 8007550:	d0eb      	beq.n	800752a <MX_USB_DEVICE_Init+0x1e>
 8007552:	f7f9 fcff 	bl	8000f54 <Error_Handler>
 8007556:	0020      	movs	r0, r4
 8007558:	490a      	ldr	r1, [pc, #40]	@ (8007584 <MX_USB_DEVICE_Init+0x78>)
 800755a:	f7ff fb2b 	bl	8006bb4 <USBD_CDC_RegisterInterface>
 800755e:	2800      	cmp	r0, #0
 8007560:	d0e9      	beq.n	8007536 <MX_USB_DEVICE_Init+0x2a>
 8007562:	f7f9 fcf7 	bl	8000f54 <Error_Handler>
 8007566:	0020      	movs	r0, r4
 8007568:	f7ff fb9e 	bl	8006ca8 <USBD_Start>
 800756c:	2800      	cmp	r0, #0
 800756e:	d0e7      	beq.n	8007540 <MX_USB_DEVICE_Init+0x34>
 8007570:	f7f9 fcf0 	bl	8000f54 <Error_Handler>
 8007574:	e7e4      	b.n	8007540 <MX_USB_DEVICE_Init+0x34>
 8007576:	46c0      	nop			@ (mov r8, r8)
 8007578:	2000245c 	.word	0x2000245c
 800757c:	20000174 	.word	0x20000174
 8007580:	200000ec 	.word	0x200000ec
 8007584:	20000130 	.word	0x20000130

08007588 <CDC_DeInit_FS>:
 8007588:	2000      	movs	r0, #0
 800758a:	4770      	bx	lr

0800758c <CDC_Control_FS>:
 800758c:	2000      	movs	r0, #0
 800758e:	4770      	bx	lr

08007590 <CDC_Receive_FS>:
 8007590:	b570      	push	{r4, r5, r6, lr}
 8007592:	000e      	movs	r6, r1
 8007594:	0004      	movs	r4, r0
 8007596:	4d0f      	ldr	r5, [pc, #60]	@ (80075d4 <CDC_Receive_FS+0x44>)
 8007598:	0001      	movs	r1, r0
 800759a:	0028      	movs	r0, r5
 800759c:	f7ff fb20 	bl	8006be0 <USBD_CDC_SetRxBuffer>
 80075a0:	0028      	movs	r0, r5
 80075a2:	f7ff fb43 	bl	8006c2c <USBD_CDC_ReceivePacket>
 80075a6:	4d0c      	ldr	r5, [pc, #48]	@ (80075d8 <CDC_Receive_FS+0x48>)
 80075a8:	2240      	movs	r2, #64	@ 0x40
 80075aa:	0028      	movs	r0, r5
 80075ac:	2100      	movs	r1, #0
 80075ae:	f000 fc5f 	bl	8007e70 <memset>
 80075b2:	7836      	ldrb	r6, [r6, #0]
 80075b4:	0021      	movs	r1, r4
 80075b6:	0032      	movs	r2, r6
 80075b8:	0028      	movs	r0, r5
 80075ba:	f000 fd44 	bl	8008046 <memcpy>
 80075be:	0032      	movs	r2, r6
 80075c0:	2100      	movs	r1, #0
 80075c2:	0020      	movs	r0, r4
 80075c4:	f000 fc54 	bl	8007e70 <memset>
 80075c8:	2201      	movs	r2, #1
 80075ca:	4b04      	ldr	r3, [pc, #16]	@ (80075dc <CDC_Receive_FS+0x4c>)
 80075cc:	2000      	movs	r0, #0
 80075ce:	701a      	strb	r2, [r3, #0]
 80075d0:	bd70      	pop	{r4, r5, r6, pc}
 80075d2:	46c0      	nop			@ (mov r8, r8)
 80075d4:	2000245c 	.word	0x2000245c
 80075d8:	20002410 	.word	0x20002410
 80075dc:	2000216e 	.word	0x2000216e

080075e0 <CDC_Init_FS>:
 80075e0:	b510      	push	{r4, lr}
 80075e2:	4c06      	ldr	r4, [pc, #24]	@ (80075fc <CDC_Init_FS+0x1c>)
 80075e4:	2200      	movs	r2, #0
 80075e6:	0020      	movs	r0, r4
 80075e8:	4905      	ldr	r1, [pc, #20]	@ (8007600 <CDC_Init_FS+0x20>)
 80075ea:	f7ff faed 	bl	8006bc8 <USBD_CDC_SetTxBuffer>
 80075ee:	0020      	movs	r0, r4
 80075f0:	4904      	ldr	r1, [pc, #16]	@ (8007604 <CDC_Init_FS+0x24>)
 80075f2:	f7ff faf5 	bl	8006be0 <USBD_CDC_SetRxBuffer>
 80075f6:	2000      	movs	r0, #0
 80075f8:	bd10      	pop	{r4, pc}
 80075fa:	46c0      	nop			@ (mov r8, r8)
 80075fc:	2000245c 	.word	0x2000245c
 8007600:	20002720 	.word	0x20002720
 8007604:	20002b20 	.word	0x20002b20

08007608 <CDC_Transmit_FS>:
 8007608:	22ae      	movs	r2, #174	@ 0xae
 800760a:	b510      	push	{r4, lr}
 800760c:	4c08      	ldr	r4, [pc, #32]	@ (8007630 <CDC_Transmit_FS+0x28>)
 800760e:	0092      	lsls	r2, r2, #2
 8007610:	0003      	movs	r3, r0
 8007612:	58a0      	ldr	r0, [r4, r2]
 8007614:	3aa4      	subs	r2, #164	@ 0xa4
 8007616:	5882      	ldr	r2, [r0, r2]
 8007618:	2001      	movs	r0, #1
 800761a:	2a00      	cmp	r2, #0
 800761c:	d107      	bne.n	800762e <CDC_Transmit_FS+0x26>
 800761e:	000a      	movs	r2, r1
 8007620:	0020      	movs	r0, r4
 8007622:	0019      	movs	r1, r3
 8007624:	f7ff fad0 	bl	8006bc8 <USBD_CDC_SetTxBuffer>
 8007628:	0020      	movs	r0, r4
 800762a:	f7ff fae1 	bl	8006bf0 <USBD_CDC_TransmitPacket>
 800762e:	bd10      	pop	{r4, pc}
 8007630:	2000245c 	.word	0x2000245c

08007634 <USBD_FS_DeviceDescriptor>:
 8007634:	2312      	movs	r3, #18
 8007636:	4801      	ldr	r0, [pc, #4]	@ (800763c <USBD_FS_DeviceDescriptor+0x8>)
 8007638:	800b      	strh	r3, [r1, #0]
 800763a:	4770      	bx	lr
 800763c:	20000160 	.word	0x20000160

08007640 <USBD_FS_LangIDStrDescriptor>:
 8007640:	2304      	movs	r3, #4
 8007642:	4801      	ldr	r0, [pc, #4]	@ (8007648 <USBD_FS_LangIDStrDescriptor+0x8>)
 8007644:	800b      	strh	r3, [r1, #0]
 8007646:	4770      	bx	lr
 8007648:	2000015c 	.word	0x2000015c

0800764c <USBD_FS_ManufacturerStrDescriptor>:
 800764c:	b510      	push	{r4, lr}
 800764e:	4c04      	ldr	r4, [pc, #16]	@ (8007660 <USBD_FS_ManufacturerStrDescriptor+0x14>)
 8007650:	000a      	movs	r2, r1
 8007652:	0021      	movs	r1, r4
 8007654:	4803      	ldr	r0, [pc, #12]	@ (8007664 <USBD_FS_ManufacturerStrDescriptor+0x18>)
 8007656:	f7ff fee9 	bl	800742c <USBD_GetString>
 800765a:	0020      	movs	r0, r4
 800765c:	bd10      	pop	{r4, pc}
 800765e:	46c0      	nop			@ (mov r8, r8)
 8007660:	20002f20 	.word	0x20002f20
 8007664:	080092c8 	.word	0x080092c8

08007668 <USBD_FS_ProductStrDescriptor>:
 8007668:	b510      	push	{r4, lr}
 800766a:	4c04      	ldr	r4, [pc, #16]	@ (800767c <USBD_FS_ProductStrDescriptor+0x14>)
 800766c:	000a      	movs	r2, r1
 800766e:	0021      	movs	r1, r4
 8007670:	4803      	ldr	r0, [pc, #12]	@ (8007680 <USBD_FS_ProductStrDescriptor+0x18>)
 8007672:	f7ff fedb 	bl	800742c <USBD_GetString>
 8007676:	0020      	movs	r0, r4
 8007678:	bd10      	pop	{r4, pc}
 800767a:	46c0      	nop			@ (mov r8, r8)
 800767c:	20002f20 	.word	0x20002f20
 8007680:	080092dc 	.word	0x080092dc

08007684 <USBD_FS_ConfigStrDescriptor>:
 8007684:	b510      	push	{r4, lr}
 8007686:	4c04      	ldr	r4, [pc, #16]	@ (8007698 <USBD_FS_ConfigStrDescriptor+0x14>)
 8007688:	000a      	movs	r2, r1
 800768a:	0021      	movs	r1, r4
 800768c:	4803      	ldr	r0, [pc, #12]	@ (800769c <USBD_FS_ConfigStrDescriptor+0x18>)
 800768e:	f7ff fecd 	bl	800742c <USBD_GetString>
 8007692:	0020      	movs	r0, r4
 8007694:	bd10      	pop	{r4, pc}
 8007696:	46c0      	nop			@ (mov r8, r8)
 8007698:	20002f20 	.word	0x20002f20
 800769c:	080092f4 	.word	0x080092f4

080076a0 <USBD_FS_InterfaceStrDescriptor>:
 80076a0:	b510      	push	{r4, lr}
 80076a2:	4c04      	ldr	r4, [pc, #16]	@ (80076b4 <USBD_FS_InterfaceStrDescriptor+0x14>)
 80076a4:	000a      	movs	r2, r1
 80076a6:	0021      	movs	r1, r4
 80076a8:	4803      	ldr	r0, [pc, #12]	@ (80076b8 <USBD_FS_InterfaceStrDescriptor+0x18>)
 80076aa:	f7ff febf 	bl	800742c <USBD_GetString>
 80076ae:	0020      	movs	r0, r4
 80076b0:	bd10      	pop	{r4, pc}
 80076b2:	46c0      	nop			@ (mov r8, r8)
 80076b4:	20002f20 	.word	0x20002f20
 80076b8:	08009300 	.word	0x08009300

080076bc <USBD_FS_SerialStrDescriptor>:
 80076bc:	231a      	movs	r3, #26
 80076be:	b530      	push	{r4, r5, lr}
 80076c0:	4a52      	ldr	r2, [pc, #328]	@ (800780c <USBD_FS_SerialStrDescriptor+0x150>)
 80076c2:	800b      	strh	r3, [r1, #0]
 80076c4:	4b52      	ldr	r3, [pc, #328]	@ (8007810 <USBD_FS_SerialStrDescriptor+0x154>)
 80076c6:	6812      	ldr	r2, [r2, #0]
 80076c8:	681b      	ldr	r3, [r3, #0]
 80076ca:	189b      	adds	r3, r3, r2
 80076cc:	2b00      	cmp	r3, #0
 80076ce:	d101      	bne.n	80076d4 <USBD_FS_SerialStrDescriptor+0x18>
 80076d0:	4850      	ldr	r0, [pc, #320]	@ (8007814 <USBD_FS_SerialStrDescriptor+0x158>)
 80076d2:	bd30      	pop	{r4, r5, pc}
 80076d4:	0f19      	lsrs	r1, r3, #28
 80076d6:	000c      	movs	r4, r1
 80076d8:	4a4f      	ldr	r2, [pc, #316]	@ (8007818 <USBD_FS_SerialStrDescriptor+0x15c>)
 80076da:	0008      	movs	r0, r1
 80076dc:	6812      	ldr	r2, [r2, #0]
 80076de:	3430      	adds	r4, #48	@ 0x30
 80076e0:	2909      	cmp	r1, #9
 80076e2:	d900      	bls.n	80076e6 <USBD_FS_SerialStrDescriptor+0x2a>
 80076e4:	e086      	b.n	80077f4 <USBD_FS_SerialStrDescriptor+0x138>
 80076e6:	2100      	movs	r1, #0
 80076e8:	484a      	ldr	r0, [pc, #296]	@ (8007814 <USBD_FS_SerialStrDescriptor+0x158>)
 80076ea:	70c1      	strb	r1, [r0, #3]
 80076ec:	0119      	lsls	r1, r3, #4
 80076ee:	0f0d      	lsrs	r5, r1, #28
 80076f0:	7084      	strb	r4, [r0, #2]
 80076f2:	002c      	movs	r4, r5
 80076f4:	0029      	movs	r1, r5
 80076f6:	3430      	adds	r4, #48	@ 0x30
 80076f8:	2d09      	cmp	r5, #9
 80076fa:	d878      	bhi.n	80077ee <USBD_FS_SerialStrDescriptor+0x132>
 80076fc:	2100      	movs	r1, #0
 80076fe:	7141      	strb	r1, [r0, #5]
 8007700:	0219      	lsls	r1, r3, #8
 8007702:	0f0d      	lsrs	r5, r1, #28
 8007704:	7104      	strb	r4, [r0, #4]
 8007706:	002c      	movs	r4, r5
 8007708:	0029      	movs	r1, r5
 800770a:	3430      	adds	r4, #48	@ 0x30
 800770c:	2d09      	cmp	r5, #9
 800770e:	d86b      	bhi.n	80077e8 <USBD_FS_SerialStrDescriptor+0x12c>
 8007710:	2100      	movs	r1, #0
 8007712:	71c1      	strb	r1, [r0, #7]
 8007714:	0319      	lsls	r1, r3, #12
 8007716:	0f0d      	lsrs	r5, r1, #28
 8007718:	7184      	strb	r4, [r0, #6]
 800771a:	002c      	movs	r4, r5
 800771c:	0029      	movs	r1, r5
 800771e:	3430      	adds	r4, #48	@ 0x30
 8007720:	2d09      	cmp	r5, #9
 8007722:	d85e      	bhi.n	80077e2 <USBD_FS_SerialStrDescriptor+0x126>
 8007724:	2100      	movs	r1, #0
 8007726:	7241      	strb	r1, [r0, #9]
 8007728:	0419      	lsls	r1, r3, #16
 800772a:	0f0d      	lsrs	r5, r1, #28
 800772c:	7204      	strb	r4, [r0, #8]
 800772e:	002c      	movs	r4, r5
 8007730:	0029      	movs	r1, r5
 8007732:	3430      	adds	r4, #48	@ 0x30
 8007734:	2d09      	cmp	r5, #9
 8007736:	d851      	bhi.n	80077dc <USBD_FS_SerialStrDescriptor+0x120>
 8007738:	2100      	movs	r1, #0
 800773a:	72c1      	strb	r1, [r0, #11]
 800773c:	0519      	lsls	r1, r3, #20
 800773e:	0f0d      	lsrs	r5, r1, #28
 8007740:	7284      	strb	r4, [r0, #10]
 8007742:	002c      	movs	r4, r5
 8007744:	0029      	movs	r1, r5
 8007746:	3430      	adds	r4, #48	@ 0x30
 8007748:	2d09      	cmp	r5, #9
 800774a:	d844      	bhi.n	80077d6 <USBD_FS_SerialStrDescriptor+0x11a>
 800774c:	2100      	movs	r1, #0
 800774e:	7341      	strb	r1, [r0, #13]
 8007750:	0619      	lsls	r1, r3, #24
 8007752:	0f0d      	lsrs	r5, r1, #28
 8007754:	7304      	strb	r4, [r0, #12]
 8007756:	002c      	movs	r4, r5
 8007758:	0029      	movs	r1, r5
 800775a:	3430      	adds	r4, #48	@ 0x30
 800775c:	2d09      	cmp	r5, #9
 800775e:	d837      	bhi.n	80077d0 <USBD_FS_SerialStrDescriptor+0x114>
 8007760:	2100      	movs	r1, #0
 8007762:	73c1      	strb	r1, [r0, #15]
 8007764:	310f      	adds	r1, #15
 8007766:	7384      	strb	r4, [r0, #14]
 8007768:	000c      	movs	r4, r1
 800776a:	401c      	ands	r4, r3
 800776c:	0023      	movs	r3, r4
 800776e:	3337      	adds	r3, #55	@ 0x37
 8007770:	2c09      	cmp	r4, #9
 8007772:	d800      	bhi.n	8007776 <USBD_FS_SerialStrDescriptor+0xba>
 8007774:	3b07      	subs	r3, #7
 8007776:	7403      	strb	r3, [r0, #16]
 8007778:	2300      	movs	r3, #0
 800777a:	7443      	strb	r3, [r0, #17]
 800777c:	0f13      	lsrs	r3, r2, #28
 800777e:	001c      	movs	r4, r3
 8007780:	0019      	movs	r1, r3
 8007782:	3430      	adds	r4, #48	@ 0x30
 8007784:	2b09      	cmp	r3, #9
 8007786:	d838      	bhi.n	80077fa <USBD_FS_SerialStrDescriptor+0x13e>
 8007788:	2300      	movs	r3, #0
 800778a:	74c3      	strb	r3, [r0, #19]
 800778c:	0113      	lsls	r3, r2, #4
 800778e:	7484      	strb	r4, [r0, #18]
 8007790:	0f1c      	lsrs	r4, r3, #28
 8007792:	0021      	movs	r1, r4
 8007794:	0023      	movs	r3, r4
 8007796:	3130      	adds	r1, #48	@ 0x30
 8007798:	2c09      	cmp	r4, #9
 800779a:	d831      	bhi.n	8007800 <USBD_FS_SerialStrDescriptor+0x144>
 800779c:	2300      	movs	r3, #0
 800779e:	7543      	strb	r3, [r0, #21]
 80077a0:	0213      	lsls	r3, r2, #8
 80077a2:	0f1c      	lsrs	r4, r3, #28
 80077a4:	7501      	strb	r1, [r0, #20]
 80077a6:	0021      	movs	r1, r4
 80077a8:	0023      	movs	r3, r4
 80077aa:	3130      	adds	r1, #48	@ 0x30
 80077ac:	2c09      	cmp	r4, #9
 80077ae:	d82a      	bhi.n	8007806 <USBD_FS_SerialStrDescriptor+0x14a>
 80077b0:	2300      	movs	r3, #0
 80077b2:	75c3      	strb	r3, [r0, #23]
 80077b4:	0313      	lsls	r3, r2, #12
 80077b6:	7581      	strb	r1, [r0, #22]
 80077b8:	0f19      	lsrs	r1, r3, #28
 80077ba:	000a      	movs	r2, r1
 80077bc:	000b      	movs	r3, r1
 80077be:	3237      	adds	r2, #55	@ 0x37
 80077c0:	2909      	cmp	r1, #9
 80077c2:	d801      	bhi.n	80077c8 <USBD_FS_SerialStrDescriptor+0x10c>
 80077c4:	3330      	adds	r3, #48	@ 0x30
 80077c6:	001a      	movs	r2, r3
 80077c8:	2300      	movs	r3, #0
 80077ca:	7602      	strb	r2, [r0, #24]
 80077cc:	7643      	strb	r3, [r0, #25]
 80077ce:	e780      	b.n	80076d2 <USBD_FS_SerialStrDescriptor+0x16>
 80077d0:	3137      	adds	r1, #55	@ 0x37
 80077d2:	000c      	movs	r4, r1
 80077d4:	e7c4      	b.n	8007760 <USBD_FS_SerialStrDescriptor+0xa4>
 80077d6:	3137      	adds	r1, #55	@ 0x37
 80077d8:	000c      	movs	r4, r1
 80077da:	e7b7      	b.n	800774c <USBD_FS_SerialStrDescriptor+0x90>
 80077dc:	3137      	adds	r1, #55	@ 0x37
 80077de:	000c      	movs	r4, r1
 80077e0:	e7aa      	b.n	8007738 <USBD_FS_SerialStrDescriptor+0x7c>
 80077e2:	3137      	adds	r1, #55	@ 0x37
 80077e4:	000c      	movs	r4, r1
 80077e6:	e79d      	b.n	8007724 <USBD_FS_SerialStrDescriptor+0x68>
 80077e8:	3137      	adds	r1, #55	@ 0x37
 80077ea:	000c      	movs	r4, r1
 80077ec:	e790      	b.n	8007710 <USBD_FS_SerialStrDescriptor+0x54>
 80077ee:	3137      	adds	r1, #55	@ 0x37
 80077f0:	000c      	movs	r4, r1
 80077f2:	e783      	b.n	80076fc <USBD_FS_SerialStrDescriptor+0x40>
 80077f4:	3037      	adds	r0, #55	@ 0x37
 80077f6:	0004      	movs	r4, r0
 80077f8:	e775      	b.n	80076e6 <USBD_FS_SerialStrDescriptor+0x2a>
 80077fa:	3137      	adds	r1, #55	@ 0x37
 80077fc:	000c      	movs	r4, r1
 80077fe:	e7c3      	b.n	8007788 <USBD_FS_SerialStrDescriptor+0xcc>
 8007800:	3337      	adds	r3, #55	@ 0x37
 8007802:	0019      	movs	r1, r3
 8007804:	e7ca      	b.n	800779c <USBD_FS_SerialStrDescriptor+0xe0>
 8007806:	3337      	adds	r3, #55	@ 0x37
 8007808:	0019      	movs	r1, r3
 800780a:	e7d1      	b.n	80077b0 <USBD_FS_SerialStrDescriptor+0xf4>
 800780c:	1ffff7b4 	.word	0x1ffff7b4
 8007810:	1ffff7ac 	.word	0x1ffff7ac
 8007814:	20000140 	.word	0x20000140
 8007818:	1ffff7b0 	.word	0x1ffff7b0

0800781c <HAL_PCD_MspInit>:
 800781c:	b500      	push	{lr}
 800781e:	4b0d      	ldr	r3, [pc, #52]	@ (8007854 <HAL_PCD_MspInit+0x38>)
 8007820:	6802      	ldr	r2, [r0, #0]
 8007822:	b083      	sub	sp, #12
 8007824:	429a      	cmp	r2, r3
 8007826:	d001      	beq.n	800782c <HAL_PCD_MspInit+0x10>
 8007828:	b003      	add	sp, #12
 800782a:	bd00      	pop	{pc}
 800782c:	2180      	movs	r1, #128	@ 0x80
 800782e:	4b0a      	ldr	r3, [pc, #40]	@ (8007858 <HAL_PCD_MspInit+0x3c>)
 8007830:	0409      	lsls	r1, r1, #16
 8007832:	69da      	ldr	r2, [r3, #28]
 8007834:	201f      	movs	r0, #31
 8007836:	430a      	orrs	r2, r1
 8007838:	61da      	str	r2, [r3, #28]
 800783a:	69db      	ldr	r3, [r3, #28]
 800783c:	2200      	movs	r2, #0
 800783e:	400b      	ands	r3, r1
 8007840:	9301      	str	r3, [sp, #4]
 8007842:	2100      	movs	r1, #0
 8007844:	9b01      	ldr	r3, [sp, #4]
 8007846:	f7fb fa95 	bl	8002d74 <HAL_NVIC_SetPriority>
 800784a:	201f      	movs	r0, #31
 800784c:	f7fb fabc 	bl	8002dc8 <HAL_NVIC_EnableIRQ>
 8007850:	e7ea      	b.n	8007828 <HAL_PCD_MspInit+0xc>
 8007852:	46c0      	nop			@ (mov r8, r8)
 8007854:	40005c00 	.word	0x40005c00
 8007858:	40021000 	.word	0x40021000

0800785c <HAL_PCD_SetupStageCallback>:
 800785c:	23a6      	movs	r3, #166	@ 0xa6
 800785e:	b510      	push	{r4, lr}
 8007860:	009b      	lsls	r3, r3, #2
 8007862:	18c1      	adds	r1, r0, r3
 8007864:	3340      	adds	r3, #64	@ 0x40
 8007866:	58c0      	ldr	r0, [r0, r3]
 8007868:	f7ff fa3a 	bl	8006ce0 <USBD_LL_SetupStage>
 800786c:	bd10      	pop	{r4, pc}
 800786e:	46c0      	nop			@ (mov r8, r8)

08007870 <HAL_PCD_DataOutStageCallback>:
 8007870:	008b      	lsls	r3, r1, #2
 8007872:	185b      	adds	r3, r3, r1
 8007874:	00db      	lsls	r3, r3, #3
 8007876:	18c3      	adds	r3, r0, r3
 8007878:	3365      	adds	r3, #101	@ 0x65
 800787a:	33ff      	adds	r3, #255	@ 0xff
 800787c:	681a      	ldr	r2, [r3, #0]
 800787e:	23b6      	movs	r3, #182	@ 0xb6
 8007880:	b510      	push	{r4, lr}
 8007882:	009b      	lsls	r3, r3, #2
 8007884:	58c0      	ldr	r0, [r0, r3]
 8007886:	f7ff fa5d 	bl	8006d44 <USBD_LL_DataOutStage>
 800788a:	bd10      	pop	{r4, pc}

0800788c <HAL_PCD_DataInStageCallback>:
 800788c:	008b      	lsls	r3, r1, #2
 800788e:	185b      	adds	r3, r3, r1
 8007890:	00db      	lsls	r3, r3, #3
 8007892:	18c3      	adds	r3, r0, r3
 8007894:	6a5a      	ldr	r2, [r3, #36]	@ 0x24
 8007896:	23b6      	movs	r3, #182	@ 0xb6
 8007898:	b510      	push	{r4, lr}
 800789a:	009b      	lsls	r3, r3, #2
 800789c:	58c0      	ldr	r0, [r0, r3]
 800789e:	f7ff fa9d 	bl	8006ddc <USBD_LL_DataInStage>
 80078a2:	bd10      	pop	{r4, pc}

080078a4 <HAL_PCD_SOFCallback>:
 80078a4:	23b6      	movs	r3, #182	@ 0xb6
 80078a6:	b510      	push	{r4, lr}
 80078a8:	009b      	lsls	r3, r3, #2
 80078aa:	58c0      	ldr	r0, [r0, r3]
 80078ac:	f7ff fb48 	bl	8006f40 <USBD_LL_SOF>
 80078b0:	bd10      	pop	{r4, pc}
 80078b2:	46c0      	nop			@ (mov r8, r8)

080078b4 <HAL_PCD_ResetCallback>:
 80078b4:	b570      	push	{r4, r5, r6, lr}
 80078b6:	7943      	ldrb	r3, [r0, #5]
 80078b8:	0004      	movs	r4, r0
 80078ba:	2b02      	cmp	r3, #2
 80078bc:	d001      	beq.n	80078c2 <HAL_PCD_ResetCallback+0xe>
 80078be:	f7f9 fb49 	bl	8000f54 <Error_Handler>
 80078c2:	25b6      	movs	r5, #182	@ 0xb6
 80078c4:	00ad      	lsls	r5, r5, #2
 80078c6:	2101      	movs	r1, #1
 80078c8:	5960      	ldr	r0, [r4, r5]
 80078ca:	f7ff fb1d 	bl	8006f08 <USBD_LL_SetSpeed>
 80078ce:	5960      	ldr	r0, [r4, r5]
 80078d0:	f7ff faea 	bl	8006ea8 <USBD_LL_Reset>
 80078d4:	bd70      	pop	{r4, r5, r6, pc}
 80078d6:	46c0      	nop			@ (mov r8, r8)

080078d8 <HAL_PCD_SuspendCallback>:
 80078d8:	23b6      	movs	r3, #182	@ 0xb6
 80078da:	b510      	push	{r4, lr}
 80078dc:	0004      	movs	r4, r0
 80078de:	009b      	lsls	r3, r3, #2
 80078e0:	58c0      	ldr	r0, [r0, r3]
 80078e2:	f7ff fb15 	bl	8006f10 <USBD_LL_Suspend>
 80078e6:	7a63      	ldrb	r3, [r4, #9]
 80078e8:	2b00      	cmp	r3, #0
 80078ea:	d004      	beq.n	80078f6 <HAL_PCD_SuspendCallback+0x1e>
 80078ec:	2106      	movs	r1, #6
 80078ee:	4a02      	ldr	r2, [pc, #8]	@ (80078f8 <HAL_PCD_SuspendCallback+0x20>)
 80078f0:	6913      	ldr	r3, [r2, #16]
 80078f2:	430b      	orrs	r3, r1
 80078f4:	6113      	str	r3, [r2, #16]
 80078f6:	bd10      	pop	{r4, pc}
 80078f8:	e000ed00 	.word	0xe000ed00

080078fc <HAL_PCD_ResumeCallback>:
 80078fc:	b510      	push	{r4, lr}
 80078fe:	7a43      	ldrb	r3, [r0, #9]
 8007900:	0004      	movs	r4, r0
 8007902:	2b00      	cmp	r3, #0
 8007904:	d105      	bne.n	8007912 <HAL_PCD_ResumeCallback+0x16>
 8007906:	23b6      	movs	r3, #182	@ 0xb6
 8007908:	009b      	lsls	r3, r3, #2
 800790a:	58e0      	ldr	r0, [r4, r3]
 800790c:	f7ff fb0c 	bl	8006f28 <USBD_LL_Resume>
 8007910:	bd10      	pop	{r4, pc}
 8007912:	2106      	movs	r1, #6
 8007914:	4a03      	ldr	r2, [pc, #12]	@ (8007924 <HAL_PCD_ResumeCallback+0x28>)
 8007916:	6913      	ldr	r3, [r2, #16]
 8007918:	438b      	bics	r3, r1
 800791a:	6113      	str	r3, [r2, #16]
 800791c:	f7f8 fe80 	bl	8000620 <SystemClock_Config>
 8007920:	e7f1      	b.n	8007906 <HAL_PCD_ResumeCallback+0xa>
 8007922:	46c0      	nop			@ (mov r8, r8)
 8007924:	e000ed00 	.word	0xe000ed00

08007928 <USBD_LL_Init>:
 8007928:	23b6      	movs	r3, #182	@ 0xb6
 800792a:	b570      	push	{r4, r5, r6, lr}
 800792c:	0004      	movs	r4, r0
 800792e:	481d      	ldr	r0, [pc, #116]	@ (80079a4 <USBD_LL_Init+0x7c>)
 8007930:	009b      	lsls	r3, r3, #2
 8007932:	50c4      	str	r4, [r0, r3]
 8007934:	3b18      	subs	r3, #24
 8007936:	50e0      	str	r0, [r4, r3]
 8007938:	4b1b      	ldr	r3, [pc, #108]	@ (80079a8 <USBD_LL_Init+0x80>)
 800793a:	6003      	str	r3, [r0, #0]
 800793c:	2382      	movs	r3, #130	@ 0x82
 800793e:	009b      	lsls	r3, r3, #2
 8007940:	8083      	strh	r3, [r0, #4]
 8007942:	2302      	movs	r3, #2
 8007944:	71c3      	strb	r3, [r0, #7]
 8007946:	2300      	movs	r3, #0
 8007948:	7243      	strb	r3, [r0, #9]
 800794a:	8143      	strh	r3, [r0, #10]
 800794c:	f7fc fa4c 	bl	8003de8 <HAL_PCD_Init>
 8007950:	2800      	cmp	r0, #0
 8007952:	d123      	bne.n	800799c <USBD_LL_Init+0x74>
 8007954:	25b0      	movs	r5, #176	@ 0xb0
 8007956:	00ad      	lsls	r5, r5, #2
 8007958:	5960      	ldr	r0, [r4, r5]
 800795a:	2318      	movs	r3, #24
 800795c:	2200      	movs	r2, #0
 800795e:	2100      	movs	r1, #0
 8007960:	f7fd fa32 	bl	8004dc8 <HAL_PCDEx_PMAConfig>
 8007964:	5960      	ldr	r0, [r4, r5]
 8007966:	2358      	movs	r3, #88	@ 0x58
 8007968:	2200      	movs	r2, #0
 800796a:	2180      	movs	r1, #128	@ 0x80
 800796c:	f7fd fa2c 	bl	8004dc8 <HAL_PCDEx_PMAConfig>
 8007970:	5960      	ldr	r0, [r4, r5]
 8007972:	23c0      	movs	r3, #192	@ 0xc0
 8007974:	2200      	movs	r2, #0
 8007976:	2181      	movs	r1, #129	@ 0x81
 8007978:	f7fd fa26 	bl	8004dc8 <HAL_PCDEx_PMAConfig>
 800797c:	2388      	movs	r3, #136	@ 0x88
 800797e:	5960      	ldr	r0, [r4, r5]
 8007980:	2200      	movs	r2, #0
 8007982:	2101      	movs	r1, #1
 8007984:	005b      	lsls	r3, r3, #1
 8007986:	f7fd fa1f 	bl	8004dc8 <HAL_PCDEx_PMAConfig>
 800798a:	2380      	movs	r3, #128	@ 0x80
 800798c:	5960      	ldr	r0, [r4, r5]
 800798e:	2200      	movs	r2, #0
 8007990:	2182      	movs	r1, #130	@ 0x82
 8007992:	005b      	lsls	r3, r3, #1
 8007994:	f7fd fa18 	bl	8004dc8 <HAL_PCDEx_PMAConfig>
 8007998:	2000      	movs	r0, #0
 800799a:	bd70      	pop	{r4, r5, r6, pc}
 800799c:	f7f9 fada 	bl	8000f54 <Error_Handler>
 80079a0:	e7d8      	b.n	8007954 <USBD_LL_Init+0x2c>
 80079a2:	46c0      	nop			@ (mov r8, r8)
 80079a4:	20003340 	.word	0x20003340
 80079a8:	40005c00 	.word	0x40005c00

080079ac <USBD_LL_Start>:
 80079ac:	23b0      	movs	r3, #176	@ 0xb0
 80079ae:	009b      	lsls	r3, r3, #2
 80079b0:	b510      	push	{r4, lr}
 80079b2:	58c0      	ldr	r0, [r0, r3]
 80079b4:	f7fc fb24 	bl	8004000 <HAL_PCD_Start>
 80079b8:	2800      	cmp	r0, #0
 80079ba:	d003      	beq.n	80079c4 <USBD_LL_Start+0x18>
 80079bc:	3802      	subs	r0, #2
 80079be:	1e43      	subs	r3, r0, #1
 80079c0:	4198      	sbcs	r0, r3
 80079c2:	3001      	adds	r0, #1
 80079c4:	bd10      	pop	{r4, pc}
 80079c6:	46c0      	nop			@ (mov r8, r8)

080079c8 <USBD_LL_OpenEP>:
 80079c8:	b510      	push	{r4, lr}
 80079ca:	0014      	movs	r4, r2
 80079cc:	001a      	movs	r2, r3
 80079ce:	23b0      	movs	r3, #176	@ 0xb0
 80079d0:	009b      	lsls	r3, r3, #2
 80079d2:	58c0      	ldr	r0, [r0, r3]
 80079d4:	0023      	movs	r3, r4
 80079d6:	f7fd f8dd 	bl	8004b94 <HAL_PCD_EP_Open>
 80079da:	2800      	cmp	r0, #0
 80079dc:	d003      	beq.n	80079e6 <USBD_LL_OpenEP+0x1e>
 80079de:	3802      	subs	r0, #2
 80079e0:	1e43      	subs	r3, r0, #1
 80079e2:	4198      	sbcs	r0, r3
 80079e4:	3001      	adds	r0, #1
 80079e6:	bd10      	pop	{r4, pc}

080079e8 <USBD_LL_CloseEP>:
 80079e8:	23b0      	movs	r3, #176	@ 0xb0
 80079ea:	009b      	lsls	r3, r3, #2
 80079ec:	b510      	push	{r4, lr}
 80079ee:	58c0      	ldr	r0, [r0, r3]
 80079f0:	f7fd f902 	bl	8004bf8 <HAL_PCD_EP_Close>
 80079f4:	2800      	cmp	r0, #0
 80079f6:	d003      	beq.n	8007a00 <USBD_LL_CloseEP+0x18>
 80079f8:	3802      	subs	r0, #2
 80079fa:	1e43      	subs	r3, r0, #1
 80079fc:	4198      	sbcs	r0, r3
 80079fe:	3001      	adds	r0, #1
 8007a00:	bd10      	pop	{r4, pc}
 8007a02:	46c0      	nop			@ (mov r8, r8)

08007a04 <USBD_LL_StallEP>:
 8007a04:	23b0      	movs	r3, #176	@ 0xb0
 8007a06:	009b      	lsls	r3, r3, #2
 8007a08:	b510      	push	{r4, lr}
 8007a0a:	58c0      	ldr	r0, [r0, r3]
 8007a0c:	f7fd f966 	bl	8004cdc <HAL_PCD_EP_SetStall>
 8007a10:	2800      	cmp	r0, #0
 8007a12:	d003      	beq.n	8007a1c <USBD_LL_StallEP+0x18>
 8007a14:	3802      	subs	r0, #2
 8007a16:	1e43      	subs	r3, r0, #1
 8007a18:	4198      	sbcs	r0, r3
 8007a1a:	3001      	adds	r0, #1
 8007a1c:	bd10      	pop	{r4, pc}
 8007a1e:	46c0      	nop			@ (mov r8, r8)

08007a20 <USBD_LL_ClearStallEP>:
 8007a20:	23b0      	movs	r3, #176	@ 0xb0
 8007a22:	009b      	lsls	r3, r3, #2
 8007a24:	b510      	push	{r4, lr}
 8007a26:	58c0      	ldr	r0, [r0, r3]
 8007a28:	f7fd f994 	bl	8004d54 <HAL_PCD_EP_ClrStall>
 8007a2c:	2800      	cmp	r0, #0
 8007a2e:	d003      	beq.n	8007a38 <USBD_LL_ClearStallEP+0x18>
 8007a30:	3802      	subs	r0, #2
 8007a32:	1e43      	subs	r3, r0, #1
 8007a34:	4198      	sbcs	r0, r3
 8007a36:	3001      	adds	r0, #1
 8007a38:	bd10      	pop	{r4, pc}
 8007a3a:	46c0      	nop			@ (mov r8, r8)

08007a3c <USBD_LL_IsStallEP>:
 8007a3c:	23b0      	movs	r3, #176	@ 0xb0
 8007a3e:	b24a      	sxtb	r2, r1
 8007a40:	009b      	lsls	r3, r3, #2
 8007a42:	58c3      	ldr	r3, [r0, r3]
 8007a44:	2a00      	cmp	r2, #0
 8007a46:	db07      	blt.n	8007a58 <USBD_LL_IsStallEP+0x1c>
 8007a48:	008a      	lsls	r2, r1, #2
 8007a4a:	1852      	adds	r2, r2, r1
 8007a4c:	00d2      	lsls	r2, r2, #3
 8007a4e:	189b      	adds	r3, r3, r2
 8007a50:	3353      	adds	r3, #83	@ 0x53
 8007a52:	33ff      	adds	r3, #255	@ 0xff
 8007a54:	7818      	ldrb	r0, [r3, #0]
 8007a56:	4770      	bx	lr
 8007a58:	227f      	movs	r2, #127	@ 0x7f
 8007a5a:	4011      	ands	r1, r2
 8007a5c:	008a      	lsls	r2, r1, #2
 8007a5e:	1852      	adds	r2, r2, r1
 8007a60:	00d2      	lsls	r2, r2, #3
 8007a62:	189b      	adds	r3, r3, r2
 8007a64:	7c98      	ldrb	r0, [r3, #18]
 8007a66:	e7f6      	b.n	8007a56 <USBD_LL_IsStallEP+0x1a>

08007a68 <USBD_LL_SetUSBAddress>:
 8007a68:	23b0      	movs	r3, #176	@ 0xb0
 8007a6a:	009b      	lsls	r3, r3, #2
 8007a6c:	b510      	push	{r4, lr}
 8007a6e:	58c0      	ldr	r0, [r0, r3]
 8007a70:	f7fd f87c 	bl	8004b6c <HAL_PCD_SetAddress>
 8007a74:	2800      	cmp	r0, #0
 8007a76:	d003      	beq.n	8007a80 <USBD_LL_SetUSBAddress+0x18>
 8007a78:	3802      	subs	r0, #2
 8007a7a:	1e43      	subs	r3, r0, #1
 8007a7c:	4198      	sbcs	r0, r3
 8007a7e:	3001      	adds	r0, #1
 8007a80:	bd10      	pop	{r4, pc}
 8007a82:	46c0      	nop			@ (mov r8, r8)

08007a84 <USBD_LL_Transmit>:
 8007a84:	b510      	push	{r4, lr}
 8007a86:	24b0      	movs	r4, #176	@ 0xb0
 8007a88:	00a4      	lsls	r4, r4, #2
 8007a8a:	5900      	ldr	r0, [r0, r4]
 8007a8c:	f7fd f90c 	bl	8004ca8 <HAL_PCD_EP_Transmit>
 8007a90:	2800      	cmp	r0, #0
 8007a92:	d003      	beq.n	8007a9c <USBD_LL_Transmit+0x18>
 8007a94:	3802      	subs	r0, #2
 8007a96:	1e43      	subs	r3, r0, #1
 8007a98:	4198      	sbcs	r0, r3
 8007a9a:	3001      	adds	r0, #1
 8007a9c:	bd10      	pop	{r4, pc}
 8007a9e:	46c0      	nop			@ (mov r8, r8)

08007aa0 <USBD_LL_PrepareReceive>:
 8007aa0:	b510      	push	{r4, lr}
 8007aa2:	24b0      	movs	r4, #176	@ 0xb0
 8007aa4:	00a4      	lsls	r4, r4, #2
 8007aa6:	5900      	ldr	r0, [r0, r4]
 8007aa8:	f7fd f8d6 	bl	8004c58 <HAL_PCD_EP_Receive>
 8007aac:	2800      	cmp	r0, #0
 8007aae:	d003      	beq.n	8007ab8 <USBD_LL_PrepareReceive+0x18>
 8007ab0:	3802      	subs	r0, #2
 8007ab2:	1e43      	subs	r3, r0, #1
 8007ab4:	4198      	sbcs	r0, r3
 8007ab6:	3001      	adds	r0, #1
 8007ab8:	bd10      	pop	{r4, pc}
 8007aba:	46c0      	nop			@ (mov r8, r8)

08007abc <USBD_LL_GetRxDataSize>:
 8007abc:	23b0      	movs	r3, #176	@ 0xb0
 8007abe:	b510      	push	{r4, lr}
 8007ac0:	009b      	lsls	r3, r3, #2
 8007ac2:	58c0      	ldr	r0, [r0, r3]
 8007ac4:	f7fd f8e6 	bl	8004c94 <HAL_PCD_EP_GetRxCount>
 8007ac8:	bd10      	pop	{r4, pc}
 8007aca:	46c0      	nop			@ (mov r8, r8)

08007acc <USBD_static_malloc>:
 8007acc:	4800      	ldr	r0, [pc, #0]	@ (8007ad0 <USBD_static_malloc+0x4>)
 8007ace:	4770      	bx	lr
 8007ad0:	20003120 	.word	0x20003120

08007ad4 <USBD_static_free>:
 8007ad4:	4770      	bx	lr
 8007ad6:	46c0      	nop			@ (mov r8, r8)

08007ad8 <atoi>:
 8007ad8:	b510      	push	{r4, lr}
 8007ada:	220a      	movs	r2, #10
 8007adc:	2100      	movs	r1, #0
 8007ade:	f000 f88b 	bl	8007bf8 <strtol>
 8007ae2:	bd10      	pop	{r4, pc}

08007ae4 <_strtol_l.constprop.0>:
 8007ae4:	b5f0      	push	{r4, r5, r6, r7, lr}
 8007ae6:	b085      	sub	sp, #20
 8007ae8:	0017      	movs	r7, r2
 8007aea:	001e      	movs	r6, r3
 8007aec:	9003      	str	r0, [sp, #12]
 8007aee:	9101      	str	r1, [sp, #4]
 8007af0:	2b24      	cmp	r3, #36	@ 0x24
 8007af2:	d844      	bhi.n	8007b7e <_strtol_l.constprop.0+0x9a>
 8007af4:	000c      	movs	r4, r1
 8007af6:	2b01      	cmp	r3, #1
 8007af8:	d041      	beq.n	8007b7e <_strtol_l.constprop.0+0x9a>
 8007afa:	4b3d      	ldr	r3, [pc, #244]	@ (8007bf0 <_strtol_l.constprop.0+0x10c>)
 8007afc:	2208      	movs	r2, #8
 8007afe:	469c      	mov	ip, r3
 8007b00:	0023      	movs	r3, r4
 8007b02:	4661      	mov	r1, ip
 8007b04:	781d      	ldrb	r5, [r3, #0]
 8007b06:	3401      	adds	r4, #1
 8007b08:	5d48      	ldrb	r0, [r1, r5]
 8007b0a:	0001      	movs	r1, r0
 8007b0c:	4011      	ands	r1, r2
 8007b0e:	4210      	tst	r0, r2
 8007b10:	d1f6      	bne.n	8007b00 <_strtol_l.constprop.0+0x1c>
 8007b12:	2d2d      	cmp	r5, #45	@ 0x2d
 8007b14:	d13a      	bne.n	8007b8c <_strtol_l.constprop.0+0xa8>
 8007b16:	7825      	ldrb	r5, [r4, #0]
 8007b18:	1c9c      	adds	r4, r3, #2
 8007b1a:	2301      	movs	r3, #1
 8007b1c:	9300      	str	r3, [sp, #0]
 8007b1e:	2210      	movs	r2, #16
 8007b20:	0033      	movs	r3, r6
 8007b22:	4393      	bics	r3, r2
 8007b24:	d109      	bne.n	8007b3a <_strtol_l.constprop.0+0x56>
 8007b26:	2d30      	cmp	r5, #48	@ 0x30
 8007b28:	d136      	bne.n	8007b98 <_strtol_l.constprop.0+0xb4>
 8007b2a:	2120      	movs	r1, #32
 8007b2c:	7823      	ldrb	r3, [r4, #0]
 8007b2e:	438b      	bics	r3, r1
 8007b30:	2b58      	cmp	r3, #88	@ 0x58
 8007b32:	d131      	bne.n	8007b98 <_strtol_l.constprop.0+0xb4>
 8007b34:	0016      	movs	r6, r2
 8007b36:	7865      	ldrb	r5, [r4, #1]
 8007b38:	3402      	adds	r4, #2
 8007b3a:	4a2e      	ldr	r2, [pc, #184]	@ (8007bf4 <_strtol_l.constprop.0+0x110>)
 8007b3c:	9b00      	ldr	r3, [sp, #0]
 8007b3e:	4694      	mov	ip, r2
 8007b40:	4463      	add	r3, ip
 8007b42:	0031      	movs	r1, r6
 8007b44:	0018      	movs	r0, r3
 8007b46:	9302      	str	r3, [sp, #8]
 8007b48:	f7f8 fb76 	bl	8000238 <__aeabi_uidivmod>
 8007b4c:	2200      	movs	r2, #0
 8007b4e:	4684      	mov	ip, r0
 8007b50:	0010      	movs	r0, r2
 8007b52:	002b      	movs	r3, r5
 8007b54:	3b30      	subs	r3, #48	@ 0x30
 8007b56:	2b09      	cmp	r3, #9
 8007b58:	d825      	bhi.n	8007ba6 <_strtol_l.constprop.0+0xc2>
 8007b5a:	001d      	movs	r5, r3
 8007b5c:	42ae      	cmp	r6, r5
 8007b5e:	dd31      	ble.n	8007bc4 <_strtol_l.constprop.0+0xe0>
 8007b60:	1c53      	adds	r3, r2, #1
 8007b62:	d009      	beq.n	8007b78 <_strtol_l.constprop.0+0x94>
 8007b64:	2201      	movs	r2, #1
 8007b66:	4252      	negs	r2, r2
 8007b68:	4584      	cmp	ip, r0
 8007b6a:	d305      	bcc.n	8007b78 <_strtol_l.constprop.0+0x94>
 8007b6c:	d101      	bne.n	8007b72 <_strtol_l.constprop.0+0x8e>
 8007b6e:	42a9      	cmp	r1, r5
 8007b70:	db25      	blt.n	8007bbe <_strtol_l.constprop.0+0xda>
 8007b72:	2201      	movs	r2, #1
 8007b74:	4370      	muls	r0, r6
 8007b76:	1828      	adds	r0, r5, r0
 8007b78:	7825      	ldrb	r5, [r4, #0]
 8007b7a:	3401      	adds	r4, #1
 8007b7c:	e7e9      	b.n	8007b52 <_strtol_l.constprop.0+0x6e>
 8007b7e:	f000 fa2d 	bl	8007fdc <__errno>
 8007b82:	2316      	movs	r3, #22
 8007b84:	6003      	str	r3, [r0, #0]
 8007b86:	2000      	movs	r0, #0
 8007b88:	b005      	add	sp, #20
 8007b8a:	bdf0      	pop	{r4, r5, r6, r7, pc}
 8007b8c:	9100      	str	r1, [sp, #0]
 8007b8e:	2d2b      	cmp	r5, #43	@ 0x2b
 8007b90:	d1c5      	bne.n	8007b1e <_strtol_l.constprop.0+0x3a>
 8007b92:	7825      	ldrb	r5, [r4, #0]
 8007b94:	1c9c      	adds	r4, r3, #2
 8007b96:	e7c2      	b.n	8007b1e <_strtol_l.constprop.0+0x3a>
 8007b98:	2e00      	cmp	r6, #0
 8007b9a:	d1ce      	bne.n	8007b3a <_strtol_l.constprop.0+0x56>
 8007b9c:	3608      	adds	r6, #8
 8007b9e:	2d30      	cmp	r5, #48	@ 0x30
 8007ba0:	d0cb      	beq.n	8007b3a <_strtol_l.constprop.0+0x56>
 8007ba2:	3602      	adds	r6, #2
 8007ba4:	e7c9      	b.n	8007b3a <_strtol_l.constprop.0+0x56>
 8007ba6:	002b      	movs	r3, r5
 8007ba8:	3b41      	subs	r3, #65	@ 0x41
 8007baa:	2b19      	cmp	r3, #25
 8007bac:	d801      	bhi.n	8007bb2 <_strtol_l.constprop.0+0xce>
 8007bae:	3d37      	subs	r5, #55	@ 0x37
 8007bb0:	e7d4      	b.n	8007b5c <_strtol_l.constprop.0+0x78>
 8007bb2:	002b      	movs	r3, r5
 8007bb4:	3b61      	subs	r3, #97	@ 0x61
 8007bb6:	2b19      	cmp	r3, #25
 8007bb8:	d804      	bhi.n	8007bc4 <_strtol_l.constprop.0+0xe0>
 8007bba:	3d57      	subs	r5, #87	@ 0x57
 8007bbc:	e7ce      	b.n	8007b5c <_strtol_l.constprop.0+0x78>
 8007bbe:	2201      	movs	r2, #1
 8007bc0:	4252      	negs	r2, r2
 8007bc2:	e7d9      	b.n	8007b78 <_strtol_l.constprop.0+0x94>
 8007bc4:	1c53      	adds	r3, r2, #1
 8007bc6:	d108      	bne.n	8007bda <_strtol_l.constprop.0+0xf6>
 8007bc8:	2322      	movs	r3, #34	@ 0x22
 8007bca:	9a03      	ldr	r2, [sp, #12]
 8007bcc:	9802      	ldr	r0, [sp, #8]
 8007bce:	6013      	str	r3, [r2, #0]
 8007bd0:	2f00      	cmp	r7, #0
 8007bd2:	d0d9      	beq.n	8007b88 <_strtol_l.constprop.0+0xa4>
 8007bd4:	1e63      	subs	r3, r4, #1
 8007bd6:	9301      	str	r3, [sp, #4]
 8007bd8:	e007      	b.n	8007bea <_strtol_l.constprop.0+0x106>
 8007bda:	9b00      	ldr	r3, [sp, #0]
 8007bdc:	2b00      	cmp	r3, #0
 8007bde:	d000      	beq.n	8007be2 <_strtol_l.constprop.0+0xfe>
 8007be0:	4240      	negs	r0, r0
 8007be2:	2f00      	cmp	r7, #0
 8007be4:	d0d0      	beq.n	8007b88 <_strtol_l.constprop.0+0xa4>
 8007be6:	2a00      	cmp	r2, #0
 8007be8:	d1f4      	bne.n	8007bd4 <_strtol_l.constprop.0+0xf0>
 8007bea:	9b01      	ldr	r3, [sp, #4]
 8007bec:	603b      	str	r3, [r7, #0]
 8007bee:	e7cb      	b.n	8007b88 <_strtol_l.constprop.0+0xa4>
 8007bf0:	0800930f 	.word	0x0800930f
 8007bf4:	7fffffff 	.word	0x7fffffff

08007bf8 <strtol>:
 8007bf8:	b510      	push	{r4, lr}
 8007bfa:	4c04      	ldr	r4, [pc, #16]	@ (8007c0c <strtol+0x14>)
 8007bfc:	0013      	movs	r3, r2
 8007bfe:	000a      	movs	r2, r1
 8007c00:	0001      	movs	r1, r0
 8007c02:	6820      	ldr	r0, [r4, #0]
 8007c04:	f7ff ff6e 	bl	8007ae4 <_strtol_l.constprop.0>
 8007c08:	bd10      	pop	{r4, pc}
 8007c0a:	46c0      	nop			@ (mov r8, r8)
 8007c0c:	2000019c 	.word	0x2000019c

08007c10 <std>:
 8007c10:	2300      	movs	r3, #0
 8007c12:	b510      	push	{r4, lr}
 8007c14:	0004      	movs	r4, r0
 8007c16:	6003      	str	r3, [r0, #0]
 8007c18:	6043      	str	r3, [r0, #4]
 8007c1a:	6083      	str	r3, [r0, #8]
 8007c1c:	8181      	strh	r1, [r0, #12]
 8007c1e:	6643      	str	r3, [r0, #100]	@ 0x64
 8007c20:	81c2      	strh	r2, [r0, #14]
 8007c22:	6103      	str	r3, [r0, #16]
 8007c24:	6143      	str	r3, [r0, #20]
 8007c26:	6183      	str	r3, [r0, #24]
 8007c28:	0019      	movs	r1, r3
 8007c2a:	2208      	movs	r2, #8
 8007c2c:	305c      	adds	r0, #92	@ 0x5c
 8007c2e:	f000 f91f 	bl	8007e70 <memset>
 8007c32:	4b0b      	ldr	r3, [pc, #44]	@ (8007c60 <std+0x50>)
 8007c34:	6224      	str	r4, [r4, #32]
 8007c36:	6263      	str	r3, [r4, #36]	@ 0x24
 8007c38:	4b0a      	ldr	r3, [pc, #40]	@ (8007c64 <std+0x54>)
 8007c3a:	62a3      	str	r3, [r4, #40]	@ 0x28
 8007c3c:	4b0a      	ldr	r3, [pc, #40]	@ (8007c68 <std+0x58>)
 8007c3e:	62e3      	str	r3, [r4, #44]	@ 0x2c
 8007c40:	4b0a      	ldr	r3, [pc, #40]	@ (8007c6c <std+0x5c>)
 8007c42:	6323      	str	r3, [r4, #48]	@ 0x30
 8007c44:	4b0a      	ldr	r3, [pc, #40]	@ (8007c70 <std+0x60>)
 8007c46:	429c      	cmp	r4, r3
 8007c48:	d005      	beq.n	8007c56 <std+0x46>
 8007c4a:	4b0a      	ldr	r3, [pc, #40]	@ (8007c74 <std+0x64>)
 8007c4c:	429c      	cmp	r4, r3
 8007c4e:	d002      	beq.n	8007c56 <std+0x46>
 8007c50:	4b09      	ldr	r3, [pc, #36]	@ (8007c78 <std+0x68>)
 8007c52:	429c      	cmp	r4, r3
 8007c54:	d103      	bne.n	8007c5e <std+0x4e>
 8007c56:	0020      	movs	r0, r4
 8007c58:	3058      	adds	r0, #88	@ 0x58
 8007c5a:	f000 f9e9 	bl	8008030 <__retarget_lock_init_recursive>
 8007c5e:	bd10      	pop	{r4, pc}
 8007c60:	08007dd9 	.word	0x08007dd9
 8007c64:	08007e01 	.word	0x08007e01
 8007c68:	08007e39 	.word	0x08007e39
 8007c6c:	08007e65 	.word	0x08007e65
 8007c70:	2000361c 	.word	0x2000361c
 8007c74:	20003684 	.word	0x20003684
 8007c78:	200036ec 	.word	0x200036ec

08007c7c <stdio_exit_handler>:
 8007c7c:	b510      	push	{r4, lr}
 8007c7e:	4a03      	ldr	r2, [pc, #12]	@ (8007c8c <stdio_exit_handler+0x10>)
 8007c80:	4903      	ldr	r1, [pc, #12]	@ (8007c90 <stdio_exit_handler+0x14>)
 8007c82:	4804      	ldr	r0, [pc, #16]	@ (8007c94 <stdio_exit_handler+0x18>)
 8007c84:	f000 f86c 	bl	8007d60 <_fwalk_sglue>
 8007c88:	bd10      	pop	{r4, pc}
 8007c8a:	46c0      	nop			@ (mov r8, r8)
 8007c8c:	20000190 	.word	0x20000190
 8007c90:	08008965 	.word	0x08008965
 8007c94:	200001a0 	.word	0x200001a0

08007c98 <cleanup_stdio>:
 8007c98:	6841      	ldr	r1, [r0, #4]
 8007c9a:	4b0b      	ldr	r3, [pc, #44]	@ (8007cc8 <cleanup_stdio+0x30>)
 8007c9c:	b510      	push	{r4, lr}
 8007c9e:	0004      	movs	r4, r0
 8007ca0:	4299      	cmp	r1, r3
 8007ca2:	d001      	beq.n	8007ca8 <cleanup_stdio+0x10>
 8007ca4:	f000 fe5e 	bl	8008964 <_fflush_r>
 8007ca8:	68a1      	ldr	r1, [r4, #8]
 8007caa:	4b08      	ldr	r3, [pc, #32]	@ (8007ccc <cleanup_stdio+0x34>)
 8007cac:	4299      	cmp	r1, r3
 8007cae:	d002      	beq.n	8007cb6 <cleanup_stdio+0x1e>
 8007cb0:	0020      	movs	r0, r4
 8007cb2:	f000 fe57 	bl	8008964 <_fflush_r>
 8007cb6:	68e1      	ldr	r1, [r4, #12]
 8007cb8:	4b05      	ldr	r3, [pc, #20]	@ (8007cd0 <cleanup_stdio+0x38>)
 8007cba:	4299      	cmp	r1, r3
 8007cbc:	d002      	beq.n	8007cc4 <cleanup_stdio+0x2c>
 8007cbe:	0020      	movs	r0, r4
 8007cc0:	f000 fe50 	bl	8008964 <_fflush_r>
 8007cc4:	bd10      	pop	{r4, pc}
 8007cc6:	46c0      	nop			@ (mov r8, r8)
 8007cc8:	2000361c 	.word	0x2000361c
 8007ccc:	20003684 	.word	0x20003684
 8007cd0:	200036ec 	.word	0x200036ec

08007cd4 <global_stdio_init.part.0>:
 8007cd4:	b510      	push	{r4, lr}
 8007cd6:	4b09      	ldr	r3, [pc, #36]	@ (8007cfc <global_stdio_init.part.0+0x28>)
 8007cd8:	4a09      	ldr	r2, [pc, #36]	@ (8007d00 <global_stdio_init.part.0+0x2c>)
 8007cda:	2104      	movs	r1, #4
 8007cdc:	601a      	str	r2, [r3, #0]
 8007cde:	4809      	ldr	r0, [pc, #36]	@ (8007d04 <global_stdio_init.part.0+0x30>)
 8007ce0:	2200      	movs	r2, #0
 8007ce2:	f7ff ff95 	bl	8007c10 <std>
 8007ce6:	2201      	movs	r2, #1
 8007ce8:	2109      	movs	r1, #9
 8007cea:	4807      	ldr	r0, [pc, #28]	@ (8007d08 <global_stdio_init.part.0+0x34>)
 8007cec:	f7ff ff90 	bl	8007c10 <std>
 8007cf0:	2202      	movs	r2, #2
 8007cf2:	2112      	movs	r1, #18
 8007cf4:	4805      	ldr	r0, [pc, #20]	@ (8007d0c <global_stdio_init.part.0+0x38>)
 8007cf6:	f7ff ff8b 	bl	8007c10 <std>
 8007cfa:	bd10      	pop	{r4, pc}
 8007cfc:	20003754 	.word	0x20003754
 8007d00:	08007c7d 	.word	0x08007c7d
 8007d04:	2000361c 	.word	0x2000361c
 8007d08:	20003684 	.word	0x20003684
 8007d0c:	200036ec 	.word	0x200036ec

08007d10 <__sfp_lock_acquire>:
 8007d10:	b510      	push	{r4, lr}
 8007d12:	4802      	ldr	r0, [pc, #8]	@ (8007d1c <__sfp_lock_acquire+0xc>)
 8007d14:	f000 f98d 	bl	8008032 <__retarget_lock_acquire_recursive>
 8007d18:	bd10      	pop	{r4, pc}
 8007d1a:	46c0      	nop			@ (mov r8, r8)
 8007d1c:	2000375d 	.word	0x2000375d

08007d20 <__sfp_lock_release>:
 8007d20:	b510      	push	{r4, lr}
 8007d22:	4802      	ldr	r0, [pc, #8]	@ (8007d2c <__sfp_lock_release+0xc>)
 8007d24:	f000 f986 	bl	8008034 <__retarget_lock_release_recursive>
 8007d28:	bd10      	pop	{r4, pc}
 8007d2a:	46c0      	nop			@ (mov r8, r8)
 8007d2c:	2000375d 	.word	0x2000375d

08007d30 <__sinit>:
 8007d30:	b510      	push	{r4, lr}
 8007d32:	0004      	movs	r4, r0
 8007d34:	f7ff ffec 	bl	8007d10 <__sfp_lock_acquire>
 8007d38:	6a23      	ldr	r3, [r4, #32]
 8007d3a:	2b00      	cmp	r3, #0
 8007d3c:	d002      	beq.n	8007d44 <__sinit+0x14>
 8007d3e:	f7ff ffef 	bl	8007d20 <__sfp_lock_release>
 8007d42:	bd10      	pop	{r4, pc}
 8007d44:	4b04      	ldr	r3, [pc, #16]	@ (8007d58 <__sinit+0x28>)
 8007d46:	6223      	str	r3, [r4, #32]
 8007d48:	4b04      	ldr	r3, [pc, #16]	@ (8007d5c <__sinit+0x2c>)
 8007d4a:	681b      	ldr	r3, [r3, #0]
 8007d4c:	2b00      	cmp	r3, #0
 8007d4e:	d1f6      	bne.n	8007d3e <__sinit+0xe>
 8007d50:	f7ff ffc0 	bl	8007cd4 <global_stdio_init.part.0>
 8007d54:	e7f3      	b.n	8007d3e <__sinit+0xe>
 8007d56:	46c0      	nop			@ (mov r8, r8)
 8007d58:	08007c99 	.word	0x08007c99
 8007d5c:	20003754 	.word	0x20003754

08007d60 <_fwalk_sglue>:
 8007d60:	b5f7      	push	{r0, r1, r2, r4, r5, r6, r7, lr}
 8007d62:	0014      	movs	r4, r2
 8007d64:	2600      	movs	r6, #0
 8007d66:	9000      	str	r0, [sp, #0]
 8007d68:	9101      	str	r1, [sp, #4]
 8007d6a:	68a5      	ldr	r5, [r4, #8]
 8007d6c:	6867      	ldr	r7, [r4, #4]
 8007d6e:	3f01      	subs	r7, #1
 8007d70:	d504      	bpl.n	8007d7c <_fwalk_sglue+0x1c>
 8007d72:	6824      	ldr	r4, [r4, #0]
 8007d74:	2c00      	cmp	r4, #0
 8007d76:	d1f8      	bne.n	8007d6a <_fwalk_sglue+0xa>
 8007d78:	0030      	movs	r0, r6
 8007d7a:	bdfe      	pop	{r1, r2, r3, r4, r5, r6, r7, pc}
 8007d7c:	89ab      	ldrh	r3, [r5, #12]
 8007d7e:	2b01      	cmp	r3, #1
 8007d80:	d908      	bls.n	8007d94 <_fwalk_sglue+0x34>
 8007d82:	220e      	movs	r2, #14
 8007d84:	5eab      	ldrsh	r3, [r5, r2]
 8007d86:	3301      	adds	r3, #1
 8007d88:	d004      	beq.n	8007d94 <_fwalk_sglue+0x34>
 8007d8a:	0029      	movs	r1, r5
 8007d8c:	9800      	ldr	r0, [sp, #0]
 8007d8e:	9b01      	ldr	r3, [sp, #4]
 8007d90:	4798      	blx	r3
 8007d92:	4306      	orrs	r6, r0
 8007d94:	3568      	adds	r5, #104	@ 0x68
 8007d96:	e7ea      	b.n	8007d6e <_fwalk_sglue+0xe>

08007d98 <siprintf>:
 8007d98:	b40e      	push	{r1, r2, r3}
 8007d9a:	b500      	push	{lr}
 8007d9c:	490b      	ldr	r1, [pc, #44]	@ (8007dcc <siprintf+0x34>)
 8007d9e:	b09c      	sub	sp, #112	@ 0x70
 8007da0:	ab1d      	add	r3, sp, #116	@ 0x74
 8007da2:	9002      	str	r0, [sp, #8]
 8007da4:	9006      	str	r0, [sp, #24]
 8007da6:	9107      	str	r1, [sp, #28]
 8007da8:	9104      	str	r1, [sp, #16]
 8007daa:	4809      	ldr	r0, [pc, #36]	@ (8007dd0 <siprintf+0x38>)
 8007dac:	4909      	ldr	r1, [pc, #36]	@ (8007dd4 <siprintf+0x3c>)
 8007dae:	cb04      	ldmia	r3!, {r2}
 8007db0:	9105      	str	r1, [sp, #20]
 8007db2:	6800      	ldr	r0, [r0, #0]
 8007db4:	a902      	add	r1, sp, #8
 8007db6:	9301      	str	r3, [sp, #4]
 8007db8:	f000 fad2 	bl	8008360 <_svfiprintf_r>
 8007dbc:	2200      	movs	r2, #0
 8007dbe:	9b02      	ldr	r3, [sp, #8]
 8007dc0:	701a      	strb	r2, [r3, #0]
 8007dc2:	b01c      	add	sp, #112	@ 0x70
 8007dc4:	bc08      	pop	{r3}
 8007dc6:	b003      	add	sp, #12
 8007dc8:	4718      	bx	r3
 8007dca:	46c0      	nop			@ (mov r8, r8)
 8007dcc:	7fffffff 	.word	0x7fffffff
 8007dd0:	2000019c 	.word	0x2000019c
 8007dd4:	ffff0208 	.word	0xffff0208

08007dd8 <__sread>:
 8007dd8:	b570      	push	{r4, r5, r6, lr}
 8007dda:	000c      	movs	r4, r1
 8007ddc:	250e      	movs	r5, #14
 8007dde:	5f49      	ldrsh	r1, [r1, r5]
 8007de0:	f000 f8d4 	bl	8007f8c <_read_r>
 8007de4:	2800      	cmp	r0, #0
 8007de6:	db03      	blt.n	8007df0 <__sread+0x18>
 8007de8:	6d63      	ldr	r3, [r4, #84]	@ 0x54
 8007dea:	181b      	adds	r3, r3, r0
 8007dec:	6563      	str	r3, [r4, #84]	@ 0x54
 8007dee:	bd70      	pop	{r4, r5, r6, pc}
 8007df0:	89a3      	ldrh	r3, [r4, #12]
 8007df2:	4a02      	ldr	r2, [pc, #8]	@ (8007dfc <__sread+0x24>)
 8007df4:	4013      	ands	r3, r2
 8007df6:	81a3      	strh	r3, [r4, #12]
 8007df8:	e7f9      	b.n	8007dee <__sread+0x16>
 8007dfa:	46c0      	nop			@ (mov r8, r8)
 8007dfc:	ffffefff 	.word	0xffffefff

08007e00 <__swrite>:
 8007e00:	b5f8      	push	{r3, r4, r5, r6, r7, lr}
 8007e02:	001f      	movs	r7, r3
 8007e04:	898b      	ldrh	r3, [r1, #12]
 8007e06:	0005      	movs	r5, r0
 8007e08:	000c      	movs	r4, r1
 8007e0a:	0016      	movs	r6, r2
 8007e0c:	05db      	lsls	r3, r3, #23
 8007e0e:	d505      	bpl.n	8007e1c <__swrite+0x1c>
 8007e10:	230e      	movs	r3, #14
 8007e12:	5ec9      	ldrsh	r1, [r1, r3]
 8007e14:	2200      	movs	r2, #0
 8007e16:	2302      	movs	r3, #2
 8007e18:	f000 f8a4 	bl	8007f64 <_lseek_r>
 8007e1c:	89a3      	ldrh	r3, [r4, #12]
 8007e1e:	4a05      	ldr	r2, [pc, #20]	@ (8007e34 <__swrite+0x34>)
 8007e20:	0028      	movs	r0, r5
 8007e22:	4013      	ands	r3, r2
 8007e24:	81a3      	strh	r3, [r4, #12]
 8007e26:	0032      	movs	r2, r6
 8007e28:	230e      	movs	r3, #14
 8007e2a:	5ee1      	ldrsh	r1, [r4, r3]
 8007e2c:	003b      	movs	r3, r7
 8007e2e:	f000 f8c1 	bl	8007fb4 <_write_r>
 8007e32:	bdf8      	pop	{r3, r4, r5, r6, r7, pc}
 8007e34:	ffffefff 	.word	0xffffefff

08007e38 <__sseek>:
 8007e38:	b570      	push	{r4, r5, r6, lr}
 8007e3a:	000c      	movs	r4, r1
 8007e3c:	250e      	movs	r5, #14
 8007e3e:	5f49      	ldrsh	r1, [r1, r5]
 8007e40:	f000 f890 	bl	8007f64 <_lseek_r>
 8007e44:	89a3      	ldrh	r3, [r4, #12]
 8007e46:	1c42      	adds	r2, r0, #1
 8007e48:	d103      	bne.n	8007e52 <__sseek+0x1a>
 8007e4a:	4a05      	ldr	r2, [pc, #20]	@ (8007e60 <__sseek+0x28>)
 8007e4c:	4013      	ands	r3, r2
 8007e4e:	81a3      	strh	r3, [r4, #12]
 8007e50:	bd70      	pop	{r4, r5, r6, pc}
 8007e52:	2280      	movs	r2, #128	@ 0x80
 8007e54:	0152      	lsls	r2, r2, #5
 8007e56:	4313      	orrs	r3, r2
 8007e58:	81a3      	strh	r3, [r4, #12]
 8007e5a:	6560      	str	r0, [r4, #84]	@ 0x54
 8007e5c:	e7f8      	b.n	8007e50 <__sseek+0x18>
 8007e5e:	46c0      	nop			@ (mov r8, r8)
 8007e60:	ffffefff 	.word	0xffffefff

08007e64 <__sclose>:
 8007e64:	b510      	push	{r4, lr}
 8007e66:	230e      	movs	r3, #14
 8007e68:	5ec9      	ldrsh	r1, [r1, r3]
 8007e6a:	f000 f869 	bl	8007f40 <_close_r>
 8007e6e:	bd10      	pop	{r4, pc}

08007e70 <memset>:
 8007e70:	0003      	movs	r3, r0
 8007e72:	1882      	adds	r2, r0, r2
 8007e74:	4293      	cmp	r3, r2
 8007e76:	d100      	bne.n	8007e7a <memset+0xa>
 8007e78:	4770      	bx	lr
 8007e7a:	7019      	strb	r1, [r3, #0]
 8007e7c:	3301      	adds	r3, #1
 8007e7e:	e7f9      	b.n	8007e74 <memset+0x4>

08007e80 <strtok>:
 8007e80:	b5f8      	push	{r3, r4, r5, r6, r7, lr}
 8007e82:	4b16      	ldr	r3, [pc, #88]	@ (8007edc <strtok+0x5c>)
 8007e84:	0005      	movs	r5, r0
 8007e86:	681f      	ldr	r7, [r3, #0]
 8007e88:	000e      	movs	r6, r1
 8007e8a:	6c7c      	ldr	r4, [r7, #68]	@ 0x44
 8007e8c:	2c00      	cmp	r4, #0
 8007e8e:	d11d      	bne.n	8007ecc <strtok+0x4c>
 8007e90:	2050      	movs	r0, #80	@ 0x50
 8007e92:	f000 f949 	bl	8008128 <malloc>
 8007e96:	1e02      	subs	r2, r0, #0
 8007e98:	6478      	str	r0, [r7, #68]	@ 0x44
 8007e9a:	d104      	bne.n	8007ea6 <strtok+0x26>
 8007e9c:	215b      	movs	r1, #91	@ 0x5b
 8007e9e:	4b10      	ldr	r3, [pc, #64]	@ (8007ee0 <strtok+0x60>)
 8007ea0:	4810      	ldr	r0, [pc, #64]	@ (8007ee4 <strtok+0x64>)
 8007ea2:	f000 f8d9 	bl	8008058 <__assert_func>
 8007ea6:	6004      	str	r4, [r0, #0]
 8007ea8:	6044      	str	r4, [r0, #4]
 8007eaa:	6084      	str	r4, [r0, #8]
 8007eac:	60c4      	str	r4, [r0, #12]
 8007eae:	6104      	str	r4, [r0, #16]
 8007eb0:	6144      	str	r4, [r0, #20]
 8007eb2:	6184      	str	r4, [r0, #24]
 8007eb4:	6284      	str	r4, [r0, #40]	@ 0x28
 8007eb6:	62c4      	str	r4, [r0, #44]	@ 0x2c
 8007eb8:	6304      	str	r4, [r0, #48]	@ 0x30
 8007eba:	6344      	str	r4, [r0, #52]	@ 0x34
 8007ebc:	6384      	str	r4, [r0, #56]	@ 0x38
 8007ebe:	63c4      	str	r4, [r0, #60]	@ 0x3c
 8007ec0:	6404      	str	r4, [r0, #64]	@ 0x40
 8007ec2:	6444      	str	r4, [r0, #68]	@ 0x44
 8007ec4:	6484      	str	r4, [r0, #72]	@ 0x48
 8007ec6:	64c4      	str	r4, [r0, #76]	@ 0x4c
 8007ec8:	7704      	strb	r4, [r0, #28]
 8007eca:	6244      	str	r4, [r0, #36]	@ 0x24
 8007ecc:	0031      	movs	r1, r6
 8007ece:	0028      	movs	r0, r5
 8007ed0:	6c7a      	ldr	r2, [r7, #68]	@ 0x44
 8007ed2:	2301      	movs	r3, #1
 8007ed4:	f000 f808 	bl	8007ee8 <__strtok_r>
 8007ed8:	bdf8      	pop	{r3, r4, r5, r6, r7, pc}
 8007eda:	46c0      	nop			@ (mov r8, r8)
 8007edc:	2000019c 	.word	0x2000019c
 8007ee0:	0800940f 	.word	0x0800940f
 8007ee4:	08009426 	.word	0x08009426

08007ee8 <__strtok_r>:
 8007ee8:	b5f0      	push	{r4, r5, r6, r7, lr}
 8007eea:	1e04      	subs	r4, r0, #0
 8007eec:	d102      	bne.n	8007ef4 <__strtok_r+0xc>
 8007eee:	6814      	ldr	r4, [r2, #0]
 8007ef0:	2c00      	cmp	r4, #0
 8007ef2:	d009      	beq.n	8007f08 <__strtok_r+0x20>
 8007ef4:	0020      	movs	r0, r4
 8007ef6:	000e      	movs	r6, r1
 8007ef8:	7805      	ldrb	r5, [r0, #0]
 8007efa:	3401      	adds	r4, #1
 8007efc:	7837      	ldrb	r7, [r6, #0]
 8007efe:	2f00      	cmp	r7, #0
 8007f00:	d104      	bne.n	8007f0c <__strtok_r+0x24>
 8007f02:	2d00      	cmp	r5, #0
 8007f04:	d10d      	bne.n	8007f22 <__strtok_r+0x3a>
 8007f06:	6015      	str	r5, [r2, #0]
 8007f08:	2000      	movs	r0, #0
 8007f0a:	e006      	b.n	8007f1a <__strtok_r+0x32>
 8007f0c:	3601      	adds	r6, #1
 8007f0e:	42bd      	cmp	r5, r7
 8007f10:	d1f4      	bne.n	8007efc <__strtok_r+0x14>
 8007f12:	2b00      	cmp	r3, #0
 8007f14:	d1ee      	bne.n	8007ef4 <__strtok_r+0xc>
 8007f16:	6014      	str	r4, [r2, #0]
 8007f18:	7003      	strb	r3, [r0, #0]
 8007f1a:	bdf0      	pop	{r4, r5, r6, r7, pc}
 8007f1c:	3301      	adds	r3, #1
 8007f1e:	2d00      	cmp	r5, #0
 8007f20:	d102      	bne.n	8007f28 <__strtok_r+0x40>
 8007f22:	000b      	movs	r3, r1
 8007f24:	7826      	ldrb	r6, [r4, #0]
 8007f26:	3401      	adds	r4, #1
 8007f28:	781d      	ldrb	r5, [r3, #0]
 8007f2a:	42ae      	cmp	r6, r5
 8007f2c:	d1f6      	bne.n	8007f1c <__strtok_r+0x34>
 8007f2e:	2300      	movs	r3, #0
 8007f30:	001d      	movs	r5, r3
 8007f32:	429e      	cmp	r6, r3
 8007f34:	d002      	beq.n	8007f3c <__strtok_r+0x54>
 8007f36:	0023      	movs	r3, r4
 8007f38:	1e61      	subs	r1, r4, #1
 8007f3a:	700d      	strb	r5, [r1, #0]
 8007f3c:	6013      	str	r3, [r2, #0]
 8007f3e:	e7ec      	b.n	8007f1a <__strtok_r+0x32>

08007f40 <_close_r>:
 8007f40:	2300      	movs	r3, #0
 8007f42:	b570      	push	{r4, r5, r6, lr}
 8007f44:	4d06      	ldr	r5, [pc, #24]	@ (8007f60 <_close_r+0x20>)
 8007f46:	0004      	movs	r4, r0
 8007f48:	0008      	movs	r0, r1
 8007f4a:	602b      	str	r3, [r5, #0]
 8007f4c:	f7fa fbbe 	bl	80026cc <_close>
 8007f50:	1c43      	adds	r3, r0, #1
 8007f52:	d103      	bne.n	8007f5c <_close_r+0x1c>
 8007f54:	682b      	ldr	r3, [r5, #0]
 8007f56:	2b00      	cmp	r3, #0
 8007f58:	d000      	beq.n	8007f5c <_close_r+0x1c>
 8007f5a:	6023      	str	r3, [r4, #0]
 8007f5c:	bd70      	pop	{r4, r5, r6, pc}
 8007f5e:	46c0      	nop			@ (mov r8, r8)
 8007f60:	20003758 	.word	0x20003758

08007f64 <_lseek_r>:
 8007f64:	b570      	push	{r4, r5, r6, lr}
 8007f66:	0004      	movs	r4, r0
 8007f68:	0008      	movs	r0, r1
 8007f6a:	0011      	movs	r1, r2
 8007f6c:	001a      	movs	r2, r3
 8007f6e:	2300      	movs	r3, #0
 8007f70:	4d05      	ldr	r5, [pc, #20]	@ (8007f88 <_lseek_r+0x24>)
 8007f72:	602b      	str	r3, [r5, #0]
 8007f74:	f7fa fbb6 	bl	80026e4 <_lseek>
 8007f78:	1c43      	adds	r3, r0, #1
 8007f7a:	d103      	bne.n	8007f84 <_lseek_r+0x20>
 8007f7c:	682b      	ldr	r3, [r5, #0]
 8007f7e:	2b00      	cmp	r3, #0
 8007f80:	d000      	beq.n	8007f84 <_lseek_r+0x20>
 8007f82:	6023      	str	r3, [r4, #0]
 8007f84:	bd70      	pop	{r4, r5, r6, pc}
 8007f86:	46c0      	nop			@ (mov r8, r8)
 8007f88:	20003758 	.word	0x20003758

08007f8c <_read_r>:
 8007f8c:	b570      	push	{r4, r5, r6, lr}
 8007f8e:	0004      	movs	r4, r0
 8007f90:	0008      	movs	r0, r1
 8007f92:	0011      	movs	r1, r2
 8007f94:	001a      	movs	r2, r3
 8007f96:	2300      	movs	r3, #0
 8007f98:	4d05      	ldr	r5, [pc, #20]	@ (8007fb0 <_read_r+0x24>)
 8007f9a:	602b      	str	r3, [r5, #0]
 8007f9c:	f7fa fb7a 	bl	8002694 <_read>
 8007fa0:	1c43      	adds	r3, r0, #1
 8007fa2:	d103      	bne.n	8007fac <_read_r+0x20>
 8007fa4:	682b      	ldr	r3, [r5, #0]
 8007fa6:	2b00      	cmp	r3, #0
 8007fa8:	d000      	beq.n	8007fac <_read_r+0x20>
 8007faa:	6023      	str	r3, [r4, #0]
 8007fac:	bd70      	pop	{r4, r5, r6, pc}
 8007fae:	46c0      	nop			@ (mov r8, r8)
 8007fb0:	20003758 	.word	0x20003758

08007fb4 <_write_r>:
 8007fb4:	b570      	push	{r4, r5, r6, lr}
 8007fb6:	0004      	movs	r4, r0
 8007fb8:	0008      	movs	r0, r1
 8007fba:	0011      	movs	r1, r2
 8007fbc:	001a      	movs	r2, r3
 8007fbe:	2300      	movs	r3, #0
 8007fc0:	4d05      	ldr	r5, [pc, #20]	@ (8007fd8 <_write_r+0x24>)
 8007fc2:	602b      	str	r3, [r5, #0]
 8007fc4:	f7fa fb74 	bl	80026b0 <_write>
 8007fc8:	1c43      	adds	r3, r0, #1
 8007fca:	d103      	bne.n	8007fd4 <_write_r+0x20>
 8007fcc:	682b      	ldr	r3, [r5, #0]
 8007fce:	2b00      	cmp	r3, #0
 8007fd0:	d000      	beq.n	8007fd4 <_write_r+0x20>
 8007fd2:	6023      	str	r3, [r4, #0]
 8007fd4:	bd70      	pop	{r4, r5, r6, pc}
 8007fd6:	46c0      	nop			@ (mov r8, r8)
 8007fd8:	20003758 	.word	0x20003758

08007fdc <__errno>:
 8007fdc:	4b01      	ldr	r3, [pc, #4]	@ (8007fe4 <__errno+0x8>)
 8007fde:	6818      	ldr	r0, [r3, #0]
 8007fe0:	4770      	bx	lr
 8007fe2:	46c0      	nop			@ (mov r8, r8)
 8007fe4:	2000019c 	.word	0x2000019c

08007fe8 <__libc_init_array>:
 8007fe8:	b570      	push	{r4, r5, r6, lr}
 8007fea:	2600      	movs	r6, #0
 8007fec:	4c0c      	ldr	r4, [pc, #48]	@ (8008020 <__libc_init_array+0x38>)
 8007fee:	4d0d      	ldr	r5, [pc, #52]	@ (8008024 <__libc_init_array+0x3c>)
 8007ff0:	1b64      	subs	r4, r4, r5
 8007ff2:	10a4      	asrs	r4, r4, #2
 8007ff4:	42a6      	cmp	r6, r4
 8007ff6:	d109      	bne.n	800800c <__libc_init_array+0x24>
 8007ff8:	2600      	movs	r6, #0
 8007ffa:	f001 f81b 	bl	8009034 <_init>
 8007ffe:	4c0a      	ldr	r4, [pc, #40]	@ (8008028 <__libc_init_array+0x40>)
 8008000:	4d0a      	ldr	r5, [pc, #40]	@ (800802c <__libc_init_array+0x44>)
 8008002:	1b64      	subs	r4, r4, r5
 8008004:	10a4      	asrs	r4, r4, #2
 8008006:	42a6      	cmp	r6, r4
 8008008:	d105      	bne.n	8008016 <__libc_init_array+0x2e>
 800800a:	bd70      	pop	{r4, r5, r6, pc}
 800800c:	00b3      	lsls	r3, r6, #2
 800800e:	58eb      	ldr	r3, [r5, r3]
 8008010:	4798      	blx	r3
 8008012:	3601      	adds	r6, #1
 8008014:	e7ee      	b.n	8007ff4 <__libc_init_array+0xc>
 8008016:	00b3      	lsls	r3, r6, #2
 8008018:	58eb      	ldr	r3, [r5, r3]
 800801a:	4798      	blx	r3
 800801c:	3601      	adds	r6, #1
 800801e:	e7f2      	b.n	8008006 <__libc_init_array+0x1e>
 8008020:	080094f0 	.word	0x080094f0
 8008024:	080094f0 	.word	0x080094f0
 8008028:	080094f4 	.word	0x080094f4
 800802c:	080094f0 	.word	0x080094f0

08008030 <__retarget_lock_init_recursive>:
 8008030:	4770      	bx	lr

08008032 <__retarget_lock_acquire_recursive>:
 8008032:	4770      	bx	lr

08008034 <__retarget_lock_release_recursive>:
 8008034:	4770      	bx	lr

08008036 <strcpy>:
 8008036:	0003      	movs	r3, r0
 8008038:	780a      	ldrb	r2, [r1, #0]
 800803a:	3101      	adds	r1, #1
 800803c:	701a      	strb	r2, [r3, #0]
 800803e:	3301      	adds	r3, #1
 8008040:	2a00      	cmp	r2, #0
 8008042:	d1f9      	bne.n	8008038 <strcpy+0x2>
 8008044:	4770      	bx	lr

08008046 <memcpy>:
 8008046:	2300      	movs	r3, #0
 8008048:	b510      	push	{r4, lr}
 800804a:	429a      	cmp	r2, r3
 800804c:	d100      	bne.n	8008050 <memcpy+0xa>
 800804e:	bd10      	pop	{r4, pc}
 8008050:	5ccc      	ldrb	r4, [r1, r3]
 8008052:	54c4      	strb	r4, [r0, r3]
 8008054:	3301      	adds	r3, #1
 8008056:	e7f8      	b.n	800804a <memcpy+0x4>

08008058 <__assert_func>:
 8008058:	b57f      	push	{r0, r1, r2, r3, r4, r5, r6, lr}
 800805a:	0014      	movs	r4, r2
 800805c:	001a      	movs	r2, r3
 800805e:	4b09      	ldr	r3, [pc, #36]	@ (8008084 <__assert_func+0x2c>)
 8008060:	0005      	movs	r5, r0
 8008062:	681b      	ldr	r3, [r3, #0]
 8008064:	000e      	movs	r6, r1
 8008066:	68d8      	ldr	r0, [r3, #12]
 8008068:	4b07      	ldr	r3, [pc, #28]	@ (8008088 <__assert_func+0x30>)
 800806a:	2c00      	cmp	r4, #0
 800806c:	d101      	bne.n	8008072 <__assert_func+0x1a>
 800806e:	4b07      	ldr	r3, [pc, #28]	@ (800808c <__assert_func+0x34>)
 8008070:	001c      	movs	r4, r3
 8008072:	4907      	ldr	r1, [pc, #28]	@ (8008090 <__assert_func+0x38>)
 8008074:	9301      	str	r3, [sp, #4]
 8008076:	9402      	str	r4, [sp, #8]
 8008078:	002b      	movs	r3, r5
 800807a:	9600      	str	r6, [sp, #0]
 800807c:	f000 fc9e 	bl	80089bc <fiprintf>
 8008080:	f000 fcdd 	bl	8008a3e <abort>
 8008084:	2000019c 	.word	0x2000019c
 8008088:	08009480 	.word	0x08009480
 800808c:	080094bb 	.word	0x080094bb
 8008090:	0800948d 	.word	0x0800948d

08008094 <_free_r>:
 8008094:	b570      	push	{r4, r5, r6, lr}
 8008096:	0005      	movs	r5, r0
 8008098:	1e0c      	subs	r4, r1, #0
 800809a:	d010      	beq.n	80080be <_free_r+0x2a>
 800809c:	3c04      	subs	r4, #4
 800809e:	6823      	ldr	r3, [r4, #0]
 80080a0:	2b00      	cmp	r3, #0
 80080a2:	da00      	bge.n	80080a6 <_free_r+0x12>
 80080a4:	18e4      	adds	r4, r4, r3
 80080a6:	0028      	movs	r0, r5
 80080a8:	f000 f8ea 	bl	8008280 <__malloc_lock>
 80080ac:	4a1d      	ldr	r2, [pc, #116]	@ (8008124 <_free_r+0x90>)
 80080ae:	6813      	ldr	r3, [r2, #0]
 80080b0:	2b00      	cmp	r3, #0
 80080b2:	d105      	bne.n	80080c0 <_free_r+0x2c>
 80080b4:	6063      	str	r3, [r4, #4]
 80080b6:	6014      	str	r4, [r2, #0]
 80080b8:	0028      	movs	r0, r5
 80080ba:	f000 f8e9 	bl	8008290 <__malloc_unlock>
 80080be:	bd70      	pop	{r4, r5, r6, pc}
 80080c0:	42a3      	cmp	r3, r4
 80080c2:	d908      	bls.n	80080d6 <_free_r+0x42>
 80080c4:	6820      	ldr	r0, [r4, #0]
 80080c6:	1821      	adds	r1, r4, r0
 80080c8:	428b      	cmp	r3, r1
 80080ca:	d1f3      	bne.n	80080b4 <_free_r+0x20>
 80080cc:	6819      	ldr	r1, [r3, #0]
 80080ce:	685b      	ldr	r3, [r3, #4]
 80080d0:	1809      	adds	r1, r1, r0
 80080d2:	6021      	str	r1, [r4, #0]
 80080d4:	e7ee      	b.n	80080b4 <_free_r+0x20>
 80080d6:	001a      	movs	r2, r3
 80080d8:	685b      	ldr	r3, [r3, #4]
 80080da:	2b00      	cmp	r3, #0
 80080dc:	d001      	beq.n	80080e2 <_free_r+0x4e>
 80080de:	42a3      	cmp	r3, r4
 80080e0:	d9f9      	bls.n	80080d6 <_free_r+0x42>
 80080e2:	6811      	ldr	r1, [r2, #0]
 80080e4:	1850      	adds	r0, r2, r1
 80080e6:	42a0      	cmp	r0, r4
 80080e8:	d10b      	bne.n	8008102 <_free_r+0x6e>
 80080ea:	6820      	ldr	r0, [r4, #0]
 80080ec:	1809      	adds	r1, r1, r0
 80080ee:	1850      	adds	r0, r2, r1
 80080f0:	6011      	str	r1, [r2, #0]
 80080f2:	4283      	cmp	r3, r0
 80080f4:	d1e0      	bne.n	80080b8 <_free_r+0x24>
 80080f6:	6818      	ldr	r0, [r3, #0]
 80080f8:	685b      	ldr	r3, [r3, #4]
 80080fa:	1841      	adds	r1, r0, r1
 80080fc:	6011      	str	r1, [r2, #0]
 80080fe:	6053      	str	r3, [r2, #4]
 8008100:	e7da      	b.n	80080b8 <_free_r+0x24>
 8008102:	42a0      	cmp	r0, r4
 8008104:	d902      	bls.n	800810c <_free_r+0x78>
 8008106:	230c      	movs	r3, #12
 8008108:	602b      	str	r3, [r5, #0]
 800810a:	e7d5      	b.n	80080b8 <_free_r+0x24>
 800810c:	6820      	ldr	r0, [r4, #0]
 800810e:	1821      	adds	r1, r4, r0
 8008110:	428b      	cmp	r3, r1
 8008112:	d103      	bne.n	800811c <_free_r+0x88>
 8008114:	6819      	ldr	r1, [r3, #0]
 8008116:	685b      	ldr	r3, [r3, #4]
 8008118:	1809      	adds	r1, r1, r0
 800811a:	6021      	str	r1, [r4, #0]
 800811c:	6063      	str	r3, [r4, #4]
 800811e:	6054      	str	r4, [r2, #4]
 8008120:	e7ca      	b.n	80080b8 <_free_r+0x24>
 8008122:	46c0      	nop			@ (mov r8, r8)
 8008124:	20003764 	.word	0x20003764

08008128 <malloc>:
 8008128:	b510      	push	{r4, lr}
 800812a:	4b03      	ldr	r3, [pc, #12]	@ (8008138 <malloc+0x10>)
 800812c:	0001      	movs	r1, r0
 800812e:	6818      	ldr	r0, [r3, #0]
 8008130:	f000 f826 	bl	8008180 <_malloc_r>
 8008134:	bd10      	pop	{r4, pc}
 8008136:	46c0      	nop			@ (mov r8, r8)
 8008138:	2000019c 	.word	0x2000019c

0800813c <sbrk_aligned>:
 800813c:	b570      	push	{r4, r5, r6, lr}
 800813e:	4e0f      	ldr	r6, [pc, #60]	@ (800817c <sbrk_aligned+0x40>)
 8008140:	000d      	movs	r5, r1
 8008142:	6831      	ldr	r1, [r6, #0]
 8008144:	0004      	movs	r4, r0
 8008146:	2900      	cmp	r1, #0
 8008148:	d102      	bne.n	8008150 <sbrk_aligned+0x14>
 800814a:	f000 fc5b 	bl	8008a04 <_sbrk_r>
 800814e:	6030      	str	r0, [r6, #0]
 8008150:	0029      	movs	r1, r5
 8008152:	0020      	movs	r0, r4
 8008154:	f000 fc56 	bl	8008a04 <_sbrk_r>
 8008158:	1c43      	adds	r3, r0, #1
 800815a:	d103      	bne.n	8008164 <sbrk_aligned+0x28>
 800815c:	2501      	movs	r5, #1
 800815e:	426d      	negs	r5, r5
 8008160:	0028      	movs	r0, r5
 8008162:	bd70      	pop	{r4, r5, r6, pc}
 8008164:	2303      	movs	r3, #3
 8008166:	1cc5      	adds	r5, r0, #3
 8008168:	439d      	bics	r5, r3
 800816a:	42a8      	cmp	r0, r5
 800816c:	d0f8      	beq.n	8008160 <sbrk_aligned+0x24>
 800816e:	1a29      	subs	r1, r5, r0
 8008170:	0020      	movs	r0, r4
 8008172:	f000 fc47 	bl	8008a04 <_sbrk_r>
 8008176:	3001      	adds	r0, #1
 8008178:	d1f2      	bne.n	8008160 <sbrk_aligned+0x24>
 800817a:	e7ef      	b.n	800815c <sbrk_aligned+0x20>
 800817c:	20003760 	.word	0x20003760

08008180 <_malloc_r>:
 8008180:	b5f7      	push	{r0, r1, r2, r4, r5, r6, r7, lr}
 8008182:	2203      	movs	r2, #3
 8008184:	1ccb      	adds	r3, r1, #3
 8008186:	4393      	bics	r3, r2
 8008188:	3308      	adds	r3, #8
 800818a:	0005      	movs	r5, r0
 800818c:	001f      	movs	r7, r3
 800818e:	2b0c      	cmp	r3, #12
 8008190:	d234      	bcs.n	80081fc <_malloc_r+0x7c>
 8008192:	270c      	movs	r7, #12
 8008194:	42b9      	cmp	r1, r7
 8008196:	d833      	bhi.n	8008200 <_malloc_r+0x80>
 8008198:	0028      	movs	r0, r5
 800819a:	f000 f871 	bl	8008280 <__malloc_lock>
 800819e:	4e37      	ldr	r6, [pc, #220]	@ (800827c <_malloc_r+0xfc>)
 80081a0:	6833      	ldr	r3, [r6, #0]
 80081a2:	001c      	movs	r4, r3
 80081a4:	2c00      	cmp	r4, #0
 80081a6:	d12f      	bne.n	8008208 <_malloc_r+0x88>
 80081a8:	0039      	movs	r1, r7
 80081aa:	0028      	movs	r0, r5
 80081ac:	f7ff ffc6 	bl	800813c <sbrk_aligned>
 80081b0:	0004      	movs	r4, r0
 80081b2:	1c43      	adds	r3, r0, #1
 80081b4:	d15f      	bne.n	8008276 <_malloc_r+0xf6>
 80081b6:	6834      	ldr	r4, [r6, #0]
 80081b8:	9400      	str	r4, [sp, #0]
 80081ba:	9b00      	ldr	r3, [sp, #0]
 80081bc:	2b00      	cmp	r3, #0
 80081be:	d14a      	bne.n	8008256 <_malloc_r+0xd6>
 80081c0:	2c00      	cmp	r4, #0
 80081c2:	d052      	beq.n	800826a <_malloc_r+0xea>
 80081c4:	6823      	ldr	r3, [r4, #0]
 80081c6:	0028      	movs	r0, r5
 80081c8:	18e3      	adds	r3, r4, r3
 80081ca:	9900      	ldr	r1, [sp, #0]
 80081cc:	9301      	str	r3, [sp, #4]
 80081ce:	f000 fc19 	bl	8008a04 <_sbrk_r>
 80081d2:	9b01      	ldr	r3, [sp, #4]
 80081d4:	4283      	cmp	r3, r0
 80081d6:	d148      	bne.n	800826a <_malloc_r+0xea>
 80081d8:	6823      	ldr	r3, [r4, #0]
 80081da:	0028      	movs	r0, r5
 80081dc:	1aff      	subs	r7, r7, r3
 80081de:	0039      	movs	r1, r7
 80081e0:	f7ff ffac 	bl	800813c <sbrk_aligned>
 80081e4:	3001      	adds	r0, #1
 80081e6:	d040      	beq.n	800826a <_malloc_r+0xea>
 80081e8:	6823      	ldr	r3, [r4, #0]
 80081ea:	19db      	adds	r3, r3, r7
 80081ec:	6023      	str	r3, [r4, #0]
 80081ee:	6833      	ldr	r3, [r6, #0]
 80081f0:	685a      	ldr	r2, [r3, #4]
 80081f2:	2a00      	cmp	r2, #0
 80081f4:	d133      	bne.n	800825e <_malloc_r+0xde>
 80081f6:	9b00      	ldr	r3, [sp, #0]
 80081f8:	6033      	str	r3, [r6, #0]
 80081fa:	e019      	b.n	8008230 <_malloc_r+0xb0>
 80081fc:	2b00      	cmp	r3, #0
 80081fe:	dac9      	bge.n	8008194 <_malloc_r+0x14>
 8008200:	230c      	movs	r3, #12
 8008202:	602b      	str	r3, [r5, #0]
 8008204:	2000      	movs	r0, #0
 8008206:	bdfe      	pop	{r1, r2, r3, r4, r5, r6, r7, pc}
 8008208:	6821      	ldr	r1, [r4, #0]
 800820a:	1bc9      	subs	r1, r1, r7
 800820c:	d420      	bmi.n	8008250 <_malloc_r+0xd0>
 800820e:	290b      	cmp	r1, #11
 8008210:	d90a      	bls.n	8008228 <_malloc_r+0xa8>
 8008212:	19e2      	adds	r2, r4, r7
 8008214:	6027      	str	r7, [r4, #0]
 8008216:	42a3      	cmp	r3, r4
 8008218:	d104      	bne.n	8008224 <_malloc_r+0xa4>
 800821a:	6032      	str	r2, [r6, #0]
 800821c:	6863      	ldr	r3, [r4, #4]
 800821e:	6011      	str	r1, [r2, #0]
 8008220:	6053      	str	r3, [r2, #4]
 8008222:	e005      	b.n	8008230 <_malloc_r+0xb0>
 8008224:	605a      	str	r2, [r3, #4]
 8008226:	e7f9      	b.n	800821c <_malloc_r+0x9c>
 8008228:	6862      	ldr	r2, [r4, #4]
 800822a:	42a3      	cmp	r3, r4
 800822c:	d10e      	bne.n	800824c <_malloc_r+0xcc>
 800822e:	6032      	str	r2, [r6, #0]
 8008230:	0028      	movs	r0, r5
 8008232:	f000 f82d 	bl	8008290 <__malloc_unlock>
 8008236:	0020      	movs	r0, r4
 8008238:	2207      	movs	r2, #7
 800823a:	300b      	adds	r0, #11
 800823c:	1d23      	adds	r3, r4, #4
 800823e:	4390      	bics	r0, r2
 8008240:	1ac2      	subs	r2, r0, r3
 8008242:	4298      	cmp	r0, r3
 8008244:	d0df      	beq.n	8008206 <_malloc_r+0x86>
 8008246:	1a1b      	subs	r3, r3, r0
 8008248:	50a3      	str	r3, [r4, r2]
 800824a:	e7dc      	b.n	8008206 <_malloc_r+0x86>
 800824c:	605a      	str	r2, [r3, #4]
 800824e:	e7ef      	b.n	8008230 <_malloc_r+0xb0>
 8008250:	0023      	movs	r3, r4
 8008252:	6864      	ldr	r4, [r4, #4]
 8008254:	e7a6      	b.n	80081a4 <_malloc_r+0x24>
 8008256:	9c00      	ldr	r4, [sp, #0]
 8008258:	6863      	ldr	r3, [r4, #4]
 800825a:	9300      	str	r3, [sp, #0]
 800825c:	e7ad      	b.n	80081ba <_malloc_r+0x3a>
 800825e:	001a      	movs	r2, r3
 8008260:	685b      	ldr	r3, [r3, #4]
 8008262:	42a3      	cmp	r3, r4
 8008264:	d1fb      	bne.n	800825e <_malloc_r+0xde>
 8008266:	2300      	movs	r3, #0
 8008268:	e7da      	b.n	8008220 <_malloc_r+0xa0>
 800826a:	230c      	movs	r3, #12
 800826c:	0028      	movs	r0, r5
 800826e:	602b      	str	r3, [r5, #0]
 8008270:	f000 f80e 	bl	8008290 <__malloc_unlock>
 8008274:	e7c6      	b.n	8008204 <_malloc_r+0x84>
 8008276:	6007      	str	r7, [r0, #0]
 8008278:	e7da      	b.n	8008230 <_malloc_r+0xb0>
 800827a:	46c0      	nop			@ (mov r8, r8)
 800827c:	20003764 	.word	0x20003764

08008280 <__malloc_lock>:
 8008280:	b510      	push	{r4, lr}
 8008282:	4802      	ldr	r0, [pc, #8]	@ (800828c <__malloc_lock+0xc>)
 8008284:	f7ff fed5 	bl	8008032 <__retarget_lock_acquire_recursive>
 8008288:	bd10      	pop	{r4, pc}
 800828a:	46c0      	nop			@ (mov r8, r8)
 800828c:	2000375c 	.word	0x2000375c

08008290 <__malloc_unlock>:
 8008290:	b510      	push	{r4, lr}
 8008292:	4802      	ldr	r0, [pc, #8]	@ (800829c <__malloc_unlock+0xc>)
 8008294:	f7ff fece 	bl	8008034 <__retarget_lock_release_recursive>
 8008298:	bd10      	pop	{r4, pc}
 800829a:	46c0      	nop			@ (mov r8, r8)
 800829c:	2000375c 	.word	0x2000375c

080082a0 <__ssputs_r>:
 80082a0:	b5f0      	push	{r4, r5, r6, r7, lr}
 80082a2:	688e      	ldr	r6, [r1, #8]
 80082a4:	b085      	sub	sp, #20
 80082a6:	001f      	movs	r7, r3
 80082a8:	000c      	movs	r4, r1
 80082aa:	680b      	ldr	r3, [r1, #0]
 80082ac:	9002      	str	r0, [sp, #8]
 80082ae:	9203      	str	r2, [sp, #12]
 80082b0:	42be      	cmp	r6, r7
 80082b2:	d830      	bhi.n	8008316 <__ssputs_r+0x76>
 80082b4:	210c      	movs	r1, #12
 80082b6:	5e62      	ldrsh	r2, [r4, r1]
 80082b8:	2190      	movs	r1, #144	@ 0x90
 80082ba:	00c9      	lsls	r1, r1, #3
 80082bc:	420a      	tst	r2, r1
 80082be:	d028      	beq.n	8008312 <__ssputs_r+0x72>
 80082c0:	2003      	movs	r0, #3
 80082c2:	6921      	ldr	r1, [r4, #16]
 80082c4:	1a5b      	subs	r3, r3, r1
 80082c6:	9301      	str	r3, [sp, #4]
 80082c8:	6963      	ldr	r3, [r4, #20]
 80082ca:	4343      	muls	r3, r0
 80082cc:	9801      	ldr	r0, [sp, #4]
 80082ce:	0fdd      	lsrs	r5, r3, #31
 80082d0:	18ed      	adds	r5, r5, r3
 80082d2:	1c7b      	adds	r3, r7, #1
 80082d4:	181b      	adds	r3, r3, r0
 80082d6:	106d      	asrs	r5, r5, #1
 80082d8:	42ab      	cmp	r3, r5
 80082da:	d900      	bls.n	80082de <__ssputs_r+0x3e>
 80082dc:	001d      	movs	r5, r3
 80082de:	0552      	lsls	r2, r2, #21
 80082e0:	d528      	bpl.n	8008334 <__ssputs_r+0x94>
 80082e2:	0029      	movs	r1, r5
 80082e4:	9802      	ldr	r0, [sp, #8]
 80082e6:	f7ff ff4b 	bl	8008180 <_malloc_r>
 80082ea:	1e06      	subs	r6, r0, #0
 80082ec:	d02c      	beq.n	8008348 <__ssputs_r+0xa8>
 80082ee:	9a01      	ldr	r2, [sp, #4]
 80082f0:	6921      	ldr	r1, [r4, #16]
 80082f2:	f7ff fea8 	bl	8008046 <memcpy>
 80082f6:	89a2      	ldrh	r2, [r4, #12]
 80082f8:	4b18      	ldr	r3, [pc, #96]	@ (800835c <__ssputs_r+0xbc>)
 80082fa:	401a      	ands	r2, r3
 80082fc:	2380      	movs	r3, #128	@ 0x80
 80082fe:	4313      	orrs	r3, r2
 8008300:	81a3      	strh	r3, [r4, #12]
 8008302:	9b01      	ldr	r3, [sp, #4]
 8008304:	6126      	str	r6, [r4, #16]
 8008306:	18f6      	adds	r6, r6, r3
 8008308:	6026      	str	r6, [r4, #0]
 800830a:	003e      	movs	r6, r7
 800830c:	6165      	str	r5, [r4, #20]
 800830e:	1aed      	subs	r5, r5, r3
 8008310:	60a5      	str	r5, [r4, #8]
 8008312:	42be      	cmp	r6, r7
 8008314:	d900      	bls.n	8008318 <__ssputs_r+0x78>
 8008316:	003e      	movs	r6, r7
 8008318:	0032      	movs	r2, r6
 800831a:	9903      	ldr	r1, [sp, #12]
 800831c:	6820      	ldr	r0, [r4, #0]
 800831e:	f000 fb5d 	bl	80089dc <memmove>
 8008322:	2000      	movs	r0, #0
 8008324:	68a3      	ldr	r3, [r4, #8]
 8008326:	1b9b      	subs	r3, r3, r6
 8008328:	60a3      	str	r3, [r4, #8]
 800832a:	6823      	ldr	r3, [r4, #0]
 800832c:	199b      	adds	r3, r3, r6
 800832e:	6023      	str	r3, [r4, #0]
 8008330:	b005      	add	sp, #20
 8008332:	bdf0      	pop	{r4, r5, r6, r7, pc}
 8008334:	002a      	movs	r2, r5
 8008336:	9802      	ldr	r0, [sp, #8]
 8008338:	f000 fb88 	bl	8008a4c <_realloc_r>
 800833c:	1e06      	subs	r6, r0, #0
 800833e:	d1e0      	bne.n	8008302 <__ssputs_r+0x62>
 8008340:	6921      	ldr	r1, [r4, #16]
 8008342:	9802      	ldr	r0, [sp, #8]
 8008344:	f7ff fea6 	bl	8008094 <_free_r>
 8008348:	230c      	movs	r3, #12
 800834a:	2001      	movs	r0, #1
 800834c:	9a02      	ldr	r2, [sp, #8]
 800834e:	4240      	negs	r0, r0
 8008350:	6013      	str	r3, [r2, #0]
 8008352:	89a2      	ldrh	r2, [r4, #12]
 8008354:	3334      	adds	r3, #52	@ 0x34
 8008356:	4313      	orrs	r3, r2
 8008358:	81a3      	strh	r3, [r4, #12]
 800835a:	e7e9      	b.n	8008330 <__ssputs_r+0x90>
 800835c:	fffffb7f 	.word	0xfffffb7f

08008360 <_svfiprintf_r>:
 8008360:	b5f0      	push	{r4, r5, r6, r7, lr}
 8008362:	b0a1      	sub	sp, #132	@ 0x84
 8008364:	9003      	str	r0, [sp, #12]
 8008366:	001d      	movs	r5, r3
 8008368:	898b      	ldrh	r3, [r1, #12]
 800836a:	000f      	movs	r7, r1
 800836c:	0016      	movs	r6, r2
 800836e:	061b      	lsls	r3, r3, #24
 8008370:	d511      	bpl.n	8008396 <_svfiprintf_r+0x36>
 8008372:	690b      	ldr	r3, [r1, #16]
 8008374:	2b00      	cmp	r3, #0
 8008376:	d10e      	bne.n	8008396 <_svfiprintf_r+0x36>
 8008378:	2140      	movs	r1, #64	@ 0x40
 800837a:	f7ff ff01 	bl	8008180 <_malloc_r>
 800837e:	6038      	str	r0, [r7, #0]
 8008380:	6138      	str	r0, [r7, #16]
 8008382:	2800      	cmp	r0, #0
 8008384:	d105      	bne.n	8008392 <_svfiprintf_r+0x32>
 8008386:	230c      	movs	r3, #12
 8008388:	9a03      	ldr	r2, [sp, #12]
 800838a:	6013      	str	r3, [r2, #0]
 800838c:	2001      	movs	r0, #1
 800838e:	4240      	negs	r0, r0
 8008390:	e0cf      	b.n	8008532 <_svfiprintf_r+0x1d2>
 8008392:	2340      	movs	r3, #64	@ 0x40
 8008394:	617b      	str	r3, [r7, #20]
 8008396:	2300      	movs	r3, #0
 8008398:	ac08      	add	r4, sp, #32
 800839a:	6163      	str	r3, [r4, #20]
 800839c:	3320      	adds	r3, #32
 800839e:	7663      	strb	r3, [r4, #25]
 80083a0:	3310      	adds	r3, #16
 80083a2:	76a3      	strb	r3, [r4, #26]
 80083a4:	9507      	str	r5, [sp, #28]
 80083a6:	0035      	movs	r5, r6
 80083a8:	782b      	ldrb	r3, [r5, #0]
 80083aa:	2b00      	cmp	r3, #0
 80083ac:	d001      	beq.n	80083b2 <_svfiprintf_r+0x52>
 80083ae:	2b25      	cmp	r3, #37	@ 0x25
 80083b0:	d148      	bne.n	8008444 <_svfiprintf_r+0xe4>
 80083b2:	1bab      	subs	r3, r5, r6
 80083b4:	9305      	str	r3, [sp, #20]
 80083b6:	42b5      	cmp	r5, r6
 80083b8:	d00b      	beq.n	80083d2 <_svfiprintf_r+0x72>
 80083ba:	0032      	movs	r2, r6
 80083bc:	0039      	movs	r1, r7
 80083be:	9803      	ldr	r0, [sp, #12]
 80083c0:	f7ff ff6e 	bl	80082a0 <__ssputs_r>
 80083c4:	3001      	adds	r0, #1
 80083c6:	d100      	bne.n	80083ca <_svfiprintf_r+0x6a>
 80083c8:	e0ae      	b.n	8008528 <_svfiprintf_r+0x1c8>
 80083ca:	6963      	ldr	r3, [r4, #20]
 80083cc:	9a05      	ldr	r2, [sp, #20]
 80083ce:	189b      	adds	r3, r3, r2
 80083d0:	6163      	str	r3, [r4, #20]
 80083d2:	782b      	ldrb	r3, [r5, #0]
 80083d4:	2b00      	cmp	r3, #0
 80083d6:	d100      	bne.n	80083da <_svfiprintf_r+0x7a>
 80083d8:	e0a6      	b.n	8008528 <_svfiprintf_r+0x1c8>
 80083da:	2201      	movs	r2, #1
 80083dc:	2300      	movs	r3, #0
 80083de:	4252      	negs	r2, r2
 80083e0:	6062      	str	r2, [r4, #4]
 80083e2:	a904      	add	r1, sp, #16
 80083e4:	3254      	adds	r2, #84	@ 0x54
 80083e6:	1852      	adds	r2, r2, r1
 80083e8:	1c6e      	adds	r6, r5, #1
 80083ea:	6023      	str	r3, [r4, #0]
 80083ec:	60e3      	str	r3, [r4, #12]
 80083ee:	60a3      	str	r3, [r4, #8]
 80083f0:	7013      	strb	r3, [r2, #0]
 80083f2:	65a3      	str	r3, [r4, #88]	@ 0x58
 80083f4:	4b54      	ldr	r3, [pc, #336]	@ (8008548 <_svfiprintf_r+0x1e8>)
 80083f6:	2205      	movs	r2, #5
 80083f8:	0018      	movs	r0, r3
 80083fa:	7831      	ldrb	r1, [r6, #0]
 80083fc:	9305      	str	r3, [sp, #20]
 80083fe:	f000 fb13 	bl	8008a28 <memchr>
 8008402:	1c75      	adds	r5, r6, #1
 8008404:	2800      	cmp	r0, #0
 8008406:	d11f      	bne.n	8008448 <_svfiprintf_r+0xe8>
 8008408:	6822      	ldr	r2, [r4, #0]
 800840a:	06d3      	lsls	r3, r2, #27
 800840c:	d504      	bpl.n	8008418 <_svfiprintf_r+0xb8>
 800840e:	2353      	movs	r3, #83	@ 0x53
 8008410:	a904      	add	r1, sp, #16
 8008412:	185b      	adds	r3, r3, r1
 8008414:	2120      	movs	r1, #32
 8008416:	7019      	strb	r1, [r3, #0]
 8008418:	0713      	lsls	r3, r2, #28
 800841a:	d504      	bpl.n	8008426 <_svfiprintf_r+0xc6>
 800841c:	2353      	movs	r3, #83	@ 0x53
 800841e:	a904      	add	r1, sp, #16
 8008420:	185b      	adds	r3, r3, r1
 8008422:	212b      	movs	r1, #43	@ 0x2b
 8008424:	7019      	strb	r1, [r3, #0]
 8008426:	7833      	ldrb	r3, [r6, #0]
 8008428:	2b2a      	cmp	r3, #42	@ 0x2a
 800842a:	d016      	beq.n	800845a <_svfiprintf_r+0xfa>
 800842c:	0035      	movs	r5, r6
 800842e:	2100      	movs	r1, #0
 8008430:	200a      	movs	r0, #10
 8008432:	68e3      	ldr	r3, [r4, #12]
 8008434:	782a      	ldrb	r2, [r5, #0]
 8008436:	1c6e      	adds	r6, r5, #1
 8008438:	3a30      	subs	r2, #48	@ 0x30
 800843a:	2a09      	cmp	r2, #9
 800843c:	d950      	bls.n	80084e0 <_svfiprintf_r+0x180>
 800843e:	2900      	cmp	r1, #0
 8008440:	d111      	bne.n	8008466 <_svfiprintf_r+0x106>
 8008442:	e017      	b.n	8008474 <_svfiprintf_r+0x114>
 8008444:	3501      	adds	r5, #1
 8008446:	e7af      	b.n	80083a8 <_svfiprintf_r+0x48>
 8008448:	9b05      	ldr	r3, [sp, #20]
 800844a:	6822      	ldr	r2, [r4, #0]
 800844c:	1ac0      	subs	r0, r0, r3
 800844e:	2301      	movs	r3, #1
 8008450:	4083      	lsls	r3, r0
 8008452:	4313      	orrs	r3, r2
 8008454:	002e      	movs	r6, r5
 8008456:	6023      	str	r3, [r4, #0]
 8008458:	e7cc      	b.n	80083f4 <_svfiprintf_r+0x94>
 800845a:	9b07      	ldr	r3, [sp, #28]
 800845c:	1d19      	adds	r1, r3, #4
 800845e:	681b      	ldr	r3, [r3, #0]
 8008460:	9107      	str	r1, [sp, #28]
 8008462:	2b00      	cmp	r3, #0
 8008464:	db01      	blt.n	800846a <_svfiprintf_r+0x10a>
 8008466:	930b      	str	r3, [sp, #44]	@ 0x2c
 8008468:	e004      	b.n	8008474 <_svfiprintf_r+0x114>
 800846a:	425b      	negs	r3, r3
 800846c:	60e3      	str	r3, [r4, #12]
 800846e:	2302      	movs	r3, #2
 8008470:	4313      	orrs	r3, r2
 8008472:	6023      	str	r3, [r4, #0]
 8008474:	782b      	ldrb	r3, [r5, #0]
 8008476:	2b2e      	cmp	r3, #46	@ 0x2e
 8008478:	d10c      	bne.n	8008494 <_svfiprintf_r+0x134>
 800847a:	786b      	ldrb	r3, [r5, #1]
 800847c:	2b2a      	cmp	r3, #42	@ 0x2a
 800847e:	d134      	bne.n	80084ea <_svfiprintf_r+0x18a>
 8008480:	9b07      	ldr	r3, [sp, #28]
 8008482:	3502      	adds	r5, #2
 8008484:	1d1a      	adds	r2, r3, #4
 8008486:	681b      	ldr	r3, [r3, #0]
 8008488:	9207      	str	r2, [sp, #28]
 800848a:	2b00      	cmp	r3, #0
 800848c:	da01      	bge.n	8008492 <_svfiprintf_r+0x132>
 800848e:	2301      	movs	r3, #1
 8008490:	425b      	negs	r3, r3
 8008492:	9309      	str	r3, [sp, #36]	@ 0x24
 8008494:	4e2d      	ldr	r6, [pc, #180]	@ (800854c <_svfiprintf_r+0x1ec>)
 8008496:	2203      	movs	r2, #3
 8008498:	0030      	movs	r0, r6
 800849a:	7829      	ldrb	r1, [r5, #0]
 800849c:	f000 fac4 	bl	8008a28 <memchr>
 80084a0:	2800      	cmp	r0, #0
 80084a2:	d006      	beq.n	80084b2 <_svfiprintf_r+0x152>
 80084a4:	2340      	movs	r3, #64	@ 0x40
 80084a6:	1b80      	subs	r0, r0, r6
 80084a8:	4083      	lsls	r3, r0
 80084aa:	6822      	ldr	r2, [r4, #0]
 80084ac:	3501      	adds	r5, #1
 80084ae:	4313      	orrs	r3, r2
 80084b0:	6023      	str	r3, [r4, #0]
 80084b2:	7829      	ldrb	r1, [r5, #0]
 80084b4:	2206      	movs	r2, #6
 80084b6:	4826      	ldr	r0, [pc, #152]	@ (8008550 <_svfiprintf_r+0x1f0>)
 80084b8:	1c6e      	adds	r6, r5, #1
 80084ba:	7621      	strb	r1, [r4, #24]
 80084bc:	f000 fab4 	bl	8008a28 <memchr>
 80084c0:	2800      	cmp	r0, #0
 80084c2:	d038      	beq.n	8008536 <_svfiprintf_r+0x1d6>
 80084c4:	4b23      	ldr	r3, [pc, #140]	@ (8008554 <_svfiprintf_r+0x1f4>)
 80084c6:	2b00      	cmp	r3, #0
 80084c8:	d122      	bne.n	8008510 <_svfiprintf_r+0x1b0>
 80084ca:	2207      	movs	r2, #7
 80084cc:	9b07      	ldr	r3, [sp, #28]
 80084ce:	3307      	adds	r3, #7
 80084d0:	4393      	bics	r3, r2
 80084d2:	3308      	adds	r3, #8
 80084d4:	9307      	str	r3, [sp, #28]
 80084d6:	6963      	ldr	r3, [r4, #20]
 80084d8:	9a04      	ldr	r2, [sp, #16]
 80084da:	189b      	adds	r3, r3, r2
 80084dc:	6163      	str	r3, [r4, #20]
 80084de:	e762      	b.n	80083a6 <_svfiprintf_r+0x46>
 80084e0:	4343      	muls	r3, r0
 80084e2:	0035      	movs	r5, r6
 80084e4:	2101      	movs	r1, #1
 80084e6:	189b      	adds	r3, r3, r2
 80084e8:	e7a4      	b.n	8008434 <_svfiprintf_r+0xd4>
 80084ea:	2300      	movs	r3, #0
 80084ec:	200a      	movs	r0, #10
 80084ee:	0019      	movs	r1, r3
 80084f0:	3501      	adds	r5, #1
 80084f2:	6063      	str	r3, [r4, #4]
 80084f4:	782a      	ldrb	r2, [r5, #0]
 80084f6:	1c6e      	adds	r6, r5, #1
 80084f8:	3a30      	subs	r2, #48	@ 0x30
 80084fa:	2a09      	cmp	r2, #9
 80084fc:	d903      	bls.n	8008506 <_svfiprintf_r+0x1a6>
 80084fe:	2b00      	cmp	r3, #0
 8008500:	d0c8      	beq.n	8008494 <_svfiprintf_r+0x134>
 8008502:	9109      	str	r1, [sp, #36]	@ 0x24
 8008504:	e7c6      	b.n	8008494 <_svfiprintf_r+0x134>
 8008506:	4341      	muls	r1, r0
 8008508:	0035      	movs	r5, r6
 800850a:	2301      	movs	r3, #1
 800850c:	1889      	adds	r1, r1, r2
 800850e:	e7f1      	b.n	80084f4 <_svfiprintf_r+0x194>
 8008510:	aa07      	add	r2, sp, #28
 8008512:	9200      	str	r2, [sp, #0]
 8008514:	0021      	movs	r1, r4
 8008516:	003a      	movs	r2, r7
 8008518:	4b0f      	ldr	r3, [pc, #60]	@ (8008558 <_svfiprintf_r+0x1f8>)
 800851a:	9803      	ldr	r0, [sp, #12]
 800851c:	e000      	b.n	8008520 <_svfiprintf_r+0x1c0>
 800851e:	bf00      	nop
 8008520:	9004      	str	r0, [sp, #16]
 8008522:	9b04      	ldr	r3, [sp, #16]
 8008524:	3301      	adds	r3, #1
 8008526:	d1d6      	bne.n	80084d6 <_svfiprintf_r+0x176>
 8008528:	89bb      	ldrh	r3, [r7, #12]
 800852a:	980d      	ldr	r0, [sp, #52]	@ 0x34
 800852c:	065b      	lsls	r3, r3, #25
 800852e:	d500      	bpl.n	8008532 <_svfiprintf_r+0x1d2>
 8008530:	e72c      	b.n	800838c <_svfiprintf_r+0x2c>
 8008532:	b021      	add	sp, #132	@ 0x84
 8008534:	bdf0      	pop	{r4, r5, r6, r7, pc}
 8008536:	aa07      	add	r2, sp, #28
 8008538:	9200      	str	r2, [sp, #0]
 800853a:	0021      	movs	r1, r4
 800853c:	003a      	movs	r2, r7
 800853e:	4b06      	ldr	r3, [pc, #24]	@ (8008558 <_svfiprintf_r+0x1f8>)
 8008540:	9803      	ldr	r0, [sp, #12]
 8008542:	f000 f87b 	bl	800863c <_printf_i>
 8008546:	e7eb      	b.n	8008520 <_svfiprintf_r+0x1c0>
 8008548:	080094bc 	.word	0x080094bc
 800854c:	080094c2 	.word	0x080094c2
 8008550:	080094c6 	.word	0x080094c6
 8008554:	00000000 	.word	0x00000000
 8008558:	080082a1 	.word	0x080082a1

0800855c <_printf_common>:
 800855c:	b5f7      	push	{r0, r1, r2, r4, r5, r6, r7, lr}
 800855e:	0016      	movs	r6, r2
 8008560:	9301      	str	r3, [sp, #4]
 8008562:	688a      	ldr	r2, [r1, #8]
 8008564:	690b      	ldr	r3, [r1, #16]
 8008566:	000c      	movs	r4, r1
 8008568:	9000      	str	r0, [sp, #0]
 800856a:	4293      	cmp	r3, r2
 800856c:	da00      	bge.n	8008570 <_printf_common+0x14>
 800856e:	0013      	movs	r3, r2
 8008570:	0022      	movs	r2, r4
 8008572:	6033      	str	r3, [r6, #0]
 8008574:	3243      	adds	r2, #67	@ 0x43
 8008576:	7812      	ldrb	r2, [r2, #0]
 8008578:	2a00      	cmp	r2, #0
 800857a:	d001      	beq.n	8008580 <_printf_common+0x24>
 800857c:	3301      	adds	r3, #1
 800857e:	6033      	str	r3, [r6, #0]
 8008580:	6823      	ldr	r3, [r4, #0]
 8008582:	069b      	lsls	r3, r3, #26
 8008584:	d502      	bpl.n	800858c <_printf_common+0x30>
 8008586:	6833      	ldr	r3, [r6, #0]
 8008588:	3302      	adds	r3, #2
 800858a:	6033      	str	r3, [r6, #0]
 800858c:	6822      	ldr	r2, [r4, #0]
 800858e:	2306      	movs	r3, #6
 8008590:	0015      	movs	r5, r2
 8008592:	401d      	ands	r5, r3
 8008594:	421a      	tst	r2, r3
 8008596:	d027      	beq.n	80085e8 <_printf_common+0x8c>
 8008598:	0023      	movs	r3, r4
 800859a:	3343      	adds	r3, #67	@ 0x43
 800859c:	781b      	ldrb	r3, [r3, #0]
 800859e:	1e5a      	subs	r2, r3, #1
 80085a0:	4193      	sbcs	r3, r2
 80085a2:	6822      	ldr	r2, [r4, #0]
 80085a4:	0692      	lsls	r2, r2, #26
 80085a6:	d430      	bmi.n	800860a <_printf_common+0xae>
 80085a8:	0022      	movs	r2, r4
 80085aa:	9901      	ldr	r1, [sp, #4]
 80085ac:	9800      	ldr	r0, [sp, #0]
 80085ae:	9d08      	ldr	r5, [sp, #32]
 80085b0:	3243      	adds	r2, #67	@ 0x43
 80085b2:	47a8      	blx	r5
 80085b4:	3001      	adds	r0, #1
 80085b6:	d025      	beq.n	8008604 <_printf_common+0xa8>
 80085b8:	2206      	movs	r2, #6
 80085ba:	6823      	ldr	r3, [r4, #0]
 80085bc:	2500      	movs	r5, #0
 80085be:	4013      	ands	r3, r2
 80085c0:	2b04      	cmp	r3, #4
 80085c2:	d105      	bne.n	80085d0 <_printf_common+0x74>
 80085c4:	6833      	ldr	r3, [r6, #0]
 80085c6:	68e5      	ldr	r5, [r4, #12]
 80085c8:	1aed      	subs	r5, r5, r3
 80085ca:	43eb      	mvns	r3, r5
 80085cc:	17db      	asrs	r3, r3, #31
 80085ce:	401d      	ands	r5, r3
 80085d0:	68a3      	ldr	r3, [r4, #8]
 80085d2:	6922      	ldr	r2, [r4, #16]
 80085d4:	4293      	cmp	r3, r2
 80085d6:	dd01      	ble.n	80085dc <_printf_common+0x80>
 80085d8:	1a9b      	subs	r3, r3, r2
 80085da:	18ed      	adds	r5, r5, r3
 80085dc:	2600      	movs	r6, #0
 80085de:	42b5      	cmp	r5, r6
 80085e0:	d120      	bne.n	8008624 <_printf_common+0xc8>
 80085e2:	2000      	movs	r0, #0
 80085e4:	e010      	b.n	8008608 <_printf_common+0xac>
 80085e6:	3501      	adds	r5, #1
 80085e8:	68e3      	ldr	r3, [r4, #12]
 80085ea:	6832      	ldr	r2, [r6, #0]
 80085ec:	1a9b      	subs	r3, r3, r2
 80085ee:	42ab      	cmp	r3, r5
 80085f0:	ddd2      	ble.n	8008598 <_printf_common+0x3c>
 80085f2:	0022      	movs	r2, r4
 80085f4:	2301      	movs	r3, #1
 80085f6:	9901      	ldr	r1, [sp, #4]
 80085f8:	9800      	ldr	r0, [sp, #0]
 80085fa:	9f08      	ldr	r7, [sp, #32]
 80085fc:	3219      	adds	r2, #25
 80085fe:	47b8      	blx	r7
 8008600:	3001      	adds	r0, #1
 8008602:	d1f0      	bne.n	80085e6 <_printf_common+0x8a>
 8008604:	2001      	movs	r0, #1
 8008606:	4240      	negs	r0, r0
 8008608:	bdfe      	pop	{r1, r2, r3, r4, r5, r6, r7, pc}
 800860a:	2030      	movs	r0, #48	@ 0x30
 800860c:	18e1      	adds	r1, r4, r3
 800860e:	3143      	adds	r1, #67	@ 0x43
 8008610:	7008      	strb	r0, [r1, #0]
 8008612:	0021      	movs	r1, r4
 8008614:	1c5a      	adds	r2, r3, #1
 8008616:	3145      	adds	r1, #69	@ 0x45
 8008618:	7809      	ldrb	r1, [r1, #0]
 800861a:	18a2      	adds	r2, r4, r2
 800861c:	3243      	adds	r2, #67	@ 0x43
 800861e:	3302      	adds	r3, #2
 8008620:	7011      	strb	r1, [r2, #0]
 8008622:	e7c1      	b.n	80085a8 <_printf_common+0x4c>
 8008624:	0022      	movs	r2, r4
 8008626:	2301      	movs	r3, #1
 8008628:	9901      	ldr	r1, [sp, #4]
 800862a:	9800      	ldr	r0, [sp, #0]
 800862c:	9f08      	ldr	r7, [sp, #32]
 800862e:	321a      	adds	r2, #26
 8008630:	47b8      	blx	r7
 8008632:	3001      	adds	r0, #1
 8008634:	d0e6      	beq.n	8008604 <_printf_common+0xa8>
 8008636:	3601      	adds	r6, #1
 8008638:	e7d1      	b.n	80085de <_printf_common+0x82>
	...

0800863c <_printf_i>:
 800863c:	b5f0      	push	{r4, r5, r6, r7, lr}
 800863e:	b08b      	sub	sp, #44	@ 0x2c
 8008640:	9206      	str	r2, [sp, #24]
 8008642:	000a      	movs	r2, r1
 8008644:	3243      	adds	r2, #67	@ 0x43
 8008646:	9307      	str	r3, [sp, #28]
 8008648:	9005      	str	r0, [sp, #20]
 800864a:	9203      	str	r2, [sp, #12]
 800864c:	7e0a      	ldrb	r2, [r1, #24]
 800864e:	000c      	movs	r4, r1
 8008650:	9b10      	ldr	r3, [sp, #64]	@ 0x40
 8008652:	2a78      	cmp	r2, #120	@ 0x78
 8008654:	d809      	bhi.n	800866a <_printf_i+0x2e>
 8008656:	2a62      	cmp	r2, #98	@ 0x62
 8008658:	d80b      	bhi.n	8008672 <_printf_i+0x36>
 800865a:	2a00      	cmp	r2, #0
 800865c:	d100      	bne.n	8008660 <_printf_i+0x24>
 800865e:	e0bc      	b.n	80087da <_printf_i+0x19e>
 8008660:	497b      	ldr	r1, [pc, #492]	@ (8008850 <_printf_i+0x214>)
 8008662:	9104      	str	r1, [sp, #16]
 8008664:	2a58      	cmp	r2, #88	@ 0x58
 8008666:	d100      	bne.n	800866a <_printf_i+0x2e>
 8008668:	e090      	b.n	800878c <_printf_i+0x150>
 800866a:	0025      	movs	r5, r4
 800866c:	3542      	adds	r5, #66	@ 0x42
 800866e:	702a      	strb	r2, [r5, #0]
 8008670:	e022      	b.n	80086b8 <_printf_i+0x7c>
 8008672:	0010      	movs	r0, r2
 8008674:	3863      	subs	r0, #99	@ 0x63
 8008676:	2815      	cmp	r0, #21
 8008678:	d8f7      	bhi.n	800866a <_printf_i+0x2e>
 800867a:	f7f7 fd4d 	bl	8000118 <__gnu_thumb1_case_shi>
 800867e:	0016      	.short	0x0016
 8008680:	fff6001f 	.word	0xfff6001f
 8008684:	fff6fff6 	.word	0xfff6fff6
 8008688:	001ffff6 	.word	0x001ffff6
 800868c:	fff6fff6 	.word	0xfff6fff6
 8008690:	fff6fff6 	.word	0xfff6fff6
 8008694:	003600a1 	.word	0x003600a1
 8008698:	fff60080 	.word	0xfff60080
 800869c:	00b2fff6 	.word	0x00b2fff6
 80086a0:	0036fff6 	.word	0x0036fff6
 80086a4:	fff6fff6 	.word	0xfff6fff6
 80086a8:	0084      	.short	0x0084
 80086aa:	0025      	movs	r5, r4
 80086ac:	681a      	ldr	r2, [r3, #0]
 80086ae:	3542      	adds	r5, #66	@ 0x42
 80086b0:	1d11      	adds	r1, r2, #4
 80086b2:	6019      	str	r1, [r3, #0]
 80086b4:	6813      	ldr	r3, [r2, #0]
 80086b6:	702b      	strb	r3, [r5, #0]
 80086b8:	2301      	movs	r3, #1
 80086ba:	e0a0      	b.n	80087fe <_printf_i+0x1c2>
 80086bc:	6818      	ldr	r0, [r3, #0]
 80086be:	6809      	ldr	r1, [r1, #0]
 80086c0:	1d02      	adds	r2, r0, #4
 80086c2:	060d      	lsls	r5, r1, #24
 80086c4:	d50b      	bpl.n	80086de <_printf_i+0xa2>
 80086c6:	6806      	ldr	r6, [r0, #0]
 80086c8:	601a      	str	r2, [r3, #0]
 80086ca:	2e00      	cmp	r6, #0
 80086cc:	da03      	bge.n	80086d6 <_printf_i+0x9a>
 80086ce:	232d      	movs	r3, #45	@ 0x2d
 80086d0:	9a03      	ldr	r2, [sp, #12]
 80086d2:	4276      	negs	r6, r6
 80086d4:	7013      	strb	r3, [r2, #0]
 80086d6:	4b5e      	ldr	r3, [pc, #376]	@ (8008850 <_printf_i+0x214>)
 80086d8:	270a      	movs	r7, #10
 80086da:	9304      	str	r3, [sp, #16]
 80086dc:	e018      	b.n	8008710 <_printf_i+0xd4>
 80086de:	6806      	ldr	r6, [r0, #0]
 80086e0:	601a      	str	r2, [r3, #0]
 80086e2:	0649      	lsls	r1, r1, #25
 80086e4:	d5f1      	bpl.n	80086ca <_printf_i+0x8e>
 80086e6:	b236      	sxth	r6, r6
 80086e8:	e7ef      	b.n	80086ca <_printf_i+0x8e>
 80086ea:	6808      	ldr	r0, [r1, #0]
 80086ec:	6819      	ldr	r1, [r3, #0]
 80086ee:	c940      	ldmia	r1!, {r6}
 80086f0:	0605      	lsls	r5, r0, #24
 80086f2:	d402      	bmi.n	80086fa <_printf_i+0xbe>
 80086f4:	0640      	lsls	r0, r0, #25
 80086f6:	d500      	bpl.n	80086fa <_printf_i+0xbe>
 80086f8:	b2b6      	uxth	r6, r6
 80086fa:	6019      	str	r1, [r3, #0]
 80086fc:	4b54      	ldr	r3, [pc, #336]	@ (8008850 <_printf_i+0x214>)
 80086fe:	270a      	movs	r7, #10
 8008700:	9304      	str	r3, [sp, #16]
 8008702:	2a6f      	cmp	r2, #111	@ 0x6f
 8008704:	d100      	bne.n	8008708 <_printf_i+0xcc>
 8008706:	3f02      	subs	r7, #2
 8008708:	0023      	movs	r3, r4
 800870a:	2200      	movs	r2, #0
 800870c:	3343      	adds	r3, #67	@ 0x43
 800870e:	701a      	strb	r2, [r3, #0]
 8008710:	6863      	ldr	r3, [r4, #4]
 8008712:	60a3      	str	r3, [r4, #8]
 8008714:	2b00      	cmp	r3, #0
 8008716:	db03      	blt.n	8008720 <_printf_i+0xe4>
 8008718:	2104      	movs	r1, #4
 800871a:	6822      	ldr	r2, [r4, #0]
 800871c:	438a      	bics	r2, r1
 800871e:	6022      	str	r2, [r4, #0]
 8008720:	2e00      	cmp	r6, #0
 8008722:	d102      	bne.n	800872a <_printf_i+0xee>
 8008724:	9d03      	ldr	r5, [sp, #12]
 8008726:	2b00      	cmp	r3, #0
 8008728:	d00c      	beq.n	8008744 <_printf_i+0x108>
 800872a:	9d03      	ldr	r5, [sp, #12]
 800872c:	0030      	movs	r0, r6
 800872e:	0039      	movs	r1, r7
 8008730:	f7f7 fd82 	bl	8000238 <__aeabi_uidivmod>
 8008734:	9b04      	ldr	r3, [sp, #16]
 8008736:	3d01      	subs	r5, #1
 8008738:	5c5b      	ldrb	r3, [r3, r1]
 800873a:	702b      	strb	r3, [r5, #0]
 800873c:	0033      	movs	r3, r6
 800873e:	0006      	movs	r6, r0
 8008740:	429f      	cmp	r7, r3
 8008742:	d9f3      	bls.n	800872c <_printf_i+0xf0>
 8008744:	2f08      	cmp	r7, #8
 8008746:	d109      	bne.n	800875c <_printf_i+0x120>
 8008748:	6823      	ldr	r3, [r4, #0]
 800874a:	07db      	lsls	r3, r3, #31
 800874c:	d506      	bpl.n	800875c <_printf_i+0x120>
 800874e:	6862      	ldr	r2, [r4, #4]
 8008750:	6923      	ldr	r3, [r4, #16]
 8008752:	429a      	cmp	r2, r3
 8008754:	dc02      	bgt.n	800875c <_printf_i+0x120>
 8008756:	2330      	movs	r3, #48	@ 0x30
 8008758:	3d01      	subs	r5, #1
 800875a:	702b      	strb	r3, [r5, #0]
 800875c:	9b03      	ldr	r3, [sp, #12]
 800875e:	1b5b      	subs	r3, r3, r5
 8008760:	6123      	str	r3, [r4, #16]
 8008762:	9b07      	ldr	r3, [sp, #28]
 8008764:	0021      	movs	r1, r4
 8008766:	9300      	str	r3, [sp, #0]
 8008768:	9805      	ldr	r0, [sp, #20]
 800876a:	9b06      	ldr	r3, [sp, #24]
 800876c:	aa09      	add	r2, sp, #36	@ 0x24
 800876e:	f7ff fef5 	bl	800855c <_printf_common>
 8008772:	3001      	adds	r0, #1
 8008774:	d148      	bne.n	8008808 <_printf_i+0x1cc>
 8008776:	2001      	movs	r0, #1
 8008778:	4240      	negs	r0, r0
 800877a:	b00b      	add	sp, #44	@ 0x2c
 800877c:	bdf0      	pop	{r4, r5, r6, r7, pc}
 800877e:	2220      	movs	r2, #32
 8008780:	6809      	ldr	r1, [r1, #0]
 8008782:	430a      	orrs	r2, r1
 8008784:	6022      	str	r2, [r4, #0]
 8008786:	2278      	movs	r2, #120	@ 0x78
 8008788:	4932      	ldr	r1, [pc, #200]	@ (8008854 <_printf_i+0x218>)
 800878a:	9104      	str	r1, [sp, #16]
 800878c:	0021      	movs	r1, r4
 800878e:	3145      	adds	r1, #69	@ 0x45
 8008790:	700a      	strb	r2, [r1, #0]
 8008792:	6819      	ldr	r1, [r3, #0]
 8008794:	6822      	ldr	r2, [r4, #0]
 8008796:	c940      	ldmia	r1!, {r6}
 8008798:	0610      	lsls	r0, r2, #24
 800879a:	d402      	bmi.n	80087a2 <_printf_i+0x166>
 800879c:	0650      	lsls	r0, r2, #25
 800879e:	d500      	bpl.n	80087a2 <_printf_i+0x166>
 80087a0:	b2b6      	uxth	r6, r6
 80087a2:	6019      	str	r1, [r3, #0]
 80087a4:	07d3      	lsls	r3, r2, #31
 80087a6:	d502      	bpl.n	80087ae <_printf_i+0x172>
 80087a8:	2320      	movs	r3, #32
 80087aa:	4313      	orrs	r3, r2
 80087ac:	6023      	str	r3, [r4, #0]
 80087ae:	2e00      	cmp	r6, #0
 80087b0:	d001      	beq.n	80087b6 <_printf_i+0x17a>
 80087b2:	2710      	movs	r7, #16
 80087b4:	e7a8      	b.n	8008708 <_printf_i+0xcc>
 80087b6:	2220      	movs	r2, #32
 80087b8:	6823      	ldr	r3, [r4, #0]
 80087ba:	4393      	bics	r3, r2
 80087bc:	6023      	str	r3, [r4, #0]
 80087be:	e7f8      	b.n	80087b2 <_printf_i+0x176>
 80087c0:	681a      	ldr	r2, [r3, #0]
 80087c2:	680d      	ldr	r5, [r1, #0]
 80087c4:	1d10      	adds	r0, r2, #4
 80087c6:	6949      	ldr	r1, [r1, #20]
 80087c8:	6018      	str	r0, [r3, #0]
 80087ca:	6813      	ldr	r3, [r2, #0]
 80087cc:	062e      	lsls	r6, r5, #24
 80087ce:	d501      	bpl.n	80087d4 <_printf_i+0x198>
 80087d0:	6019      	str	r1, [r3, #0]
 80087d2:	e002      	b.n	80087da <_printf_i+0x19e>
 80087d4:	066d      	lsls	r5, r5, #25
 80087d6:	d5fb      	bpl.n	80087d0 <_printf_i+0x194>
 80087d8:	8019      	strh	r1, [r3, #0]
 80087da:	2300      	movs	r3, #0
 80087dc:	9d03      	ldr	r5, [sp, #12]
 80087de:	6123      	str	r3, [r4, #16]
 80087e0:	e7bf      	b.n	8008762 <_printf_i+0x126>
 80087e2:	681a      	ldr	r2, [r3, #0]
 80087e4:	1d11      	adds	r1, r2, #4
 80087e6:	6019      	str	r1, [r3, #0]
 80087e8:	6815      	ldr	r5, [r2, #0]
 80087ea:	2100      	movs	r1, #0
 80087ec:	0028      	movs	r0, r5
 80087ee:	6862      	ldr	r2, [r4, #4]
 80087f0:	f000 f91a 	bl	8008a28 <memchr>
 80087f4:	2800      	cmp	r0, #0
 80087f6:	d001      	beq.n	80087fc <_printf_i+0x1c0>
 80087f8:	1b40      	subs	r0, r0, r5
 80087fa:	6060      	str	r0, [r4, #4]
 80087fc:	6863      	ldr	r3, [r4, #4]
 80087fe:	6123      	str	r3, [r4, #16]
 8008800:	2300      	movs	r3, #0
 8008802:	9a03      	ldr	r2, [sp, #12]
 8008804:	7013      	strb	r3, [r2, #0]
 8008806:	e7ac      	b.n	8008762 <_printf_i+0x126>
 8008808:	002a      	movs	r2, r5
 800880a:	6923      	ldr	r3, [r4, #16]
 800880c:	9906      	ldr	r1, [sp, #24]
 800880e:	9805      	ldr	r0, [sp, #20]
 8008810:	9d07      	ldr	r5, [sp, #28]
 8008812:	47a8      	blx	r5
 8008814:	3001      	adds	r0, #1
 8008816:	d0ae      	beq.n	8008776 <_printf_i+0x13a>
 8008818:	6823      	ldr	r3, [r4, #0]
 800881a:	079b      	lsls	r3, r3, #30
 800881c:	d415      	bmi.n	800884a <_printf_i+0x20e>
 800881e:	9b09      	ldr	r3, [sp, #36]	@ 0x24
 8008820:	68e0      	ldr	r0, [r4, #12]
 8008822:	4298      	cmp	r0, r3
 8008824:	daa9      	bge.n	800877a <_printf_i+0x13e>
 8008826:	0018      	movs	r0, r3
 8008828:	e7a7      	b.n	800877a <_printf_i+0x13e>
 800882a:	0022      	movs	r2, r4
 800882c:	2301      	movs	r3, #1
 800882e:	9906      	ldr	r1, [sp, #24]
 8008830:	9805      	ldr	r0, [sp, #20]
 8008832:	9e07      	ldr	r6, [sp, #28]
 8008834:	3219      	adds	r2, #25
 8008836:	47b0      	blx	r6
 8008838:	3001      	adds	r0, #1
 800883a:	d09c      	beq.n	8008776 <_printf_i+0x13a>
 800883c:	3501      	adds	r5, #1
 800883e:	68e3      	ldr	r3, [r4, #12]
 8008840:	9a09      	ldr	r2, [sp, #36]	@ 0x24
 8008842:	1a9b      	subs	r3, r3, r2
 8008844:	42ab      	cmp	r3, r5
 8008846:	dcf0      	bgt.n	800882a <_printf_i+0x1ee>
 8008848:	e7e9      	b.n	800881e <_printf_i+0x1e2>
 800884a:	2500      	movs	r5, #0
 800884c:	e7f7      	b.n	800883e <_printf_i+0x202>
 800884e:	46c0      	nop			@ (mov r8, r8)
 8008850:	080094cd 	.word	0x080094cd
 8008854:	080094de 	.word	0x080094de

08008858 <__sflush_r>:
 8008858:	b5f7      	push	{r0, r1, r2, r4, r5, r6, r7, lr}
 800885a:	220c      	movs	r2, #12
 800885c:	5e8b      	ldrsh	r3, [r1, r2]
 800885e:	0005      	movs	r5, r0
 8008860:	000c      	movs	r4, r1
 8008862:	071a      	lsls	r2, r3, #28
 8008864:	d456      	bmi.n	8008914 <__sflush_r+0xbc>
 8008866:	684a      	ldr	r2, [r1, #4]
 8008868:	2a00      	cmp	r2, #0
 800886a:	dc02      	bgt.n	8008872 <__sflush_r+0x1a>
 800886c:	6c0a      	ldr	r2, [r1, #64]	@ 0x40
 800886e:	2a00      	cmp	r2, #0
 8008870:	dd4e      	ble.n	8008910 <__sflush_r+0xb8>
 8008872:	6ae7      	ldr	r7, [r4, #44]	@ 0x2c
 8008874:	2f00      	cmp	r7, #0
 8008876:	d04b      	beq.n	8008910 <__sflush_r+0xb8>
 8008878:	2200      	movs	r2, #0
 800887a:	2080      	movs	r0, #128	@ 0x80
 800887c:	682e      	ldr	r6, [r5, #0]
 800887e:	602a      	str	r2, [r5, #0]
 8008880:	001a      	movs	r2, r3
 8008882:	0140      	lsls	r0, r0, #5
 8008884:	6a21      	ldr	r1, [r4, #32]
 8008886:	4002      	ands	r2, r0
 8008888:	4203      	tst	r3, r0
 800888a:	d033      	beq.n	80088f4 <__sflush_r+0x9c>
 800888c:	6d62      	ldr	r2, [r4, #84]	@ 0x54
 800888e:	89a3      	ldrh	r3, [r4, #12]
 8008890:	075b      	lsls	r3, r3, #29
 8008892:	d506      	bpl.n	80088a2 <__sflush_r+0x4a>
 8008894:	6863      	ldr	r3, [r4, #4]
 8008896:	1ad2      	subs	r2, r2, r3
 8008898:	6b63      	ldr	r3, [r4, #52]	@ 0x34
 800889a:	2b00      	cmp	r3, #0
 800889c:	d001      	beq.n	80088a2 <__sflush_r+0x4a>
 800889e:	6c23      	ldr	r3, [r4, #64]	@ 0x40
 80088a0:	1ad2      	subs	r2, r2, r3
 80088a2:	2300      	movs	r3, #0
 80088a4:	0028      	movs	r0, r5
 80088a6:	6ae7      	ldr	r7, [r4, #44]	@ 0x2c
 80088a8:	6a21      	ldr	r1, [r4, #32]
 80088aa:	47b8      	blx	r7
 80088ac:	89a2      	ldrh	r2, [r4, #12]
 80088ae:	1c43      	adds	r3, r0, #1
 80088b0:	d106      	bne.n	80088c0 <__sflush_r+0x68>
 80088b2:	6829      	ldr	r1, [r5, #0]
 80088b4:	291d      	cmp	r1, #29
 80088b6:	d846      	bhi.n	8008946 <__sflush_r+0xee>
 80088b8:	4b29      	ldr	r3, [pc, #164]	@ (8008960 <__sflush_r+0x108>)
 80088ba:	410b      	asrs	r3, r1
 80088bc:	07db      	lsls	r3, r3, #31
 80088be:	d442      	bmi.n	8008946 <__sflush_r+0xee>
 80088c0:	2300      	movs	r3, #0
 80088c2:	6063      	str	r3, [r4, #4]
 80088c4:	6923      	ldr	r3, [r4, #16]
 80088c6:	6023      	str	r3, [r4, #0]
 80088c8:	04d2      	lsls	r2, r2, #19
 80088ca:	d505      	bpl.n	80088d8 <__sflush_r+0x80>
 80088cc:	1c43      	adds	r3, r0, #1
 80088ce:	d102      	bne.n	80088d6 <__sflush_r+0x7e>
 80088d0:	682b      	ldr	r3, [r5, #0]
 80088d2:	2b00      	cmp	r3, #0
 80088d4:	d100      	bne.n	80088d8 <__sflush_r+0x80>
 80088d6:	6560      	str	r0, [r4, #84]	@ 0x54
 80088d8:	6b61      	ldr	r1, [r4, #52]	@ 0x34
 80088da:	602e      	str	r6, [r5, #0]
 80088dc:	2900      	cmp	r1, #0
 80088de:	d017      	beq.n	8008910 <__sflush_r+0xb8>
 80088e0:	0023      	movs	r3, r4
 80088e2:	3344      	adds	r3, #68	@ 0x44
 80088e4:	4299      	cmp	r1, r3
 80088e6:	d002      	beq.n	80088ee <__sflush_r+0x96>
 80088e8:	0028      	movs	r0, r5
 80088ea:	f7ff fbd3 	bl	8008094 <_free_r>
 80088ee:	2300      	movs	r3, #0
 80088f0:	6363      	str	r3, [r4, #52]	@ 0x34
 80088f2:	e00d      	b.n	8008910 <__sflush_r+0xb8>
 80088f4:	2301      	movs	r3, #1
 80088f6:	0028      	movs	r0, r5
 80088f8:	47b8      	blx	r7
 80088fa:	0002      	movs	r2, r0
 80088fc:	1c43      	adds	r3, r0, #1
 80088fe:	d1c6      	bne.n	800888e <__sflush_r+0x36>
 8008900:	682b      	ldr	r3, [r5, #0]
 8008902:	2b00      	cmp	r3, #0
 8008904:	d0c3      	beq.n	800888e <__sflush_r+0x36>
 8008906:	2b1d      	cmp	r3, #29
 8008908:	d001      	beq.n	800890e <__sflush_r+0xb6>
 800890a:	2b16      	cmp	r3, #22
 800890c:	d11a      	bne.n	8008944 <__sflush_r+0xec>
 800890e:	602e      	str	r6, [r5, #0]
 8008910:	2000      	movs	r0, #0
 8008912:	e01e      	b.n	8008952 <__sflush_r+0xfa>
 8008914:	690e      	ldr	r6, [r1, #16]
 8008916:	2e00      	cmp	r6, #0
 8008918:	d0fa      	beq.n	8008910 <__sflush_r+0xb8>
 800891a:	680f      	ldr	r7, [r1, #0]
 800891c:	600e      	str	r6, [r1, #0]
 800891e:	1bba      	subs	r2, r7, r6
 8008920:	9201      	str	r2, [sp, #4]
 8008922:	2200      	movs	r2, #0
 8008924:	079b      	lsls	r3, r3, #30
 8008926:	d100      	bne.n	800892a <__sflush_r+0xd2>
 8008928:	694a      	ldr	r2, [r1, #20]
 800892a:	60a2      	str	r2, [r4, #8]
 800892c:	9b01      	ldr	r3, [sp, #4]
 800892e:	2b00      	cmp	r3, #0
 8008930:	ddee      	ble.n	8008910 <__sflush_r+0xb8>
 8008932:	6aa3      	ldr	r3, [r4, #40]	@ 0x28
 8008934:	0032      	movs	r2, r6
 8008936:	001f      	movs	r7, r3
 8008938:	0028      	movs	r0, r5
 800893a:	9b01      	ldr	r3, [sp, #4]
 800893c:	6a21      	ldr	r1, [r4, #32]
 800893e:	47b8      	blx	r7
 8008940:	2800      	cmp	r0, #0
 8008942:	dc07      	bgt.n	8008954 <__sflush_r+0xfc>
 8008944:	89a2      	ldrh	r2, [r4, #12]
 8008946:	2340      	movs	r3, #64	@ 0x40
 8008948:	2001      	movs	r0, #1
 800894a:	4313      	orrs	r3, r2
 800894c:	b21b      	sxth	r3, r3
 800894e:	81a3      	strh	r3, [r4, #12]
 8008950:	4240      	negs	r0, r0
 8008952:	bdfe      	pop	{r1, r2, r3, r4, r5, r6, r7, pc}
 8008954:	9b01      	ldr	r3, [sp, #4]
 8008956:	1836      	adds	r6, r6, r0
 8008958:	1a1b      	subs	r3, r3, r0
 800895a:	9301      	str	r3, [sp, #4]
 800895c:	e7e6      	b.n	800892c <__sflush_r+0xd4>
 800895e:	46c0      	nop			@ (mov r8, r8)
 8008960:	dfbffffe 	.word	0xdfbffffe

08008964 <_fflush_r>:
 8008964:	690b      	ldr	r3, [r1, #16]
 8008966:	b570      	push	{r4, r5, r6, lr}
 8008968:	0005      	movs	r5, r0
 800896a:	000c      	movs	r4, r1
 800896c:	2b00      	cmp	r3, #0
 800896e:	d102      	bne.n	8008976 <_fflush_r+0x12>
 8008970:	2500      	movs	r5, #0
 8008972:	0028      	movs	r0, r5
 8008974:	bd70      	pop	{r4, r5, r6, pc}
 8008976:	2800      	cmp	r0, #0
 8008978:	d004      	beq.n	8008984 <_fflush_r+0x20>
 800897a:	6a03      	ldr	r3, [r0, #32]
 800897c:	2b00      	cmp	r3, #0
 800897e:	d101      	bne.n	8008984 <_fflush_r+0x20>
 8008980:	f7ff f9d6 	bl	8007d30 <__sinit>
 8008984:	220c      	movs	r2, #12
 8008986:	5ea3      	ldrsh	r3, [r4, r2]
 8008988:	2b00      	cmp	r3, #0
 800898a:	d0f1      	beq.n	8008970 <_fflush_r+0xc>
 800898c:	6e62      	ldr	r2, [r4, #100]	@ 0x64
 800898e:	07d2      	lsls	r2, r2, #31
 8008990:	d404      	bmi.n	800899c <_fflush_r+0x38>
 8008992:	059b      	lsls	r3, r3, #22
 8008994:	d402      	bmi.n	800899c <_fflush_r+0x38>
 8008996:	6da0      	ldr	r0, [r4, #88]	@ 0x58
 8008998:	f7ff fb4b 	bl	8008032 <__retarget_lock_acquire_recursive>
 800899c:	0028      	movs	r0, r5
 800899e:	0021      	movs	r1, r4
 80089a0:	f7ff ff5a 	bl	8008858 <__sflush_r>
 80089a4:	6e63      	ldr	r3, [r4, #100]	@ 0x64
 80089a6:	0005      	movs	r5, r0
 80089a8:	07db      	lsls	r3, r3, #31
 80089aa:	d4e2      	bmi.n	8008972 <_fflush_r+0xe>
 80089ac:	89a3      	ldrh	r3, [r4, #12]
 80089ae:	059b      	lsls	r3, r3, #22
 80089b0:	d4df      	bmi.n	8008972 <_fflush_r+0xe>
 80089b2:	6da0      	ldr	r0, [r4, #88]	@ 0x58
 80089b4:	f7ff fb3e 	bl	8008034 <__retarget_lock_release_recursive>
 80089b8:	e7db      	b.n	8008972 <_fflush_r+0xe>
	...

080089bc <fiprintf>:
 80089bc:	b40e      	push	{r1, r2, r3}
 80089be:	b517      	push	{r0, r1, r2, r4, lr}
 80089c0:	4c05      	ldr	r4, [pc, #20]	@ (80089d8 <fiprintf+0x1c>)
 80089c2:	ab05      	add	r3, sp, #20
 80089c4:	cb04      	ldmia	r3!, {r2}
 80089c6:	0001      	movs	r1, r0
 80089c8:	6820      	ldr	r0, [r4, #0]
 80089ca:	9301      	str	r3, [sp, #4]
 80089cc:	f000 f894 	bl	8008af8 <_vfiprintf_r>
 80089d0:	bc1e      	pop	{r1, r2, r3, r4}
 80089d2:	bc08      	pop	{r3}
 80089d4:	b003      	add	sp, #12
 80089d6:	4718      	bx	r3
 80089d8:	2000019c 	.word	0x2000019c

080089dc <memmove>:
 80089dc:	b510      	push	{r4, lr}
 80089de:	4288      	cmp	r0, r1
 80089e0:	d806      	bhi.n	80089f0 <memmove+0x14>
 80089e2:	2300      	movs	r3, #0
 80089e4:	429a      	cmp	r2, r3
 80089e6:	d008      	beq.n	80089fa <memmove+0x1e>
 80089e8:	5ccc      	ldrb	r4, [r1, r3]
 80089ea:	54c4      	strb	r4, [r0, r3]
 80089ec:	3301      	adds	r3, #1
 80089ee:	e7f9      	b.n	80089e4 <memmove+0x8>
 80089f0:	188b      	adds	r3, r1, r2
 80089f2:	4298      	cmp	r0, r3
 80089f4:	d2f5      	bcs.n	80089e2 <memmove+0x6>
 80089f6:	3a01      	subs	r2, #1
 80089f8:	d200      	bcs.n	80089fc <memmove+0x20>
 80089fa:	bd10      	pop	{r4, pc}
 80089fc:	5c8b      	ldrb	r3, [r1, r2]
 80089fe:	5483      	strb	r3, [r0, r2]
 8008a00:	e7f9      	b.n	80089f6 <memmove+0x1a>
	...

08008a04 <_sbrk_r>:
 8008a04:	2300      	movs	r3, #0
 8008a06:	b570      	push	{r4, r5, r6, lr}
 8008a08:	4d06      	ldr	r5, [pc, #24]	@ (8008a24 <_sbrk_r+0x20>)
 8008a0a:	0004      	movs	r4, r0
 8008a0c:	0008      	movs	r0, r1
 8008a0e:	602b      	str	r3, [r5, #0]
 8008a10:	f7f9 fe6a 	bl	80026e8 <_sbrk>
 8008a14:	1c43      	adds	r3, r0, #1
 8008a16:	d103      	bne.n	8008a20 <_sbrk_r+0x1c>
 8008a18:	682b      	ldr	r3, [r5, #0]
 8008a1a:	2b00      	cmp	r3, #0
 8008a1c:	d000      	beq.n	8008a20 <_sbrk_r+0x1c>
 8008a1e:	6023      	str	r3, [r4, #0]
 8008a20:	bd70      	pop	{r4, r5, r6, pc}
 8008a22:	46c0      	nop			@ (mov r8, r8)
 8008a24:	20003758 	.word	0x20003758

08008a28 <memchr>:
 8008a28:	b2c9      	uxtb	r1, r1
 8008a2a:	1882      	adds	r2, r0, r2
 8008a2c:	4290      	cmp	r0, r2
 8008a2e:	d101      	bne.n	8008a34 <memchr+0xc>
 8008a30:	2000      	movs	r0, #0
 8008a32:	4770      	bx	lr
 8008a34:	7803      	ldrb	r3, [r0, #0]
 8008a36:	428b      	cmp	r3, r1
 8008a38:	d0fb      	beq.n	8008a32 <memchr+0xa>
 8008a3a:	3001      	adds	r0, #1
 8008a3c:	e7f6      	b.n	8008a2c <memchr+0x4>

08008a3e <abort>:
 8008a3e:	2006      	movs	r0, #6
 8008a40:	b510      	push	{r4, lr}
 8008a42:	f000 fa3f 	bl	8008ec4 <raise>
 8008a46:	2001      	movs	r0, #1
 8008a48:	f7f9 fe1e 	bl	8002688 <_exit>

08008a4c <_realloc_r>:
 8008a4c:	b5f7      	push	{r0, r1, r2, r4, r5, r6, r7, lr}
 8008a4e:	0006      	movs	r6, r0
 8008a50:	000c      	movs	r4, r1
 8008a52:	0015      	movs	r5, r2
 8008a54:	2900      	cmp	r1, #0
 8008a56:	d105      	bne.n	8008a64 <_realloc_r+0x18>
 8008a58:	0011      	movs	r1, r2
 8008a5a:	f7ff fb91 	bl	8008180 <_malloc_r>
 8008a5e:	0004      	movs	r4, r0
 8008a60:	0020      	movs	r0, r4
 8008a62:	bdfe      	pop	{r1, r2, r3, r4, r5, r6, r7, pc}
 8008a64:	2a00      	cmp	r2, #0
 8008a66:	d103      	bne.n	8008a70 <_realloc_r+0x24>
 8008a68:	f7ff fb14 	bl	8008094 <_free_r>
 8008a6c:	2400      	movs	r4, #0
 8008a6e:	e7f7      	b.n	8008a60 <_realloc_r+0x14>
 8008a70:	f000 fa48 	bl	8008f04 <_malloc_usable_size_r>
 8008a74:	0007      	movs	r7, r0
 8008a76:	4285      	cmp	r5, r0
 8008a78:	d802      	bhi.n	8008a80 <_realloc_r+0x34>
 8008a7a:	0843      	lsrs	r3, r0, #1
 8008a7c:	42ab      	cmp	r3, r5
 8008a7e:	d3ef      	bcc.n	8008a60 <_realloc_r+0x14>
 8008a80:	0029      	movs	r1, r5
 8008a82:	0030      	movs	r0, r6
 8008a84:	f7ff fb7c 	bl	8008180 <_malloc_r>
 8008a88:	9001      	str	r0, [sp, #4]
 8008a8a:	2800      	cmp	r0, #0
 8008a8c:	d0ee      	beq.n	8008a6c <_realloc_r+0x20>
 8008a8e:	002a      	movs	r2, r5
 8008a90:	42bd      	cmp	r5, r7
 8008a92:	d900      	bls.n	8008a96 <_realloc_r+0x4a>
 8008a94:	003a      	movs	r2, r7
 8008a96:	0021      	movs	r1, r4
 8008a98:	9801      	ldr	r0, [sp, #4]
 8008a9a:	f7ff fad4 	bl	8008046 <memcpy>
 8008a9e:	0021      	movs	r1, r4
 8008aa0:	0030      	movs	r0, r6
 8008aa2:	f7ff faf7 	bl	8008094 <_free_r>
 8008aa6:	9c01      	ldr	r4, [sp, #4]
 8008aa8:	e7da      	b.n	8008a60 <_realloc_r+0x14>

08008aaa <__sfputc_r>:
 8008aaa:	6893      	ldr	r3, [r2, #8]
 8008aac:	b510      	push	{r4, lr}
 8008aae:	3b01      	subs	r3, #1
 8008ab0:	6093      	str	r3, [r2, #8]
 8008ab2:	2b00      	cmp	r3, #0
 8008ab4:	da04      	bge.n	8008ac0 <__sfputc_r+0x16>
 8008ab6:	6994      	ldr	r4, [r2, #24]
 8008ab8:	42a3      	cmp	r3, r4
 8008aba:	db07      	blt.n	8008acc <__sfputc_r+0x22>
 8008abc:	290a      	cmp	r1, #10
 8008abe:	d005      	beq.n	8008acc <__sfputc_r+0x22>
 8008ac0:	6813      	ldr	r3, [r2, #0]
 8008ac2:	1c58      	adds	r0, r3, #1
 8008ac4:	6010      	str	r0, [r2, #0]
 8008ac6:	7019      	strb	r1, [r3, #0]
 8008ac8:	0008      	movs	r0, r1
 8008aca:	bd10      	pop	{r4, pc}
 8008acc:	f000 f930 	bl	8008d30 <__swbuf_r>
 8008ad0:	0001      	movs	r1, r0
 8008ad2:	e7f9      	b.n	8008ac8 <__sfputc_r+0x1e>

08008ad4 <__sfputs_r>:
 8008ad4:	b5f8      	push	{r3, r4, r5, r6, r7, lr}
 8008ad6:	0006      	movs	r6, r0
 8008ad8:	000f      	movs	r7, r1
 8008ada:	0014      	movs	r4, r2
 8008adc:	18d5      	adds	r5, r2, r3
 8008ade:	42ac      	cmp	r4, r5
 8008ae0:	d101      	bne.n	8008ae6 <__sfputs_r+0x12>
 8008ae2:	2000      	movs	r0, #0
 8008ae4:	e007      	b.n	8008af6 <__sfputs_r+0x22>
 8008ae6:	7821      	ldrb	r1, [r4, #0]
 8008ae8:	003a      	movs	r2, r7
 8008aea:	0030      	movs	r0, r6
 8008aec:	f7ff ffdd 	bl	8008aaa <__sfputc_r>
 8008af0:	3401      	adds	r4, #1
 8008af2:	1c43      	adds	r3, r0, #1
 8008af4:	d1f3      	bne.n	8008ade <__sfputs_r+0xa>
 8008af6:	bdf8      	pop	{r3, r4, r5, r6, r7, pc}

08008af8 <_vfiprintf_r>:
 8008af8:	b5f0      	push	{r4, r5, r6, r7, lr}
 8008afa:	b0a1      	sub	sp, #132	@ 0x84
 8008afc:	000f      	movs	r7, r1
 8008afe:	0015      	movs	r5, r2
 8008b00:	001e      	movs	r6, r3
 8008b02:	9003      	str	r0, [sp, #12]
 8008b04:	2800      	cmp	r0, #0
 8008b06:	d004      	beq.n	8008b12 <_vfiprintf_r+0x1a>
 8008b08:	6a03      	ldr	r3, [r0, #32]
 8008b0a:	2b00      	cmp	r3, #0
 8008b0c:	d101      	bne.n	8008b12 <_vfiprintf_r+0x1a>
 8008b0e:	f7ff f90f 	bl	8007d30 <__sinit>
 8008b12:	6e7b      	ldr	r3, [r7, #100]	@ 0x64
 8008b14:	07db      	lsls	r3, r3, #31
 8008b16:	d405      	bmi.n	8008b24 <_vfiprintf_r+0x2c>
 8008b18:	89bb      	ldrh	r3, [r7, #12]
 8008b1a:	059b      	lsls	r3, r3, #22
 8008b1c:	d402      	bmi.n	8008b24 <_vfiprintf_r+0x2c>
 8008b1e:	6db8      	ldr	r0, [r7, #88]	@ 0x58
 8008b20:	f7ff fa87 	bl	8008032 <__retarget_lock_acquire_recursive>
 8008b24:	89bb      	ldrh	r3, [r7, #12]
 8008b26:	071b      	lsls	r3, r3, #28
 8008b28:	d502      	bpl.n	8008b30 <_vfiprintf_r+0x38>
 8008b2a:	693b      	ldr	r3, [r7, #16]
 8008b2c:	2b00      	cmp	r3, #0
 8008b2e:	d113      	bne.n	8008b58 <_vfiprintf_r+0x60>
 8008b30:	0039      	movs	r1, r7
 8008b32:	9803      	ldr	r0, [sp, #12]
 8008b34:	f000 f93e 	bl	8008db4 <__swsetup_r>
 8008b38:	2800      	cmp	r0, #0
 8008b3a:	d00d      	beq.n	8008b58 <_vfiprintf_r+0x60>
 8008b3c:	6e7b      	ldr	r3, [r7, #100]	@ 0x64
 8008b3e:	07db      	lsls	r3, r3, #31
 8008b40:	d503      	bpl.n	8008b4a <_vfiprintf_r+0x52>
 8008b42:	2001      	movs	r0, #1
 8008b44:	4240      	negs	r0, r0
 8008b46:	b021      	add	sp, #132	@ 0x84
 8008b48:	bdf0      	pop	{r4, r5, r6, r7, pc}
 8008b4a:	89bb      	ldrh	r3, [r7, #12]
 8008b4c:	059b      	lsls	r3, r3, #22
 8008b4e:	d4f8      	bmi.n	8008b42 <_vfiprintf_r+0x4a>
 8008b50:	6db8      	ldr	r0, [r7, #88]	@ 0x58
 8008b52:	f7ff fa6f 	bl	8008034 <__retarget_lock_release_recursive>
 8008b56:	e7f4      	b.n	8008b42 <_vfiprintf_r+0x4a>
 8008b58:	2300      	movs	r3, #0
 8008b5a:	ac08      	add	r4, sp, #32
 8008b5c:	6163      	str	r3, [r4, #20]
 8008b5e:	3320      	adds	r3, #32
 8008b60:	7663      	strb	r3, [r4, #25]
 8008b62:	3310      	adds	r3, #16
 8008b64:	76a3      	strb	r3, [r4, #26]
 8008b66:	9607      	str	r6, [sp, #28]
 8008b68:	002e      	movs	r6, r5
 8008b6a:	7833      	ldrb	r3, [r6, #0]
 8008b6c:	2b00      	cmp	r3, #0
 8008b6e:	d001      	beq.n	8008b74 <_vfiprintf_r+0x7c>
 8008b70:	2b25      	cmp	r3, #37	@ 0x25
 8008b72:	d148      	bne.n	8008c06 <_vfiprintf_r+0x10e>
 8008b74:	1b73      	subs	r3, r6, r5
 8008b76:	9305      	str	r3, [sp, #20]
 8008b78:	42ae      	cmp	r6, r5
 8008b7a:	d00b      	beq.n	8008b94 <_vfiprintf_r+0x9c>
 8008b7c:	002a      	movs	r2, r5
 8008b7e:	0039      	movs	r1, r7
 8008b80:	9803      	ldr	r0, [sp, #12]
 8008b82:	f7ff ffa7 	bl	8008ad4 <__sfputs_r>
 8008b86:	3001      	adds	r0, #1
 8008b88:	d100      	bne.n	8008b8c <_vfiprintf_r+0x94>
 8008b8a:	e0ae      	b.n	8008cea <_vfiprintf_r+0x1f2>
 8008b8c:	6963      	ldr	r3, [r4, #20]
 8008b8e:	9a05      	ldr	r2, [sp, #20]
 8008b90:	189b      	adds	r3, r3, r2
 8008b92:	6163      	str	r3, [r4, #20]
 8008b94:	7833      	ldrb	r3, [r6, #0]
 8008b96:	2b00      	cmp	r3, #0
 8008b98:	d100      	bne.n	8008b9c <_vfiprintf_r+0xa4>
 8008b9a:	e0a6      	b.n	8008cea <_vfiprintf_r+0x1f2>
 8008b9c:	2201      	movs	r2, #1
 8008b9e:	2300      	movs	r3, #0
 8008ba0:	4252      	negs	r2, r2
 8008ba2:	6062      	str	r2, [r4, #4]
 8008ba4:	a904      	add	r1, sp, #16
 8008ba6:	3254      	adds	r2, #84	@ 0x54
 8008ba8:	1852      	adds	r2, r2, r1
 8008baa:	1c75      	adds	r5, r6, #1
 8008bac:	6023      	str	r3, [r4, #0]
 8008bae:	60e3      	str	r3, [r4, #12]
 8008bb0:	60a3      	str	r3, [r4, #8]
 8008bb2:	7013      	strb	r3, [r2, #0]
 8008bb4:	65a3      	str	r3, [r4, #88]	@ 0x58
 8008bb6:	4b59      	ldr	r3, [pc, #356]	@ (8008d1c <_vfiprintf_r+0x224>)
 8008bb8:	2205      	movs	r2, #5
 8008bba:	0018      	movs	r0, r3
 8008bbc:	7829      	ldrb	r1, [r5, #0]
 8008bbe:	9305      	str	r3, [sp, #20]
 8008bc0:	f7ff ff32 	bl	8008a28 <memchr>
 8008bc4:	1c6e      	adds	r6, r5, #1
 8008bc6:	2800      	cmp	r0, #0
 8008bc8:	d11f      	bne.n	8008c0a <_vfiprintf_r+0x112>
 8008bca:	6822      	ldr	r2, [r4, #0]
 8008bcc:	06d3      	lsls	r3, r2, #27
 8008bce:	d504      	bpl.n	8008bda <_vfiprintf_r+0xe2>
 8008bd0:	2353      	movs	r3, #83	@ 0x53
 8008bd2:	a904      	add	r1, sp, #16
 8008bd4:	185b      	adds	r3, r3, r1
 8008bd6:	2120      	movs	r1, #32
 8008bd8:	7019      	strb	r1, [r3, #0]
 8008bda:	0713      	lsls	r3, r2, #28
 8008bdc:	d504      	bpl.n	8008be8 <_vfiprintf_r+0xf0>
 8008bde:	2353      	movs	r3, #83	@ 0x53
 8008be0:	a904      	add	r1, sp, #16
 8008be2:	185b      	adds	r3, r3, r1
 8008be4:	212b      	movs	r1, #43	@ 0x2b
 8008be6:	7019      	strb	r1, [r3, #0]
 8008be8:	782b      	ldrb	r3, [r5, #0]
 8008bea:	2b2a      	cmp	r3, #42	@ 0x2a
 8008bec:	d016      	beq.n	8008c1c <_vfiprintf_r+0x124>
 8008bee:	002e      	movs	r6, r5
 8008bf0:	2100      	movs	r1, #0
 8008bf2:	200a      	movs	r0, #10
 8008bf4:	68e3      	ldr	r3, [r4, #12]
 8008bf6:	7832      	ldrb	r2, [r6, #0]
 8008bf8:	1c75      	adds	r5, r6, #1
 8008bfa:	3a30      	subs	r2, #48	@ 0x30
 8008bfc:	2a09      	cmp	r2, #9
 8008bfe:	d950      	bls.n	8008ca2 <_vfiprintf_r+0x1aa>
 8008c00:	2900      	cmp	r1, #0
 8008c02:	d111      	bne.n	8008c28 <_vfiprintf_r+0x130>
 8008c04:	e017      	b.n	8008c36 <_vfiprintf_r+0x13e>
 8008c06:	3601      	adds	r6, #1
 8008c08:	e7af      	b.n	8008b6a <_vfiprintf_r+0x72>
 8008c0a:	9b05      	ldr	r3, [sp, #20]
 8008c0c:	6822      	ldr	r2, [r4, #0]
 8008c0e:	1ac0      	subs	r0, r0, r3
 8008c10:	2301      	movs	r3, #1
 8008c12:	4083      	lsls	r3, r0
 8008c14:	4313      	orrs	r3, r2
 8008c16:	0035      	movs	r5, r6
 8008c18:	6023      	str	r3, [r4, #0]
 8008c1a:	e7cc      	b.n	8008bb6 <_vfiprintf_r+0xbe>
 8008c1c:	9b07      	ldr	r3, [sp, #28]
 8008c1e:	1d19      	adds	r1, r3, #4
 8008c20:	681b      	ldr	r3, [r3, #0]
 8008c22:	9107      	str	r1, [sp, #28]
 8008c24:	2b00      	cmp	r3, #0
 8008c26:	db01      	blt.n	8008c2c <_vfiprintf_r+0x134>
 8008c28:	930b      	str	r3, [sp, #44]	@ 0x2c
 8008c2a:	e004      	b.n	8008c36 <_vfiprintf_r+0x13e>
 8008c2c:	425b      	negs	r3, r3
 8008c2e:	60e3      	str	r3, [r4, #12]
 8008c30:	2302      	movs	r3, #2
 8008c32:	4313      	orrs	r3, r2
 8008c34:	6023      	str	r3, [r4, #0]
 8008c36:	7833      	ldrb	r3, [r6, #0]
 8008c38:	2b2e      	cmp	r3, #46	@ 0x2e
 8008c3a:	d10c      	bne.n	8008c56 <_vfiprintf_r+0x15e>
 8008c3c:	7873      	ldrb	r3, [r6, #1]
 8008c3e:	2b2a      	cmp	r3, #42	@ 0x2a
 8008c40:	d134      	bne.n	8008cac <_vfiprintf_r+0x1b4>
 8008c42:	9b07      	ldr	r3, [sp, #28]
 8008c44:	3602      	adds	r6, #2
 8008c46:	1d1a      	adds	r2, r3, #4
 8008c48:	681b      	ldr	r3, [r3, #0]
 8008c4a:	9207      	str	r2, [sp, #28]
 8008c4c:	2b00      	cmp	r3, #0
 8008c4e:	da01      	bge.n	8008c54 <_vfiprintf_r+0x15c>
 8008c50:	2301      	movs	r3, #1
 8008c52:	425b      	negs	r3, r3
 8008c54:	9309      	str	r3, [sp, #36]	@ 0x24
 8008c56:	4d32      	ldr	r5, [pc, #200]	@ (8008d20 <_vfiprintf_r+0x228>)
 8008c58:	2203      	movs	r2, #3
 8008c5a:	0028      	movs	r0, r5
 8008c5c:	7831      	ldrb	r1, [r6, #0]
 8008c5e:	f7ff fee3 	bl	8008a28 <memchr>
 8008c62:	2800      	cmp	r0, #0
 8008c64:	d006      	beq.n	8008c74 <_vfiprintf_r+0x17c>
 8008c66:	2340      	movs	r3, #64	@ 0x40
 8008c68:	1b40      	subs	r0, r0, r5
 8008c6a:	4083      	lsls	r3, r0
 8008c6c:	6822      	ldr	r2, [r4, #0]
 8008c6e:	3601      	adds	r6, #1
 8008c70:	4313      	orrs	r3, r2
 8008c72:	6023      	str	r3, [r4, #0]
 8008c74:	7831      	ldrb	r1, [r6, #0]
 8008c76:	2206      	movs	r2, #6
 8008c78:	482a      	ldr	r0, [pc, #168]	@ (8008d24 <_vfiprintf_r+0x22c>)
 8008c7a:	1c75      	adds	r5, r6, #1
 8008c7c:	7621      	strb	r1, [r4, #24]
 8008c7e:	f7ff fed3 	bl	8008a28 <memchr>
 8008c82:	2800      	cmp	r0, #0
 8008c84:	d040      	beq.n	8008d08 <_vfiprintf_r+0x210>
 8008c86:	4b28      	ldr	r3, [pc, #160]	@ (8008d28 <_vfiprintf_r+0x230>)
 8008c88:	2b00      	cmp	r3, #0
 8008c8a:	d122      	bne.n	8008cd2 <_vfiprintf_r+0x1da>
 8008c8c:	2207      	movs	r2, #7
 8008c8e:	9b07      	ldr	r3, [sp, #28]
 8008c90:	3307      	adds	r3, #7
 8008c92:	4393      	bics	r3, r2
 8008c94:	3308      	adds	r3, #8
 8008c96:	9307      	str	r3, [sp, #28]
 8008c98:	6963      	ldr	r3, [r4, #20]
 8008c9a:	9a04      	ldr	r2, [sp, #16]
 8008c9c:	189b      	adds	r3, r3, r2
 8008c9e:	6163      	str	r3, [r4, #20]
 8008ca0:	e762      	b.n	8008b68 <_vfiprintf_r+0x70>
 8008ca2:	4343      	muls	r3, r0
 8008ca4:	002e      	movs	r6, r5
 8008ca6:	2101      	movs	r1, #1
 8008ca8:	189b      	adds	r3, r3, r2
 8008caa:	e7a4      	b.n	8008bf6 <_vfiprintf_r+0xfe>
 8008cac:	2300      	movs	r3, #0
 8008cae:	200a      	movs	r0, #10
 8008cb0:	0019      	movs	r1, r3
 8008cb2:	3601      	adds	r6, #1
 8008cb4:	6063      	str	r3, [r4, #4]
 8008cb6:	7832      	ldrb	r2, [r6, #0]
 8008cb8:	1c75      	adds	r5, r6, #1
 8008cba:	3a30      	subs	r2, #48	@ 0x30
 8008cbc:	2a09      	cmp	r2, #9
 8008cbe:	d903      	bls.n	8008cc8 <_vfiprintf_r+0x1d0>
 8008cc0:	2b00      	cmp	r3, #0
 8008cc2:	d0c8      	beq.n	8008c56 <_vfiprintf_r+0x15e>
 8008cc4:	9109      	str	r1, [sp, #36]	@ 0x24
 8008cc6:	e7c6      	b.n	8008c56 <_vfiprintf_r+0x15e>
 8008cc8:	4341      	muls	r1, r0
 8008cca:	002e      	movs	r6, r5
 8008ccc:	2301      	movs	r3, #1
 8008cce:	1889      	adds	r1, r1, r2
 8008cd0:	e7f1      	b.n	8008cb6 <_vfiprintf_r+0x1be>
 8008cd2:	aa07      	add	r2, sp, #28
 8008cd4:	9200      	str	r2, [sp, #0]
 8008cd6:	0021      	movs	r1, r4
 8008cd8:	003a      	movs	r2, r7
 8008cda:	4b14      	ldr	r3, [pc, #80]	@ (8008d2c <_vfiprintf_r+0x234>)
 8008cdc:	9803      	ldr	r0, [sp, #12]
 8008cde:	e000      	b.n	8008ce2 <_vfiprintf_r+0x1ea>
 8008ce0:	bf00      	nop
 8008ce2:	9004      	str	r0, [sp, #16]
 8008ce4:	9b04      	ldr	r3, [sp, #16]
 8008ce6:	3301      	adds	r3, #1
 8008ce8:	d1d6      	bne.n	8008c98 <_vfiprintf_r+0x1a0>
 8008cea:	6e7b      	ldr	r3, [r7, #100]	@ 0x64
 8008cec:	07db      	lsls	r3, r3, #31
 8008cee:	d405      	bmi.n	8008cfc <_vfiprintf_r+0x204>
 8008cf0:	89bb      	ldrh	r3, [r7, #12]
 8008cf2:	059b      	lsls	r3, r3, #22
 8008cf4:	d402      	bmi.n	8008cfc <_vfiprintf_r+0x204>
 8008cf6:	6db8      	ldr	r0, [r7, #88]	@ 0x58
 8008cf8:	f7ff f99c 	bl	8008034 <__retarget_lock_release_recursive>
 8008cfc:	89bb      	ldrh	r3, [r7, #12]
 8008cfe:	065b      	lsls	r3, r3, #25
 8008d00:	d500      	bpl.n	8008d04 <_vfiprintf_r+0x20c>
 8008d02:	e71e      	b.n	8008b42 <_vfiprintf_r+0x4a>
 8008d04:	980d      	ldr	r0, [sp, #52]	@ 0x34
 8008d06:	e71e      	b.n	8008b46 <_vfiprintf_r+0x4e>
 8008d08:	aa07      	add	r2, sp, #28
 8008d0a:	9200      	str	r2, [sp, #0]
 8008d0c:	0021      	movs	r1, r4
 8008d0e:	003a      	movs	r2, r7
 8008d10:	4b06      	ldr	r3, [pc, #24]	@ (8008d2c <_vfiprintf_r+0x234>)
 8008d12:	9803      	ldr	r0, [sp, #12]
 8008d14:	f7ff fc92 	bl	800863c <_printf_i>
 8008d18:	e7e3      	b.n	8008ce2 <_vfiprintf_r+0x1ea>
 8008d1a:	46c0      	nop			@ (mov r8, r8)
 8008d1c:	080094bc 	.word	0x080094bc
 8008d20:	080094c2 	.word	0x080094c2
 8008d24:	080094c6 	.word	0x080094c6
 8008d28:	00000000 	.word	0x00000000
 8008d2c:	08008ad5 	.word	0x08008ad5

08008d30 <__swbuf_r>:
 8008d30:	b5f8      	push	{r3, r4, r5, r6, r7, lr}
 8008d32:	0006      	movs	r6, r0
 8008d34:	000d      	movs	r5, r1
 8008d36:	0014      	movs	r4, r2
 8008d38:	2800      	cmp	r0, #0
 8008d3a:	d004      	beq.n	8008d46 <__swbuf_r+0x16>
 8008d3c:	6a03      	ldr	r3, [r0, #32]
 8008d3e:	2b00      	cmp	r3, #0
 8008d40:	d101      	bne.n	8008d46 <__swbuf_r+0x16>
 8008d42:	f7fe fff5 	bl	8007d30 <__sinit>
 8008d46:	69a3      	ldr	r3, [r4, #24]
 8008d48:	60a3      	str	r3, [r4, #8]
 8008d4a:	89a3      	ldrh	r3, [r4, #12]
 8008d4c:	071b      	lsls	r3, r3, #28
 8008d4e:	d502      	bpl.n	8008d56 <__swbuf_r+0x26>
 8008d50:	6923      	ldr	r3, [r4, #16]
 8008d52:	2b00      	cmp	r3, #0
 8008d54:	d109      	bne.n	8008d6a <__swbuf_r+0x3a>
 8008d56:	0021      	movs	r1, r4
 8008d58:	0030      	movs	r0, r6
 8008d5a:	f000 f82b 	bl	8008db4 <__swsetup_r>
 8008d5e:	2800      	cmp	r0, #0
 8008d60:	d003      	beq.n	8008d6a <__swbuf_r+0x3a>
 8008d62:	2501      	movs	r5, #1
 8008d64:	426d      	negs	r5, r5
 8008d66:	0028      	movs	r0, r5
 8008d68:	bdf8      	pop	{r3, r4, r5, r6, r7, pc}
 8008d6a:	6923      	ldr	r3, [r4, #16]
 8008d6c:	6820      	ldr	r0, [r4, #0]
 8008d6e:	b2ef      	uxtb	r7, r5
 8008d70:	1ac0      	subs	r0, r0, r3
 8008d72:	6963      	ldr	r3, [r4, #20]
 8008d74:	b2ed      	uxtb	r5, r5
 8008d76:	4283      	cmp	r3, r0
 8008d78:	dc05      	bgt.n	8008d86 <__swbuf_r+0x56>
 8008d7a:	0021      	movs	r1, r4
 8008d7c:	0030      	movs	r0, r6
 8008d7e:	f7ff fdf1 	bl	8008964 <_fflush_r>
 8008d82:	2800      	cmp	r0, #0
 8008d84:	d1ed      	bne.n	8008d62 <__swbuf_r+0x32>
 8008d86:	68a3      	ldr	r3, [r4, #8]
 8008d88:	3001      	adds	r0, #1
 8008d8a:	3b01      	subs	r3, #1
 8008d8c:	60a3      	str	r3, [r4, #8]
 8008d8e:	6823      	ldr	r3, [r4, #0]
 8008d90:	1c5a      	adds	r2, r3, #1
 8008d92:	6022      	str	r2, [r4, #0]
 8008d94:	701f      	strb	r7, [r3, #0]
 8008d96:	6963      	ldr	r3, [r4, #20]
 8008d98:	4283      	cmp	r3, r0
 8008d9a:	d004      	beq.n	8008da6 <__swbuf_r+0x76>
 8008d9c:	89a3      	ldrh	r3, [r4, #12]
 8008d9e:	07db      	lsls	r3, r3, #31
 8008da0:	d5e1      	bpl.n	8008d66 <__swbuf_r+0x36>
 8008da2:	2d0a      	cmp	r5, #10
 8008da4:	d1df      	bne.n	8008d66 <__swbuf_r+0x36>
 8008da6:	0021      	movs	r1, r4
 8008da8:	0030      	movs	r0, r6
 8008daa:	f7ff fddb 	bl	8008964 <_fflush_r>
 8008dae:	2800      	cmp	r0, #0
 8008db0:	d0d9      	beq.n	8008d66 <__swbuf_r+0x36>
 8008db2:	e7d6      	b.n	8008d62 <__swbuf_r+0x32>

08008db4 <__swsetup_r>:
 8008db4:	4b2d      	ldr	r3, [pc, #180]	@ (8008e6c <__swsetup_r+0xb8>)
 8008db6:	b570      	push	{r4, r5, r6, lr}
 8008db8:	0005      	movs	r5, r0
 8008dba:	6818      	ldr	r0, [r3, #0]
 8008dbc:	000c      	movs	r4, r1
 8008dbe:	2800      	cmp	r0, #0
 8008dc0:	d004      	beq.n	8008dcc <__swsetup_r+0x18>
 8008dc2:	6a03      	ldr	r3, [r0, #32]
 8008dc4:	2b00      	cmp	r3, #0
 8008dc6:	d101      	bne.n	8008dcc <__swsetup_r+0x18>
 8008dc8:	f7fe ffb2 	bl	8007d30 <__sinit>
 8008dcc:	230c      	movs	r3, #12
 8008dce:	5ee2      	ldrsh	r2, [r4, r3]
 8008dd0:	0713      	lsls	r3, r2, #28
 8008dd2:	d423      	bmi.n	8008e1c <__swsetup_r+0x68>
 8008dd4:	06d3      	lsls	r3, r2, #27
 8008dd6:	d407      	bmi.n	8008de8 <__swsetup_r+0x34>
 8008dd8:	2309      	movs	r3, #9
 8008dda:	602b      	str	r3, [r5, #0]
 8008ddc:	2340      	movs	r3, #64	@ 0x40
 8008dde:	2001      	movs	r0, #1
 8008de0:	4313      	orrs	r3, r2
 8008de2:	81a3      	strh	r3, [r4, #12]
 8008de4:	4240      	negs	r0, r0
 8008de6:	e03a      	b.n	8008e5e <__swsetup_r+0xaa>
 8008de8:	0752      	lsls	r2, r2, #29
 8008dea:	d513      	bpl.n	8008e14 <__swsetup_r+0x60>
 8008dec:	6b61      	ldr	r1, [r4, #52]	@ 0x34
 8008dee:	2900      	cmp	r1, #0
 8008df0:	d008      	beq.n	8008e04 <__swsetup_r+0x50>
 8008df2:	0023      	movs	r3, r4
 8008df4:	3344      	adds	r3, #68	@ 0x44
 8008df6:	4299      	cmp	r1, r3
 8008df8:	d002      	beq.n	8008e00 <__swsetup_r+0x4c>
 8008dfa:	0028      	movs	r0, r5
 8008dfc:	f7ff f94a 	bl	8008094 <_free_r>
 8008e00:	2300      	movs	r3, #0
 8008e02:	6363      	str	r3, [r4, #52]	@ 0x34
 8008e04:	2224      	movs	r2, #36	@ 0x24
 8008e06:	89a3      	ldrh	r3, [r4, #12]
 8008e08:	4393      	bics	r3, r2
 8008e0a:	81a3      	strh	r3, [r4, #12]
 8008e0c:	2300      	movs	r3, #0
 8008e0e:	6063      	str	r3, [r4, #4]
 8008e10:	6923      	ldr	r3, [r4, #16]
 8008e12:	6023      	str	r3, [r4, #0]
 8008e14:	2308      	movs	r3, #8
 8008e16:	89a2      	ldrh	r2, [r4, #12]
 8008e18:	4313      	orrs	r3, r2
 8008e1a:	81a3      	strh	r3, [r4, #12]
 8008e1c:	6923      	ldr	r3, [r4, #16]
 8008e1e:	2b00      	cmp	r3, #0
 8008e20:	d10b      	bne.n	8008e3a <__swsetup_r+0x86>
 8008e22:	21a0      	movs	r1, #160	@ 0xa0
 8008e24:	2280      	movs	r2, #128	@ 0x80
 8008e26:	89a3      	ldrh	r3, [r4, #12]
 8008e28:	0089      	lsls	r1, r1, #2
 8008e2a:	0092      	lsls	r2, r2, #2
 8008e2c:	400b      	ands	r3, r1
 8008e2e:	4293      	cmp	r3, r2
 8008e30:	d003      	beq.n	8008e3a <__swsetup_r+0x86>
 8008e32:	0021      	movs	r1, r4
 8008e34:	0028      	movs	r0, r5
 8008e36:	f000 f897 	bl	8008f68 <__smakebuf_r>
 8008e3a:	230c      	movs	r3, #12
 8008e3c:	5ee2      	ldrsh	r2, [r4, r3]
 8008e3e:	2101      	movs	r1, #1
 8008e40:	0013      	movs	r3, r2
 8008e42:	400b      	ands	r3, r1
 8008e44:	420a      	tst	r2, r1
 8008e46:	d00b      	beq.n	8008e60 <__swsetup_r+0xac>
 8008e48:	2300      	movs	r3, #0
 8008e4a:	60a3      	str	r3, [r4, #8]
 8008e4c:	6963      	ldr	r3, [r4, #20]
 8008e4e:	425b      	negs	r3, r3
 8008e50:	61a3      	str	r3, [r4, #24]
 8008e52:	2000      	movs	r0, #0
 8008e54:	6923      	ldr	r3, [r4, #16]
 8008e56:	4283      	cmp	r3, r0
 8008e58:	d101      	bne.n	8008e5e <__swsetup_r+0xaa>
 8008e5a:	0613      	lsls	r3, r2, #24
 8008e5c:	d4be      	bmi.n	8008ddc <__swsetup_r+0x28>
 8008e5e:	bd70      	pop	{r4, r5, r6, pc}
 8008e60:	0791      	lsls	r1, r2, #30
 8008e62:	d400      	bmi.n	8008e66 <__swsetup_r+0xb2>
 8008e64:	6963      	ldr	r3, [r4, #20]
 8008e66:	60a3      	str	r3, [r4, #8]
 8008e68:	e7f3      	b.n	8008e52 <__swsetup_r+0x9e>
 8008e6a:	46c0      	nop			@ (mov r8, r8)
 8008e6c:	2000019c 	.word	0x2000019c

08008e70 <_raise_r>:
 8008e70:	b570      	push	{r4, r5, r6, lr}
 8008e72:	0004      	movs	r4, r0
 8008e74:	000d      	movs	r5, r1
 8008e76:	291f      	cmp	r1, #31
 8008e78:	d904      	bls.n	8008e84 <_raise_r+0x14>
 8008e7a:	2316      	movs	r3, #22
 8008e7c:	6003      	str	r3, [r0, #0]
 8008e7e:	2001      	movs	r0, #1
 8008e80:	4240      	negs	r0, r0
 8008e82:	bd70      	pop	{r4, r5, r6, pc}
 8008e84:	6bc3      	ldr	r3, [r0, #60]	@ 0x3c
 8008e86:	2b00      	cmp	r3, #0
 8008e88:	d004      	beq.n	8008e94 <_raise_r+0x24>
 8008e8a:	008a      	lsls	r2, r1, #2
 8008e8c:	189b      	adds	r3, r3, r2
 8008e8e:	681a      	ldr	r2, [r3, #0]
 8008e90:	2a00      	cmp	r2, #0
 8008e92:	d108      	bne.n	8008ea6 <_raise_r+0x36>
 8008e94:	0020      	movs	r0, r4
 8008e96:	f000 f831 	bl	8008efc <_getpid_r>
 8008e9a:	002a      	movs	r2, r5
 8008e9c:	0001      	movs	r1, r0
 8008e9e:	0020      	movs	r0, r4
 8008ea0:	f000 f81a 	bl	8008ed8 <_kill_r>
 8008ea4:	e7ed      	b.n	8008e82 <_raise_r+0x12>
 8008ea6:	2a01      	cmp	r2, #1
 8008ea8:	d009      	beq.n	8008ebe <_raise_r+0x4e>
 8008eaa:	1c51      	adds	r1, r2, #1
 8008eac:	d103      	bne.n	8008eb6 <_raise_r+0x46>
 8008eae:	2316      	movs	r3, #22
 8008eb0:	6003      	str	r3, [r0, #0]
 8008eb2:	2001      	movs	r0, #1
 8008eb4:	e7e5      	b.n	8008e82 <_raise_r+0x12>
 8008eb6:	2100      	movs	r1, #0
 8008eb8:	0028      	movs	r0, r5
 8008eba:	6019      	str	r1, [r3, #0]
 8008ebc:	4790      	blx	r2
 8008ebe:	2000      	movs	r0, #0
 8008ec0:	e7df      	b.n	8008e82 <_raise_r+0x12>
	...

08008ec4 <raise>:
 8008ec4:	b510      	push	{r4, lr}
 8008ec6:	4b03      	ldr	r3, [pc, #12]	@ (8008ed4 <raise+0x10>)
 8008ec8:	0001      	movs	r1, r0
 8008eca:	6818      	ldr	r0, [r3, #0]
 8008ecc:	f7ff ffd0 	bl	8008e70 <_raise_r>
 8008ed0:	bd10      	pop	{r4, pc}
 8008ed2:	46c0      	nop			@ (mov r8, r8)
 8008ed4:	2000019c 	.word	0x2000019c

08008ed8 <_kill_r>:
 8008ed8:	2300      	movs	r3, #0
 8008eda:	b570      	push	{r4, r5, r6, lr}
 8008edc:	4d06      	ldr	r5, [pc, #24]	@ (8008ef8 <_kill_r+0x20>)
 8008ede:	0004      	movs	r4, r0
 8008ee0:	0008      	movs	r0, r1
 8008ee2:	0011      	movs	r1, r2
 8008ee4:	602b      	str	r3, [r5, #0]
 8008ee6:	f7f9 fbc7 	bl	8002678 <_kill>
 8008eea:	1c43      	adds	r3, r0, #1
 8008eec:	d103      	bne.n	8008ef6 <_kill_r+0x1e>
 8008eee:	682b      	ldr	r3, [r5, #0]
 8008ef0:	2b00      	cmp	r3, #0
 8008ef2:	d000      	beq.n	8008ef6 <_kill_r+0x1e>
 8008ef4:	6023      	str	r3, [r4, #0]
 8008ef6:	bd70      	pop	{r4, r5, r6, pc}
 8008ef8:	20003758 	.word	0x20003758

08008efc <_getpid_r>:
 8008efc:	b510      	push	{r4, lr}
 8008efe:	f7f9 fbb9 	bl	8002674 <_getpid>
 8008f02:	bd10      	pop	{r4, pc}

08008f04 <_malloc_usable_size_r>:
 8008f04:	1f0b      	subs	r3, r1, #4
 8008f06:	681b      	ldr	r3, [r3, #0]
 8008f08:	1f18      	subs	r0, r3, #4
 8008f0a:	2b00      	cmp	r3, #0
 8008f0c:	da01      	bge.n	8008f12 <_malloc_usable_size_r+0xe>
 8008f0e:	580b      	ldr	r3, [r1, r0]
 8008f10:	18c0      	adds	r0, r0, r3
 8008f12:	4770      	bx	lr

08008f14 <__swhatbuf_r>:
 8008f14:	b570      	push	{r4, r5, r6, lr}
 8008f16:	000e      	movs	r6, r1
 8008f18:	001d      	movs	r5, r3
 8008f1a:	230e      	movs	r3, #14
 8008f1c:	5ec9      	ldrsh	r1, [r1, r3]
 8008f1e:	0014      	movs	r4, r2
 8008f20:	b096      	sub	sp, #88	@ 0x58
 8008f22:	2900      	cmp	r1, #0
 8008f24:	da0c      	bge.n	8008f40 <__swhatbuf_r+0x2c>
 8008f26:	89b2      	ldrh	r2, [r6, #12]
 8008f28:	2380      	movs	r3, #128	@ 0x80
 8008f2a:	0011      	movs	r1, r2
 8008f2c:	4019      	ands	r1, r3
 8008f2e:	421a      	tst	r2, r3
 8008f30:	d114      	bne.n	8008f5c <__swhatbuf_r+0x48>
 8008f32:	2380      	movs	r3, #128	@ 0x80
 8008f34:	00db      	lsls	r3, r3, #3
 8008f36:	2000      	movs	r0, #0
 8008f38:	6029      	str	r1, [r5, #0]
 8008f3a:	6023      	str	r3, [r4, #0]
 8008f3c:	b016      	add	sp, #88	@ 0x58
 8008f3e:	bd70      	pop	{r4, r5, r6, pc}
 8008f40:	466a      	mov	r2, sp
 8008f42:	f000 f853 	bl	8008fec <_fstat_r>
 8008f46:	2800      	cmp	r0, #0
 8008f48:	dbed      	blt.n	8008f26 <__swhatbuf_r+0x12>
 8008f4a:	23f0      	movs	r3, #240	@ 0xf0
 8008f4c:	9901      	ldr	r1, [sp, #4]
 8008f4e:	021b      	lsls	r3, r3, #8
 8008f50:	4019      	ands	r1, r3
 8008f52:	4b04      	ldr	r3, [pc, #16]	@ (8008f64 <__swhatbuf_r+0x50>)
 8008f54:	18c9      	adds	r1, r1, r3
 8008f56:	424b      	negs	r3, r1
 8008f58:	4159      	adcs	r1, r3
 8008f5a:	e7ea      	b.n	8008f32 <__swhatbuf_r+0x1e>
 8008f5c:	2100      	movs	r1, #0
 8008f5e:	2340      	movs	r3, #64	@ 0x40
 8008f60:	e7e9      	b.n	8008f36 <__swhatbuf_r+0x22>
 8008f62:	46c0      	nop			@ (mov r8, r8)
 8008f64:	ffffe000 	.word	0xffffe000

08008f68 <__smakebuf_r>:
 8008f68:	b5f0      	push	{r4, r5, r6, r7, lr}
 8008f6a:	2602      	movs	r6, #2
 8008f6c:	898b      	ldrh	r3, [r1, #12]
 8008f6e:	0005      	movs	r5, r0
 8008f70:	000c      	movs	r4, r1
 8008f72:	b085      	sub	sp, #20
 8008f74:	4233      	tst	r3, r6
 8008f76:	d007      	beq.n	8008f88 <__smakebuf_r+0x20>
 8008f78:	0023      	movs	r3, r4
 8008f7a:	3347      	adds	r3, #71	@ 0x47
 8008f7c:	6023      	str	r3, [r4, #0]
 8008f7e:	6123      	str	r3, [r4, #16]
 8008f80:	2301      	movs	r3, #1
 8008f82:	6163      	str	r3, [r4, #20]
 8008f84:	b005      	add	sp, #20
 8008f86:	bdf0      	pop	{r4, r5, r6, r7, pc}
 8008f88:	ab03      	add	r3, sp, #12
 8008f8a:	aa02      	add	r2, sp, #8
 8008f8c:	f7ff ffc2 	bl	8008f14 <__swhatbuf_r>
 8008f90:	9f02      	ldr	r7, [sp, #8]
 8008f92:	9001      	str	r0, [sp, #4]
 8008f94:	0039      	movs	r1, r7
 8008f96:	0028      	movs	r0, r5
 8008f98:	f7ff f8f2 	bl	8008180 <_malloc_r>
 8008f9c:	2800      	cmp	r0, #0
 8008f9e:	d108      	bne.n	8008fb2 <__smakebuf_r+0x4a>
 8008fa0:	220c      	movs	r2, #12
 8008fa2:	5ea3      	ldrsh	r3, [r4, r2]
 8008fa4:	059a      	lsls	r2, r3, #22
 8008fa6:	d4ed      	bmi.n	8008f84 <__smakebuf_r+0x1c>
 8008fa8:	2203      	movs	r2, #3
 8008faa:	4393      	bics	r3, r2
 8008fac:	431e      	orrs	r6, r3
 8008fae:	81a6      	strh	r6, [r4, #12]
 8008fb0:	e7e2      	b.n	8008f78 <__smakebuf_r+0x10>
 8008fb2:	2380      	movs	r3, #128	@ 0x80
 8008fb4:	89a2      	ldrh	r2, [r4, #12]
 8008fb6:	6020      	str	r0, [r4, #0]
 8008fb8:	4313      	orrs	r3, r2
 8008fba:	81a3      	strh	r3, [r4, #12]
 8008fbc:	9b03      	ldr	r3, [sp, #12]
 8008fbe:	6120      	str	r0, [r4, #16]
 8008fc0:	6167      	str	r7, [r4, #20]
 8008fc2:	2b00      	cmp	r3, #0
 8008fc4:	d00c      	beq.n	8008fe0 <__smakebuf_r+0x78>
 8008fc6:	0028      	movs	r0, r5
 8008fc8:	230e      	movs	r3, #14
 8008fca:	5ee1      	ldrsh	r1, [r4, r3]
 8008fcc:	f000 f820 	bl	8009010 <_isatty_r>
 8008fd0:	2800      	cmp	r0, #0
 8008fd2:	d005      	beq.n	8008fe0 <__smakebuf_r+0x78>
 8008fd4:	2303      	movs	r3, #3
 8008fd6:	89a2      	ldrh	r2, [r4, #12]
 8008fd8:	439a      	bics	r2, r3
 8008fda:	3b02      	subs	r3, #2
 8008fdc:	4313      	orrs	r3, r2
 8008fde:	81a3      	strh	r3, [r4, #12]
 8008fe0:	89a3      	ldrh	r3, [r4, #12]
 8008fe2:	9a01      	ldr	r2, [sp, #4]
 8008fe4:	4313      	orrs	r3, r2
 8008fe6:	81a3      	strh	r3, [r4, #12]
 8008fe8:	e7cc      	b.n	8008f84 <__smakebuf_r+0x1c>
	...

08008fec <_fstat_r>:
 8008fec:	2300      	movs	r3, #0
 8008fee:	b570      	push	{r4, r5, r6, lr}
 8008ff0:	4d06      	ldr	r5, [pc, #24]	@ (800900c <_fstat_r+0x20>)
 8008ff2:	0004      	movs	r4, r0
 8008ff4:	0008      	movs	r0, r1
 8008ff6:	0011      	movs	r1, r2
 8008ff8:	602b      	str	r3, [r5, #0]
 8008ffa:	f7f9 fb6b 	bl	80026d4 <_fstat>
 8008ffe:	1c43      	adds	r3, r0, #1
 8009000:	d103      	bne.n	800900a <_fstat_r+0x1e>
 8009002:	682b      	ldr	r3, [r5, #0]
 8009004:	2b00      	cmp	r3, #0
 8009006:	d000      	beq.n	800900a <_fstat_r+0x1e>
 8009008:	6023      	str	r3, [r4, #0]
 800900a:	bd70      	pop	{r4, r5, r6, pc}
 800900c:	20003758 	.word	0x20003758

08009010 <_isatty_r>:
 8009010:	2300      	movs	r3, #0
 8009012:	b570      	push	{r4, r5, r6, lr}
 8009014:	4d06      	ldr	r5, [pc, #24]	@ (8009030 <_isatty_r+0x20>)
 8009016:	0004      	movs	r4, r0
 8009018:	0008      	movs	r0, r1
 800901a:	602b      	str	r3, [r5, #0]
 800901c:	f7f9 fb60 	bl	80026e0 <_isatty>
 8009020:	1c43      	adds	r3, r0, #1
 8009022:	d103      	bne.n	800902c <_isatty_r+0x1c>
 8009024:	682b      	ldr	r3, [r5, #0]
 8009026:	2b00      	cmp	r3, #0
 8009028:	d000      	beq.n	800902c <_isatty_r+0x1c>
 800902a:	6023      	str	r3, [r4, #0]
 800902c:	bd70      	pop	{r4, r5, r6, pc}
 800902e:	46c0      	nop			@ (mov r8, r8)
 8009030:	20003758 	.word	0x20003758

08009034 <_init>:
 8009034:	b5f8      	push	{r3, r4, r5, r6, r7, lr}
 8009036:	46c0      	nop			@ (mov r8, r8)
 8009038:	bcf8      	pop	{r3, r4, r5, r6, r7}
 800903a:	bc08      	pop	{r3}
 800903c:	469e      	mov	lr, r3
 800903e:	4770      	bx	lr

08009040 <_fini>:
 8009040:	b5f8      	push	{r3, r4, r5, r6, r7, lr}
 8009042:	46c0      	nop			@ (mov r8, r8)
 8009044:	bcf8      	pop	{r3, r4, r5, r6, r7}
 8009046:	bc08      	pop	{r3}
 8009048:	469e      	mov	lr, r3
 800904a:	4770      	bx	lr
