
FAC firmware.elf:     file format elf32-littlearm

Sections:
Idx Name          Size      VMA       LMA       File off  Algn
  0 .isr_vector   000000c0  08000000  08000000  00001000  2**0
                  CONTENTS, ALLOC, LOAD, READONLY, DATA
  1 .text         00008a7c  080000c0  080000c0  000010c0  2**2
                  CONTENTS, ALLOC, LOAD, READONLY, CODE
  2 .rodata       000004a4  08008b3c  08008b3c  00009b3c  2**2
                  CONTENTS, ALLOC, LOAD, READONLY, DATA
  3 .ARM.extab    00000000  08008fe0  08008fe0  0000a1ec  2**0
                  CONTENTS
  4 .ARM          00000000  08008fe0  08008fe0  0000a1ec  2**0
                  CONTENTS
  5 .preinit_array 00000000  08008fe0  08008fe0  0000a1ec  2**0
                  CONTENTS, ALLOC, LOAD, DATA
  6 .init_array   00000004  08008fe0  08008fe0  00009fe0  2**2
                  CONTENTS, ALLOC, LOAD, READONLY, DATA
  7 .fini_array   00000004  08008fe4  08008fe4  00009fe4  2**2
                  CONTENTS, ALLOC, LOAD, READONLY, DATA
  8 .data         000001ec  20000000  08008fe8  0000a000  2**2
                  CONTENTS, ALLOC, LOAD, DATA
  9 .bss          00001568  200001ec  080091d4  0000a1ec  2**2
                  ALLOC
 10 ._user_heap_stack 00000604  20001754  080091d4  0000a754  2**0
                  ALLOC
 11 .ARM.attributes 00000028  00000000  00000000  0000a1ec  2**0
                  CONTENTS, READONLY
 12 .debug_info   000248e1  00000000  00000000  0000a214  2**0
                  CONTENTS, READONLY, DEBUGGING, OCTETS
 13 .debug_abbrev 0000583c  00000000  00000000  0002eaf5  2**0
                  CONTENTS, READONLY, DEBUGGING, OCTETS
 14 .debug_loclists 000138df  00000000  00000000  00034331  2**0
                  CONTENTS, READONLY, DEBUGGING, OCTETS
 15 .debug_aranges 00001418  00000000  00000000  00047c10  2**3
                  CONTENTS, READONLY, DEBUGGING, OCTETS
 16 .debug_rnglists 000021b2  00000000  00000000  00049028  2**0
                  CONTENTS, READONLY, DEBUGGING, OCTETS
 17 .debug_line   00020b50  00000000  00000000  0004b1da  2**0
                  CONTENTS, READONLY, DEBUGGING, OCTETS
 18 .debug_str    00005c0b  00000000  00000000  0006bd2a  2**0
                  CONTENTS, READONLY, DEBUGGING, OCTETS
 19 .comment      00000043  00000000  00000000  00071935  2**0
                  CONTENTS, READONLY
 20 .debug_frame  000041b4  00000000  00000000  00071978  2**2
                  CONTENTS, READONLY, DEBUGGING, OCTETS
 21 .debug_line_str 0000007e  00000000  00000000  00075b2c  2**0
                  CONTENTS, READONLY, DEBUGGING, OCTETS

Disassembly of section .text:

080000c0 <__do_global_dtors_aux>:
 80000c0:	b510      	push	{r4, lr}
 80000c2:	4c06      	ldr	r4, [pc, #24]	@ (80000dc <__do_global_dtors_aux+0x1c>)
 80000c4:	7823      	ldrb	r3, [r4, #0]
 80000c6:	2b00      	cmp	r3, #0
 80000c8:	d107      	bne.n	80000da <__do_global_dtors_aux+0x1a>
 80000ca:	4b05      	ldr	r3, [pc, #20]	@ (80000e0 <__do_global_dtors_aux+0x20>)
 80000cc:	2b00      	cmp	r3, #0
 80000ce:	d002      	beq.n	80000d6 <__do_global_dtors_aux+0x16>
 80000d0:	4804      	ldr	r0, [pc, #16]	@ (80000e4 <__do_global_dtors_aux+0x24>)
 80000d2:	e000      	b.n	80000d6 <__do_global_dtors_aux+0x16>
 80000d4:	bf00      	nop
 80000d6:	2301      	movs	r3, #1
 80000d8:	7023      	strb	r3, [r4, #0]
 80000da:	bd10      	pop	{r4, pc}
 80000dc:	200001ec 	.word	0x200001ec
 80000e0:	00000000 	.word	0x00000000
 80000e4:	08008b24 	.word	0x08008b24

080000e8 <frame_dummy>:
 80000e8:	4b04      	ldr	r3, [pc, #16]	@ (80000fc <frame_dummy+0x14>)
 80000ea:	b510      	push	{r4, lr}
 80000ec:	2b00      	cmp	r3, #0
 80000ee:	d003      	beq.n	80000f8 <frame_dummy+0x10>
 80000f0:	4903      	ldr	r1, [pc, #12]	@ (8000100 <frame_dummy+0x18>)
 80000f2:	4804      	ldr	r0, [pc, #16]	@ (8000104 <frame_dummy+0x1c>)
 80000f4:	e000      	b.n	80000f8 <frame_dummy+0x10>
 80000f6:	bf00      	nop
 80000f8:	bd10      	pop	{r4, pc}
 80000fa:	46c0      	nop			@ (mov r8, r8)
 80000fc:	00000000 	.word	0x00000000
 8000100:	200001f0 	.word	0x200001f0
 8000104:	08008b24 	.word	0x08008b24

08000108 <strlen>:
 8000108:	2300      	movs	r3, #0
 800010a:	5cc2      	ldrb	r2, [r0, r3]
 800010c:	3301      	adds	r3, #1
 800010e:	2a00      	cmp	r2, #0
 8000110:	d1fb      	bne.n	800010a <strlen+0x2>
 8000112:	1e58      	subs	r0, r3, #1
 8000114:	4770      	bx	lr
	...

08000118 <__gnu_thumb1_case_shi>:
 8000118:	b403      	push	{r0, r1}
 800011a:	4671      	mov	r1, lr
 800011c:	0849      	lsrs	r1, r1, #1
 800011e:	0040      	lsls	r0, r0, #1
 8000120:	0049      	lsls	r1, r1, #1
 8000122:	5e09      	ldrsh	r1, [r1, r0]
 8000124:	0049      	lsls	r1, r1, #1
 8000126:	448e      	add	lr, r1
 8000128:	bc03      	pop	{r0, r1}
 800012a:	4770      	bx	lr

0800012c <__udivsi3>:
 800012c:	2200      	movs	r2, #0
 800012e:	0843      	lsrs	r3, r0, #1
 8000130:	428b      	cmp	r3, r1
 8000132:	d374      	bcc.n	800021e <__udivsi3+0xf2>
 8000134:	0903      	lsrs	r3, r0, #4
 8000136:	428b      	cmp	r3, r1
 8000138:	d35f      	bcc.n	80001fa <__udivsi3+0xce>
 800013a:	0a03      	lsrs	r3, r0, #8
 800013c:	428b      	cmp	r3, r1
 800013e:	d344      	bcc.n	80001ca <__udivsi3+0x9e>
 8000140:	0b03      	lsrs	r3, r0, #12
 8000142:	428b      	cmp	r3, r1
 8000144:	d328      	bcc.n	8000198 <__udivsi3+0x6c>
 8000146:	0c03      	lsrs	r3, r0, #16
 8000148:	428b      	cmp	r3, r1
 800014a:	d30d      	bcc.n	8000168 <__udivsi3+0x3c>
 800014c:	22ff      	movs	r2, #255	@ 0xff
 800014e:	0209      	lsls	r1, r1, #8
 8000150:	ba12      	rev	r2, r2
 8000152:	0c03      	lsrs	r3, r0, #16
 8000154:	428b      	cmp	r3, r1
 8000156:	d302      	bcc.n	800015e <__udivsi3+0x32>
 8000158:	1212      	asrs	r2, r2, #8
 800015a:	0209      	lsls	r1, r1, #8
 800015c:	d065      	beq.n	800022a <__udivsi3+0xfe>
 800015e:	0b03      	lsrs	r3, r0, #12
 8000160:	428b      	cmp	r3, r1
 8000162:	d319      	bcc.n	8000198 <__udivsi3+0x6c>
 8000164:	e000      	b.n	8000168 <__udivsi3+0x3c>
 8000166:	0a09      	lsrs	r1, r1, #8
 8000168:	0bc3      	lsrs	r3, r0, #15
 800016a:	428b      	cmp	r3, r1
 800016c:	d301      	bcc.n	8000172 <__udivsi3+0x46>
 800016e:	03cb      	lsls	r3, r1, #15
 8000170:	1ac0      	subs	r0, r0, r3
 8000172:	4152      	adcs	r2, r2
 8000174:	0b83      	lsrs	r3, r0, #14
 8000176:	428b      	cmp	r3, r1
 8000178:	d301      	bcc.n	800017e <__udivsi3+0x52>
 800017a:	038b      	lsls	r3, r1, #14
 800017c:	1ac0      	subs	r0, r0, r3
 800017e:	4152      	adcs	r2, r2
 8000180:	0b43      	lsrs	r3, r0, #13
 8000182:	428b      	cmp	r3, r1
 8000184:	d301      	bcc.n	800018a <__udivsi3+0x5e>
 8000186:	034b      	lsls	r3, r1, #13
 8000188:	1ac0      	subs	r0, r0, r3
 800018a:	4152      	adcs	r2, r2
 800018c:	0b03      	lsrs	r3, r0, #12
 800018e:	428b      	cmp	r3, r1
 8000190:	d301      	bcc.n	8000196 <__udivsi3+0x6a>
 8000192:	030b      	lsls	r3, r1, #12
 8000194:	1ac0      	subs	r0, r0, r3
 8000196:	4152      	adcs	r2, r2
 8000198:	0ac3      	lsrs	r3, r0, #11
 800019a:	428b      	cmp	r3, r1
 800019c:	d301      	bcc.n	80001a2 <__udivsi3+0x76>
 800019e:	02cb      	lsls	r3, r1, #11
 80001a0:	1ac0      	subs	r0, r0, r3
 80001a2:	4152      	adcs	r2, r2
 80001a4:	0a83      	lsrs	r3, r0, #10
 80001a6:	428b      	cmp	r3, r1
 80001a8:	d301      	bcc.n	80001ae <__udivsi3+0x82>
 80001aa:	028b      	lsls	r3, r1, #10
 80001ac:	1ac0      	subs	r0, r0, r3
 80001ae:	4152      	adcs	r2, r2
 80001b0:	0a43      	lsrs	r3, r0, #9
 80001b2:	428b      	cmp	r3, r1
 80001b4:	d301      	bcc.n	80001ba <__udivsi3+0x8e>
 80001b6:	024b      	lsls	r3, r1, #9
 80001b8:	1ac0      	subs	r0, r0, r3
 80001ba:	4152      	adcs	r2, r2
 80001bc:	0a03      	lsrs	r3, r0, #8
 80001be:	428b      	cmp	r3, r1
 80001c0:	d301      	bcc.n	80001c6 <__udivsi3+0x9a>
 80001c2:	020b      	lsls	r3, r1, #8
 80001c4:	1ac0      	subs	r0, r0, r3
 80001c6:	4152      	adcs	r2, r2
 80001c8:	d2cd      	bcs.n	8000166 <__udivsi3+0x3a>
 80001ca:	09c3      	lsrs	r3, r0, #7
 80001cc:	428b      	cmp	r3, r1
 80001ce:	d301      	bcc.n	80001d4 <__udivsi3+0xa8>
 80001d0:	01cb      	lsls	r3, r1, #7
 80001d2:	1ac0      	subs	r0, r0, r3
 80001d4:	4152      	adcs	r2, r2
 80001d6:	0983      	lsrs	r3, r0, #6
 80001d8:	428b      	cmp	r3, r1
 80001da:	d301      	bcc.n	80001e0 <__udivsi3+0xb4>
 80001dc:	018b      	lsls	r3, r1, #6
 80001de:	1ac0      	subs	r0, r0, r3
 80001e0:	4152      	adcs	r2, r2
 80001e2:	0943      	lsrs	r3, r0, #5
 80001e4:	428b      	cmp	r3, r1
 80001e6:	d301      	bcc.n	80001ec <__udivsi3+0xc0>
 80001e8:	014b      	lsls	r3, r1, #5
 80001ea:	1ac0      	subs	r0, r0, r3
 80001ec:	4152      	adcs	r2, r2
 80001ee:	0903      	lsrs	r3, r0, #4
 80001f0:	428b      	cmp	r3, r1
 80001f2:	d301      	bcc.n	80001f8 <__udivsi3+0xcc>
 80001f4:	010b      	lsls	r3, r1, #4
 80001f6:	1ac0      	subs	r0, r0, r3
 80001f8:	4152      	adcs	r2, r2
 80001fa:	08c3      	lsrs	r3, r0, #3
 80001fc:	428b      	cmp	r3, r1
 80001fe:	d301      	bcc.n	8000204 <__udivsi3+0xd8>
 8000200:	00cb      	lsls	r3, r1, #3
 8000202:	1ac0      	subs	r0, r0, r3
 8000204:	4152      	adcs	r2, r2
 8000206:	0883      	lsrs	r3, r0, #2
 8000208:	428b      	cmp	r3, r1
 800020a:	d301      	bcc.n	8000210 <__udivsi3+0xe4>
 800020c:	008b      	lsls	r3, r1, #2
 800020e:	1ac0      	subs	r0, r0, r3
 8000210:	4152      	adcs	r2, r2
 8000212:	0843      	lsrs	r3, r0, #1
 8000214:	428b      	cmp	r3, r1
 8000216:	d301      	bcc.n	800021c <__udivsi3+0xf0>
 8000218:	004b      	lsls	r3, r1, #1
 800021a:	1ac0      	subs	r0, r0, r3
 800021c:	4152      	adcs	r2, r2
 800021e:	1a41      	subs	r1, r0, r1
 8000220:	d200      	bcs.n	8000224 <__udivsi3+0xf8>
 8000222:	4601      	mov	r1, r0
 8000224:	4152      	adcs	r2, r2
 8000226:	4610      	mov	r0, r2
 8000228:	4770      	bx	lr
 800022a:	e7ff      	b.n	800022c <__udivsi3+0x100>
 800022c:	b501      	push	{r0, lr}
 800022e:	2000      	movs	r0, #0
 8000230:	f000 f8f0 	bl	8000414 <__aeabi_idiv0>
 8000234:	bd02      	pop	{r1, pc}
 8000236:	46c0      	nop			@ (mov r8, r8)

08000238 <__aeabi_uidivmod>:
 8000238:	2900      	cmp	r1, #0
 800023a:	d0f7      	beq.n	800022c <__udivsi3+0x100>
 800023c:	e776      	b.n	800012c <__udivsi3>
 800023e:	4770      	bx	lr

08000240 <__divsi3>:
 8000240:	4603      	mov	r3, r0
 8000242:	430b      	orrs	r3, r1
 8000244:	d47f      	bmi.n	8000346 <__divsi3+0x106>
 8000246:	2200      	movs	r2, #0
 8000248:	0843      	lsrs	r3, r0, #1
 800024a:	428b      	cmp	r3, r1
 800024c:	d374      	bcc.n	8000338 <__divsi3+0xf8>
 800024e:	0903      	lsrs	r3, r0, #4
 8000250:	428b      	cmp	r3, r1
 8000252:	d35f      	bcc.n	8000314 <__divsi3+0xd4>
 8000254:	0a03      	lsrs	r3, r0, #8
 8000256:	428b      	cmp	r3, r1
 8000258:	d344      	bcc.n	80002e4 <__divsi3+0xa4>
 800025a:	0b03      	lsrs	r3, r0, #12
 800025c:	428b      	cmp	r3, r1
 800025e:	d328      	bcc.n	80002b2 <__divsi3+0x72>
 8000260:	0c03      	lsrs	r3, r0, #16
 8000262:	428b      	cmp	r3, r1
 8000264:	d30d      	bcc.n	8000282 <__divsi3+0x42>
 8000266:	22ff      	movs	r2, #255	@ 0xff
 8000268:	0209      	lsls	r1, r1, #8
 800026a:	ba12      	rev	r2, r2
 800026c:	0c03      	lsrs	r3, r0, #16
 800026e:	428b      	cmp	r3, r1
 8000270:	d302      	bcc.n	8000278 <__divsi3+0x38>
 8000272:	1212      	asrs	r2, r2, #8
 8000274:	0209      	lsls	r1, r1, #8
 8000276:	d065      	beq.n	8000344 <__divsi3+0x104>
 8000278:	0b03      	lsrs	r3, r0, #12
 800027a:	428b      	cmp	r3, r1
 800027c:	d319      	bcc.n	80002b2 <__divsi3+0x72>
 800027e:	e000      	b.n	8000282 <__divsi3+0x42>
 8000280:	0a09      	lsrs	r1, r1, #8
 8000282:	0bc3      	lsrs	r3, r0, #15
 8000284:	428b      	cmp	r3, r1
 8000286:	d301      	bcc.n	800028c <__divsi3+0x4c>
 8000288:	03cb      	lsls	r3, r1, #15
 800028a:	1ac0      	subs	r0, r0, r3
 800028c:	4152      	adcs	r2, r2
 800028e:	0b83      	lsrs	r3, r0, #14
 8000290:	428b      	cmp	r3, r1
 8000292:	d301      	bcc.n	8000298 <__divsi3+0x58>
 8000294:	038b      	lsls	r3, r1, #14
 8000296:	1ac0      	subs	r0, r0, r3
 8000298:	4152      	adcs	r2, r2
 800029a:	0b43      	lsrs	r3, r0, #13
 800029c:	428b      	cmp	r3, r1
 800029e:	d301      	bcc.n	80002a4 <__divsi3+0x64>
 80002a0:	034b      	lsls	r3, r1, #13
 80002a2:	1ac0      	subs	r0, r0, r3
 80002a4:	4152      	adcs	r2, r2
 80002a6:	0b03      	lsrs	r3, r0, #12
 80002a8:	428b      	cmp	r3, r1
 80002aa:	d301      	bcc.n	80002b0 <__divsi3+0x70>
 80002ac:	030b      	lsls	r3, r1, #12
 80002ae:	1ac0      	subs	r0, r0, r3
 80002b0:	4152      	adcs	r2, r2
 80002b2:	0ac3      	lsrs	r3, r0, #11
 80002b4:	428b      	cmp	r3, r1
 80002b6:	d301      	bcc.n	80002bc <__divsi3+0x7c>
 80002b8:	02cb      	lsls	r3, r1, #11
 80002ba:	1ac0      	subs	r0, r0, r3
 80002bc:	4152      	adcs	r2, r2
 80002be:	0a83      	lsrs	r3, r0, #10
 80002c0:	428b      	cmp	r3, r1
 80002c2:	d301      	bcc.n	80002c8 <__divsi3+0x88>
 80002c4:	028b      	lsls	r3, r1, #10
 80002c6:	1ac0      	subs	r0, r0, r3
 80002c8:	4152      	adcs	r2, r2
 80002ca:	0a43      	lsrs	r3, r0, #9
 80002cc:	428b      	cmp	r3, r1
 80002ce:	d301      	bcc.n	80002d4 <__divsi3+0x94>
 80002d0:	024b      	lsls	r3, r1, #9
 80002d2:	1ac0      	subs	r0, r0, r3
 80002d4:	4152      	adcs	r2, r2
 80002d6:	0a03      	lsrs	r3, r0, #8
 80002d8:	428b      	cmp	r3, r1
 80002da:	d301      	bcc.n	80002e0 <__divsi3+0xa0>
 80002dc:	020b      	lsls	r3, r1, #8
 80002de:	1ac0      	subs	r0, r0, r3
 80002e0:	4152      	adcs	r2, r2
 80002e2:	d2cd      	bcs.n	8000280 <__divsi3+0x40>
 80002e4:	09c3      	lsrs	r3, r0, #7
 80002e6:	428b      	cmp	r3, r1
 80002e8:	d301      	bcc.n	80002ee <__divsi3+0xae>
 80002ea:	01cb      	lsls	r3, r1, #7
 80002ec:	1ac0      	subs	r0, r0, r3
 80002ee:	4152      	adcs	r2, r2
 80002f0:	0983      	lsrs	r3, r0, #6
 80002f2:	428b      	cmp	r3, r1
 80002f4:	d301      	bcc.n	80002fa <__divsi3+0xba>
 80002f6:	018b      	lsls	r3, r1, #6
 80002f8:	1ac0      	subs	r0, r0, r3
 80002fa:	4152      	adcs	r2, r2
 80002fc:	0943      	lsrs	r3, r0, #5
 80002fe:	428b      	cmp	r3, r1
 8000300:	d301      	bcc.n	8000306 <__divsi3+0xc6>
 8000302:	014b      	lsls	r3, r1, #5
 8000304:	1ac0      	subs	r0, r0, r3
 8000306:	4152      	adcs	r2, r2
 8000308:	0903      	lsrs	r3, r0, #4
 800030a:	428b      	cmp	r3, r1
 800030c:	d301      	bcc.n	8000312 <__divsi3+0xd2>
 800030e:	010b      	lsls	r3, r1, #4
 8000310:	1ac0      	subs	r0, r0, r3
 8000312:	4152      	adcs	r2, r2
 8000314:	08c3      	lsrs	r3, r0, #3
 8000316:	428b      	cmp	r3, r1
 8000318:	d301      	bcc.n	800031e <__divsi3+0xde>
 800031a:	00cb      	lsls	r3, r1, #3
 800031c:	1ac0      	subs	r0, r0, r3
 800031e:	4152      	adcs	r2, r2
 8000320:	0883      	lsrs	r3, r0, #2
 8000322:	428b      	cmp	r3, r1
 8000324:	d301      	bcc.n	800032a <__divsi3+0xea>
 8000326:	008b      	lsls	r3, r1, #2
 8000328:	1ac0      	subs	r0, r0, r3
 800032a:	4152      	adcs	r2, r2
 800032c:	0843      	lsrs	r3, r0, #1
 800032e:	428b      	cmp	r3, r1
 8000330:	d301      	bcc.n	8000336 <__divsi3+0xf6>
 8000332:	004b      	lsls	r3, r1, #1
 8000334:	1ac0      	subs	r0, r0, r3
 8000336:	4152      	adcs	r2, r2
 8000338:	1a41      	subs	r1, r0, r1
 800033a:	d200      	bcs.n	800033e <__divsi3+0xfe>
 800033c:	4601      	mov	r1, r0
 800033e:	4152      	adcs	r2, r2
 8000340:	4610      	mov	r0, r2
 8000342:	4770      	bx	lr
 8000344:	e05d      	b.n	8000402 <__divsi3+0x1c2>
 8000346:	0fca      	lsrs	r2, r1, #31
 8000348:	d000      	beq.n	800034c <__divsi3+0x10c>
 800034a:	4249      	negs	r1, r1
 800034c:	1003      	asrs	r3, r0, #32
 800034e:	d300      	bcc.n	8000352 <__divsi3+0x112>
 8000350:	4240      	negs	r0, r0
 8000352:	4053      	eors	r3, r2
 8000354:	2200      	movs	r2, #0
 8000356:	469c      	mov	ip, r3
 8000358:	0903      	lsrs	r3, r0, #4
 800035a:	428b      	cmp	r3, r1
 800035c:	d32d      	bcc.n	80003ba <__divsi3+0x17a>
 800035e:	0a03      	lsrs	r3, r0, #8
 8000360:	428b      	cmp	r3, r1
 8000362:	d312      	bcc.n	800038a <__divsi3+0x14a>
 8000364:	22fc      	movs	r2, #252	@ 0xfc
 8000366:	0189      	lsls	r1, r1, #6
 8000368:	ba12      	rev	r2, r2
 800036a:	0a03      	lsrs	r3, r0, #8
 800036c:	428b      	cmp	r3, r1
 800036e:	d30c      	bcc.n	800038a <__divsi3+0x14a>
 8000370:	0189      	lsls	r1, r1, #6
 8000372:	1192      	asrs	r2, r2, #6
 8000374:	428b      	cmp	r3, r1
 8000376:	d308      	bcc.n	800038a <__divsi3+0x14a>
 8000378:	0189      	lsls	r1, r1, #6
 800037a:	1192      	asrs	r2, r2, #6
 800037c:	428b      	cmp	r3, r1
 800037e:	d304      	bcc.n	800038a <__divsi3+0x14a>
 8000380:	0189      	lsls	r1, r1, #6
 8000382:	d03a      	beq.n	80003fa <__divsi3+0x1ba>
 8000384:	1192      	asrs	r2, r2, #6
 8000386:	e000      	b.n	800038a <__divsi3+0x14a>
 8000388:	0989      	lsrs	r1, r1, #6
 800038a:	09c3      	lsrs	r3, r0, #7
 800038c:	428b      	cmp	r3, r1
 800038e:	d301      	bcc.n	8000394 <__divsi3+0x154>
 8000390:	01cb      	lsls	r3, r1, #7
 8000392:	1ac0      	subs	r0, r0, r3
 8000394:	4152      	adcs	r2, r2
 8000396:	0983      	lsrs	r3, r0, #6
 8000398:	428b      	cmp	r3, r1
 800039a:	d301      	bcc.n	80003a0 <__divsi3+0x160>
 800039c:	018b      	lsls	r3, r1, #6
 800039e:	1ac0      	subs	r0, r0, r3
 80003a0:	4152      	adcs	r2, r2
 80003a2:	0943      	lsrs	r3, r0, #5
 80003a4:	428b      	cmp	r3, r1
 80003a6:	d301      	bcc.n	80003ac <__divsi3+0x16c>
 80003a8:	014b      	lsls	r3, r1, #5
 80003aa:	1ac0      	subs	r0, r0, r3
 80003ac:	4152      	adcs	r2, r2
 80003ae:	0903      	lsrs	r3, r0, #4
 80003b0:	428b      	cmp	r3, r1
 80003b2:	d301      	bcc.n	80003b8 <__divsi3+0x178>
 80003b4:	010b      	lsls	r3, r1, #4
 80003b6:	1ac0      	subs	r0, r0, r3
 80003b8:	4152      	adcs	r2, r2
 80003ba:	08c3      	lsrs	r3, r0, #3
 80003bc:	428b      	cmp	r3, r1
 80003be:	d301      	bcc.n	80003c4 <__divsi3+0x184>
 80003c0:	00cb      	lsls	r3, r1, #3
 80003c2:	1ac0      	subs	r0, r0, r3
 80003c4:	4152      	adcs	r2, r2
 80003c6:	0883      	lsrs	r3, r0, #2
 80003c8:	428b      	cmp	r3, r1
 80003ca:	d301      	bcc.n	80003d0 <__divsi3+0x190>
 80003cc:	008b      	lsls	r3, r1, #2
 80003ce:	1ac0      	subs	r0, r0, r3
 80003d0:	4152      	adcs	r2, r2
 80003d2:	d2d9      	bcs.n	8000388 <__divsi3+0x148>
 80003d4:	0843      	lsrs	r3, r0, #1
 80003d6:	428b      	cmp	r3, r1
 80003d8:	d301      	bcc.n	80003de <__divsi3+0x19e>
 80003da:	004b      	lsls	r3, r1, #1
 80003dc:	1ac0      	subs	r0, r0, r3
 80003de:	4152      	adcs	r2, r2
 80003e0:	1a41      	subs	r1, r0, r1
 80003e2:	d200      	bcs.n	80003e6 <__divsi3+0x1a6>
 80003e4:	4601      	mov	r1, r0
 80003e6:	4663      	mov	r3, ip
 80003e8:	4152      	adcs	r2, r2
 80003ea:	105b      	asrs	r3, r3, #1
 80003ec:	4610      	mov	r0, r2
 80003ee:	d301      	bcc.n	80003f4 <__divsi3+0x1b4>
 80003f0:	4240      	negs	r0, r0
 80003f2:	2b00      	cmp	r3, #0
 80003f4:	d500      	bpl.n	80003f8 <__divsi3+0x1b8>
 80003f6:	4249      	negs	r1, r1
 80003f8:	4770      	bx	lr
 80003fa:	4663      	mov	r3, ip
 80003fc:	105b      	asrs	r3, r3, #1
 80003fe:	d300      	bcc.n	8000402 <__divsi3+0x1c2>
 8000400:	4240      	negs	r0, r0
 8000402:	b501      	push	{r0, lr}
 8000404:	2000      	movs	r0, #0
 8000406:	f000 f805 	bl	8000414 <__aeabi_idiv0>
 800040a:	bd02      	pop	{r1, pc}

0800040c <__aeabi_idivmod>:
 800040c:	2900      	cmp	r1, #0
 800040e:	d0f8      	beq.n	8000402 <__divsi3+0x1c2>
 8000410:	e716      	b.n	8000240 <__divsi3>
 8000412:	4770      	bx	lr

08000414 <__aeabi_idiv0>:
 8000414:	4770      	bx	lr
 8000416:	46c0      	nop			@ (mov r8, r8)

08000418 <initBattery>:

#include "battery.h"

extern ADC_HandleTypeDef hadc;

void initBattery() {
 8000418:	b510      	push	{r4, lr}
	HAL_ADC_Init(&hadc);
 800041a:	4c07      	ldr	r4, [pc, #28]	@ (8000438 <initBattery+0x20>)
 800041c:	0020      	movs	r0, r4
 800041e:	f002 f903 	bl	8002628 <HAL_ADC_Init>
	return 0;
}

uint16_t getADCValue(uint8_t channel) {
	uint16_t adc;
	HAL_ADC_Start(&hadc);
 8000422:	0020      	movs	r0, r4
 8000424:	f002 f9a4 	bl	8002770 <HAL_ADC_Start>
	adc = HAL_ADC_GetValue(&hadc);
 8000428:	0020      	movs	r0, r4
 800042a:	f002 f9ed 	bl	8002808 <HAL_ADC_GetValue>
	HAL_ADC_Stop(&hadc);
 800042e:	0020      	movs	r0, r4
 8000430:	f002 f9ca 	bl	80027c8 <HAL_ADC_Stop>
}
 8000434:	bd10      	pop	{r4, pc}
 8000436:	46c0      	nop			@ (mov r8, r8)
 8000438:	200003a4 	.word	0x200003a4

0800043c <getBatteryConfiguration>:
uint8_t getBatteryConfiguration() {
 800043c:	b570      	push	{r4, r5, r6, lr}
	HAL_ADC_Start(&hadc);
 800043e:	4d16      	ldr	r5, [pc, #88]	@ (8000498 <getBatteryConfiguration+0x5c>)
 8000440:	0028      	movs	r0, r5
 8000442:	f002 f995 	bl	8002770 <HAL_ADC_Start>
	adc = HAL_ADC_GetValue(&hadc);
 8000446:	0028      	movs	r0, r5
 8000448:	f002 f9de 	bl	8002808 <HAL_ADC_GetValue>
 800044c:	0004      	movs	r4, r0
	HAL_ADC_Stop(&hadc);
 800044e:	0028      	movs	r0, r5
 8000450:	f002 f9ba 	bl	80027c8 <HAL_ADC_Stop>
uint16_t getBattVoltage() {
	const uint32_t vref = 3300000;		// 3.3V in uV to make the result an integer
	const uint32_t adcRes = 4096;		// 12 bit resolution
	const uint32_t dividerRatio = 3;	// voltage divider in the circuit is 1/3
	uint32_t adc = getADCValue(BATTERY_CHANNEL);
	uint32_t vbat = ((vref / adcRes) * adc * dividerRatio) / 1000;	// /1000 to have the value in mV
 8000454:	21fa      	movs	r1, #250	@ 0xfa
 8000456:	0423      	lsls	r3, r4, #16
 8000458:	0c1a      	lsrs	r2, r3, #16
 800045a:	0b9b      	lsrs	r3, r3, #14
 800045c:	189b      	adds	r3, r3, r2
 800045e:	015b      	lsls	r3, r3, #5
 8000460:	189b      	adds	r3, r3, r2
 8000462:	0118      	lsls	r0, r3, #4
 8000464:	1ac0      	subs	r0, r0, r3
 8000466:	0089      	lsls	r1, r1, #2
 8000468:	f7ff fe60 	bl	800012c <__udivsi3>
	if (vbat >= MIN_1S_VOLTAGE - 200 && vbat <= MAX_1S_VOLTAGE + 200) return 1;	// 200 added (or subtracted) to have some margin
 800046c:	22e1      	movs	r2, #225	@ 0xe1
 800046e:	4b0b      	ldr	r3, [pc, #44]	@ (800049c <getBatteryConfiguration+0x60>)
	return vbat + COMPENSATION_VALUE;
 8000470:	b280      	uxth	r0, r0
	if (vbat >= MIN_1S_VOLTAGE - 200 && vbat <= MAX_1S_VOLTAGE + 200) return 1;	// 200 added (or subtracted) to have some margin
 8000472:	18c3      	adds	r3, r0, r3
 8000474:	b29b      	uxth	r3, r3
 8000476:	00d2      	lsls	r2, r2, #3
 8000478:	4293      	cmp	r3, r2
 800047a:	d90a      	bls.n	8000492 <getBatteryConfiguration+0x56>
	if (vbat >= MIN_2S_VOLTAGE - 200 && vbat <= MAX_2S_VOLTAGE + 200) return 2;	// 200 added (or subtracted) to have some margin
 800047c:	4b08      	ldr	r3, [pc, #32]	@ (80004a0 <getBatteryConfiguration+0x64>)
 800047e:	22c8      	movs	r2, #200	@ 0xc8
 8000480:	469c      	mov	ip, r3
 8000482:	4460      	add	r0, ip
 8000484:	b283      	uxth	r3, r0
 8000486:	2000      	movs	r0, #0
 8000488:	0112      	lsls	r2, r2, #4
 800048a:	429a      	cmp	r2, r3
 800048c:	4140      	adcs	r0, r0
 800048e:	0040      	lsls	r0, r0, #1
}
 8000490:	bd70      	pop	{r4, r5, r6, pc}
	if (vbat >= MIN_1S_VOLTAGE - 200 && vbat <= MAX_1S_VOLTAGE + 200) return 1;	// 200 added (or subtracted) to have some margin
 8000492:	2001      	movs	r0, #1
 8000494:	e7fc      	b.n	8000490 <getBatteryConfiguration+0x54>
 8000496:	46c0      	nop			@ (mov r8, r8)
 8000498:	200003a4 	.word	0x200003a4
 800049c:	fffff63c 	.word	0xfffff63c
 80004a0:	ffffeb4c 	.word	0xffffeb4c

080004a4 <getBattVoltage>:
uint16_t getBattVoltage() {
 80004a4:	b570      	push	{r4, r5, r6, lr}
	HAL_ADC_Start(&hadc);
 80004a6:	4d0d      	ldr	r5, [pc, #52]	@ (80004dc <getBattVoltage+0x38>)
 80004a8:	0028      	movs	r0, r5
 80004aa:	f002 f961 	bl	8002770 <HAL_ADC_Start>
	adc = HAL_ADC_GetValue(&hadc);
 80004ae:	0028      	movs	r0, r5
 80004b0:	f002 f9aa 	bl	8002808 <HAL_ADC_GetValue>
 80004b4:	0004      	movs	r4, r0
	HAL_ADC_Stop(&hadc);
 80004b6:	0028      	movs	r0, r5
 80004b8:	f002 f986 	bl	80027c8 <HAL_ADC_Stop>
	uint32_t vbat = ((vref / adcRes) * adc * dividerRatio) / 1000;	// /1000 to have the value in mV
 80004bc:	21fa      	movs	r1, #250	@ 0xfa
 80004be:	0423      	lsls	r3, r4, #16
 80004c0:	0c1a      	lsrs	r2, r3, #16
 80004c2:	0b9b      	lsrs	r3, r3, #14
 80004c4:	189b      	adds	r3, r3, r2
 80004c6:	015b      	lsls	r3, r3, #5
 80004c8:	189b      	adds	r3, r3, r2
 80004ca:	0118      	lsls	r0, r3, #4
 80004cc:	1ac0      	subs	r0, r0, r3
 80004ce:	0089      	lsls	r1, r1, #2
 80004d0:	f7ff fe2c 	bl	800012c <__udivsi3>
	return vbat + COMPENSATION_VALUE;
 80004d4:	3064      	adds	r0, #100	@ 0x64
 80004d6:	b280      	uxth	r0, r0
}
 80004d8:	bd70      	pop	{r4, r5, r6, pc}
 80004da:	46c0      	nop			@ (mov r8, r8)
 80004dc:	200003a4 	.word	0x200003a4

080004e0 <SystemClock_Config>:
/**
  * @brief System Clock Configuration
  * @retval None
  */
void SystemClock_Config(void)
{
 80004e0:	b510      	push	{r4, lr}
 80004e2:	b096      	sub	sp, #88	@ 0x58
  RCC_OscInitTypeDef RCC_OscInitStruct = {0};
 80004e4:	2228      	movs	r2, #40	@ 0x28
 80004e6:	2100      	movs	r1, #0
 80004e8:	a80c      	add	r0, sp, #48	@ 0x30
 80004ea:	f007 fa39 	bl	8007960 <memset>
  RCC_ClkInitTypeDef RCC_ClkInitStruct = {0};
 80004ee:	2210      	movs	r2, #16
 80004f0:	2100      	movs	r1, #0
 80004f2:	a801      	add	r0, sp, #4
 80004f4:	f007 fa34 	bl	8007960 <memset>
  RCC_PeriphCLKInitTypeDef PeriphClkInit = {0};
 80004f8:	2214      	movs	r2, #20
 80004fa:	2100      	movs	r1, #0
 80004fc:	a805      	add	r0, sp, #20
 80004fe:	f007 fa2f 	bl	8007960 <memset>

  /** Initializes the RCC Oscillators according to the specified parameters
  * in the RCC_OscInitTypeDef structure.
  */
  RCC_OscInitStruct.OscillatorType = RCC_OSCILLATORTYPE_HSI|RCC_OSCILLATORTYPE_HSI14
 8000502:	2213      	movs	r2, #19
 8000504:	2301      	movs	r3, #1
 8000506:	920a      	str	r2, [sp, #40]	@ 0x28
 8000508:	930b      	str	r3, [sp, #44]	@ 0x2c
                              |RCC_OSCILLATORTYPE_HSE;
  RCC_OscInitStruct.HSEState = RCC_HSE_ON;
  RCC_OscInitStruct.HSIState = RCC_HSI_ON;
 800050a:	2301      	movs	r3, #1
 800050c:	930d      	str	r3, [sp, #52]	@ 0x34
  RCC_OscInitStruct.HSI14State = RCC_HSI14_ON;
 800050e:	930f      	str	r3, [sp, #60]	@ 0x3c
  RCC_OscInitStruct.HSICalibrationValue = RCC_HSICALIBRATION_DEFAULT;
  RCC_OscInitStruct.HSI14CalibrationValue = 16;
  RCC_OscInitStruct.PLL.PLLState = RCC_PLL_ON;
 8000510:	2380      	movs	r3, #128	@ 0x80
 8000512:	2202      	movs	r2, #2
 8000514:	025b      	lsls	r3, r3, #9
 8000516:	9212      	str	r2, [sp, #72]	@ 0x48
 8000518:	9313      	str	r3, [sp, #76]	@ 0x4c
  RCC_OscInitStruct.PLL.PLLSource = RCC_PLLSOURCE_HSE;
  RCC_OscInitStruct.PLL.PLLMUL = RCC_PLL_MUL6;
 800051a:	2380      	movs	r3, #128	@ 0x80
  RCC_ClkInitTypeDef RCC_ClkInitStruct = {0};
 800051c:	2410      	movs	r4, #16
  RCC_OscInitStruct.PLL.PLLMUL = RCC_PLL_MUL6;
 800051e:	035b      	lsls	r3, r3, #13
  RCC_OscInitStruct.PLL.PREDIV = RCC_PREDIV_DIV1;
  if (HAL_RCC_OscConfig(&RCC_OscInitStruct) != HAL_OK)
 8000520:	a80a      	add	r0, sp, #40	@ 0x28
  RCC_OscInitStruct.HSICalibrationValue = RCC_HSICALIBRATION_DEFAULT;
 8000522:	940e      	str	r4, [sp, #56]	@ 0x38
  RCC_OscInitStruct.HSI14CalibrationValue = 16;
 8000524:	9410      	str	r4, [sp, #64]	@ 0x40
  RCC_OscInitStruct.PLL.PLLMUL = RCC_PLL_MUL6;
 8000526:	9314      	str	r3, [sp, #80]	@ 0x50
  if (HAL_RCC_OscConfig(&RCC_OscInitStruct) != HAL_OK)
 8000528:	f004 f9a2 	bl	8004870 <HAL_RCC_OscConfig>
 800052c:	2800      	cmp	r0, #0
 800052e:	d001      	beq.n	8000534 <SystemClock_Config+0x54>
  \details Disables IRQ interrupts by setting the I-bit in the CPSR.
           Can only be executed in Privileged modes.
 */
__STATIC_FORCEINLINE void __disable_irq(void)
{
  __ASM volatile ("cpsid i" : : : "memory");
 8000530:	b672      	cpsid	i
void Error_Handler(void)
{
  /* USER CODE BEGIN Error_Handler_Debug */
	/* User can add his own implementation to report the HAL error return state */
	__disable_irq();
	while (1) {
 8000532:	e7fe      	b.n	8000532 <SystemClock_Config+0x52>
  RCC_ClkInitStruct.ClockType = RCC_CLOCKTYPE_HCLK|RCC_CLOCKTYPE_SYSCLK
 8000534:	2307      	movs	r3, #7
  RCC_ClkInitStruct.AHBCLKDivider = RCC_SYSCLK_DIV1;
 8000536:	9003      	str	r0, [sp, #12]
  RCC_ClkInitStruct.ClockType = RCC_CLOCKTYPE_HCLK|RCC_CLOCKTYPE_SYSCLK
 8000538:	9301      	str	r3, [sp, #4]
  RCC_ClkInitStruct.APB1CLKDivider = RCC_HCLK_DIV1;
 800053a:	9004      	str	r0, [sp, #16]
  RCC_ClkInitStruct.SYSCLKSource = RCC_SYSCLKSOURCE_PLLCLK;
 800053c:	3b05      	subs	r3, #5
  if (HAL_RCC_ClockConfig(&RCC_ClkInitStruct, FLASH_LATENCY_1) != HAL_OK)
 800053e:	2101      	movs	r1, #1
 8000540:	a801      	add	r0, sp, #4
  RCC_ClkInitStruct.SYSCLKSource = RCC_SYSCLKSOURCE_PLLCLK;
 8000542:	9302      	str	r3, [sp, #8]
  if (HAL_RCC_ClockConfig(&RCC_ClkInitStruct, FLASH_LATENCY_1) != HAL_OK)
 8000544:	f004 fbf8 	bl	8004d38 <HAL_RCC_ClockConfig>
 8000548:	2800      	cmp	r0, #0
 800054a:	d001      	beq.n	8000550 <SystemClock_Config+0x70>
 800054c:	b672      	cpsid	i
	while (1) {
 800054e:	e7fe      	b.n	800054e <SystemClock_Config+0x6e>
  PeriphClkInit.PeriphClockSelection = RCC_PERIPHCLK_USB|RCC_PERIPHCLK_I2C1;
 8000550:	4b06      	ldr	r3, [pc, #24]	@ (800056c <SystemClock_Config+0x8c>)
  PeriphClkInit.I2c1ClockSelection = RCC_I2C1CLKSOURCE_HSI;
 8000552:	9008      	str	r0, [sp, #32]
  PeriphClkInit.PeriphClockSelection = RCC_PERIPHCLK_USB|RCC_PERIPHCLK_I2C1;
 8000554:	9305      	str	r3, [sp, #20]
  PeriphClkInit.UsbClockSelection = RCC_USBCLKSOURCE_PLL;
 8000556:	2380      	movs	r3, #128	@ 0x80
  if (HAL_RCCEx_PeriphCLKConfig(&PeriphClkInit) != HAL_OK)
 8000558:	a805      	add	r0, sp, #20
  PeriphClkInit.UsbClockSelection = RCC_USBCLKSOURCE_PLL;
 800055a:	9309      	str	r3, [sp, #36]	@ 0x24
  if (HAL_RCCEx_PeriphCLKConfig(&PeriphClkInit) != HAL_OK)
 800055c:	f004 fc92 	bl	8004e84 <HAL_RCCEx_PeriphCLKConfig>
 8000560:	2800      	cmp	r0, #0
 8000562:	d001      	beq.n	8000568 <SystemClock_Config+0x88>
 8000564:	b672      	cpsid	i
	while (1) {
 8000566:	e7fe      	b.n	8000566 <SystemClock_Config+0x86>
}
 8000568:	b016      	add	sp, #88	@ 0x58
 800056a:	bd10      	pop	{r4, pc}
 800056c:	00020020 	.word	0x00020020

08000570 <main>:
{
 8000570:	b5f0      	push	{r4, r5, r6, r7, lr}
 8000572:	46de      	mov	lr, fp
 8000574:	4645      	mov	r5, r8
 8000576:	4657      	mov	r7, sl
 8000578:	464e      	mov	r6, r9
 800057a:	b5e0      	push	{r5, r6, r7, lr}
 800057c:	b0b3      	sub	sp, #204	@ 0xcc
  GPIO_InitTypeDef GPIO_InitStruct = {0};
 800057e:	ac2a      	add	r4, sp, #168	@ 0xa8
  HAL_Init();
 8000580:	f001 ff4e 	bl	8002420 <HAL_Init>
  SystemClock_Config();
 8000584:	f7ff ffac 	bl	80004e0 <SystemClock_Config>
  GPIO_InitTypeDef GPIO_InitStruct = {0};
 8000588:	2214      	movs	r2, #20
 800058a:	2100      	movs	r1, #0
 800058c:	0020      	movs	r0, r4
 800058e:	f007 f9e7 	bl	8007960 <memset>
  __HAL_RCC_GPIOC_CLK_ENABLE();
 8000592:	2180      	movs	r1, #128	@ 0x80
 8000594:	4bcf      	ldr	r3, [pc, #828]	@ (80008d4 <main+0x364>)
 8000596:	0309      	lsls	r1, r1, #12
 8000598:	695a      	ldr	r2, [r3, #20]
  HAL_GPIO_WritePin(U_LED_GPIO_Port, U_LED_Pin, GPIO_PIN_RESET);
 800059a:	2580      	movs	r5, #128	@ 0x80
  __HAL_RCC_GPIOC_CLK_ENABLE();
 800059c:	430a      	orrs	r2, r1
 800059e:	615a      	str	r2, [r3, #20]
 80005a0:	695a      	ldr	r2, [r3, #20]
  HAL_GPIO_WritePin(GPIOB, SLEEPN_M3_Pin|DIR_M3_Pin|SLEEPN_M2_Pin|DIR_M2_Pin
 80005a2:	27fc      	movs	r7, #252	@ 0xfc
  __HAL_RCC_GPIOC_CLK_ENABLE();
 80005a4:	400a      	ands	r2, r1
  __HAL_RCC_GPIOF_CLK_ENABLE();
 80005a6:	2180      	movs	r1, #128	@ 0x80
  __HAL_RCC_GPIOC_CLK_ENABLE();
 80005a8:	9219      	str	r2, [sp, #100]	@ 0x64
 80005aa:	9a19      	ldr	r2, [sp, #100]	@ 0x64
  __HAL_RCC_GPIOF_CLK_ENABLE();
 80005ac:	695a      	ldr	r2, [r3, #20]
 80005ae:	03c9      	lsls	r1, r1, #15
 80005b0:	430a      	orrs	r2, r1
 80005b2:	615a      	str	r2, [r3, #20]
 80005b4:	695a      	ldr	r2, [r3, #20]
  HAL_GPIO_WritePin(U_LED_GPIO_Port, U_LED_Pin, GPIO_PIN_RESET);
 80005b6:	022d      	lsls	r5, r5, #8
  __HAL_RCC_GPIOF_CLK_ENABLE();
 80005b8:	400a      	ands	r2, r1
  __HAL_RCC_GPIOA_CLK_ENABLE();
 80005ba:	2180      	movs	r1, #128	@ 0x80
  __HAL_RCC_GPIOF_CLK_ENABLE();
 80005bc:	921a      	str	r2, [sp, #104]	@ 0x68
 80005be:	9a1a      	ldr	r2, [sp, #104]	@ 0x68
  __HAL_RCC_GPIOA_CLK_ENABLE();
 80005c0:	695a      	ldr	r2, [r3, #20]
 80005c2:	0289      	lsls	r1, r1, #10
 80005c4:	430a      	orrs	r2, r1
 80005c6:	615a      	str	r2, [r3, #20]
 80005c8:	695a      	ldr	r2, [r3, #20]
  HAL_GPIO_WritePin(GPIOB, SLEEPN_M3_Pin|DIR_M3_Pin|SLEEPN_M2_Pin|DIR_M2_Pin
 80005ca:	023f      	lsls	r7, r7, #8
  __HAL_RCC_GPIOA_CLK_ENABLE();
 80005cc:	400a      	ands	r2, r1
  __HAL_RCC_GPIOB_CLK_ENABLE();
 80005ce:	2180      	movs	r1, #128	@ 0x80
  __HAL_RCC_GPIOA_CLK_ENABLE();
 80005d0:	921b      	str	r2, [sp, #108]	@ 0x6c
 80005d2:	9a1b      	ldr	r2, [sp, #108]	@ 0x6c
  __HAL_RCC_GPIOB_CLK_ENABLE();
 80005d4:	695a      	ldr	r2, [r3, #20]
 80005d6:	02c9      	lsls	r1, r1, #11
 80005d8:	430a      	orrs	r2, r1
 80005da:	615a      	str	r2, [r3, #20]
 80005dc:	695b      	ldr	r3, [r3, #20]
  HAL_GPIO_WritePin(U_LED_GPIO_Port, U_LED_Pin, GPIO_PIN_RESET);
 80005de:	2200      	movs	r2, #0
  __HAL_RCC_GPIOB_CLK_ENABLE();
 80005e0:	400b      	ands	r3, r1
  HAL_GPIO_WritePin(U_LED_GPIO_Port, U_LED_Pin, GPIO_PIN_RESET);
 80005e2:	48bd      	ldr	r0, [pc, #756]	@ (80008d8 <main+0x368>)
 80005e4:	0029      	movs	r1, r5
  __HAL_RCC_GPIOB_CLK_ENABLE();
 80005e6:	931c      	str	r3, [sp, #112]	@ 0x70
 80005e8:	9b1c      	ldr	r3, [sp, #112]	@ 0x70
  HAL_GPIO_WritePin(U_LED_GPIO_Port, U_LED_Pin, GPIO_PIN_RESET);
 80005ea:	f002 fae9 	bl	8002bc0 <HAL_GPIO_WritePin>
  HAL_GPIO_WritePin(GPIOB, SLEEPN_M3_Pin|DIR_M3_Pin|SLEEPN_M2_Pin|DIR_M2_Pin
 80005ee:	2200      	movs	r2, #0
 80005f0:	0039      	movs	r1, r7
 80005f2:	48ba      	ldr	r0, [pc, #744]	@ (80008dc <main+0x36c>)
 80005f4:	f002 fae4 	bl	8002bc0 <HAL_GPIO_WritePin>
  GPIO_InitStruct.Pull = GPIO_NOPULL;
 80005f8:	2600      	movs	r6, #0
  GPIO_InitStruct.Pin = U_LED_Pin;
 80005fa:	952a      	str	r5, [sp, #168]	@ 0xa8
  GPIO_InitStruct.Mode = GPIO_MODE_OUTPUT_PP;
 80005fc:	2501      	movs	r5, #1
  HAL_GPIO_Init(U_LED_GPIO_Port, &GPIO_InitStruct);
 80005fe:	0021      	movs	r1, r4
 8000600:	48b5      	ldr	r0, [pc, #724]	@ (80008d8 <main+0x368>)
  GPIO_InitStruct.Mode = GPIO_MODE_OUTPUT_PP;
 8000602:	6065      	str	r5, [r4, #4]
  GPIO_InitStruct.Pull = GPIO_NOPULL;
 8000604:	60a6      	str	r6, [r4, #8]
  GPIO_InitStruct.Speed = GPIO_SPEED_FREQ_LOW;
 8000606:	60e6      	str	r6, [r4, #12]
  HAL_GPIO_Init(U_LED_GPIO_Port, &GPIO_InitStruct);
 8000608:	f002 f9d2 	bl	80029b0 <HAL_GPIO_Init>
  GPIO_InitStruct.Mode = GPIO_MODE_IT_RISING_FALLING;
 800060c:	23c4      	movs	r3, #196	@ 0xc4
  HAL_GPIO_Init(CH1_GPIO_Port, &GPIO_InitStruct);
 800060e:	0021      	movs	r1, r4
  GPIO_InitStruct.Mode = GPIO_MODE_IT_RISING_FALLING;
 8000610:	039b      	lsls	r3, r3, #14
  HAL_GPIO_Init(CH1_GPIO_Port, &GPIO_InitStruct);
 8000612:	48b2      	ldr	r0, [pc, #712]	@ (80008dc <main+0x36c>)
  GPIO_InitStruct.Pin = CH1_Pin;
 8000614:	952a      	str	r5, [sp, #168]	@ 0xa8
  GPIO_InitStruct.Mode = GPIO_MODE_IT_RISING_FALLING;
 8000616:	6063      	str	r3, [r4, #4]
  GPIO_InitStruct.Pull = GPIO_PULLUP;
 8000618:	60a5      	str	r5, [r4, #8]
  HAL_GPIO_Init(CH1_GPIO_Port, &GPIO_InitStruct);
 800061a:	f002 f9c9 	bl	80029b0 <HAL_GPIO_Init>
  GPIO_InitStruct.Pin = CH2_Pin|CH3_Pin|CH4_Pin;
 800061e:	230e      	movs	r3, #14
 8000620:	932a      	str	r3, [sp, #168]	@ 0xa8
  GPIO_InitStruct.Mode = GPIO_MODE_IT_FALLING;
 8000622:	2384      	movs	r3, #132	@ 0x84
  HAL_GPIO_Init(GPIOB, &GPIO_InitStruct);
 8000624:	0021      	movs	r1, r4
  GPIO_InitStruct.Mode = GPIO_MODE_IT_FALLING;
 8000626:	039b      	lsls	r3, r3, #14
  HAL_GPIO_Init(GPIOB, &GPIO_InitStruct);
 8000628:	48ac      	ldr	r0, [pc, #688]	@ (80008dc <main+0x36c>)
  GPIO_InitStruct.Mode = GPIO_MODE_IT_FALLING;
 800062a:	6063      	str	r3, [r4, #4]
  GPIO_InitStruct.Pull = GPIO_PULLUP;
 800062c:	60a5      	str	r5, [r4, #8]
  HAL_GPIO_Init(GPIOB, &GPIO_InitStruct);
 800062e:	f002 f9bf 	bl	80029b0 <HAL_GPIO_Init>
  HAL_GPIO_Init(GPIOB, &GPIO_InitStruct);
 8000632:	0021      	movs	r1, r4
 8000634:	48a9      	ldr	r0, [pc, #676]	@ (80008dc <main+0x36c>)
  GPIO_InitStruct.Pin = SLEEPN_M3_Pin|DIR_M3_Pin|SLEEPN_M2_Pin|DIR_M2_Pin
 8000636:	972a      	str	r7, [sp, #168]	@ 0xa8
  GPIO_InitStruct.Mode = GPIO_MODE_OUTPUT_PP;
 8000638:	6065      	str	r5, [r4, #4]
  GPIO_InitStruct.Pull = GPIO_NOPULL;
 800063a:	60a6      	str	r6, [r4, #8]
  GPIO_InitStruct.Speed = GPIO_SPEED_FREQ_LOW;
 800063c:	60e6      	str	r6, [r4, #12]
  HAL_GPIO_Init(GPIOB, &GPIO_InitStruct);
 800063e:	f002 f9b7 	bl	80029b0 <HAL_GPIO_Init>
  HAL_NVIC_SetPriority(EXTI0_1_IRQn, 0, 0);
 8000642:	2200      	movs	r2, #0
 8000644:	2100      	movs	r1, #0
 8000646:	2005      	movs	r0, #5
 8000648:	f002 f962 	bl	8002910 <HAL_NVIC_SetPriority>
  HAL_NVIC_EnableIRQ(EXTI0_1_IRQn);
 800064c:	2005      	movs	r0, #5
 800064e:	f002 f989 	bl	8002964 <HAL_NVIC_EnableIRQ>
  HAL_NVIC_SetPriority(EXTI2_3_IRQn, 0, 0);
 8000652:	2200      	movs	r2, #0
 8000654:	2100      	movs	r1, #0
 8000656:	2006      	movs	r0, #6
 8000658:	f002 f95a 	bl	8002910 <HAL_NVIC_SetPriority>
  HAL_NVIC_EnableIRQ(EXTI2_3_IRQn);
 800065c:	2006      	movs	r0, #6
 800065e:	f002 f981 	bl	8002964 <HAL_NVIC_EnableIRQ>
  TIM_OC_InitTypeDef sConfigOC = {0};
 8000662:	221c      	movs	r2, #28
 8000664:	2100      	movs	r1, #0
 8000666:	a823      	add	r0, sp, #140	@ 0x8c
 8000668:	f007 f97a 	bl	8007960 <memset>
  TIM_BreakDeadTimeConfigTypeDef sBreakDeadTimeConfig = {0};
 800066c:	2220      	movs	r2, #32
 800066e:	2100      	movs	r1, #0
 8000670:	0020      	movs	r0, r4
 8000672:	f007 f975 	bl	8007960 <memset>
  htim16.Instance = TIM16;
 8000676:	4d9a      	ldr	r5, [pc, #616]	@ (80008e0 <main+0x370>)
 8000678:	4b9a      	ldr	r3, [pc, #616]	@ (80008e4 <main+0x374>)
  htim16.Init.Period = 10000-1;
 800067a:	4f9b      	ldr	r7, [pc, #620]	@ (80008e8 <main+0x378>)
  htim16.Instance = TIM16;
 800067c:	602b      	str	r3, [r5, #0]
  htim16.Init.Prescaler = 24-1;
 800067e:	2317      	movs	r3, #23
  if (HAL_TIM_Base_Init(&htim16) != HAL_OK)
 8000680:	0028      	movs	r0, r5
  htim16.Init.Prescaler = 24-1;
 8000682:	4698      	mov	r8, r3
 8000684:	606b      	str	r3, [r5, #4]
  htim16.Init.CounterMode = TIM_COUNTERMODE_UP;
 8000686:	60ae      	str	r6, [r5, #8]
  htim16.Init.Period = 10000-1;
 8000688:	60ef      	str	r7, [r5, #12]
  htim16.Init.ClockDivision = TIM_CLOCKDIVISION_DIV1;
 800068a:	612e      	str	r6, [r5, #16]
  htim16.Init.RepetitionCounter = 0;
 800068c:	616e      	str	r6, [r5, #20]
  htim16.Init.AutoReloadPreload = TIM_AUTORELOAD_PRELOAD_DISABLE;
 800068e:	61ae      	str	r6, [r5, #24]
  if (HAL_TIM_Base_Init(&htim16) != HAL_OK)
 8000690:	f004 fcd0 	bl	8005034 <HAL_TIM_Base_Init>
 8000694:	2800      	cmp	r0, #0
 8000696:	d001      	beq.n	800069c <main+0x12c>
 8000698:	b672      	cpsid	i
	while (1) {
 800069a:	e7fe      	b.n	800069a <main+0x12a>
  if (HAL_TIM_PWM_Init(&htim16) != HAL_OK)
 800069c:	0028      	movs	r0, r5
 800069e:	f004 fd77 	bl	8005190 <HAL_TIM_PWM_Init>
 80006a2:	1e02      	subs	r2, r0, #0
 80006a4:	d001      	beq.n	80006aa <main+0x13a>
 80006a6:	b672      	cpsid	i
	while (1) {
 80006a8:	e7fe      	b.n	80006a8 <main+0x138>
  sConfigOC.OCMode = TIM_OCMODE_PWM1;
 80006aa:	2360      	movs	r3, #96	@ 0x60
  sConfigOC.Pulse = 0;
 80006ac:	9024      	str	r0, [sp, #144]	@ 0x90
  sConfigOC.OCPolarity = TIM_OCPOLARITY_HIGH;
 80006ae:	9025      	str	r0, [sp, #148]	@ 0x94
  sConfigOC.OCNPolarity = TIM_OCNPOLARITY_HIGH;
 80006b0:	9026      	str	r0, [sp, #152]	@ 0x98
  sConfigOC.OCFastMode = TIM_OCFAST_DISABLE;
 80006b2:	9027      	str	r0, [sp, #156]	@ 0x9c
  sConfigOC.OCIdleState = TIM_OCIDLESTATE_RESET;
 80006b4:	9028      	str	r0, [sp, #160]	@ 0xa0
  sConfigOC.OCNIdleState = TIM_OCNIDLESTATE_RESET;
 80006b6:	9029      	str	r0, [sp, #164]	@ 0xa4
  if (HAL_TIM_PWM_ConfigChannel(&htim16, &sConfigOC, TIM_CHANNEL_1) != HAL_OK)
 80006b8:	a923      	add	r1, sp, #140	@ 0x8c
 80006ba:	0028      	movs	r0, r5
  sConfigOC.OCMode = TIM_OCMODE_PWM1;
 80006bc:	469b      	mov	fp, r3
 80006be:	9323      	str	r3, [sp, #140]	@ 0x8c
  if (HAL_TIM_PWM_ConfigChannel(&htim16, &sConfigOC, TIM_CHANNEL_1) != HAL_OK)
 80006c0:	f004 fe40 	bl	8005344 <HAL_TIM_PWM_ConfigChannel>
 80006c4:	2800      	cmp	r0, #0
 80006c6:	d001      	beq.n	80006cc <main+0x15c>
 80006c8:	b672      	cpsid	i
	while (1) {
 80006ca:	e7fe      	b.n	80006ca <main+0x15a>
  sBreakDeadTimeConfig.BreakPolarity = TIM_BREAKPOLARITY_HIGH;
 80006cc:	2380      	movs	r3, #128	@ 0x80
  sBreakDeadTimeConfig.OffStateRunMode = TIM_OSSR_DISABLE;
 80006ce:	902a      	str	r0, [sp, #168]	@ 0xa8
  sBreakDeadTimeConfig.BreakPolarity = TIM_BREAKPOLARITY_HIGH;
 80006d0:	019b      	lsls	r3, r3, #6
  sBreakDeadTimeConfig.OffStateIDLEMode = TIM_OSSI_DISABLE;
 80006d2:	6060      	str	r0, [r4, #4]
  sBreakDeadTimeConfig.LockLevel = TIM_LOCKLEVEL_OFF;
 80006d4:	60a0      	str	r0, [r4, #8]
  sBreakDeadTimeConfig.DeadTime = 0;
 80006d6:	60e0      	str	r0, [r4, #12]
  sBreakDeadTimeConfig.BreakState = TIM_BREAK_DISABLE;
 80006d8:	6120      	str	r0, [r4, #16]
  sBreakDeadTimeConfig.AutomaticOutput = TIM_AUTOMATICOUTPUT_DISABLE;
 80006da:	61e0      	str	r0, [r4, #28]
  if (HAL_TIMEx_ConfigBreakDeadTime(&htim16, &sBreakDeadTimeConfig) != HAL_OK)
 80006dc:	0021      	movs	r1, r4
 80006de:	0028      	movs	r0, r5
  sBreakDeadTimeConfig.BreakPolarity = TIM_BREAKPOLARITY_HIGH;
 80006e0:	469a      	mov	sl, r3
 80006e2:	6163      	str	r3, [r4, #20]
  if (HAL_TIMEx_ConfigBreakDeadTime(&htim16, &sBreakDeadTimeConfig) != HAL_OK)
 80006e4:	f005 f8a2 	bl	800582c <HAL_TIMEx_ConfigBreakDeadTime>
 80006e8:	4681      	mov	r9, r0
 80006ea:	2800      	cmp	r0, #0
 80006ec:	d001      	beq.n	80006f2 <main+0x182>
 80006ee:	b672      	cpsid	i
	while (1) {
 80006f0:	e7fe      	b.n	80006f0 <main+0x180>
  HAL_TIM_MspPostInit(&htim16);
 80006f2:	0028      	movs	r0, r5
 80006f4:	f001 fd6c 	bl	80021d0 <HAL_TIM_MspPostInit>
  TIM_OC_InitTypeDef sConfigOC = {0};
 80006f8:	221c      	movs	r2, #28
 80006fa:	4649      	mov	r1, r9
 80006fc:	a823      	add	r0, sp, #140	@ 0x8c
 80006fe:	f007 f92f 	bl	8007960 <memset>
  TIM_BreakDeadTimeConfigTypeDef sBreakDeadTimeConfig = {0};
 8000702:	2220      	movs	r2, #32
 8000704:	4649      	mov	r1, r9
 8000706:	0020      	movs	r0, r4
 8000708:	f007 f92a 	bl	8007960 <memset>
  htim17.Instance = TIM17;
 800070c:	4e77      	ldr	r6, [pc, #476]	@ (80008ec <main+0x37c>)
 800070e:	4b78      	ldr	r3, [pc, #480]	@ (80008f0 <main+0x380>)
  if (HAL_TIM_Base_Init(&htim17) != HAL_OK)
 8000710:	0030      	movs	r0, r6
  htim17.Instance = TIM17;
 8000712:	6033      	str	r3, [r6, #0]
  htim17.Init.Prescaler = 24-1;
 8000714:	4643      	mov	r3, r8
 8000716:	6073      	str	r3, [r6, #4]
  htim17.Init.CounterMode = TIM_COUNTERMODE_UP;
 8000718:	464b      	mov	r3, r9
  htim17.Init.Period = 10000-1;
 800071a:	60f7      	str	r7, [r6, #12]
  htim17.Init.CounterMode = TIM_COUNTERMODE_UP;
 800071c:	60b3      	str	r3, [r6, #8]
  htim17.Init.ClockDivision = TIM_CLOCKDIVISION_DIV1;
 800071e:	6133      	str	r3, [r6, #16]
  htim17.Init.RepetitionCounter = 0;
 8000720:	6173      	str	r3, [r6, #20]
  htim17.Init.AutoReloadPreload = TIM_AUTORELOAD_PRELOAD_DISABLE;
 8000722:	61b3      	str	r3, [r6, #24]
  if (HAL_TIM_Base_Init(&htim17) != HAL_OK)
 8000724:	f004 fc86 	bl	8005034 <HAL_TIM_Base_Init>
 8000728:	2800      	cmp	r0, #0
 800072a:	d001      	beq.n	8000730 <main+0x1c0>
 800072c:	b672      	cpsid	i
	while (1) {
 800072e:	e7fe      	b.n	800072e <main+0x1be>
  if (HAL_TIM_PWM_Init(&htim17) != HAL_OK)
 8000730:	0030      	movs	r0, r6
 8000732:	f004 fd2d 	bl	8005190 <HAL_TIM_PWM_Init>
 8000736:	1e02      	subs	r2, r0, #0
 8000738:	d001      	beq.n	800073e <main+0x1ce>
 800073a:	b672      	cpsid	i
	while (1) {
 800073c:	e7fe      	b.n	800073c <main+0x1cc>
  sConfigOC.OCMode = TIM_OCMODE_PWM1;
 800073e:	465b      	mov	r3, fp
  sConfigOC.Pulse = 0;
 8000740:	9024      	str	r0, [sp, #144]	@ 0x90
  sConfigOC.OCPolarity = TIM_OCPOLARITY_HIGH;
 8000742:	9025      	str	r0, [sp, #148]	@ 0x94
  sConfigOC.OCNPolarity = TIM_OCNPOLARITY_HIGH;
 8000744:	9026      	str	r0, [sp, #152]	@ 0x98
  sConfigOC.OCFastMode = TIM_OCFAST_DISABLE;
 8000746:	9027      	str	r0, [sp, #156]	@ 0x9c
  sConfigOC.OCIdleState = TIM_OCIDLESTATE_RESET;
 8000748:	9028      	str	r0, [sp, #160]	@ 0xa0
  sConfigOC.OCNIdleState = TIM_OCNIDLESTATE_RESET;
 800074a:	9029      	str	r0, [sp, #164]	@ 0xa4
  if (HAL_TIM_PWM_ConfigChannel(&htim17, &sConfigOC, TIM_CHANNEL_1) != HAL_OK)
 800074c:	a923      	add	r1, sp, #140	@ 0x8c
 800074e:	0030      	movs	r0, r6
  sConfigOC.OCMode = TIM_OCMODE_PWM1;
 8000750:	9323      	str	r3, [sp, #140]	@ 0x8c
  if (HAL_TIM_PWM_ConfigChannel(&htim17, &sConfigOC, TIM_CHANNEL_1) != HAL_OK)
 8000752:	f004 fdf7 	bl	8005344 <HAL_TIM_PWM_ConfigChannel>
 8000756:	2800      	cmp	r0, #0
 8000758:	d001      	beq.n	800075e <main+0x1ee>
 800075a:	b672      	cpsid	i
	while (1) {
 800075c:	e7fe      	b.n	800075c <main+0x1ec>
  sBreakDeadTimeConfig.BreakPolarity = TIM_BREAKPOLARITY_HIGH;
 800075e:	4653      	mov	r3, sl
  sBreakDeadTimeConfig.OffStateRunMode = TIM_OSSR_DISABLE;
 8000760:	902a      	str	r0, [sp, #168]	@ 0xa8
  if (HAL_TIMEx_ConfigBreakDeadTime(&htim17, &sBreakDeadTimeConfig) != HAL_OK)
 8000762:	0021      	movs	r1, r4
  sBreakDeadTimeConfig.OffStateIDLEMode = TIM_OSSI_DISABLE;
 8000764:	6060      	str	r0, [r4, #4]
  sBreakDeadTimeConfig.LockLevel = TIM_LOCKLEVEL_OFF;
 8000766:	60a0      	str	r0, [r4, #8]
  sBreakDeadTimeConfig.DeadTime = 0;
 8000768:	60e0      	str	r0, [r4, #12]
  sBreakDeadTimeConfig.BreakState = TIM_BREAK_DISABLE;
 800076a:	6120      	str	r0, [r4, #16]
  sBreakDeadTimeConfig.AutomaticOutput = TIM_AUTOMATICOUTPUT_DISABLE;
 800076c:	61e0      	str	r0, [r4, #28]
  if (HAL_TIMEx_ConfigBreakDeadTime(&htim17, &sBreakDeadTimeConfig) != HAL_OK)
 800076e:	0030      	movs	r0, r6
  sBreakDeadTimeConfig.BreakPolarity = TIM_BREAKPOLARITY_HIGH;
 8000770:	6163      	str	r3, [r4, #20]
  if (HAL_TIMEx_ConfigBreakDeadTime(&htim17, &sBreakDeadTimeConfig) != HAL_OK)
 8000772:	f005 f85b 	bl	800582c <HAL_TIMEx_ConfigBreakDeadTime>
 8000776:	4680      	mov	r8, r0
 8000778:	2800      	cmp	r0, #0
 800077a:	d001      	beq.n	8000780 <main+0x210>
 800077c:	b672      	cpsid	i
	while (1) {
 800077e:	e7fe      	b.n	800077e <main+0x20e>
  HAL_TIM_MspPostInit(&htim17);
 8000780:	0030      	movs	r0, r6
 8000782:	f001 fd25 	bl	80021d0 <HAL_TIM_MspPostInit>
  TIM_ClockConfigTypeDef sClockSourceConfig = {0};
 8000786:	2210      	movs	r2, #16
 8000788:	4641      	mov	r1, r8
 800078a:	a81f      	add	r0, sp, #124	@ 0x7c
 800078c:	f007 f8e8 	bl	8007960 <memset>
  TIM_MasterConfigTypeDef sMasterConfig = {0};
 8000790:	2208      	movs	r2, #8
 8000792:	4641      	mov	r1, r8
 8000794:	a81d      	add	r0, sp, #116	@ 0x74
 8000796:	f007 f8e3 	bl	8007960 <memset>
  TIM_OC_InitTypeDef sConfigOC = {0};
 800079a:	221c      	movs	r2, #28
 800079c:	4641      	mov	r1, r8
 800079e:	a823      	add	r0, sp, #140	@ 0x8c
 80007a0:	f007 f8de 	bl	8007960 <memset>
  TIM_BreakDeadTimeConfigTypeDef sBreakDeadTimeConfig = {0};
 80007a4:	2220      	movs	r2, #32
 80007a6:	4641      	mov	r1, r8
 80007a8:	0020      	movs	r0, r4
 80007aa:	f007 f8d9 	bl	8007960 <memset>
  htim1.Instance = TIM1;
 80007ae:	4f51      	ldr	r7, [pc, #324]	@ (80008f4 <main+0x384>)
 80007b0:	4b51      	ldr	r3, [pc, #324]	@ (80008f8 <main+0x388>)
  if (HAL_TIM_Base_Init(&htim1) != HAL_OK)
 80007b2:	0038      	movs	r0, r7
  htim1.Instance = TIM1;
 80007b4:	603b      	str	r3, [r7, #0]
  htim1.Init.Prescaler = 480-1;
 80007b6:	23e0      	movs	r3, #224	@ 0xe0
 80007b8:	33ff      	adds	r3, #255	@ 0xff
 80007ba:	607b      	str	r3, [r7, #4]
  htim1.Init.CounterMode = TIM_COUNTERMODE_UP;
 80007bc:	4643      	mov	r3, r8
 80007be:	60bb      	str	r3, [r7, #8]
  htim1.Init.Period = 100-1;
 80007c0:	2363      	movs	r3, #99	@ 0x63
 80007c2:	60fb      	str	r3, [r7, #12]
  htim1.Init.ClockDivision = TIM_CLOCKDIVISION_DIV1;
 80007c4:	4643      	mov	r3, r8
 80007c6:	613b      	str	r3, [r7, #16]
  htim1.Init.RepetitionCounter = 0;
 80007c8:	617b      	str	r3, [r7, #20]
  htim1.Init.AutoReloadPreload = TIM_AUTORELOAD_PRELOAD_DISABLE;
 80007ca:	61bb      	str	r3, [r7, #24]
  if (HAL_TIM_Base_Init(&htim1) != HAL_OK)
 80007cc:	f004 fc32 	bl	8005034 <HAL_TIM_Base_Init>
 80007d0:	2800      	cmp	r0, #0
 80007d2:	d001      	beq.n	80007d8 <main+0x268>
 80007d4:	b672      	cpsid	i
	while (1) {
 80007d6:	e7fe      	b.n	80007d6 <main+0x266>
  sClockSourceConfig.ClockSource = TIM_CLOCKSOURCE_INTERNAL;
 80007d8:	2380      	movs	r3, #128	@ 0x80
  if (HAL_TIM_ConfigClockSource(&htim1, &sClockSourceConfig) != HAL_OK)
 80007da:	0038      	movs	r0, r7
  sClockSourceConfig.ClockSource = TIM_CLOCKSOURCE_INTERNAL;
 80007dc:	015b      	lsls	r3, r3, #5
  if (HAL_TIM_ConfigClockSource(&htim1, &sClockSourceConfig) != HAL_OK)
 80007de:	a91f      	add	r1, sp, #124	@ 0x7c
  sClockSourceConfig.ClockSource = TIM_CLOCKSOURCE_INTERNAL;
 80007e0:	931f      	str	r3, [sp, #124]	@ 0x7c
  if (HAL_TIM_ConfigClockSource(&htim1, &sClockSourceConfig) != HAL_OK)
 80007e2:	f004 feb5 	bl	8005550 <HAL_TIM_ConfigClockSource>
 80007e6:	2800      	cmp	r0, #0
 80007e8:	d001      	beq.n	80007ee <main+0x27e>
 80007ea:	b672      	cpsid	i
	while (1) {
 80007ec:	e7fe      	b.n	80007ec <main+0x27c>
  if (HAL_TIM_PWM_Init(&htim1) != HAL_OK)
 80007ee:	0038      	movs	r0, r7
 80007f0:	f004 fcce 	bl	8005190 <HAL_TIM_PWM_Init>
 80007f4:	2800      	cmp	r0, #0
 80007f6:	d001      	beq.n	80007fc <main+0x28c>
 80007f8:	b672      	cpsid	i
	while (1) {
 80007fa:	e7fe      	b.n	80007fa <main+0x28a>
  sMasterConfig.MasterOutputTrigger = TIM_TRGO_RESET;
 80007fc:	901d      	str	r0, [sp, #116]	@ 0x74
  sMasterConfig.MasterSlaveMode = TIM_MASTERSLAVEMODE_DISABLE;
 80007fe:	901e      	str	r0, [sp, #120]	@ 0x78
  if (HAL_TIMEx_MasterConfigSynchronization(&htim1, &sMasterConfig) != HAL_OK)
 8000800:	a91d      	add	r1, sp, #116	@ 0x74
 8000802:	0038      	movs	r0, r7
 8000804:	f004 ffe4 	bl	80057d0 <HAL_TIMEx_MasterConfigSynchronization>
 8000808:	1e02      	subs	r2, r0, #0
 800080a:	d001      	beq.n	8000810 <main+0x2a0>
 800080c:	b672      	cpsid	i
	while (1) {
 800080e:	e7fe      	b.n	800080e <main+0x29e>
  sConfigOC.OCMode = TIM_OCMODE_PWM1;
 8000810:	2360      	movs	r3, #96	@ 0x60
  sConfigOC.Pulse = 0;
 8000812:	9024      	str	r0, [sp, #144]	@ 0x90
  sConfigOC.OCPolarity = TIM_OCPOLARITY_HIGH;
 8000814:	9025      	str	r0, [sp, #148]	@ 0x94
  sConfigOC.OCNPolarity = TIM_OCNPOLARITY_HIGH;
 8000816:	9026      	str	r0, [sp, #152]	@ 0x98
  sConfigOC.OCFastMode = TIM_OCFAST_DISABLE;
 8000818:	9027      	str	r0, [sp, #156]	@ 0x9c
  sConfigOC.OCIdleState = TIM_OCIDLESTATE_RESET;
 800081a:	9028      	str	r0, [sp, #160]	@ 0xa0
  sConfigOC.OCNIdleState = TIM_OCNIDLESTATE_RESET;
 800081c:	9029      	str	r0, [sp, #164]	@ 0xa4
  if (HAL_TIM_PWM_ConfigChannel(&htim1, &sConfigOC, TIM_CHANNEL_1) != HAL_OK)
 800081e:	a923      	add	r1, sp, #140	@ 0x8c
 8000820:	0038      	movs	r0, r7
  sConfigOC.OCMode = TIM_OCMODE_PWM1;
 8000822:	9323      	str	r3, [sp, #140]	@ 0x8c
  if (HAL_TIM_PWM_ConfigChannel(&htim1, &sConfigOC, TIM_CHANNEL_1) != HAL_OK)
 8000824:	f004 fd8e 	bl	8005344 <HAL_TIM_PWM_ConfigChannel>
 8000828:	2800      	cmp	r0, #0
 800082a:	d001      	beq.n	8000830 <main+0x2c0>
 800082c:	b672      	cpsid	i
	while (1) {
 800082e:	e7fe      	b.n	800082e <main+0x2be>
  if (HAL_TIM_PWM_ConfigChannel(&htim1, &sConfigOC, TIM_CHANNEL_2) != HAL_OK)
 8000830:	2204      	movs	r2, #4
 8000832:	0038      	movs	r0, r7
 8000834:	a923      	add	r1, sp, #140	@ 0x8c
 8000836:	f004 fd85 	bl	8005344 <HAL_TIM_PWM_ConfigChannel>
 800083a:	2800      	cmp	r0, #0
 800083c:	d001      	beq.n	8000842 <main+0x2d2>
 800083e:	b672      	cpsid	i
	while (1) {
 8000840:	e7fe      	b.n	8000840 <main+0x2d0>
  if (HAL_TIM_PWM_ConfigChannel(&htim1, &sConfigOC, TIM_CHANNEL_3) != HAL_OK)
 8000842:	2208      	movs	r2, #8
 8000844:	0038      	movs	r0, r7
 8000846:	a923      	add	r1, sp, #140	@ 0x8c
 8000848:	f004 fd7c 	bl	8005344 <HAL_TIM_PWM_ConfigChannel>
 800084c:	2800      	cmp	r0, #0
 800084e:	d001      	beq.n	8000854 <main+0x2e4>
 8000850:	b672      	cpsid	i
	while (1) {
 8000852:	e7fe      	b.n	8000852 <main+0x2e2>
  sBreakDeadTimeConfig.BreakPolarity = TIM_BREAKPOLARITY_HIGH;
 8000854:	2380      	movs	r3, #128	@ 0x80
  sBreakDeadTimeConfig.OffStateRunMode = TIM_OSSR_DISABLE;
 8000856:	902a      	str	r0, [sp, #168]	@ 0xa8
  sBreakDeadTimeConfig.BreakPolarity = TIM_BREAKPOLARITY_HIGH;
 8000858:	019b      	lsls	r3, r3, #6
  sBreakDeadTimeConfig.OffStateIDLEMode = TIM_OSSI_DISABLE;
 800085a:	6060      	str	r0, [r4, #4]
  sBreakDeadTimeConfig.LockLevel = TIM_LOCKLEVEL_OFF;
 800085c:	60a0      	str	r0, [r4, #8]
  sBreakDeadTimeConfig.DeadTime = 0;
 800085e:	60e0      	str	r0, [r4, #12]
  sBreakDeadTimeConfig.BreakState = TIM_BREAK_DISABLE;
 8000860:	6120      	str	r0, [r4, #16]
  sBreakDeadTimeConfig.AutomaticOutput = TIM_AUTOMATICOUTPUT_DISABLE;
 8000862:	61e0      	str	r0, [r4, #28]
  if (HAL_TIMEx_ConfigBreakDeadTime(&htim1, &sBreakDeadTimeConfig) != HAL_OK)
 8000864:	0021      	movs	r1, r4
 8000866:	0038      	movs	r0, r7
  sBreakDeadTimeConfig.BreakPolarity = TIM_BREAKPOLARITY_HIGH;
 8000868:	6163      	str	r3, [r4, #20]
  if (HAL_TIMEx_ConfigBreakDeadTime(&htim1, &sBreakDeadTimeConfig) != HAL_OK)
 800086a:	f004 ffdf 	bl	800582c <HAL_TIMEx_ConfigBreakDeadTime>
 800086e:	4681      	mov	r9, r0
 8000870:	2800      	cmp	r0, #0
 8000872:	d001      	beq.n	8000878 <main+0x308>
 8000874:	b672      	cpsid	i
	while (1) {
 8000876:	e7fe      	b.n	8000876 <main+0x306>
  HAL_TIM_MspPostInit(&htim1);
 8000878:	0038      	movs	r0, r7
 800087a:	f001 fca9 	bl	80021d0 <HAL_TIM_MspPostInit>
  hi2c1.Instance = I2C1;
 800087e:	4b1f      	ldr	r3, [pc, #124]	@ (80008fc <main+0x38c>)
 8000880:	4698      	mov	r8, r3
 8000882:	4642      	mov	r2, r8
 8000884:	4b1e      	ldr	r3, [pc, #120]	@ (8000900 <main+0x390>)
  if (HAL_I2C_Init(&hi2c1) != HAL_OK)
 8000886:	4640      	mov	r0, r8
  hi2c1.Instance = I2C1;
 8000888:	6013      	str	r3, [r2, #0]
  hi2c1.Init.Timing = 0x00201D2B;
 800088a:	4b1e      	ldr	r3, [pc, #120]	@ (8000904 <main+0x394>)
 800088c:	6053      	str	r3, [r2, #4]
  hi2c1.Init.OwnAddress1 = 0;
 800088e:	4643      	mov	r3, r8
 8000890:	464a      	mov	r2, r9
 8000892:	609a      	str	r2, [r3, #8]
  hi2c1.Init.AddressingMode = I2C_ADDRESSINGMODE_7BIT;
 8000894:	2301      	movs	r3, #1
 8000896:	469a      	mov	sl, r3
 8000898:	4643      	mov	r3, r8
 800089a:	4652      	mov	r2, sl
 800089c:	60da      	str	r2, [r3, #12]
  hi2c1.Init.DualAddressMode = I2C_DUALADDRESS_DISABLE;
 800089e:	464a      	mov	r2, r9
 80008a0:	611a      	str	r2, [r3, #16]
  hi2c1.Init.OwnAddress2 = 0;
 80008a2:	615a      	str	r2, [r3, #20]
  hi2c1.Init.OwnAddress2Masks = I2C_OA2_NOMASK;
 80008a4:	619a      	str	r2, [r3, #24]
  hi2c1.Init.GeneralCallMode = I2C_GENERALCALL_DISABLE;
 80008a6:	61da      	str	r2, [r3, #28]
  hi2c1.Init.NoStretchMode = I2C_NOSTRETCH_DISABLE;
 80008a8:	621a      	str	r2, [r3, #32]
  if (HAL_I2C_Init(&hi2c1) != HAL_OK)
 80008aa:	f002 fd13 	bl	80032d4 <HAL_I2C_Init>
 80008ae:	1e01      	subs	r1, r0, #0
 80008b0:	d001      	beq.n	80008b6 <main+0x346>
 80008b2:	b672      	cpsid	i
	while (1) {
 80008b4:	e7fe      	b.n	80008b4 <main+0x344>
  if (HAL_I2CEx_ConfigAnalogFilter(&hi2c1, I2C_ANALOGFILTER_ENABLE) != HAL_OK)
 80008b6:	4640      	mov	r0, r8
 80008b8:	f002 ff62 	bl	8003780 <HAL_I2CEx_ConfigAnalogFilter>
 80008bc:	1e01      	subs	r1, r0, #0
 80008be:	d001      	beq.n	80008c4 <main+0x354>
 80008c0:	b672      	cpsid	i
	while (1) {
 80008c2:	e7fe      	b.n	80008c2 <main+0x352>
  if (HAL_I2CEx_ConfigDigitalFilter(&hi2c1, 0) != HAL_OK)
 80008c4:	4640      	mov	r0, r8
 80008c6:	f002 ff81 	bl	80037cc <HAL_I2CEx_ConfigDigitalFilter>
 80008ca:	4681      	mov	r9, r0
 80008cc:	2800      	cmp	r0, #0
 80008ce:	d01b      	beq.n	8000908 <main+0x398>
 80008d0:	b672      	cpsid	i
	while (1) {
 80008d2:	e7fe      	b.n	80008d2 <main+0x362>
 80008d4:	40021000 	.word	0x40021000
 80008d8:	48000800 	.word	0x48000800
 80008dc:	48000400 	.word	0x48000400
 80008e0:	20000278 	.word	0x20000278
 80008e4:	40014400 	.word	0x40014400
 80008e8:	0000270f 	.word	0x0000270f
 80008ec:	20000230 	.word	0x20000230
 80008f0:	40014800 	.word	0x40014800
 80008f4:	20000308 	.word	0x20000308
 80008f8:	40012c00 	.word	0x40012c00
 80008fc:	20000350 	.word	0x20000350
 8000900:	40005400 	.word	0x40005400
 8000904:	00201d2b 	.word	0x00201d2b
  MX_USB_DEVICE_Init();
 8000908:	f006 fb78 	bl	8006ffc <MX_USB_DEVICE_Init>
  ADC_ChannelConfTypeDef sConfig = {0};
 800090c:	220c      	movs	r2, #12
 800090e:	4649      	mov	r1, r9
 8000910:	0020      	movs	r0, r4
 8000912:	f007 f825 	bl	8007960 <memset>
  hadc.Instance = ADC1;
 8000916:	4bd7      	ldr	r3, [pc, #860]	@ (8000c74 <main+0x704>)
  hadc.Init.DMAContinuousRequests = DISABLE;
 8000918:	4649      	mov	r1, r9
  hadc.Instance = ADC1;
 800091a:	4698      	mov	r8, r3
 800091c:	4642      	mov	r2, r8
 800091e:	4bd6      	ldr	r3, [pc, #856]	@ (8000c78 <main+0x708>)
  if (HAL_ADC_Init(&hadc) != HAL_OK)
 8000920:	4640      	mov	r0, r8
  hadc.Instance = ADC1;
 8000922:	6013      	str	r3, [r2, #0]
  hadc.Init.ClockPrescaler = ADC_CLOCK_ASYNC_DIV1;
 8000924:	4643      	mov	r3, r8
 8000926:	464a      	mov	r2, r9
 8000928:	605a      	str	r2, [r3, #4]
  hadc.Init.Resolution = ADC_RESOLUTION_12B;
 800092a:	609a      	str	r2, [r3, #8]
  hadc.Init.DataAlign = ADC_DATAALIGN_RIGHT;
 800092c:	60da      	str	r2, [r3, #12]
  hadc.Init.ScanConvMode = ADC_SCAN_DIRECTION_FORWARD;
 800092e:	4652      	mov	r2, sl
 8000930:	611a      	str	r2, [r3, #16]
  hadc.Init.EOCSelection = ADC_EOC_SINGLE_CONV;
 8000932:	4642      	mov	r2, r8
 8000934:	2304      	movs	r3, #4
 8000936:	6153      	str	r3, [r2, #20]
  hadc.Init.LowPowerAutoWait = DISABLE;
 8000938:	2380      	movs	r3, #128	@ 0x80
 800093a:	045b      	lsls	r3, r3, #17
 800093c:	6193      	str	r3, [r2, #24]
  hadc.Init.ExternalTrigConv = ADC_SOFTWARE_START;
 800093e:	23c2      	movs	r3, #194	@ 0xc2
 8000940:	33ff      	adds	r3, #255	@ 0xff
 8000942:	61d3      	str	r3, [r2, #28]
  hadc.Init.ExternalTrigConvEdge = ADC_EXTERNALTRIGCONVEDGE_NONE;
 8000944:	4643      	mov	r3, r8
 8000946:	464a      	mov	r2, r9
 8000948:	621a      	str	r2, [r3, #32]
  hadc.Init.DMAContinuousRequests = DISABLE;
 800094a:	2324      	movs	r3, #36	@ 0x24
 800094c:	4642      	mov	r2, r8
 800094e:	54d1      	strb	r1, [r2, r3]
  hadc.Init.Overrun = ADC_OVR_DATA_PRESERVED;
 8000950:	4643      	mov	r3, r8
 8000952:	4652      	mov	r2, sl
 8000954:	629a      	str	r2, [r3, #40]	@ 0x28
  if (HAL_ADC_Init(&hadc) != HAL_OK)
 8000956:	f001 fe67 	bl	8002628 <HAL_ADC_Init>
 800095a:	2800      	cmp	r0, #0
 800095c:	d001      	beq.n	8000962 <main+0x3f2>
 800095e:	b672      	cpsid	i
	while (1) {
 8000960:	e7fe      	b.n	8000960 <main+0x3f0>
  sConfig.Channel = ADC_CHANNEL_0;
 8000962:	2300      	movs	r3, #0
 8000964:	932a      	str	r3, [sp, #168]	@ 0xa8
  sConfig.Rank = ADC_RANK_CHANNEL_NUMBER;
 8000966:	2380      	movs	r3, #128	@ 0x80
 8000968:	015b      	lsls	r3, r3, #5
 800096a:	6063      	str	r3, [r4, #4]
  sConfig.SamplingTime = ADC_SAMPLETIME_1CYCLE_5;
 800096c:	2380      	movs	r3, #128	@ 0x80
  if (HAL_ADC_ConfigChannel(&hadc, &sConfig) != HAL_OK)
 800096e:	0021      	movs	r1, r4
  sConfig.SamplingTime = ADC_SAMPLETIME_1CYCLE_5;
 8000970:	055b      	lsls	r3, r3, #21
  if (HAL_ADC_ConfigChannel(&hadc, &sConfig) != HAL_OK)
 8000972:	4640      	mov	r0, r8
  sConfig.SamplingTime = ADC_SAMPLETIME_1CYCLE_5;
 8000974:	60a3      	str	r3, [r4, #8]
  if (HAL_ADC_ConfigChannel(&hadc, &sConfig) != HAL_OK)
 8000976:	f001 ff4b 	bl	8002810 <HAL_ADC_ConfigChannel>
 800097a:	2800      	cmp	r0, #0
 800097c:	d001      	beq.n	8000982 <main+0x412>
 800097e:	b672      	cpsid	i
	while (1) {
 8000980:	e7fe      	b.n	8000980 <main+0x410>
  htim6.Instance = TIM6;
 8000982:	4bbe      	ldr	r3, [pc, #760]	@ (8000c7c <main+0x70c>)
 8000984:	4699      	mov	r9, r3
 8000986:	464a      	mov	r2, r9
 8000988:	4bbd      	ldr	r3, [pc, #756]	@ (8000c80 <main+0x710>)
  htim6.Init.CounterMode = TIM_COUNTERMODE_UP;
 800098a:	6090      	str	r0, [r2, #8]
  htim6.Instance = TIM6;
 800098c:	6013      	str	r3, [r2, #0]
  htim6.Init.Prescaler = 48-1;
 800098e:	232f      	movs	r3, #47	@ 0x2f
 8000990:	6053      	str	r3, [r2, #4]
  htim6.Init.Period = 65535;
 8000992:	4bbc      	ldr	r3, [pc, #752]	@ (8000c84 <main+0x714>)
  htim6.Init.AutoReloadPreload = TIM_AUTORELOAD_PRELOAD_DISABLE;
 8000994:	6190      	str	r0, [r2, #24]
  if (HAL_TIM_Base_Init(&htim6) != HAL_OK)
 8000996:	4648      	mov	r0, r9
  htim6.Init.Period = 65535;
 8000998:	60d3      	str	r3, [r2, #12]
  if (HAL_TIM_Base_Init(&htim6) != HAL_OK)
 800099a:	f004 fb4b 	bl	8005034 <HAL_TIM_Base_Init>
 800099e:	2800      	cmp	r0, #0
 80009a0:	d001      	beq.n	80009a6 <main+0x436>
 80009a2:	b672      	cpsid	i
	while (1) {
 80009a4:	e7fe      	b.n	80009a4 <main+0x434>
	initReciever(&htim6);
 80009a6:	4648      	mov	r0, r9
 80009a8:	f000 fc36 	bl	8001218 <initReciever>
	initMotors(&htim1);
 80009ac:	0038      	movs	r0, r7
 80009ae:	f000 fa17 	bl	8000de0 <initMotors>
	initBattery(&hadc);
 80009b2:	4640      	mov	r0, r8
 80009b4:	f7ff fd30 	bl	8000418 <initBattery>
	batteryConfiguration = getBatteryConfiguration();
 80009b8:	f7ff fd40 	bl	800043c <getBatteryConfiguration>
 80009bc:	4bb2      	ldr	r3, [pc, #712]	@ (8000c88 <main+0x718>)
 80009be:	7018      	strb	r0, [r3, #0]
	uint8_t isFirstWrite = read_byte_eeprom(EEPROM_ISFIRSTBOOT_ADDRESS);
 80009c0:	2064      	movs	r0, #100	@ 0x64
	batteryConfiguration = getBatteryConfiguration();
 80009c2:	9309      	str	r3, [sp, #36]	@ 0x24
	uint8_t isFirstWrite = read_byte_eeprom(EEPROM_ISFIRSTBOOT_ADDRESS);
 80009c4:	f000 ff32 	bl	800182c <read_byte_eeprom>
	if (isFirstWrite) {	// if is the first time the value is 255 (value of the memory empty)
 80009c8:	2800      	cmp	r0, #0
 80009ca:	d100      	bne.n	80009ce <main+0x45e>
 80009cc:	e1f2      	b.n	8000db4 <main+0x844>
			HAL_GPIO_TogglePin(U_LED_GPIO_Port, U_LED_Pin);
 80009ce:	2380      	movs	r3, #128	@ 0x80
 80009d0:	021b      	lsls	r3, r3, #8
 80009d2:	4699      	mov	r9, r3
			HAL_Delay(100);
 80009d4:	2364      	movs	r3, #100	@ 0x64
 80009d6:	270a      	movs	r7, #10
 80009d8:	4698      	mov	r8, r3
			HAL_GPIO_TogglePin(U_LED_GPIO_Port, U_LED_Pin);
 80009da:	4649      	mov	r1, r9
 80009dc:	48ab      	ldr	r0, [pc, #684]	@ (8000c8c <main+0x71c>)
 80009de:	f002 f8f5 	bl	8002bcc <HAL_GPIO_TogglePin>
		for (int i = 0; i < 10; i++) {
 80009e2:	3f01      	subs	r7, #1
			HAL_Delay(100);
 80009e4:	4640      	mov	r0, r8
 80009e6:	f001 fd3d 	bl	8002464 <HAL_Delay>
		for (int i = 0; i < 10; i++) {
 80009ea:	2f00      	cmp	r7, #0
 80009ec:	d1f5      	bne.n	80009da <main+0x46a>
		storeSettingsToEeprom();	// write the default settings
 80009ee:	f000 fd99 	bl	8001524 <storeSettingsToEeprom>
		write_byte_eeprom(EEPROM_ISFIRSTBOOT_ADDRESS, isFirstWrite);
 80009f2:	0039      	movs	r1, r7
 80009f4:	2064      	movs	r0, #100	@ 0x64
 80009f6:	f000 ff2f 	bl	8001858 <write_byte_eeprom>
	disableMotor(M1);
 80009fa:	2000      	movs	r0, #0
 80009fc:	f000 fbb0 	bl	8001160 <disableMotor>
	disableMotor(M2);
 8000a00:	2001      	movs	r0, #1
 8000a02:	f000 fbad 	bl	8001160 <disableMotor>
	disableMotor(M3);
 8000a06:	2002      	movs	r0, #2
 8000a08:	f000 fbaa 	bl	8001160 <disableMotor>
	uint32_t timeLowBattery = 0;
 8000a0c:	2300      	movs	r3, #0
	uint32_t time1 = 0;
 8000a0e:	001f      	movs	r7, r3
	uint32_t timeLimitBattery = 0;
 8000a10:	9307      	str	r3, [sp, #28]
	uint32_t time3 = 0;
 8000a12:	9306      	str	r3, [sp, #24]
	uint32_t time2 = 0;
 8000a14:	9305      	str	r3, [sp, #20]
 8000a16:	4b9e      	ldr	r3, [pc, #632]	@ (8000c90 <main+0x720>)
			if (HAL_GetTick() - time1 >= 2000 && limit == FALSE) {
 8000a18:	46a9      	mov	r9, r5
 8000a1a:	9302      	str	r3, [sp, #8]
 8000a1c:	4b9d      	ldr	r3, [pc, #628]	@ (8000c94 <main+0x724>)
 8000a1e:	9314      	str	r3, [sp, #80]	@ 0x50
 8000a20:	4b9d      	ldr	r3, [pc, #628]	@ (8000c98 <main+0x728>)
 8000a22:	9315      	str	r3, [sp, #84]	@ 0x54
 8000a24:	4b9d      	ldr	r3, [pc, #628]	@ (8000c9c <main+0x72c>)
 8000a26:	9303      	str	r3, [sp, #12]
 8000a28:	4b9d      	ldr	r3, [pc, #628]	@ (8000ca0 <main+0x730>)
 8000a2a:	930a      	str	r3, [sp, #40]	@ 0x28
 8000a2c:	4b9d      	ldr	r3, [pc, #628]	@ (8000ca4 <main+0x734>)
 8000a2e:	930b      	str	r3, [sp, #44]	@ 0x2c
 8000a30:	4b9d      	ldr	r3, [pc, #628]	@ (8000ca8 <main+0x738>)
 8000a32:	930c      	str	r3, [sp, #48]	@ 0x30
 8000a34:	4b9d      	ldr	r3, [pc, #628]	@ (8000cac <main+0x73c>)
 8000a36:	469b      	mov	fp, r3
 8000a38:	4b9d      	ldr	r3, [pc, #628]	@ (8000cb0 <main+0x740>)
 8000a3a:	9316      	str	r3, [sp, #88]	@ 0x58
 8000a3c:	4b9d      	ldr	r3, [pc, #628]	@ (8000cb4 <main+0x744>)
 8000a3e:	930d      	str	r3, [sp, #52]	@ 0x34
 8000a40:	4b9d      	ldr	r3, [pc, #628]	@ (8000cb8 <main+0x748>)
 8000a42:	9304      	str	r3, [sp, #16]
 8000a44:	4b9d      	ldr	r3, [pc, #628]	@ (8000cbc <main+0x74c>)
 8000a46:	4698      	mov	r8, r3
 8000a48:	4b9d      	ldr	r3, [pc, #628]	@ (8000cc0 <main+0x750>)
 8000a4a:	4645      	mov	r5, r8
 8000a4c:	9317      	str	r3, [sp, #92]	@ 0x5c
 8000a4e:	4b9d      	ldr	r3, [pc, #628]	@ (8000cc4 <main+0x754>)
 8000a50:	930f      	str	r3, [sp, #60]	@ 0x3c
 8000a52:	4b9d      	ldr	r3, [pc, #628]	@ (8000cc8 <main+0x758>)
 8000a54:	9301      	str	r3, [sp, #4]
 8000a56:	4b9d      	ldr	r3, [pc, #628]	@ (8000ccc <main+0x75c>)
 8000a58:	9310      	str	r3, [sp, #64]	@ 0x40
 8000a5a:	4b9d      	ldr	r3, [pc, #628]	@ (8000cd0 <main+0x760>)
 8000a5c:	970e      	str	r7, [sp, #56]	@ 0x38
 8000a5e:	9311      	str	r3, [sp, #68]	@ 0x44
 8000a60:	4b9c      	ldr	r3, [pc, #624]	@ (8000cd4 <main+0x764>)
 8000a62:	9308      	str	r3, [sp, #32]
 8000a64:	4b9c      	ldr	r3, [pc, #624]	@ (8000cd8 <main+0x768>)
 8000a66:	469a      	mov	sl, r3
 8000a68:	46d0      	mov	r8, sl
 8000a6a:	46b2      	mov	sl, r6
 8000a6c:	4b9b      	ldr	r3, [pc, #620]	@ (8000cdc <main+0x76c>)
 8000a6e:	9312      	str	r3, [sp, #72]	@ 0x48
 8000a70:	4b9b      	ldr	r3, [pc, #620]	@ (8000ce0 <main+0x770>)
 8000a72:	9313      	str	r3, [sp, #76]	@ 0x4c
		if (!cutoff) {	// if the robot is not in cutoff
 8000a74:	9b02      	ldr	r3, [sp, #8]
 8000a76:	781b      	ldrb	r3, [r3, #0]
 8000a78:	2b00      	cmp	r3, #0
 8000a7a:	d000      	beq.n	8000a7e <main+0x50e>
 8000a7c:	e175      	b.n	8000d6a <main+0x7fa>
			if (!noDisarm) {
 8000a7e:	9b14      	ldr	r3, [sp, #80]	@ 0x50
 8000a80:	781e      	ldrb	r6, [r3, #0]
 8000a82:	2e00      	cmp	r6, #0
 8000a84:	d100      	bne.n	8000a88 <main+0x518>
 8000a86:	e148      	b.n	8000d1a <main+0x7aa>
					armed = TRUE;
 8000a88:	2301      	movs	r3, #1
 8000a8a:	9a03      	ldr	r2, [sp, #12]
 8000a8c:	7013      	strb	r3, [r2, #0]
				enableMotor(M1);
 8000a8e:	2000      	movs	r0, #0
 8000a90:	f000 fb86 	bl	80011a0 <enableMotor>
				enableMotor(M2);
 8000a94:	2001      	movs	r0, #1
 8000a96:	f000 fb83 	bl	80011a0 <enableMotor>
				enableMotor(M3);
 8000a9a:	2002      	movs	r0, #2
 8000a9c:	f000 fb80 	bl	80011a0 <enableMotor>
				setServoIsEnable(TRUE, &htim17); // start servo 1 HV
 8000aa0:	4651      	mov	r1, sl
 8000aa2:	2001      	movs	r0, #1
 8000aa4:	f000 fcd6 	bl	8001454 <setServoIsEnable>
				setServoIsEnable(TRUE, &htim16); // start servo 2
 8000aa8:	4649      	mov	r1, r9
 8000aaa:	2001      	movs	r0, #1
 8000aac:	f000 fcd2 	bl	8001454 <setServoIsEnable>
				if (tankMixIsON) {	// calculate and use the tank mix only if it's enabled
 8000ab0:	9b13      	ldr	r3, [sp, #76]	@ 0x4c
 8000ab2:	781e      	ldrb	r6, [r3, #0]
 8000ab4:	2e00      	cmp	r6, #0
 8000ab6:	d100      	bne.n	8000aba <main+0x54a>
 8000ab8:	e116      	b.n	8000ce8 <main+0x778>
					tank = tankMix(getChannelValuePercentage(stChannel), getChannelValuePercentage(thChannel));
 8000aba:	9b0b      	ldr	r3, [sp, #44]	@ 0x2c
 8000abc:	7818      	ldrb	r0, [r3, #0]
 8000abe:	f000 fb8f 	bl	80011e0 <getChannelValuePercentage>
 8000ac2:	9b0c      	ldr	r3, [sp, #48]	@ 0x30
 8000ac4:	0006      	movs	r6, r0
 8000ac6:	7818      	ldrb	r0, [r3, #0]
 8000ac8:	f000 fb8a 	bl	80011e0 <getChannelValuePercentage>
 8000acc:	0001      	movs	r1, r0
 8000ace:	0030      	movs	r0, r6
 8000ad0:	f000 fc52 	bl	8001378 <tankMix>
 8000ad4:	465b      	mov	r3, fp
 8000ad6:	8018      	strh	r0, [r3, #0]
					setTankMotor(tank);
 8000ad8:	6818      	ldr	r0, [r3, #0]
 8000ada:	f000 f993 	bl	8000e04 <setTankMotor>
					if (weaponDoubleDirection) {
 8000ade:	9b16      	ldr	r3, [sp, #88]	@ 0x58
 8000ae0:	781b      	ldrb	r3, [r3, #0]
 8000ae2:	2b00      	cmp	r3, #0
 8000ae4:	d100      	bne.n	8000ae8 <main+0x578>
 8000ae6:	e0b4      	b.n	8000c52 <main+0x6e2>
						setMotorSpeedBidirectional(mWeapon, getChannelValuePercentage(wpChannel));
 8000ae8:	9b0d      	ldr	r3, [sp, #52]	@ 0x34
 8000aea:	781e      	ldrb	r6, [r3, #0]
 8000aec:	9b04      	ldr	r3, [sp, #16]
 8000aee:	7818      	ldrb	r0, [r3, #0]
 8000af0:	f000 fb76 	bl	80011e0 <getChannelValuePercentage>
 8000af4:	b241      	sxtb	r1, r0
 8000af6:	0030      	movs	r0, r6
 8000af8:	f000 fa2c 	bl	8000f54 <setMotorSpeedBidirectional>
					uint8_t s1 = getChannelValuePercentage(s1Channel);
 8000afc:	9b17      	ldr	r3, [sp, #92]	@ 0x5c
 8000afe:	7818      	ldrb	r0, [r3, #0]
				if (limit == TRUE) { // !!ASUME THAT S1 IS CONNECTED TO THE WEAPON ESC
 8000b00:	782b      	ldrb	r3, [r5, #0]
 8000b02:	2b01      	cmp	r3, #1
 8000b04:	d100      	bne.n	8000b08 <main+0x598>
 8000b06:	e09a      	b.n	8000c3e <main+0x6ce>
					setServoAngle(S1, getChannelValuePercentage(s1Channel));	// servo 1 attached to channel s1Channel
 8000b08:	f000 fb6a 	bl	80011e0 <getChannelValuePercentage>
 8000b0c:	0001      	movs	r1, r0
 8000b0e:	2000      	movs	r0, #0
 8000b10:	f000 fc5c 	bl	80013cc <setServoAngle>
				setServoAngle(S2, getChannelValuePercentage(s2Channel));
 8000b14:	9b0f      	ldr	r3, [sp, #60]	@ 0x3c
 8000b16:	7818      	ldrb	r0, [r3, #0]
 8000b18:	f000 fb62 	bl	80011e0 <getChannelValuePercentage>
 8000b1c:	0001      	movs	r1, r0
 8000b1e:	2001      	movs	r0, #1
 8000b20:	f000 fc54 	bl	80013cc <setServoAngle>
			if (HAL_GetTick() - time2 >= 200) {
 8000b24:	f001 fc98 	bl	8002458 <HAL_GetTick>
 8000b28:	9b05      	ldr	r3, [sp, #20]
 8000b2a:	1ac0      	subs	r0, r0, r3
 8000b2c:	28c7      	cmp	r0, #199	@ 0xc7
 8000b2e:	d83a      	bhi.n	8000ba6 <main+0x636>
			if (HAL_GetTick() - time1 >= 2000 && limit == FALSE) {
 8000b30:	f001 fc92 	bl	8002458 <HAL_GetTick>
 8000b34:	23fa      	movs	r3, #250	@ 0xfa
 8000b36:	1bc0      	subs	r0, r0, r7
 8000b38:	00db      	lsls	r3, r3, #3
 8000b3a:	4298      	cmp	r0, r3
 8000b3c:	d30a      	bcc.n	8000b54 <main+0x5e4>
 8000b3e:	782b      	ldrb	r3, [r5, #0]
 8000b40:	2b00      	cmp	r3, #0
 8000b42:	d107      	bne.n	8000b54 <main+0x5e4>
				HAL_GPIO_TogglePin(U_LED_GPIO_Port, U_LED_Pin);
 8000b44:	2180      	movs	r1, #128	@ 0x80
 8000b46:	4851      	ldr	r0, [pc, #324]	@ (8000c8c <main+0x71c>)
 8000b48:	0209      	lsls	r1, r1, #8
 8000b4a:	f002 f83f 	bl	8002bcc <HAL_GPIO_TogglePin>
				time1 = HAL_GetTick();
 8000b4e:	f001 fc83 	bl	8002458 <HAL_GetTick>
 8000b52:	0007      	movs	r7, r0
			if (HAL_GetTick() - time3 >= 350 && limit == TRUE) {
 8000b54:	f001 fc80 	bl	8002458 <HAL_GetTick>
 8000b58:	9b06      	ldr	r3, [sp, #24]
 8000b5a:	1ac0      	subs	r0, r0, r3
 8000b5c:	23af      	movs	r3, #175	@ 0xaf
 8000b5e:	005b      	lsls	r3, r3, #1
 8000b60:	4298      	cmp	r0, r3
 8000b62:	d30a      	bcc.n	8000b7a <main+0x60a>
 8000b64:	782b      	ldrb	r3, [r5, #0]
 8000b66:	2b01      	cmp	r3, #1
 8000b68:	d107      	bne.n	8000b7a <main+0x60a>
				HAL_GPIO_TogglePin(U_LED_GPIO_Port, U_LED_Pin);
 8000b6a:	2180      	movs	r1, #128	@ 0x80
 8000b6c:	4847      	ldr	r0, [pc, #284]	@ (8000c8c <main+0x71c>)
 8000b6e:	0209      	lsls	r1, r1, #8
 8000b70:	f002 f82c 	bl	8002bcc <HAL_GPIO_TogglePin>
				time3 = HAL_GetTick();
 8000b74:	f001 fc70 	bl	8002458 <HAL_GetTick>
 8000b78:	9006      	str	r0, [sp, #24]
		if (commandRecieved) {	// recieved a command from the USB
 8000b7a:	9b08      	ldr	r3, [sp, #32]
 8000b7c:	781b      	ldrb	r3, [r3, #0]
 8000b7e:	2b00      	cmp	r3, #0
 8000b80:	d100      	bne.n	8000b84 <main+0x614>
 8000b82:	e777      	b.n	8000a74 <main+0x504>
			if (modifySettingsWithCommand()) {
 8000b84:	f000 ffd6 	bl	8001b34 <modifySettingsWithCommand>
 8000b88:	2800      	cmp	r0, #0
 8000b8a:	d027      	beq.n	8000bdc <main+0x66c>
				uint8_t s[] = "\nOK\n";
 8000b8c:	4643      	mov	r3, r8
 8000b8e:	681b      	ldr	r3, [r3, #0]
				serialPrintString(s);
 8000b90:	0020      	movs	r0, r4
				uint8_t s[] = "\nOK\n";
 8000b92:	6023      	str	r3, [r4, #0]
 8000b94:	4643      	mov	r3, r8
 8000b96:	791b      	ldrb	r3, [r3, #4]
 8000b98:	7123      	strb	r3, [r4, #4]
				serialPrintString(s);
 8000b9a:	f000 fcb9 	bl	8001510 <serialPrintString>
			commandRecieved = FALSE;
 8000b9e:	2300      	movs	r3, #0
 8000ba0:	9a08      	ldr	r2, [sp, #32]
 8000ba2:	7013      	strb	r3, [r2, #0]
 8000ba4:	e766      	b.n	8000a74 <main+0x504>
				batteryVoltage = getBattVoltage();
 8000ba6:	f7ff fc7d 	bl	80004a4 <getBattVoltage>
 8000baa:	9b01      	ldr	r3, [sp, #4]
 8000bac:	8018      	strh	r0, [r3, #0]
				if (HAL_GetTick() - timeLimitBattery >= CUTOFF_BATTERY_TIMEOUT * 1000) {
 8000bae:	f001 fc53 	bl	8002458 <HAL_GetTick>
 8000bb2:	9b07      	ldr	r3, [sp, #28]
 8000bb4:	1ac0      	subs	r0, r0, r3
 8000bb6:	4b4b      	ldr	r3, [pc, #300]	@ (8000ce4 <main+0x774>)
 8000bb8:	4298      	cmp	r0, r3
 8000bba:	d92d      	bls.n	8000c18 <main+0x6a8>
					limit = TRUE;	// activate limit state (weapon speed limited)
 8000bbc:	2301      	movs	r3, #1
 8000bbe:	702b      	strb	r3, [r5, #0]
				if (HAL_GetTick() - timeLowBattery >= CUTOFF_BATTERY_TIMEOUT * 1000) {
 8000bc0:	f001 fc4a 	bl	8002458 <HAL_GetTick>
 8000bc4:	9b0e      	ldr	r3, [sp, #56]	@ 0x38
 8000bc6:	1ac0      	subs	r0, r0, r3
 8000bc8:	4b46      	ldr	r3, [pc, #280]	@ (8000ce4 <main+0x774>)
 8000bca:	4298      	cmp	r0, r3
 8000bcc:	d910      	bls.n	8000bf0 <main+0x680>
					cutoff = TRUE;	// activate cutoff state (robot disarmed)
 8000bce:	2301      	movs	r3, #1
 8000bd0:	9a02      	ldr	r2, [sp, #8]
 8000bd2:	7013      	strb	r3, [r2, #0]
				time2 = HAL_GetTick();
 8000bd4:	f001 fc40 	bl	8002458 <HAL_GetTick>
 8000bd8:	9005      	str	r0, [sp, #20]
 8000bda:	e7a9      	b.n	8000b30 <main+0x5c0>
				uint8_t s[] = "\nWHAT??\n";
 8000bdc:	0023      	movs	r3, r4
 8000bde:	9a12      	ldr	r2, [sp, #72]	@ 0x48
 8000be0:	ca03      	ldmia	r2!, {r0, r1}
 8000be2:	c303      	stmia	r3!, {r0, r1}
 8000be4:	7812      	ldrb	r2, [r2, #0]
				serialPrintString(s);
 8000be6:	0020      	movs	r0, r4
				uint8_t s[] = "\nWHAT??\n";
 8000be8:	701a      	strb	r2, [r3, #0]
				serialPrintString(s);
 8000bea:	f000 fc91 	bl	8001510 <serialPrintString>
 8000bee:	e7d6      	b.n	8000b9e <main+0x62e>
				if (batteryVoltage >= cutOffVoltage * 100 * batteryConfiguration && !cutoff)
 8000bf0:	9b01      	ldr	r3, [sp, #4]
 8000bf2:	9a09      	ldr	r2, [sp, #36]	@ 0x24
 8000bf4:	8819      	ldrh	r1, [r3, #0]
 8000bf6:	9b11      	ldr	r3, [sp, #68]	@ 0x44
 8000bf8:	7812      	ldrb	r2, [r2, #0]
 8000bfa:	781b      	ldrb	r3, [r3, #0]
 8000bfc:	435a      	muls	r2, r3
 8000bfe:	2364      	movs	r3, #100	@ 0x64
 8000c00:	4353      	muls	r3, r2
 8000c02:	4299      	cmp	r1, r3
 8000c04:	dbe6      	blt.n	8000bd4 <main+0x664>
 8000c06:	9b02      	ldr	r3, [sp, #8]
 8000c08:	781b      	ldrb	r3, [r3, #0]
 8000c0a:	2b00      	cmp	r3, #0
 8000c0c:	d1e2      	bne.n	8000bd4 <main+0x664>
					timeLowBattery = HAL_GetTick() + CUTOFF_BATTERY_TIMEOUT;
 8000c0e:	f001 fc23 	bl	8002458 <HAL_GetTick>
 8000c12:	300a      	adds	r0, #10
 8000c14:	900e      	str	r0, [sp, #56]	@ 0x38
 8000c16:	e7dd      	b.n	8000bd4 <main+0x664>
				if (batteryVoltage >= limitVoltage * 100 * batteryConfiguration && !limit)
 8000c18:	9b01      	ldr	r3, [sp, #4]
 8000c1a:	9a09      	ldr	r2, [sp, #36]	@ 0x24
 8000c1c:	8819      	ldrh	r1, [r3, #0]
 8000c1e:	9b10      	ldr	r3, [sp, #64]	@ 0x40
 8000c20:	7812      	ldrb	r2, [r2, #0]
 8000c22:	781b      	ldrb	r3, [r3, #0]
 8000c24:	435a      	muls	r2, r3
 8000c26:	2364      	movs	r3, #100	@ 0x64
 8000c28:	4353      	muls	r3, r2
 8000c2a:	4299      	cmp	r1, r3
 8000c2c:	dbc8      	blt.n	8000bc0 <main+0x650>
 8000c2e:	782b      	ldrb	r3, [r5, #0]
 8000c30:	2b00      	cmp	r3, #0
 8000c32:	d1c5      	bne.n	8000bc0 <main+0x650>
					timeLimitBattery = HAL_GetTick() + CUTOFF_BATTERY_TIMEOUT;
 8000c34:	f001 fc10 	bl	8002458 <HAL_GetTick>
 8000c38:	300a      	adds	r0, #10
 8000c3a:	9007      	str	r0, [sp, #28]
 8000c3c:	e7c0      	b.n	8000bc0 <main+0x650>
					uint8_t s1 = getChannelValuePercentage(s1Channel);
 8000c3e:	f000 facf 	bl	80011e0 <getChannelValuePercentage>
					if (limit == TRUE) s1 = s1 / 2;
 8000c42:	782b      	ldrb	r3, [r5, #0]
					uint8_t s1 = getChannelValuePercentage(s1Channel);
 8000c44:	0001      	movs	r1, r0
					if (limit == TRUE) s1 = s1 / 2;
 8000c46:	2b01      	cmp	r3, #1
 8000c48:	d000      	beq.n	8000c4c <main+0x6dc>
 8000c4a:	e760      	b.n	8000b0e <main+0x59e>
 8000c4c:	0841      	lsrs	r1, r0, #1
 8000c4e:	b2c9      	uxtb	r1, r1
					setServoAngle(S1, s1); // servo 1 attached to channel s1Channel
 8000c50:	e75d      	b.n	8000b0e <main+0x59e>
						uint8_t wp = getChannelValuePercentage(wpChannel);
 8000c52:	9b04      	ldr	r3, [sp, #16]
 8000c54:	7818      	ldrb	r0, [r3, #0]
 8000c56:	f000 fac3 	bl	80011e0 <getChannelValuePercentage>
						if (limit == TRUE) wp = wp / 2;	// valid only in the unidirectional mode  !!FOR DC MOTOR ONLY!!
 8000c5a:	782b      	ldrb	r3, [r5, #0]
						uint8_t wp = getChannelValuePercentage(wpChannel);
 8000c5c:	0001      	movs	r1, r0
						if (limit == TRUE) wp = wp / 2;	// valid only in the unidirectional mode  !!FOR DC MOTOR ONLY!!
 8000c5e:	2b01      	cmp	r3, #1
 8000c60:	d101      	bne.n	8000c66 <main+0x6f6>
 8000c62:	0841      	lsrs	r1, r0, #1
 8000c64:	b2c9      	uxtb	r1, r1
						setMotorSpeedUnidirectional(mWeapon, wp);
 8000c66:	9b0d      	ldr	r3, [sp, #52]	@ 0x34
 8000c68:	b249      	sxtb	r1, r1
 8000c6a:	7818      	ldrb	r0, [r3, #0]
 8000c6c:	f000 f9c4 	bl	8000ff8 <setMotorSpeedUnidirectional>
 8000c70:	e744      	b.n	8000afc <main+0x58c>
 8000c72:	46c0      	nop			@ (mov r8, r8)
 8000c74:	200003a4 	.word	0x200003a4
 8000c78:	40012400 	.word	0x40012400
 8000c7c:	200002c0 	.word	0x200002c0
 8000c80:	40001000 	.word	0x40001000
 8000c84:	0000ffff 	.word	0x0000ffff
 8000c88:	20000222 	.word	0x20000222
 8000c8c:	48000800 	.word	0x48000800
 8000c90:	20000224 	.word	0x20000224
 8000c94:	20000006 	.word	0x20000006
 8000c98:	2000000c 	.word	0x2000000c
 8000c9c:	20000221 	.word	0x20000221
 8000ca0:	2000021d 	.word	0x2000021d
 8000ca4:	20000010 	.word	0x20000010
 8000ca8:	20000011 	.word	0x20000011
 8000cac:	2000022c 	.word	0x2000022c
 8000cb0:	2000021c 	.word	0x2000021c
 8000cb4:	20000008 	.word	0x20000008
 8000cb8:	2000000f 	.word	0x2000000f
 8000cbc:	20000223 	.word	0x20000223
 8000cc0:	2000000e 	.word	0x2000000e
 8000cc4:	2000000d 	.word	0x2000000d
 8000cc8:	20000226 	.word	0x20000226
 8000ccc:	20000005 	.word	0x20000005
 8000cd0:	20000004 	.word	0x20000004
 8000cd4:	20000228 	.word	0x20000228
 8000cd8:	08008b8c 	.word	0x08008b8c
 8000cdc:	08008b94 	.word	0x08008b94
 8000ce0:	20000007 	.word	0x20000007
 8000ce4:	0000270f 	.word	0x0000270f
					setMotorSpeedBidirectional(M1, getChannelValuePercentage(thChannel));
 8000ce8:	9b0c      	ldr	r3, [sp, #48]	@ 0x30
 8000cea:	7818      	ldrb	r0, [r3, #0]
 8000cec:	f000 fa78 	bl	80011e0 <getChannelValuePercentage>
 8000cf0:	b241      	sxtb	r1, r0
 8000cf2:	0030      	movs	r0, r6
 8000cf4:	f000 f92e 	bl	8000f54 <setMotorSpeedBidirectional>
					setMotorSpeedBidirectional(M2, getChannelValuePercentage(stChannel));
 8000cf8:	9b0b      	ldr	r3, [sp, #44]	@ 0x2c
 8000cfa:	7818      	ldrb	r0, [r3, #0]
 8000cfc:	f000 fa70 	bl	80011e0 <getChannelValuePercentage>
 8000d00:	b241      	sxtb	r1, r0
 8000d02:	2001      	movs	r0, #1
 8000d04:	f000 f926 	bl	8000f54 <setMotorSpeedBidirectional>
					setMotorSpeedBidirectional(M3, getChannelValuePercentage(wpChannel));
 8000d08:	9b04      	ldr	r3, [sp, #16]
 8000d0a:	7818      	ldrb	r0, [r3, #0]
 8000d0c:	f000 fa68 	bl	80011e0 <getChannelValuePercentage>
 8000d10:	b241      	sxtb	r1, r0
 8000d12:	2002      	movs	r0, #2
 8000d14:	f000 f91e 	bl	8000f54 <setMotorSpeedBidirectional>
 8000d18:	e6f0      	b.n	8000afc <main+0x58c>
				if (getChannelValuePercentage(armChannel) > 75)
 8000d1a:	9b15      	ldr	r3, [sp, #84]	@ 0x54
 8000d1c:	7818      	ldrb	r0, [r3, #0]
 8000d1e:	f000 fa5f 	bl	80011e0 <getChannelValuePercentage>
 8000d22:	284b      	cmp	r0, #75	@ 0x4b
 8000d24:	d900      	bls.n	8000d28 <main+0x7b8>
 8000d26:	e6af      	b.n	8000a88 <main+0x518>
				makeSound(mLeft, 50);
 8000d28:	9a0a      	ldr	r2, [sp, #40]	@ 0x28
					armed = FALSE;
 8000d2a:	9b03      	ldr	r3, [sp, #12]
				makeSound(mLeft, 50);
 8000d2c:	7810      	ldrb	r0, [r2, #0]
 8000d2e:	2132      	movs	r1, #50	@ 0x32
					armed = FALSE;
 8000d30:	701e      	strb	r6, [r3, #0]
				makeSound(mLeft, 50);
 8000d32:	f000 f9b7 	bl	80010a4 <makeSound>
				HAL_Delay(50);
 8000d36:	2032      	movs	r0, #50	@ 0x32
 8000d38:	f001 fb94 	bl	8002464 <HAL_Delay>
			if (armed) {	// if armed do...
 8000d3c:	9b03      	ldr	r3, [sp, #12]
 8000d3e:	781e      	ldrb	r6, [r3, #0]
 8000d40:	2e00      	cmp	r6, #0
 8000d42:	d000      	beq.n	8000d46 <main+0x7d6>
 8000d44:	e6a3      	b.n	8000a8e <main+0x51e>
				disableMotor(M1);
 8000d46:	0030      	movs	r0, r6
 8000d48:	f000 fa0a 	bl	8001160 <disableMotor>
				disableMotor(M2);
 8000d4c:	2001      	movs	r0, #1
 8000d4e:	f000 fa07 	bl	8001160 <disableMotor>
				disableMotor(M3);
 8000d52:	2002      	movs	r0, #2
 8000d54:	f000 fa04 	bl	8001160 <disableMotor>
				setServoIsEnable(FALSE, &htim17); // stop servo 1 HV
 8000d58:	4651      	mov	r1, sl
 8000d5a:	0030      	movs	r0, r6
 8000d5c:	f000 fb7a 	bl	8001454 <setServoIsEnable>
				setServoIsEnable(FALSE, &htim16); // stop servo 2
 8000d60:	4649      	mov	r1, r9
 8000d62:	0030      	movs	r0, r6
 8000d64:	f000 fb76 	bl	8001454 <setServoIsEnable>
 8000d68:	e6dc      	b.n	8000b24 <main+0x5b4>
			disableMotor(M1);
 8000d6a:	2000      	movs	r0, #0
 8000d6c:	f000 f9f8 	bl	8001160 <disableMotor>
			disableMotor(M2);
 8000d70:	2001      	movs	r0, #1
 8000d72:	f000 f9f5 	bl	8001160 <disableMotor>
			disableMotor(M3);
 8000d76:	2002      	movs	r0, #2
 8000d78:	f000 f9f2 	bl	8001160 <disableMotor>
			setServoAngle(S1, 0);	// servo 1 attached to channel s1Channel
 8000d7c:	2100      	movs	r1, #0
 8000d7e:	0008      	movs	r0, r1
 8000d80:	f000 fb24 	bl	80013cc <setServoAngle>
			setServoAngle(S2, 0);
 8000d84:	2100      	movs	r1, #0
 8000d86:	2001      	movs	r0, #1
 8000d88:	f000 fb20 	bl	80013cc <setServoAngle>
			if (HAL_GetTick() - time1 >= 100) {
 8000d8c:	f001 fb64 	bl	8002458 <HAL_GetTick>
 8000d90:	1bc0      	subs	r0, r0, r7
 8000d92:	2863      	cmp	r0, #99	@ 0x63
 8000d94:	d800      	bhi.n	8000d98 <main+0x828>
 8000d96:	e6f0      	b.n	8000b7a <main+0x60a>
				HAL_GPIO_TogglePin(U_LED_GPIO_Port, U_LED_Pin);
 8000d98:	2180      	movs	r1, #128	@ 0x80
 8000d9a:	4808      	ldr	r0, [pc, #32]	@ (8000dbc <main+0x84c>)
 8000d9c:	0209      	lsls	r1, r1, #8
 8000d9e:	f001 ff15 	bl	8002bcc <HAL_GPIO_TogglePin>
				makeSound(mLeft, 100);	// beep while in cutoff mode
 8000da2:	9b0a      	ldr	r3, [sp, #40]	@ 0x28
 8000da4:	2164      	movs	r1, #100	@ 0x64
 8000da6:	7818      	ldrb	r0, [r3, #0]
 8000da8:	f000 f97c 	bl	80010a4 <makeSound>
				time1 = HAL_GetTick();
 8000dac:	f001 fb54 	bl	8002458 <HAL_GetTick>
 8000db0:	0007      	movs	r7, r0
 8000db2:	e6e2      	b.n	8000b7a <main+0x60a>
		loadSettingsFromEeprom();	// load the settings from the eeprom memory
 8000db4:	f000 fd36 	bl	8001824 <loadSettingsFromEeprom>
 8000db8:	e61f      	b.n	80009fa <main+0x48a>
 8000dba:	46c0      	nop			@ (mov r8, r8)
 8000dbc:	48000800 	.word	0x48000800

08000dc0 <map>:
int16_t map(int16_t x, int16_t in_min, int16_t in_max, int16_t out_min, int16_t out_max) {
 8000dc0:	b570      	push	{r4, r5, r6, lr}
 8000dc2:	001d      	movs	r5, r3
 8000dc4:	ab04      	add	r3, sp, #16
 8000dc6:	2400      	movs	r4, #0
 8000dc8:	5f1c      	ldrsh	r4, [r3, r4]
	return (x - in_min) * (out_max - out_min) / (in_max - in_min) + out_min;
 8000dca:	1a43      	subs	r3, r0, r1
 8000dcc:	1b60      	subs	r0, r4, r5
 8000dce:	4358      	muls	r0, r3
 8000dd0:	1a51      	subs	r1, r2, r1
 8000dd2:	f7ff fa35 	bl	8000240 <__divsi3>
 8000dd6:	1940      	adds	r0, r0, r5
 8000dd8:	b200      	sxth	r0, r0
}
 8000dda:	bd70      	pop	{r4, r5, r6, pc}

08000ddc <Error_Handler>:
 8000ddc:	b672      	cpsid	i
	while (1) {
 8000dde:	e7fe      	b.n	8000dde <Error_Handler+0x2>

08000de0 <initMotors>:

extern uint8_t m1Rev;
extern uint8_t m2Rev;
extern uint8_t m3Rev;

void initMotors(TIM_HandleTypeDef *htim) {
 8000de0:	b510      	push	{r4, lr}
 8000de2:	0004      	movs	r4, r0
	HAL_TIM_PWM_Init(htim);
 8000de4:	f004 f9d4 	bl	8005190 <HAL_TIM_PWM_Init>
	HAL_TIM_PWM_Start(htim, TIM_CHANNEL_1);
 8000de8:	2100      	movs	r1, #0
 8000dea:	0020      	movs	r0, r4
 8000dec:	f004 fa52 	bl	8005294 <HAL_TIM_PWM_Start>
	HAL_TIM_PWM_Start(htim, TIM_CHANNEL_2);
 8000df0:	2104      	movs	r1, #4
 8000df2:	0020      	movs	r0, r4
 8000df4:	f004 fa4e 	bl	8005294 <HAL_TIM_PWM_Start>
	HAL_TIM_PWM_Start(htim, TIM_CHANNEL_3);
 8000df8:	2108      	movs	r1, #8
 8000dfa:	0020      	movs	r0, r4
 8000dfc:	f004 fa4a 	bl	8005294 <HAL_TIM_PWM_Start>
}
 8000e00:	bd10      	pop	{r4, pc}
 8000e02:	46c0      	nop			@ (mov r8, r8)

08000e04 <setTankMotor>:

void setTankMotor(TankMotors t) {
 8000e04:	b530      	push	{r4, r5, lr}
 8000e06:	b083      	sub	sp, #12
	// set the speed of the motors
	setMotorSpeedBidirectional(mLeft, t.speedL);
 8000e08:	4b4b      	ldr	r3, [pc, #300]	@ (8000f38 <setTankMotor+0x134>)
void setTankMotor(TankMotors t) {
 8000e0a:	ac01      	add	r4, sp, #4
 8000e0c:	8020      	strh	r0, [r4, #0]
	setMotorSpeedBidirectional(mLeft, t.speedL);
 8000e0e:	b2c0      	uxtb	r0, r0
 8000e10:	781b      	ldrb	r3, [r3, #0]
 *  max -3, min +3
 *	change the deadzone value according your needs
 */
uint8_t calculateSpeedWithDeadZoneDouble(uint8_t speed) {
	uint8_t returnValue = speed;
	if (speed < DEADZONE) returnValue = 0;	// lower deadzone
 8000e12:	2809      	cmp	r0, #9
 8000e14:	d929      	bls.n	8000e6a <setTankMotor+0x66>
	if (speed > 100 - DEADZONE) returnValue = 100;	// upper deadzone
 8000e16:	285a      	cmp	r0, #90	@ 0x5a
 8000e18:	d900      	bls.n	8000e1c <setTankMotor+0x18>
 8000e1a:	e089      	b.n	8000f30 <setTankMotor+0x12c>
	speed = (speed - 50) * 2;
 8000e1c:	3832      	subs	r0, #50	@ 0x32
 8000e1e:	0042      	lsls	r2, r0, #1
 8000e20:	b252      	sxtb	r2, r2
	uint8_t sp = abs(speed);
 8000e22:	17d1      	asrs	r1, r2, #31
 8000e24:	1855      	adds	r5, r2, r1
	if (speed >= 0)
 8000e26:	43d2      	mvns	r2, r2
	uint8_t sp = abs(speed);
 8000e28:	404d      	eors	r5, r1
 8000e2a:	b2ed      	uxtb	r5, r5
	if (speed >= 0)
 8000e2c:	0fd2      	lsrs	r2, r2, #31
	switch (motorN) {
 8000e2e:	2b01      	cmp	r3, #1
 8000e30:	d11f      	bne.n	8000e72 <setTankMotor+0x6e>
			isRev = m2Rev;
 8000e32:	4b42      	ldr	r3, [pc, #264]	@ (8000f3c <setTankMotor+0x138>)
	if (getMotorRev(motorN)) dir = !dir;	//check if the motor is reversed, if it is reverse the direction
 8000e34:	781b      	ldrb	r3, [r3, #0]
 8000e36:	2b00      	cmp	r3, #0
 8000e38:	d001      	beq.n	8000e3e <setTankMotor+0x3a>
 8000e3a:	2301      	movs	r3, #1
 8000e3c:	405a      	eors	r2, r3
			HAL_GPIO_WritePin(DIR_M2_GPIO_Port, DIR_M2_Pin, dir);
 8000e3e:	2180      	movs	r1, #128	@ 0x80
 8000e40:	483f      	ldr	r0, [pc, #252]	@ (8000f40 <setTankMotor+0x13c>)
 8000e42:	0189      	lsls	r1, r1, #6
 8000e44:	f001 febc 	bl	8002bc0 <HAL_GPIO_WritePin>
			TIM1->CCR2 = sp;
 8000e48:	4b3e      	ldr	r3, [pc, #248]	@ (8000f44 <setTankMotor+0x140>)
 8000e4a:	639d      	str	r5, [r3, #56]	@ 0x38
	setMotorSpeedBidirectional(mRight, t.speedR);
 8000e4c:	4b3e      	ldr	r3, [pc, #248]	@ (8000f48 <setTankMotor+0x144>)
 8000e4e:	7819      	ldrb	r1, [r3, #0]
 8000e50:	7863      	ldrb	r3, [r4, #1]
	if (speed < DEADZONE) returnValue = 0;	// lower deadzone
 8000e52:	2b09      	cmp	r3, #9
 8000e54:	d816      	bhi.n	8000e84 <setTankMotor+0x80>
	uint8_t sp = abs(speed);
 8000e56:	2464      	movs	r4, #100	@ 0x64
		dir = FALSE;
 8000e58:	2200      	movs	r2, #0
	switch (motorN) {
 8000e5a:	2901      	cmp	r1, #1
 8000e5c:	d01f      	beq.n	8000e9e <setTankMotor+0x9a>
 8000e5e:	2902      	cmp	r1, #2
 8000e60:	d055      	beq.n	8000f0e <setTankMotor+0x10a>
 8000e62:	2900      	cmp	r1, #0
 8000e64:	d045      	beq.n	8000ef2 <setTankMotor+0xee>
}
 8000e66:	b003      	add	sp, #12
 8000e68:	bd30      	pop	{r4, r5, pc}
	uint8_t sp = abs(speed);
 8000e6a:	2564      	movs	r5, #100	@ 0x64
		dir = FALSE;
 8000e6c:	2200      	movs	r2, #0
	switch (motorN) {
 8000e6e:	2b01      	cmp	r3, #1
 8000e70:	d0df      	beq.n	8000e32 <setTankMotor+0x2e>
 8000e72:	2b02      	cmp	r3, #2
 8000e74:	d02f      	beq.n	8000ed6 <setTankMotor+0xd2>
 8000e76:	2b00      	cmp	r3, #0
 8000e78:	d01f      	beq.n	8000eba <setTankMotor+0xb6>
	setMotorSpeedBidirectional(mRight, t.speedR);
 8000e7a:	4b33      	ldr	r3, [pc, #204]	@ (8000f48 <setTankMotor+0x144>)
 8000e7c:	7819      	ldrb	r1, [r3, #0]
 8000e7e:	7863      	ldrb	r3, [r4, #1]
	if (speed < DEADZONE) returnValue = 0;	// lower deadzone
 8000e80:	2b09      	cmp	r3, #9
 8000e82:	d9e8      	bls.n	8000e56 <setTankMotor+0x52>
	if (speed > 100 - DEADZONE) returnValue = 100;	// upper deadzone
 8000e84:	2b5a      	cmp	r3, #90	@ 0x5a
 8000e86:	d850      	bhi.n	8000f2a <setTankMotor+0x126>
	speed = (speed - 50) * 2;
 8000e88:	3b32      	subs	r3, #50	@ 0x32
 8000e8a:	005a      	lsls	r2, r3, #1
 8000e8c:	b252      	sxtb	r2, r2
	uint8_t sp = abs(speed);
 8000e8e:	17d3      	asrs	r3, r2, #31
 8000e90:	18d4      	adds	r4, r2, r3
	if (speed >= 0)
 8000e92:	43d2      	mvns	r2, r2
	uint8_t sp = abs(speed);
 8000e94:	405c      	eors	r4, r3
 8000e96:	b2e4      	uxtb	r4, r4
	if (speed >= 0)
 8000e98:	0fd2      	lsrs	r2, r2, #31
	switch (motorN) {
 8000e9a:	2901      	cmp	r1, #1
 8000e9c:	d1df      	bne.n	8000e5e <setTankMotor+0x5a>
			isRev = m2Rev;
 8000e9e:	4b27      	ldr	r3, [pc, #156]	@ (8000f3c <setTankMotor+0x138>)
	if (getMotorRev(motorN)) dir = !dir;	//check if the motor is reversed, if it is reverse the direction
 8000ea0:	781b      	ldrb	r3, [r3, #0]
 8000ea2:	2b00      	cmp	r3, #0
 8000ea4:	d001      	beq.n	8000eaa <setTankMotor+0xa6>
 8000ea6:	2301      	movs	r3, #1
 8000ea8:	405a      	eors	r2, r3
			HAL_GPIO_WritePin(DIR_M2_GPIO_Port, DIR_M2_Pin, dir);
 8000eaa:	2180      	movs	r1, #128	@ 0x80
 8000eac:	4824      	ldr	r0, [pc, #144]	@ (8000f40 <setTankMotor+0x13c>)
 8000eae:	0189      	lsls	r1, r1, #6
 8000eb0:	f001 fe86 	bl	8002bc0 <HAL_GPIO_WritePin>
			TIM1->CCR2 = sp;
 8000eb4:	4b23      	ldr	r3, [pc, #140]	@ (8000f44 <setTankMotor+0x140>)
 8000eb6:	639c      	str	r4, [r3, #56]	@ 0x38
			break;
 8000eb8:	e7d5      	b.n	8000e66 <setTankMotor+0x62>
			isRev = m1Rev;
 8000eba:	4b24      	ldr	r3, [pc, #144]	@ (8000f4c <setTankMotor+0x148>)
	if (getMotorRev(motorN)) dir = !dir;	//check if the motor is reversed, if it is reverse the direction
 8000ebc:	781b      	ldrb	r3, [r3, #0]
 8000ebe:	2b00      	cmp	r3, #0
 8000ec0:	d001      	beq.n	8000ec6 <setTankMotor+0xc2>
 8000ec2:	2301      	movs	r3, #1
 8000ec4:	405a      	eors	r2, r3
			HAL_GPIO_WritePin(DIR_M1_GPIO_Port, DIR_M1_Pin, dir);
 8000ec6:	2180      	movs	r1, #128	@ 0x80
 8000ec8:	481d      	ldr	r0, [pc, #116]	@ (8000f40 <setTankMotor+0x13c>)
 8000eca:	0209      	lsls	r1, r1, #8
 8000ecc:	f001 fe78 	bl	8002bc0 <HAL_GPIO_WritePin>
			TIM1->CCR1 = sp;
 8000ed0:	4b1c      	ldr	r3, [pc, #112]	@ (8000f44 <setTankMotor+0x140>)
 8000ed2:	635d      	str	r5, [r3, #52]	@ 0x34
			break;
 8000ed4:	e7d1      	b.n	8000e7a <setTankMotor+0x76>
			isRev = m3Rev;
 8000ed6:	4b1e      	ldr	r3, [pc, #120]	@ (8000f50 <setTankMotor+0x14c>)
	if (getMotorRev(motorN)) dir = !dir;	//check if the motor is reversed, if it is reverse the direction
 8000ed8:	781b      	ldrb	r3, [r3, #0]
 8000eda:	2b00      	cmp	r3, #0
 8000edc:	d001      	beq.n	8000ee2 <setTankMotor+0xde>
 8000ede:	2301      	movs	r3, #1
 8000ee0:	405a      	eors	r2, r3
			HAL_GPIO_WritePin(DIR_M3_GPIO_Port, DIR_M3_Pin, dir);
 8000ee2:	2180      	movs	r1, #128	@ 0x80
 8000ee4:	4816      	ldr	r0, [pc, #88]	@ (8000f40 <setTankMotor+0x13c>)
 8000ee6:	0109      	lsls	r1, r1, #4
 8000ee8:	f001 fe6a 	bl	8002bc0 <HAL_GPIO_WritePin>
			TIM1->CCR3 = sp;
 8000eec:	4b15      	ldr	r3, [pc, #84]	@ (8000f44 <setTankMotor+0x140>)
 8000eee:	63dd      	str	r5, [r3, #60]	@ 0x3c
			break;
 8000ef0:	e7c3      	b.n	8000e7a <setTankMotor+0x76>
			isRev = m1Rev;
 8000ef2:	4b16      	ldr	r3, [pc, #88]	@ (8000f4c <setTankMotor+0x148>)
	if (getMotorRev(motorN)) dir = !dir;	//check if the motor is reversed, if it is reverse the direction
 8000ef4:	781b      	ldrb	r3, [r3, #0]
 8000ef6:	2b00      	cmp	r3, #0
 8000ef8:	d001      	beq.n	8000efe <setTankMotor+0xfa>
 8000efa:	2301      	movs	r3, #1
 8000efc:	405a      	eors	r2, r3
			HAL_GPIO_WritePin(DIR_M1_GPIO_Port, DIR_M1_Pin, dir);
 8000efe:	2180      	movs	r1, #128	@ 0x80
 8000f00:	480f      	ldr	r0, [pc, #60]	@ (8000f40 <setTankMotor+0x13c>)
 8000f02:	0209      	lsls	r1, r1, #8
 8000f04:	f001 fe5c 	bl	8002bc0 <HAL_GPIO_WritePin>
			TIM1->CCR1 = sp;
 8000f08:	4b0e      	ldr	r3, [pc, #56]	@ (8000f44 <setTankMotor+0x140>)
 8000f0a:	635c      	str	r4, [r3, #52]	@ 0x34
			break;
 8000f0c:	e7ab      	b.n	8000e66 <setTankMotor+0x62>
			isRev = m3Rev;
 8000f0e:	4b10      	ldr	r3, [pc, #64]	@ (8000f50 <setTankMotor+0x14c>)
	if (getMotorRev(motorN)) dir = !dir;	//check if the motor is reversed, if it is reverse the direction
 8000f10:	781b      	ldrb	r3, [r3, #0]
 8000f12:	2b00      	cmp	r3, #0
 8000f14:	d001      	beq.n	8000f1a <setTankMotor+0x116>
 8000f16:	2301      	movs	r3, #1
 8000f18:	405a      	eors	r2, r3
			HAL_GPIO_WritePin(DIR_M3_GPIO_Port, DIR_M3_Pin, dir);
 8000f1a:	2180      	movs	r1, #128	@ 0x80
 8000f1c:	4808      	ldr	r0, [pc, #32]	@ (8000f40 <setTankMotor+0x13c>)
 8000f1e:	0109      	lsls	r1, r1, #4
 8000f20:	f001 fe4e 	bl	8002bc0 <HAL_GPIO_WritePin>
			TIM1->CCR3 = sp;
 8000f24:	4b07      	ldr	r3, [pc, #28]	@ (8000f44 <setTankMotor+0x140>)
 8000f26:	63dc      	str	r4, [r3, #60]	@ 0x3c
}
 8000f28:	e79d      	b.n	8000e66 <setTankMotor+0x62>
	uint8_t sp = abs(speed);
 8000f2a:	2464      	movs	r4, #100	@ 0x64
		dir = TRUE;
 8000f2c:	2201      	movs	r2, #1
 8000f2e:	e794      	b.n	8000e5a <setTankMotor+0x56>
	uint8_t sp = abs(speed);
 8000f30:	2564      	movs	r5, #100	@ 0x64
		dir = TRUE;
 8000f32:	2201      	movs	r2, #1
 8000f34:	e79b      	b.n	8000e6e <setTankMotor+0x6a>
 8000f36:	46c0      	nop			@ (mov r8, r8)
 8000f38:	2000021d 	.word	0x2000021d
 8000f3c:	2000000a 	.word	0x2000000a
 8000f40:	48000400 	.word	0x48000400
 8000f44:	40012c00 	.word	0x40012c00
 8000f48:	20000009 	.word	0x20000009
 8000f4c:	2000000b 	.word	0x2000000b
 8000f50:	20000220 	.word	0x20000220

08000f54 <setMotorSpeedBidirectional>:
	speed = calculateSpeedWithDeadZoneDouble(speed);
 8000f54:	b2c9      	uxtb	r1, r1
void setMotorSpeedBidirectional(uint8_t motorN, int8_t speed) {
 8000f56:	b510      	push	{r4, lr}
	if (speed < DEADZONE) returnValue = 0;	// lower deadzone
 8000f58:	2909      	cmp	r1, #9
 8000f5a:	d91a      	bls.n	8000f92 <setMotorSpeedBidirectional+0x3e>
	if (speed > 100 - DEADZONE) returnValue = 100;	// upper deadzone
 8000f5c:	295a      	cmp	r1, #90	@ 0x5a
 8000f5e:	d83d      	bhi.n	8000fdc <setMotorSpeedBidirectional+0x88>
	speed = (speed - 50) * 2;
 8000f60:	3932      	subs	r1, #50	@ 0x32
 8000f62:	004a      	lsls	r2, r1, #1
 8000f64:	b252      	sxtb	r2, r2
	uint8_t sp = abs(speed);
 8000f66:	17d3      	asrs	r3, r2, #31
 8000f68:	18d4      	adds	r4, r2, r3
	if (speed >= 0)
 8000f6a:	43d2      	mvns	r2, r2
	uint8_t sp = abs(speed);
 8000f6c:	405c      	eors	r4, r3
 8000f6e:	b2e4      	uxtb	r4, r4
	if (speed >= 0)
 8000f70:	0fd2      	lsrs	r2, r2, #31
	switch (motorN) {
 8000f72:	2801      	cmp	r0, #1
 8000f74:	d111      	bne.n	8000f9a <setMotorSpeedBidirectional+0x46>
			isRev = m2Rev;
 8000f76:	4b1b      	ldr	r3, [pc, #108]	@ (8000fe4 <setMotorSpeedBidirectional+0x90>)
	if (getMotorRev(motorN)) dir = !dir;	//check if the motor is reversed, if it is reverse the direction
 8000f78:	781b      	ldrb	r3, [r3, #0]
 8000f7a:	2b00      	cmp	r3, #0
 8000f7c:	d001      	beq.n	8000f82 <setMotorSpeedBidirectional+0x2e>
 8000f7e:	2301      	movs	r3, #1
 8000f80:	405a      	eors	r2, r3
			HAL_GPIO_WritePin(DIR_M2_GPIO_Port, DIR_M2_Pin, dir);
 8000f82:	2180      	movs	r1, #128	@ 0x80
 8000f84:	4818      	ldr	r0, [pc, #96]	@ (8000fe8 <setMotorSpeedBidirectional+0x94>)
 8000f86:	0189      	lsls	r1, r1, #6
 8000f88:	f001 fe1a 	bl	8002bc0 <HAL_GPIO_WritePin>
			TIM1->CCR2 = sp;
 8000f8c:	4b17      	ldr	r3, [pc, #92]	@ (8000fec <setMotorSpeedBidirectional+0x98>)
 8000f8e:	639c      	str	r4, [r3, #56]	@ 0x38
			break;
 8000f90:	e007      	b.n	8000fa2 <setMotorSpeedBidirectional+0x4e>
	uint8_t sp = abs(speed);
 8000f92:	2464      	movs	r4, #100	@ 0x64
		dir = FALSE;
 8000f94:	2200      	movs	r2, #0
	switch (motorN) {
 8000f96:	2801      	cmp	r0, #1
 8000f98:	d0ed      	beq.n	8000f76 <setMotorSpeedBidirectional+0x22>
 8000f9a:	2802      	cmp	r0, #2
 8000f9c:	d010      	beq.n	8000fc0 <setMotorSpeedBidirectional+0x6c>
 8000f9e:	2800      	cmp	r0, #0
 8000fa0:	d000      	beq.n	8000fa4 <setMotorSpeedBidirectional+0x50>
}
 8000fa2:	bd10      	pop	{r4, pc}
			isRev = m1Rev;
 8000fa4:	4b12      	ldr	r3, [pc, #72]	@ (8000ff0 <setMotorSpeedBidirectional+0x9c>)
	if (getMotorRev(motorN)) dir = !dir;	//check if the motor is reversed, if it is reverse the direction
 8000fa6:	781b      	ldrb	r3, [r3, #0]
 8000fa8:	2b00      	cmp	r3, #0
 8000faa:	d001      	beq.n	8000fb0 <setMotorSpeedBidirectional+0x5c>
 8000fac:	2301      	movs	r3, #1
 8000fae:	405a      	eors	r2, r3
			HAL_GPIO_WritePin(DIR_M1_GPIO_Port, DIR_M1_Pin, dir);
 8000fb0:	2180      	movs	r1, #128	@ 0x80
 8000fb2:	480d      	ldr	r0, [pc, #52]	@ (8000fe8 <setMotorSpeedBidirectional+0x94>)
 8000fb4:	0209      	lsls	r1, r1, #8
 8000fb6:	f001 fe03 	bl	8002bc0 <HAL_GPIO_WritePin>
			TIM1->CCR1 = sp;
 8000fba:	4b0c      	ldr	r3, [pc, #48]	@ (8000fec <setMotorSpeedBidirectional+0x98>)
 8000fbc:	635c      	str	r4, [r3, #52]	@ 0x34
			break;
 8000fbe:	e7f0      	b.n	8000fa2 <setMotorSpeedBidirectional+0x4e>
			isRev = m3Rev;
 8000fc0:	4b0c      	ldr	r3, [pc, #48]	@ (8000ff4 <setMotorSpeedBidirectional+0xa0>)
	if (getMotorRev(motorN)) dir = !dir;	//check if the motor is reversed, if it is reverse the direction
 8000fc2:	781b      	ldrb	r3, [r3, #0]
 8000fc4:	2b00      	cmp	r3, #0
 8000fc6:	d001      	beq.n	8000fcc <setMotorSpeedBidirectional+0x78>
 8000fc8:	2301      	movs	r3, #1
 8000fca:	405a      	eors	r2, r3
			HAL_GPIO_WritePin(DIR_M3_GPIO_Port, DIR_M3_Pin, dir);
 8000fcc:	2180      	movs	r1, #128	@ 0x80
 8000fce:	4806      	ldr	r0, [pc, #24]	@ (8000fe8 <setMotorSpeedBidirectional+0x94>)
 8000fd0:	0109      	lsls	r1, r1, #4
 8000fd2:	f001 fdf5 	bl	8002bc0 <HAL_GPIO_WritePin>
			TIM1->CCR3 = sp;
 8000fd6:	4b05      	ldr	r3, [pc, #20]	@ (8000fec <setMotorSpeedBidirectional+0x98>)
 8000fd8:	63dc      	str	r4, [r3, #60]	@ 0x3c
}
 8000fda:	e7e2      	b.n	8000fa2 <setMotorSpeedBidirectional+0x4e>
	uint8_t sp = abs(speed);
 8000fdc:	2464      	movs	r4, #100	@ 0x64
		dir = TRUE;
 8000fde:	2201      	movs	r2, #1
 8000fe0:	e7d9      	b.n	8000f96 <setMotorSpeedBidirectional+0x42>
 8000fe2:	46c0      	nop			@ (mov r8, r8)
 8000fe4:	2000000a 	.word	0x2000000a
 8000fe8:	48000400 	.word	0x48000400
 8000fec:	40012c00 	.word	0x40012c00
 8000ff0:	2000000b 	.word	0x2000000b
 8000ff4:	20000220 	.word	0x20000220

08000ff8 <setMotorSpeedUnidirectional>:
void setMotorSpeedUnidirectional(uint8_t motorN, int8_t speed) {
 8000ff8:	b510      	push	{r4, lr}
	uint8_t sp = calculateSpeedWithDeadZoneSingle(speed);
 8000ffa:	b2cc      	uxtb	r4, r1
	if (speed > (50 - DEADZONE) && speed < (50 + DEADZONE)) returnValue = 50;	// central deadzone
 8000ffc:	0023      	movs	r3, r4
 8000ffe:	3b29      	subs	r3, #41	@ 0x29
 8001000:	2b12      	cmp	r3, #18
 8001002:	d915      	bls.n	8001030 <setMotorSpeedUnidirectional+0x38>
	if (speed < DEADZONE) returnValue = 0;	// lower deadzone
 8001004:	2c09      	cmp	r4, #9
 8001006:	d81d      	bhi.n	8001044 <setMotorSpeedUnidirectional+0x4c>
	uint8_t dir = m1Rev;
 8001008:	4b1c      	ldr	r3, [pc, #112]	@ (800107c <setMotorSpeedUnidirectional+0x84>)
	if (speed < DEADZONE) returnValue = 0;	// lower deadzone
 800100a:	2400      	movs	r4, #0
	uint8_t dir = m1Rev;
 800100c:	781a      	ldrb	r2, [r3, #0]
	switch (motorN) {
 800100e:	2801      	cmp	r0, #1
 8001010:	d113      	bne.n	800103a <setMotorSpeedUnidirectional+0x42>
			isRev = m2Rev;
 8001012:	4b1b      	ldr	r3, [pc, #108]	@ (8001080 <setMotorSpeedUnidirectional+0x88>)
	if (getMotorRev(motorN)) dir = !dir;	//check if the motor is reversed, if it is reverse the direction
 8001014:	781b      	ldrb	r3, [r3, #0]
 8001016:	2b00      	cmp	r3, #0
 8001018:	d002      	beq.n	8001020 <setMotorSpeedUnidirectional+0x28>
 800101a:	4253      	negs	r3, r2
 800101c:	415a      	adcs	r2, r3
 800101e:	b2d2      	uxtb	r2, r2
			HAL_GPIO_WritePin(DIR_M2_GPIO_Port, DIR_M2_Pin, dir);
 8001020:	2180      	movs	r1, #128	@ 0x80
 8001022:	4818      	ldr	r0, [pc, #96]	@ (8001084 <setMotorSpeedUnidirectional+0x8c>)
 8001024:	0189      	lsls	r1, r1, #6
 8001026:	f001 fdcb 	bl	8002bc0 <HAL_GPIO_WritePin>
			TIM1->CCR2 = sp;
 800102a:	4b17      	ldr	r3, [pc, #92]	@ (8001088 <setMotorSpeedUnidirectional+0x90>)
 800102c:	639c      	str	r4, [r3, #56]	@ 0x38
			break;
 800102e:	e008      	b.n	8001042 <setMotorSpeedUnidirectional+0x4a>
	if (speed > (50 - DEADZONE) && speed < (50 + DEADZONE)) returnValue = 50;	// central deadzone
 8001030:	2432      	movs	r4, #50	@ 0x32
	uint8_t dir = m1Rev;
 8001032:	4b12      	ldr	r3, [pc, #72]	@ (800107c <setMotorSpeedUnidirectional+0x84>)
 8001034:	781a      	ldrb	r2, [r3, #0]
	switch (motorN) {
 8001036:	2801      	cmp	r0, #1
 8001038:	d0eb      	beq.n	8001012 <setMotorSpeedUnidirectional+0x1a>
 800103a:	2802      	cmp	r0, #2
 800103c:	d00f      	beq.n	800105e <setMotorSpeedUnidirectional+0x66>
 800103e:	2800      	cmp	r0, #0
 8001040:	d004      	beq.n	800104c <setMotorSpeedUnidirectional+0x54>
}
 8001042:	bd10      	pop	{r4, pc}
	if (speed > 100 - DEADZONE) returnValue = 100;	// upper deadzone
 8001044:	2c5a      	cmp	r4, #90	@ 0x5a
 8001046:	d9f4      	bls.n	8001032 <setMotorSpeedUnidirectional+0x3a>
 8001048:	2464      	movs	r4, #100	@ 0x64
 800104a:	e7f2      	b.n	8001032 <setMotorSpeedUnidirectional+0x3a>
			HAL_GPIO_WritePin(DIR_M1_GPIO_Port, DIR_M1_Pin, dir);
 800104c:	2180      	movs	r1, #128	@ 0x80
 800104e:	2200      	movs	r2, #0
 8001050:	480c      	ldr	r0, [pc, #48]	@ (8001084 <setMotorSpeedUnidirectional+0x8c>)
 8001052:	0209      	lsls	r1, r1, #8
 8001054:	f001 fdb4 	bl	8002bc0 <HAL_GPIO_WritePin>
			TIM1->CCR1 = sp;
 8001058:	4b0b      	ldr	r3, [pc, #44]	@ (8001088 <setMotorSpeedUnidirectional+0x90>)
 800105a:	635c      	str	r4, [r3, #52]	@ 0x34
			break;
 800105c:	e7f1      	b.n	8001042 <setMotorSpeedUnidirectional+0x4a>
			isRev = m3Rev;
 800105e:	4b0b      	ldr	r3, [pc, #44]	@ (800108c <setMotorSpeedUnidirectional+0x94>)
	if (getMotorRev(motorN)) dir = !dir;	//check if the motor is reversed, if it is reverse the direction
 8001060:	781b      	ldrb	r3, [r3, #0]
 8001062:	2b00      	cmp	r3, #0
 8001064:	d002      	beq.n	800106c <setMotorSpeedUnidirectional+0x74>
 8001066:	4253      	negs	r3, r2
 8001068:	415a      	adcs	r2, r3
 800106a:	b2d2      	uxtb	r2, r2
			HAL_GPIO_WritePin(DIR_M3_GPIO_Port, DIR_M3_Pin, dir);
 800106c:	2180      	movs	r1, #128	@ 0x80
 800106e:	4805      	ldr	r0, [pc, #20]	@ (8001084 <setMotorSpeedUnidirectional+0x8c>)
 8001070:	0109      	lsls	r1, r1, #4
 8001072:	f001 fda5 	bl	8002bc0 <HAL_GPIO_WritePin>
			TIM1->CCR3 = sp;
 8001076:	4b04      	ldr	r3, [pc, #16]	@ (8001088 <setMotorSpeedUnidirectional+0x90>)
 8001078:	63dc      	str	r4, [r3, #60]	@ 0x3c
}
 800107a:	e7e2      	b.n	8001042 <setMotorSpeedUnidirectional+0x4a>
 800107c:	2000000b 	.word	0x2000000b
 8001080:	2000000a 	.word	0x2000000a
 8001084:	48000400 	.word	0x48000400
 8001088:	40012c00 	.word	0x40012c00
 800108c:	20000220 	.word	0x20000220

08001090 <calculateSpeedWithDeadZoneDouble>:
uint8_t calculateSpeedWithDeadZoneDouble(uint8_t speed) {
 8001090:	0003      	movs	r3, r0
	if (speed < DEADZONE) returnValue = 0;	// lower deadzone
 8001092:	2000      	movs	r0, #0
 8001094:	2b09      	cmp	r3, #9
 8001096:	d902      	bls.n	800109e <calculateSpeedWithDeadZoneDouble+0xe>
	if (speed > 100 - DEADZONE) returnValue = 100;	// upper deadzone
 8001098:	0018      	movs	r0, r3
 800109a:	2b5a      	cmp	r3, #90	@ 0x5a
 800109c:	d800      	bhi.n	80010a0 <calculateSpeedWithDeadZoneDouble+0x10>
	return returnValue;
}
 800109e:	4770      	bx	lr
	if (speed > 100 - DEADZONE) returnValue = 100;	// upper deadzone
 80010a0:	2064      	movs	r0, #100	@ 0x64
 80010a2:	e7fc      	b.n	800109e <calculateSpeedWithDeadZoneDouble+0xe>

080010a4 <makeSound>:
/*	This is a blocking function that causes the motors to beep,
 *  keeping the duration as short as possible.
 * @duration:
 *
 */
void makeSound(uint8_t motorN, uint8_t duration) {
 80010a4:	b5f8      	push	{r3, r4, r5, r6, r7, lr}
 80010a6:	0004      	movs	r4, r0
 80010a8:	000d      	movs	r5, r1
	uint32_t time = HAL_GetTick();
 80010aa:	f001 f9d5 	bl	8002458 <HAL_GetTick>
 80010ae:	0006      	movs	r6, r0
			break;
	}
}

void enableMotor(uint8_t motorN) {
	switch (motorN) {
 80010b0:	2c01      	cmp	r4, #1
 80010b2:	d026      	beq.n	8001102 <makeSound+0x5e>
 80010b4:	2c02      	cmp	r4, #2
 80010b6:	d047      	beq.n	8001148 <makeSound+0xa4>
 80010b8:	2c00      	cmp	r4, #0
 80010ba:	d03e      	beq.n	800113a <makeSound+0x96>
				TIM1->CCR2 = 2;
 80010bc:	2702      	movs	r7, #2
	while (HAL_GetTick() <= time + duration) {
 80010be:	19ad      	adds	r5, r5, r6
				TIM1->CCR2 = 2;
 80010c0:	4e25      	ldr	r6, [pc, #148]	@ (8001158 <makeSound+0xb4>)
	while (HAL_GetTick() <= time + duration) {
 80010c2:	f001 f9c9 	bl	8002458 <HAL_GetTick>
 80010c6:	42a8      	cmp	r0, r5
 80010c8:	d808      	bhi.n	80010dc <makeSound+0x38>
		switch (motorN) {
 80010ca:	2c01      	cmp	r4, #1
 80010cc:	d017      	beq.n	80010fe <makeSound+0x5a>
 80010ce:	2c02      	cmp	r4, #2
 80010d0:	d10b      	bne.n	80010ea <makeSound+0x46>
				TIM1->CCR3 = 2;
 80010d2:	63f4      	str	r4, [r6, #60]	@ 0x3c
	while (HAL_GetTick() <= time + duration) {
 80010d4:	f001 f9c0 	bl	8002458 <HAL_GetTick>
 80010d8:	42a8      	cmp	r0, r5
 80010da:	d9f6      	bls.n	80010ca <makeSound+0x26>
	switch (motorN) {
 80010dc:	2c01      	cmp	r4, #1
 80010de:	d025      	beq.n	800112c <makeSound+0x88>
 80010e0:	2c02      	cmp	r4, #2
 80010e2:	d01c      	beq.n	800111e <makeSound+0x7a>
 80010e4:	2c00      	cmp	r4, #0
 80010e6:	d013      	beq.n	8001110 <makeSound+0x6c>
}
 80010e8:	bdf8      	pop	{r3, r4, r5, r6, r7, pc}
		switch (motorN) {
 80010ea:	2c00      	cmp	r4, #0
 80010ec:	d005      	beq.n	80010fa <makeSound+0x56>
	while (HAL_GetTick() <= time + duration) {
 80010ee:	f001 f9b3 	bl	8002458 <HAL_GetTick>
 80010f2:	42a8      	cmp	r0, r5
 80010f4:	d8f2      	bhi.n	80010dc <makeSound+0x38>
		switch (motorN) {
 80010f6:	2c00      	cmp	r4, #0
 80010f8:	d1f9      	bne.n	80010ee <makeSound+0x4a>
				TIM1->CCR1 = 2;
 80010fa:	6377      	str	r7, [r6, #52]	@ 0x34
				break;
 80010fc:	e7e1      	b.n	80010c2 <makeSound+0x1e>
				TIM1->CCR2 = 2;
 80010fe:	63b7      	str	r7, [r6, #56]	@ 0x38
				break;
 8001100:	e7df      	b.n	80010c2 <makeSound+0x1e>
		case M1:
			HAL_GPIO_WritePin(SLEEPN_M1_GPIO_Port, SLEEPN_M1_Pin, TRUE);
			break;
		case M2:
			HAL_GPIO_WritePin(SLEEPN_M2_GPIO_Port, SLEEPN_M2_Pin, TRUE);
 8001102:	2180      	movs	r1, #128	@ 0x80
 8001104:	2201      	movs	r2, #1
 8001106:	4815      	ldr	r0, [pc, #84]	@ (800115c <makeSound+0xb8>)
 8001108:	0149      	lsls	r1, r1, #5
 800110a:	f001 fd59 	bl	8002bc0 <HAL_GPIO_WritePin>
			break;
 800110e:	e7d5      	b.n	80010bc <makeSound+0x18>
			HAL_GPIO_WritePin(SLEEPN_M1_GPIO_Port, SLEEPN_M1_Pin, FALSE);
 8001110:	2180      	movs	r1, #128	@ 0x80
 8001112:	2200      	movs	r2, #0
 8001114:	4811      	ldr	r0, [pc, #68]	@ (800115c <makeSound+0xb8>)
 8001116:	01c9      	lsls	r1, r1, #7
 8001118:	f001 fd52 	bl	8002bc0 <HAL_GPIO_WritePin>
}
 800111c:	e7e4      	b.n	80010e8 <makeSound+0x44>
			HAL_GPIO_WritePin(SLEEPN_M3_GPIO_Port, SLEEPN_M3_Pin, FALSE);
 800111e:	2180      	movs	r1, #128	@ 0x80
 8001120:	2200      	movs	r2, #0
 8001122:	480e      	ldr	r0, [pc, #56]	@ (800115c <makeSound+0xb8>)
 8001124:	00c9      	lsls	r1, r1, #3
 8001126:	f001 fd4b 	bl	8002bc0 <HAL_GPIO_WritePin>
}
 800112a:	e7dd      	b.n	80010e8 <makeSound+0x44>
			HAL_GPIO_WritePin(SLEEPN_M2_GPIO_Port, SLEEPN_M2_Pin, FALSE);
 800112c:	2180      	movs	r1, #128	@ 0x80
 800112e:	2200      	movs	r2, #0
 8001130:	480a      	ldr	r0, [pc, #40]	@ (800115c <makeSound+0xb8>)
 8001132:	0149      	lsls	r1, r1, #5
 8001134:	f001 fd44 	bl	8002bc0 <HAL_GPIO_WritePin>
			break;
 8001138:	e7d6      	b.n	80010e8 <makeSound+0x44>
			HAL_GPIO_WritePin(SLEEPN_M1_GPIO_Port, SLEEPN_M1_Pin, TRUE);
 800113a:	2180      	movs	r1, #128	@ 0x80
 800113c:	2201      	movs	r2, #1
 800113e:	4807      	ldr	r0, [pc, #28]	@ (800115c <makeSound+0xb8>)
 8001140:	01c9      	lsls	r1, r1, #7
 8001142:	f001 fd3d 	bl	8002bc0 <HAL_GPIO_WritePin>
		case M3:
			HAL_GPIO_WritePin(SLEEPN_M3_GPIO_Port, SLEEPN_M3_Pin, TRUE);
			break;
	}
}
 8001146:	e7b9      	b.n	80010bc <makeSound+0x18>
			HAL_GPIO_WritePin(SLEEPN_M3_GPIO_Port, SLEEPN_M3_Pin, TRUE);
 8001148:	2180      	movs	r1, #128	@ 0x80
 800114a:	2201      	movs	r2, #1
 800114c:	4803      	ldr	r0, [pc, #12]	@ (800115c <makeSound+0xb8>)
 800114e:	00c9      	lsls	r1, r1, #3
 8001150:	f001 fd36 	bl	8002bc0 <HAL_GPIO_WritePin>
			break;
 8001154:	e7b2      	b.n	80010bc <makeSound+0x18>
 8001156:	46c0      	nop			@ (mov r8, r8)
 8001158:	40012c00 	.word	0x40012c00
 800115c:	48000400 	.word	0x48000400

08001160 <disableMotor>:
void disableMotor(uint8_t motorN) {
 8001160:	b510      	push	{r4, lr}
	switch (motorN) {
 8001162:	2801      	cmp	r0, #1
 8001164:	d004      	beq.n	8001170 <disableMotor+0x10>
 8001166:	2802      	cmp	r0, #2
 8001168:	d010      	beq.n	800118c <disableMotor+0x2c>
 800116a:	2800      	cmp	r0, #0
 800116c:	d007      	beq.n	800117e <disableMotor+0x1e>
}
 800116e:	bd10      	pop	{r4, pc}
			HAL_GPIO_WritePin(SLEEPN_M2_GPIO_Port, SLEEPN_M2_Pin, FALSE);
 8001170:	2180      	movs	r1, #128	@ 0x80
 8001172:	2200      	movs	r2, #0
 8001174:	4809      	ldr	r0, [pc, #36]	@ (800119c <disableMotor+0x3c>)
 8001176:	0149      	lsls	r1, r1, #5
 8001178:	f001 fd22 	bl	8002bc0 <HAL_GPIO_WritePin>
			break;
 800117c:	e7f7      	b.n	800116e <disableMotor+0xe>
			HAL_GPIO_WritePin(SLEEPN_M1_GPIO_Port, SLEEPN_M1_Pin, FALSE);
 800117e:	2180      	movs	r1, #128	@ 0x80
 8001180:	2200      	movs	r2, #0
 8001182:	4806      	ldr	r0, [pc, #24]	@ (800119c <disableMotor+0x3c>)
 8001184:	01c9      	lsls	r1, r1, #7
 8001186:	f001 fd1b 	bl	8002bc0 <HAL_GPIO_WritePin>
}
 800118a:	e7f0      	b.n	800116e <disableMotor+0xe>
			HAL_GPIO_WritePin(SLEEPN_M3_GPIO_Port, SLEEPN_M3_Pin, FALSE);
 800118c:	2180      	movs	r1, #128	@ 0x80
 800118e:	2200      	movs	r2, #0
 8001190:	4802      	ldr	r0, [pc, #8]	@ (800119c <disableMotor+0x3c>)
 8001192:	00c9      	lsls	r1, r1, #3
 8001194:	f001 fd14 	bl	8002bc0 <HAL_GPIO_WritePin>
}
 8001198:	e7e9      	b.n	800116e <disableMotor+0xe>
 800119a:	46c0      	nop			@ (mov r8, r8)
 800119c:	48000400 	.word	0x48000400

080011a0 <enableMotor>:
void enableMotor(uint8_t motorN) {
 80011a0:	b510      	push	{r4, lr}
	switch (motorN) {
 80011a2:	2801      	cmp	r0, #1
 80011a4:	d004      	beq.n	80011b0 <enableMotor+0x10>
 80011a6:	2802      	cmp	r0, #2
 80011a8:	d010      	beq.n	80011cc <enableMotor+0x2c>
 80011aa:	2800      	cmp	r0, #0
 80011ac:	d007      	beq.n	80011be <enableMotor+0x1e>
}
 80011ae:	bd10      	pop	{r4, pc}
			HAL_GPIO_WritePin(SLEEPN_M2_GPIO_Port, SLEEPN_M2_Pin, TRUE);
 80011b0:	2180      	movs	r1, #128	@ 0x80
 80011b2:	2201      	movs	r2, #1
 80011b4:	4809      	ldr	r0, [pc, #36]	@ (80011dc <enableMotor+0x3c>)
 80011b6:	0149      	lsls	r1, r1, #5
 80011b8:	f001 fd02 	bl	8002bc0 <HAL_GPIO_WritePin>
			break;
 80011bc:	e7f7      	b.n	80011ae <enableMotor+0xe>
			HAL_GPIO_WritePin(SLEEPN_M1_GPIO_Port, SLEEPN_M1_Pin, TRUE);
 80011be:	2180      	movs	r1, #128	@ 0x80
 80011c0:	2201      	movs	r2, #1
 80011c2:	4806      	ldr	r0, [pc, #24]	@ (80011dc <enableMotor+0x3c>)
 80011c4:	01c9      	lsls	r1, r1, #7
 80011c6:	f001 fcfb 	bl	8002bc0 <HAL_GPIO_WritePin>
}
 80011ca:	e7f0      	b.n	80011ae <enableMotor+0xe>
			HAL_GPIO_WritePin(SLEEPN_M3_GPIO_Port, SLEEPN_M3_Pin, TRUE);
 80011cc:	2180      	movs	r1, #128	@ 0x80
 80011ce:	2201      	movs	r2, #1
 80011d0:	4802      	ldr	r0, [pc, #8]	@ (80011dc <enableMotor+0x3c>)
 80011d2:	00c9      	lsls	r1, r1, #3
 80011d4:	f001 fcf4 	bl	8002bc0 <HAL_GPIO_WritePin>
}
 80011d8:	e7e9      	b.n	80011ae <enableMotor+0xe>
 80011da:	46c0      	nop			@ (mov r8, r8)
 80011dc:	48000400 	.word	0x48000400

080011e0 <getChannelValuePercentage>:
//		}
//	}
//}

uint8_t getChannelValuePercentage(uint8_t channelNumber) {
	int temp = (reciever_channels[channelNumber] - 1000) / 10;
 80011e0:	4b09      	ldr	r3, [pc, #36]	@ (8001208 <getChannelValuePercentage+0x28>)
 80011e2:	0040      	lsls	r0, r0, #1
 80011e4:	5ac3      	ldrh	r3, [r0, r3]
	if (temp > 100) temp = 100;
 80011e6:	4a09      	ldr	r2, [pc, #36]	@ (800120c <getChannelValuePercentage+0x2c>)
 80011e8:	2064      	movs	r0, #100	@ 0x64
uint8_t getChannelValuePercentage(uint8_t channelNumber) {
 80011ea:	b510      	push	{r4, lr}
	if (temp > 100) temp = 100;
 80011ec:	4293      	cmp	r3, r2
 80011ee:	d803      	bhi.n	80011f8 <getChannelValuePercentage+0x18>
	if (temp < 0) temp = 0;
 80011f0:	4a07      	ldr	r2, [pc, #28]	@ (8001210 <getChannelValuePercentage+0x30>)
 80011f2:	2000      	movs	r0, #0
 80011f4:	4293      	cmp	r3, r2
 80011f6:	d800      	bhi.n	80011fa <getChannelValuePercentage+0x1a>
	return temp;
}
 80011f8:	bd10      	pop	{r4, pc}
	int temp = (reciever_channels[channelNumber] - 1000) / 10;
 80011fa:	4a06      	ldr	r2, [pc, #24]	@ (8001214 <getChannelValuePercentage+0x34>)
 80011fc:	210a      	movs	r1, #10
 80011fe:	1898      	adds	r0, r3, r2
 8001200:	f7ff f81e 	bl	8000240 <__divsi3>
	return temp;
 8001204:	b2c0      	uxtb	r0, r0
 8001206:	e7f7      	b.n	80011f8 <getChannelValuePercentage+0x18>
 8001208:	200003e8 	.word	0x200003e8
 800120c:	000007d9 	.word	0x000007d9
 8001210:	000003de 	.word	0x000003de
 8001214:	fffffc18 	.word	0xfffffc18

08001218 <initReciever>:

//void initRecieverPPM(TIM_HandleTypeDef *htim) {
//	HAL_TIM_IC_Start_IT(htim, TIM_CHANNEL_3);
//}

void initReciever(TIM_HandleTypeDef *htim) {
 8001218:	b510      	push	{r4, lr}
	HAL_TIM_Base_Start(htim);
 800121a:	f003 ff8d 	bl	8005138 <HAL_TIM_Base_Start>
}
 800121e:	bd10      	pop	{r4, pc}

08001220 <HAL_GPIO_EXTI_Callback>:

uint8_t aligned = 0;

void HAL_GPIO_EXTI_Callback(uint16_t GPIO_Pin) {
	if (recieverIsPWM) {
 8001220:	4b4d      	ldr	r3, [pc, #308]	@ (8001358 <HAL_GPIO_EXTI_Callback+0x138>)
void HAL_GPIO_EXTI_Callback(uint16_t GPIO_Pin) {
 8001222:	b570      	push	{r4, r5, r6, lr}
	if (recieverIsPWM) {
 8001224:	681b      	ldr	r3, [r3, #0]
void HAL_GPIO_EXTI_Callback(uint16_t GPIO_Pin) {
 8001226:	0004      	movs	r4, r0
	if (recieverIsPWM) {
 8001228:	2b00      	cmp	r3, #0
 800122a:	d014      	beq.n	8001256 <HAL_GPIO_EXTI_Callback+0x36>
		// channel 1
		if (GPIO_Pin == CH1_Pin) {
 800122c:	2801      	cmp	r0, #1
 800122e:	d042      	beq.n	80012b6 <HAL_GPIO_EXTI_Callback+0x96>
			} else {	// falling edge
				usWidth = __HAL_TIM_GET_COUNTER(&htim6);
				reciever_channels[1] = usWidth;
			}
		}
		if (aligned) {
 8001230:	4b4a      	ldr	r3, [pc, #296]	@ (800135c <HAL_GPIO_EXTI_Callback+0x13c>)
 8001232:	781b      	ldrb	r3, [r3, #0]
 8001234:	2b00      	cmp	r3, #0
 8001236:	d02d      	beq.n	8001294 <HAL_GPIO_EXTI_Callback+0x74>
			// channel 2 (only falling, because it starts with ch1)
			if (GPIO_Pin == CH2_Pin) {
 8001238:	2802      	cmp	r0, #2
 800123a:	d054      	beq.n	80012e6 <HAL_GPIO_EXTI_Callback+0xc6>
				usWidth = __HAL_TIM_GET_COUNTER(&htim6);
				reciever_channels[2] = usWidth;
			}
			// channel 3 (only falling, because it starts with ch1)
			if (GPIO_Pin == CH3_Pin) {
 800123c:	2804      	cmp	r0, #4
 800123e:	d049      	beq.n	80012d4 <HAL_GPIO_EXTI_Callback+0xb4>
				usWidth = __HAL_TIM_GET_COUNTER(&htim6);
				reciever_channels[3] = usWidth;
			}
			// channel 4 (only falling, because it starts with ch1)
			if (GPIO_Pin == CH4_Pin) {
 8001240:	2808      	cmp	r0, #8
 8001242:	d107      	bne.n	8001254 <HAL_GPIO_EXTI_Callback+0x34>
				usWidth = __HAL_TIM_GET_COUNTER(&htim6);
 8001244:	4b46      	ldr	r3, [pc, #280]	@ (8001360 <HAL_GPIO_EXTI_Callback+0x140>)
 8001246:	4a47      	ldr	r2, [pc, #284]	@ (8001364 <HAL_GPIO_EXTI_Callback+0x144>)
 8001248:	681b      	ldr	r3, [r3, #0]
 800124a:	6a5b      	ldr	r3, [r3, #36]	@ 0x24
 800124c:	b29b      	uxth	r3, r3
 800124e:	8013      	strh	r3, [r2, #0]
				reciever_channels[4] = usWidth;
 8001250:	4a45      	ldr	r2, [pc, #276]	@ (8001368 <HAL_GPIO_EXTI_Callback+0x148>)
 8001252:	8113      	strh	r3, [r2, #8]
					}
				}
			}
		}
	}
}
 8001254:	bd70      	pop	{r4, r5, r6, pc}
		if (GPIO_Pin == CH1_Pin) {
 8001256:	2801      	cmp	r0, #1
 8001258:	d1fc      	bne.n	8001254 <HAL_GPIO_EXTI_Callback+0x34>
			if (HAL_GPIO_ReadPin(CH1_GPIO_Port, CH1_Pin) == 0) {
 800125a:	2101      	movs	r1, #1
 800125c:	4843      	ldr	r0, [pc, #268]	@ (800136c <HAL_GPIO_EXTI_Callback+0x14c>)
 800125e:	f001 fca9 	bl	8002bb4 <HAL_GPIO_ReadPin>
 8001262:	2800      	cmp	r0, #0
 8001264:	d1f6      	bne.n	8001254 <HAL_GPIO_EXTI_Callback+0x34>
				usWidth = __HAL_TIM_GET_COUNTER(&htim6);
 8001266:	4b3e      	ldr	r3, [pc, #248]	@ (8001360 <HAL_GPIO_EXTI_Callback+0x140>)
 8001268:	493e      	ldr	r1, [pc, #248]	@ (8001364 <HAL_GPIO_EXTI_Callback+0x144>)
 800126a:	681a      	ldr	r2, [r3, #0]
 800126c:	6a53      	ldr	r3, [r2, #36]	@ 0x24
				__HAL_TIM_SET_COUNTER(&htim6, 0);  // reset the counter
 800126e:	6250      	str	r0, [r2, #36]	@ 0x24
				if (usWidth > 4500) { // if the separation pulse found, the next pulse is ch1
 8001270:	4a3f      	ldr	r2, [pc, #252]	@ (8001370 <HAL_GPIO_EXTI_Callback+0x150>)
				usWidth = __HAL_TIM_GET_COUNTER(&htim6);
 8001272:	b29b      	uxth	r3, r3
 8001274:	800b      	strh	r3, [r1, #0]
				if (usWidth > 4500) { // if the separation pulse found, the next pulse is ch1
 8001276:	4293      	cmp	r3, r2
 8001278:	d85a      	bhi.n	8001330 <HAL_GPIO_EXTI_Callback+0x110>
					if (channelToRead != 0) {
 800127a:	493e      	ldr	r1, [pc, #248]	@ (8001374 <HAL_GPIO_EXTI_Callback+0x154>)
 800127c:	780a      	ldrb	r2, [r1, #0]
 800127e:	2a00      	cmp	r2, #0
 8001280:	d0e8      	beq.n	8001254 <HAL_GPIO_EXTI_Callback+0x34>
						reciever_channels[channelToRead] = usWidth;	// store the current channel width
 8001282:	0055      	lsls	r5, r2, #1
 8001284:	4c38      	ldr	r4, [pc, #224]	@ (8001368 <HAL_GPIO_EXTI_Callback+0x148>)
						channelToRead++;
 8001286:	3201      	adds	r2, #1
 8001288:	b2d2      	uxtb	r2, r2
						reciever_channels[channelToRead] = usWidth;	// store the current channel width
 800128a:	532b      	strh	r3, [r5, r4]
						if (channelToRead > NUMBER_OF_PPM_CHANNEL) {
 800128c:	2a08      	cmp	r2, #8
 800128e:	d860      	bhi.n	8001352 <HAL_GPIO_EXTI_Callback+0x132>
						channelToRead++;
 8001290:	700a      	strb	r2, [r1, #0]
 8001292:	e7df      	b.n	8001254 <HAL_GPIO_EXTI_Callback+0x34>
			if (GPIO_Pin == CH2_Pin) {
 8001294:	2802      	cmp	r0, #2
 8001296:	d040      	beq.n	800131a <HAL_GPIO_EXTI_Callback+0xfa>
			if (GPIO_Pin == CH3_Pin) {
 8001298:	2804      	cmp	r0, #4
 800129a:	d12d      	bne.n	80012f8 <HAL_GPIO_EXTI_Callback+0xd8>
				usWidth = __HAL_TIM_GET_COUNTER(&htim6);
 800129c:	4b30      	ldr	r3, [pc, #192]	@ (8001360 <HAL_GPIO_EXTI_Callback+0x140>)
 800129e:	4a31      	ldr	r2, [pc, #196]	@ (8001364 <HAL_GPIO_EXTI_Callback+0x144>)
 80012a0:	681b      	ldr	r3, [r3, #0]
 80012a2:	6a5b      	ldr	r3, [r3, #36]	@ 0x24
 80012a4:	b29b      	uxth	r3, r3
 80012a6:	8013      	strh	r3, [r2, #0]
				reciever_channels[3] = usWidth - (reciever_channels[1] + reciever_channels[2]);
 80012a8:	4a2f      	ldr	r2, [pc, #188]	@ (8001368 <HAL_GPIO_EXTI_Callback+0x148>)
 80012aa:	8851      	ldrh	r1, [r2, #2]
 80012ac:	8890      	ldrh	r0, [r2, #4]
 80012ae:	1809      	adds	r1, r1, r0
 80012b0:	1a5b      	subs	r3, r3, r1
 80012b2:	80d3      	strh	r3, [r2, #6]
			if (GPIO_Pin == CH4_Pin) {
 80012b4:	e7ce      	b.n	8001254 <HAL_GPIO_EXTI_Callback+0x34>
			if (HAL_GPIO_ReadPin(CH1_GPIO_Port, CH1_Pin) == 1) {	// rising edge
 80012b6:	2101      	movs	r1, #1
 80012b8:	482c      	ldr	r0, [pc, #176]	@ (800136c <HAL_GPIO_EXTI_Callback+0x14c>)
 80012ba:	f001 fc7b 	bl	8002bb4 <HAL_GPIO_ReadPin>
 80012be:	2801      	cmp	r0, #1
 80012c0:	d03b      	beq.n	800133a <HAL_GPIO_EXTI_Callback+0x11a>
				usWidth = __HAL_TIM_GET_COUNTER(&htim6);
 80012c2:	4b27      	ldr	r3, [pc, #156]	@ (8001360 <HAL_GPIO_EXTI_Callback+0x140>)
 80012c4:	4a27      	ldr	r2, [pc, #156]	@ (8001364 <HAL_GPIO_EXTI_Callback+0x144>)
 80012c6:	681b      	ldr	r3, [r3, #0]
 80012c8:	6a5b      	ldr	r3, [r3, #36]	@ 0x24
 80012ca:	b29b      	uxth	r3, r3
 80012cc:	8013      	strh	r3, [r2, #0]
				reciever_channels[1] = usWidth;
 80012ce:	4a26      	ldr	r2, [pc, #152]	@ (8001368 <HAL_GPIO_EXTI_Callback+0x148>)
 80012d0:	8053      	strh	r3, [r2, #2]
		if (aligned) {
 80012d2:	e7bf      	b.n	8001254 <HAL_GPIO_EXTI_Callback+0x34>
				usWidth = __HAL_TIM_GET_COUNTER(&htim6);
 80012d4:	4b22      	ldr	r3, [pc, #136]	@ (8001360 <HAL_GPIO_EXTI_Callback+0x140>)
 80012d6:	4a23      	ldr	r2, [pc, #140]	@ (8001364 <HAL_GPIO_EXTI_Callback+0x144>)
 80012d8:	681b      	ldr	r3, [r3, #0]
 80012da:	6a5b      	ldr	r3, [r3, #36]	@ 0x24
 80012dc:	b29b      	uxth	r3, r3
 80012de:	8013      	strh	r3, [r2, #0]
				reciever_channels[3] = usWidth;
 80012e0:	4a21      	ldr	r2, [pc, #132]	@ (8001368 <HAL_GPIO_EXTI_Callback+0x148>)
 80012e2:	80d3      	strh	r3, [r2, #6]
			if (GPIO_Pin == CH4_Pin) {
 80012e4:	e7b6      	b.n	8001254 <HAL_GPIO_EXTI_Callback+0x34>
				usWidth = __HAL_TIM_GET_COUNTER(&htim6);
 80012e6:	4b1e      	ldr	r3, [pc, #120]	@ (8001360 <HAL_GPIO_EXTI_Callback+0x140>)
 80012e8:	4a1e      	ldr	r2, [pc, #120]	@ (8001364 <HAL_GPIO_EXTI_Callback+0x144>)
 80012ea:	681b      	ldr	r3, [r3, #0]
 80012ec:	6a5b      	ldr	r3, [r3, #36]	@ 0x24
 80012ee:	b29b      	uxth	r3, r3
 80012f0:	8013      	strh	r3, [r2, #0]
				reciever_channels[2] = usWidth;
 80012f2:	4a1d      	ldr	r2, [pc, #116]	@ (8001368 <HAL_GPIO_EXTI_Callback+0x148>)
 80012f4:	8093      	strh	r3, [r2, #4]
			if (GPIO_Pin == CH4_Pin) {
 80012f6:	e7ad      	b.n	8001254 <HAL_GPIO_EXTI_Callback+0x34>
			if (GPIO_Pin == CH4_Pin) {
 80012f8:	2808      	cmp	r0, #8
 80012fa:	d1ab      	bne.n	8001254 <HAL_GPIO_EXTI_Callback+0x34>
				usWidth = __HAL_TIM_GET_COUNTER(&htim6);
 80012fc:	4b18      	ldr	r3, [pc, #96]	@ (8001360 <HAL_GPIO_EXTI_Callback+0x140>)
 80012fe:	4a19      	ldr	r2, [pc, #100]	@ (8001364 <HAL_GPIO_EXTI_Callback+0x144>)
 8001300:	681b      	ldr	r3, [r3, #0]
				reciever_channels[4] = usWidth - (reciever_channels[1] + reciever_channels[2] + reciever_channels[3]);
 8001302:	4919      	ldr	r1, [pc, #100]	@ (8001368 <HAL_GPIO_EXTI_Callback+0x148>)
				usWidth = __HAL_TIM_GET_COUNTER(&htim6);
 8001304:	6a5b      	ldr	r3, [r3, #36]	@ 0x24
 8001306:	b29b      	uxth	r3, r3
 8001308:	8013      	strh	r3, [r2, #0]
				reciever_channels[4] = usWidth - (reciever_channels[1] + reciever_channels[2] + reciever_channels[3]);
 800130a:	8888      	ldrh	r0, [r1, #4]
 800130c:	884a      	ldrh	r2, [r1, #2]
 800130e:	1812      	adds	r2, r2, r0
 8001310:	88c8      	ldrh	r0, [r1, #6]
 8001312:	1812      	adds	r2, r2, r0
 8001314:	1a9b      	subs	r3, r3, r2
 8001316:	810b      	strh	r3, [r1, #8]
 8001318:	e79c      	b.n	8001254 <HAL_GPIO_EXTI_Callback+0x34>
				usWidth = __HAL_TIM_GET_COUNTER(&htim6);
 800131a:	4b11      	ldr	r3, [pc, #68]	@ (8001360 <HAL_GPIO_EXTI_Callback+0x140>)
 800131c:	4a11      	ldr	r2, [pc, #68]	@ (8001364 <HAL_GPIO_EXTI_Callback+0x144>)
 800131e:	681b      	ldr	r3, [r3, #0]
 8001320:	6a5b      	ldr	r3, [r3, #36]	@ 0x24
 8001322:	b29b      	uxth	r3, r3
 8001324:	8013      	strh	r3, [r2, #0]
				reciever_channels[2] = usWidth - (reciever_channels[1]);
 8001326:	4a10      	ldr	r2, [pc, #64]	@ (8001368 <HAL_GPIO_EXTI_Callback+0x148>)
 8001328:	8851      	ldrh	r1, [r2, #2]
 800132a:	1a5b      	subs	r3, r3, r1
 800132c:	8093      	strh	r3, [r2, #4]
			if (GPIO_Pin == CH4_Pin) {
 800132e:	e791      	b.n	8001254 <HAL_GPIO_EXTI_Callback+0x34>
					reciever_channels[0] = usWidth;	// store the separation pulse width
 8001330:	4a0d      	ldr	r2, [pc, #52]	@ (8001368 <HAL_GPIO_EXTI_Callback+0x148>)
 8001332:	8013      	strh	r3, [r2, #0]
					channelToRead = 1;	// next channel is ch1
 8001334:	4b0f      	ldr	r3, [pc, #60]	@ (8001374 <HAL_GPIO_EXTI_Callback+0x154>)
 8001336:	701c      	strb	r4, [r3, #0]
 8001338:	e78c      	b.n	8001254 <HAL_GPIO_EXTI_Callback+0x34>
				aligned = 0;
 800133a:	2300      	movs	r3, #0
				__HAL_TIM_SET_COUNTER(&htim6, 0);
 800133c:	4a08      	ldr	r2, [pc, #32]	@ (8001360 <HAL_GPIO_EXTI_Callback+0x140>)
				aligned = 0;
 800133e:	4c07      	ldr	r4, [pc, #28]	@ (800135c <HAL_GPIO_EXTI_Callback+0x13c>)
				__HAL_TIM_SET_COUNTER(&htim6, 0);
 8001340:	6812      	ldr	r2, [r2, #0]
				aligned = HAL_GPIO_ReadPin(CH2_GPIO_Port, CH2_Pin);	// if the second channel are high means that all the channels are aligned
 8001342:	2102      	movs	r1, #2
 8001344:	4809      	ldr	r0, [pc, #36]	@ (800136c <HAL_GPIO_EXTI_Callback+0x14c>)
				__HAL_TIM_SET_COUNTER(&htim6, 0);
 8001346:	6253      	str	r3, [r2, #36]	@ 0x24
				aligned = 0;
 8001348:	7023      	strb	r3, [r4, #0]
				aligned = HAL_GPIO_ReadPin(CH2_GPIO_Port, CH2_Pin);	// if the second channel are high means that all the channels are aligned
 800134a:	f001 fc33 	bl	8002bb4 <HAL_GPIO_ReadPin>
 800134e:	7020      	strb	r0, [r4, #0]
		if (aligned) {
 8001350:	e780      	b.n	8001254 <HAL_GPIO_EXTI_Callback+0x34>
							channelToRead = 0;
 8001352:	7008      	strb	r0, [r1, #0]
}
 8001354:	e77e      	b.n	8001254 <HAL_GPIO_EXTI_Callback+0x34>
 8001356:	46c0      	nop			@ (mov r8, r8)
 8001358:	20000000 	.word	0x20000000
 800135c:	200003e4 	.word	0x200003e4
 8001360:	200002c0 	.word	0x200002c0
 8001364:	200003fa 	.word	0x200003fa
 8001368:	200003e8 	.word	0x200003e8
 800136c:	48000400 	.word	0x48000400
 8001370:	00001194 	.word	0x00001194
 8001374:	20000012 	.word	0x20000012

08001378 <tankMix>:

TankMotors tankMix(uint8_t STchannel, uint8_t THchannel) {
 8001378:	b510      	push	{r4, lr}
	TankMotors t;
	int8_t st = (STchannel - 50) * 2;
	int8_t th = (THchannel - 50) * 2;
 800137a:	3932      	subs	r1, #50	@ 0x32
	int8_t st = (STchannel - 50) * 2;
 800137c:	3832      	subs	r0, #50	@ 0x32
	int8_t th = (THchannel - 50) * 2;
 800137e:	0049      	lsls	r1, r1, #1
	int8_t st = (STchannel - 50) * 2;
 8001380:	0040      	lsls	r0, r0, #1
	int16_t ml = th + st;	// mixing
 8001382:	b249      	sxtb	r1, r1
 8001384:	b240      	sxtb	r0, r0
TankMotors tankMix(uint8_t STchannel, uint8_t THchannel) {
 8001386:	b082      	sub	sp, #8
	int16_t ml = th + st;	// mixing
 8001388:	180c      	adds	r4, r1, r0
	if (ml < -100) ml = -100;
	if (mr > 100) mr = 100;
	if (mr < -100) mr = -100;
	t.speedL = (ml + 100) / 2;	// keep value inside 0 and 100
	t.speedR = (mr + 100) / 2;
	return t;
 800138a:	aa01      	add	r2, sp, #4
	if (ml < -100) ml = -100;
 800138c:	1c23      	adds	r3, r4, #0
 800138e:	3464      	adds	r4, #100	@ 0x64
 8001390:	da01      	bge.n	8001396 <tankMix+0x1e>
 8001392:	2364      	movs	r3, #100	@ 0x64
 8001394:	425b      	negs	r3, r3
	t.speedL = (ml + 100) / 2;	// keep value inside 0 and 100
 8001396:	b21c      	sxth	r4, r3
 8001398:	2c64      	cmp	r4, #100	@ 0x64
 800139a:	dd00      	ble.n	800139e <tankMix+0x26>
 800139c:	2364      	movs	r3, #100	@ 0x64
 800139e:	3364      	adds	r3, #100	@ 0x64
 80013a0:	b21b      	sxth	r3, r3
 80013a2:	105b      	asrs	r3, r3, #1
	int16_t mr = th - st;	// mixing
 80013a4:	1a09      	subs	r1, r1, r0
	return t;
 80013a6:	7013      	strb	r3, [r2, #0]
	if (mr < -100) mr = -100;
 80013a8:	1c08      	adds	r0, r1, #0
 80013aa:	3164      	adds	r1, #100	@ 0x64
 80013ac:	da02      	bge.n	80013b4 <tankMix+0x3c>
 80013ae:	2364      	movs	r3, #100	@ 0x64
 80013b0:	425b      	negs	r3, r3
 80013b2:	1c18      	adds	r0, r3, #0
	t.speedR = (mr + 100) / 2;
 80013b4:	b203      	sxth	r3, r0
 80013b6:	2b64      	cmp	r3, #100	@ 0x64
 80013b8:	dd00      	ble.n	80013bc <tankMix+0x44>
 80013ba:	2064      	movs	r0, #100	@ 0x64
 80013bc:	3064      	adds	r0, #100	@ 0x64
 80013be:	05c3      	lsls	r3, r0, #23
	return t;
 80013c0:	0e1b      	lsrs	r3, r3, #24
 80013c2:	7810      	ldrb	r0, [r2, #0]
 80013c4:	021b      	lsls	r3, r3, #8
 80013c6:	4318      	orrs	r0, r3
}
 80013c8:	b002      	add	sp, #8
 80013ca:	bd10      	pop	{r4, pc}

080013cc <setServoAngle>:
 * P(us) = P * 1'000'000
 * factor = 10000/P(us)
 * if factor < 1 divide by the new factor
 * new factor = 1/factor
 */
void setServoAngle(uint8_t servoN, uint8_t percentage) {
 80013cc:	b510      	push	{r4, lr}
 80013ce:	0004      	movs	r4, r0
 80013d0:	b082      	sub	sp, #8
 80013d2:	0008      	movs	r0, r1
	const uint8_t factor = 2;
	uint16_t temp = calculateSpeedWithDeadZoneDouble(percentage);
 80013d4:	f7ff fe5c 	bl	8001090 <calculateSpeedWithDeadZoneDouble>
 80013d8:	1c03      	adds	r3, r0, #0
 80013da:	2864      	cmp	r0, #100	@ 0x64
 80013dc:	d900      	bls.n	80013e0 <setServoAngle+0x14>
 80013de:	2364      	movs	r3, #100	@ 0x64
 80013e0:	b29b      	uxth	r3, r3
	switch (servoN) {
 80013e2:	2c00      	cmp	r4, #0
 80013e4:	d018      	beq.n	8001418 <setServoAngle+0x4c>
 80013e6:	2c01      	cmp	r4, #1
 80013e8:	d114      	bne.n	8001414 <setServoAngle+0x48>
			isRev = s2Rev;
 80013ea:	4a16      	ldr	r2, [pc, #88]	@ (8001444 <setServoAngle+0x78>)
	if (temp > 100) temp = 100;
	if (temp < 0) temp = 0;

	if (getServoRev(servoN)) temp = 100 - temp;	// take in count if the servo must be reversed or not
 80013ec:	7812      	ldrb	r2, [r2, #0]
 80013ee:	2a00      	cmp	r2, #0
 80013f0:	d002      	beq.n	80013f8 <setServoAngle+0x2c>
 80013f2:	2264      	movs	r2, #100	@ 0x64
 80013f4:	1ad3      	subs	r3, r2, r3
 80013f6:	b29b      	uxth	r3, r3
		case S1:
			temp = map(temp, 0, 100, S1_MIN_TIME_PWM, S1_MAX_TIME_PWM);
			TIM16->CCR1 = temp * factor;
			break;
		case S2:
			temp = map(temp, 0, 100, S2_MIN_TIME_PWM, S2_MAX_TIME_PWM);
 80013f8:	b218      	sxth	r0, r3
 80013fa:	2396      	movs	r3, #150	@ 0x96
 80013fc:	011b      	lsls	r3, r3, #4
 80013fe:	9300      	str	r3, [sp, #0]
 8001400:	2388      	movs	r3, #136	@ 0x88
 8001402:	2264      	movs	r2, #100	@ 0x64
 8001404:	009b      	lsls	r3, r3, #2
 8001406:	2100      	movs	r1, #0
 8001408:	f7ff fcda 	bl	8000dc0 <map>
			TIM17->CCR1 = temp * factor;
 800140c:	4b0e      	ldr	r3, [pc, #56]	@ (8001448 <setServoAngle+0x7c>)
 800140e:	b280      	uxth	r0, r0
 8001410:	0040      	lsls	r0, r0, #1
 8001412:	6358      	str	r0, [r3, #52]	@ 0x34
			break;
	}
}
 8001414:	b002      	add	sp, #8
 8001416:	bd10      	pop	{r4, pc}
			isRev = s1Rev;
 8001418:	4a0c      	ldr	r2, [pc, #48]	@ (800144c <setServoAngle+0x80>)
	if (getServoRev(servoN)) temp = 100 - temp;	// take in count if the servo must be reversed or not
 800141a:	7812      	ldrb	r2, [r2, #0]
 800141c:	2a00      	cmp	r2, #0
 800141e:	d002      	beq.n	8001426 <setServoAngle+0x5a>
 8001420:	2264      	movs	r2, #100	@ 0x64
 8001422:	1ad3      	subs	r3, r2, r3
 8001424:	b29b      	uxth	r3, r3
			temp = map(temp, 0, 100, S1_MIN_TIME_PWM, S1_MAX_TIME_PWM);
 8001426:	b218      	sxth	r0, r3
 8001428:	23fa      	movs	r3, #250	@ 0xfa
 800142a:	00db      	lsls	r3, r3, #3
 800142c:	9300      	str	r3, [sp, #0]
 800142e:	23fa      	movs	r3, #250	@ 0xfa
 8001430:	2264      	movs	r2, #100	@ 0x64
 8001432:	009b      	lsls	r3, r3, #2
 8001434:	2100      	movs	r1, #0
 8001436:	f7ff fcc3 	bl	8000dc0 <map>
			TIM16->CCR1 = temp * factor;
 800143a:	4b05      	ldr	r3, [pc, #20]	@ (8001450 <setServoAngle+0x84>)
 800143c:	b280      	uxth	r0, r0
 800143e:	0040      	lsls	r0, r0, #1
 8001440:	6358      	str	r0, [r3, #52]	@ 0x34
			break;
 8001442:	e7e7      	b.n	8001414 <setServoAngle+0x48>
 8001444:	2000021e 	.word	0x2000021e
 8001448:	40014800 	.word	0x40014800
 800144c:	2000021f 	.word	0x2000021f
 8001450:	40014400 	.word	0x40014400

08001454 <setServoIsEnable>:

void setServoIsEnable(uint8_t state, TIM_HandleTypeDef *htim){
 8001454:	0003      	movs	r3, r0
 8001456:	b510      	push	{r4, lr}
 8001458:	0008      	movs	r0, r1
	if(state == TRUE){	// turn of the pwm generation
		HAL_TIMEx_PWMN_Start(htim,TIM_CHANNEL_1);	// can be TIM16 or TIM17, channel 1 used on all of them
 800145a:	2100      	movs	r1, #0
	if(state == TRUE){	// turn of the pwm generation
 800145c:	2b01      	cmp	r3, #1
 800145e:	d002      	beq.n	8001466 <setServoIsEnable+0x12>
	}else{
		HAL_TIMEx_PWMN_Stop(htim,TIM_CHANNEL_1);	// can be TIM16 or TIM17, channel 1 used on all of them
 8001460:	f004 f974 	bl	800574c <HAL_TIMEx_PWMN_Stop>
	}
}
 8001464:	bd10      	pop	{r4, pc}
		HAL_TIMEx_PWMN_Start(htim,TIM_CHANNEL_1);	// can be TIM16 or TIM17, channel 1 used on all of them
 8001466:	f004 f929 	bl	80056bc <HAL_TIMEx_PWMN_Start>
 800146a:	e7fb      	b.n	8001464 <setServoIsEnable+0x10>

0800146c <decodeCommand>:

	sprintf(recievedString, "%s, %s", c.type, c.value);
	return isOK;
}

Command decodeCommand(char *buffer) {
 800146c:	b5f0      	push	{r4, r5, r6, r7, lr}
 800146e:	b087      	sub	sp, #28
 8001470:	af00      	add	r7, sp, #0
 8001472:	0005      	movs	r5, r0
	Command c;
	// make a copy of the buffer and use it because strtok is destructive
	char temp[strlen(buffer)];
 8001474:	0008      	movs	r0, r1
Command decodeCommand(char *buffer) {
 8001476:	000e      	movs	r6, r1
	char temp[strlen(buffer)];
 8001478:	f7fe fe46 	bl	8000108 <strlen>
 800147c:	4669      	mov	r1, sp
 800147e:	1dc3      	adds	r3, r0, #7
 8001480:	08db      	lsrs	r3, r3, #3
 8001482:	00db      	lsls	r3, r3, #3
 8001484:	1acb      	subs	r3, r1, r3
 8001486:	469d      	mov	sp, r3
 8001488:	0002      	movs	r2, r0
 800148a:	466c      	mov	r4, sp
	strcpy(temp, buffer);
 800148c:	3201      	adds	r2, #1
 800148e:	0031      	movs	r1, r6
 8001490:	4668      	mov	r0, sp
 8001492:	f006 fb50 	bl	8007b36 <memcpy>
	return c;
}

void remove_all_chars(char *str, char c) {
	char *pr = str, *pw = str;
	while (*pr) {
 8001496:	7823      	ldrb	r3, [r4, #0]
 8001498:	466a      	mov	r2, sp
 800149a:	2b00      	cmp	r3, #0
 800149c:	d009      	beq.n	80014b2 <decodeCommand+0x46>
 800149e:	4669      	mov	r1, sp
		*pw = *pr++;
 80014a0:	7013      	strb	r3, [r2, #0]
		pw += (*pw != c);
 80014a2:	3b20      	subs	r3, #32
 80014a4:	1e58      	subs	r0, r3, #1
 80014a6:	4183      	sbcs	r3, r0
		*pw = *pr++;
 80014a8:	3101      	adds	r1, #1
		pw += (*pw != c);
 80014aa:	18d2      	adds	r2, r2, r3
	while (*pr) {
 80014ac:	780b      	ldrb	r3, [r1, #0]
 80014ae:	2b00      	cmp	r3, #0
 80014b0:	d1f6      	bne.n	80014a0 <decodeCommand+0x34>
	}
	*pw = '\0';
 80014b2:	2300      	movs	r3, #0
 80014b4:	7013      	strb	r3, [r2, #0]
	while (*pr) {
 80014b6:	7823      	ldrb	r3, [r4, #0]
 80014b8:	0022      	movs	r2, r4
 80014ba:	2b00      	cmp	r3, #0
 80014bc:	d009      	beq.n	80014d2 <decodeCommand+0x66>
 80014be:	0021      	movs	r1, r4
		*pw = *pr++;
 80014c0:	7013      	strb	r3, [r2, #0]
		pw += (*pw != c);
 80014c2:	3b0a      	subs	r3, #10
 80014c4:	1e58      	subs	r0, r3, #1
 80014c6:	4183      	sbcs	r3, r0
		*pw = *pr++;
 80014c8:	3101      	adds	r1, #1
		pw += (*pw != c);
 80014ca:	18d2      	adds	r2, r2, r3
	while (*pr) {
 80014cc:	780b      	ldrb	r3, [r1, #0]
 80014ce:	2b00      	cmp	r3, #0
 80014d0:	d1f6      	bne.n	80014c0 <decodeCommand+0x54>
	*pw = '\0';
 80014d2:	2300      	movs	r3, #0
	char *token = strtok(temp, COMMAND_TYPE_SEPARATOR);
 80014d4:	4e0d      	ldr	r6, [pc, #52]	@ (800150c <decodeCommand+0xa0>)
	*pw = '\0';
 80014d6:	7013      	strb	r3, [r2, #0]
	char *token = strtok(temp, COMMAND_TYPE_SEPARATOR);
 80014d8:	0031      	movs	r1, r6
 80014da:	0020      	movs	r0, r4
 80014dc:	f006 fa48 	bl	8007970 <strtok>
 80014e0:	0001      	movs	r1, r0
	strcpy(c.type, token);
 80014e2:	1d38      	adds	r0, r7, #4
 80014e4:	f006 fb1f 	bl	8007b26 <strcpy>
	token = strtok(NULL, COMMAND_TYPE_SEPARATOR);
 80014e8:	0031      	movs	r1, r6
 80014ea:	2000      	movs	r0, #0
 80014ec:	f006 fa40 	bl	8007970 <strtok>
	strcpy(c.value, token);
 80014f0:	230e      	movs	r3, #14
	token = strtok(NULL, COMMAND_TYPE_SEPARATOR);
 80014f2:	0001      	movs	r1, r0
	strcpy(c.value, token);
 80014f4:	18f8      	adds	r0, r7, r3
 80014f6:	f006 fb16 	bl	8007b26 <strcpy>
	return c;
 80014fa:	2214      	movs	r2, #20
 80014fc:	0028      	movs	r0, r5
 80014fe:	1d39      	adds	r1, r7, #4
 8001500:	f006 fb19 	bl	8007b36 <memcpy>
}
 8001504:	0028      	movs	r0, r5
 8001506:	46bd      	mov	sp, r7
 8001508:	b007      	add	sp, #28
 800150a:	bdf0      	pop	{r4, r5, r6, r7, pc}
 800150c:	08008ba0 	.word	0x08008ba0

08001510 <serialPrintString>:
}

void serialPrintString(uint8_t *s) {
 8001510:	b510      	push	{r4, lr}
 8001512:	0004      	movs	r4, r0
	CDC_Transmit_FS(s, strlen(s));
 8001514:	f7fe fdf8 	bl	8000108 <strlen>
 8001518:	b281      	uxth	r1, r0
 800151a:	0020      	movs	r0, r4
 800151c:	f005 fdec 	bl	80070f8 <CDC_Transmit_FS>
}
 8001520:	bd10      	pop	{r4, pc}
 8001522:	46c0      	nop			@ (mov r8, r8)

08001524 <storeSettingsToEeprom>:

void storeSettingsToEeprom() {
 8001524:	b5f0      	push	{r4, r5, r6, r7, lr}
 8001526:	46ce      	mov	lr, r9
 8001528:	4647      	mov	r7, r8
 800152a:	b580      	push	{r7, lr}
	dataToStore[0] = thChannel;
	dataToStore[1] = stChannel;
	dataToStore[2] = wpChannel;
	dataToStore[3] = s1Channel;
	dataToStore[4] = s2Channel;
	dataToStore[5] = armChannel;
 800152c:	4a48      	ldr	r2, [pc, #288]	@ (8001650 <storeSettingsToEeprom+0x12c>)
	dataToStore[4] = s2Channel;
 800152e:	4b49      	ldr	r3, [pc, #292]	@ (8001654 <storeSettingsToEeprom+0x130>)
 8001530:	7812      	ldrb	r2, [r2, #0]
 8001532:	781b      	ldrb	r3, [r3, #0]
 8001534:	0212      	lsls	r2, r2, #8

	dataToStore[6] = m1Rev;
 8001536:	4948      	ldr	r1, [pc, #288]	@ (8001658 <storeSettingsToEeprom+0x134>)
 8001538:	4313      	orrs	r3, r2
	dataToStore[7] = m2Rev;
 800153a:	4a48      	ldr	r2, [pc, #288]	@ (800165c <storeSettingsToEeprom+0x138>)
 800153c:	7809      	ldrb	r1, [r1, #0]
 800153e:	7812      	ldrb	r2, [r2, #0]
 8001540:	0409      	lsls	r1, r1, #16
 8001542:	0612      	lsls	r2, r2, #24
 8001544:	430b      	orrs	r3, r1
void storeSettingsToEeprom() {
 8001546:	b08b      	sub	sp, #44	@ 0x2c
 8001548:	4313      	orrs	r3, r2
	dataToStore[0] = thChannel;
 800154a:	9306      	str	r3, [sp, #24]
	dataToStore[8] = m3Rev;
 800154c:	4b44      	ldr	r3, [pc, #272]	@ (8001660 <storeSettingsToEeprom+0x13c>)
 800154e:	ad05      	add	r5, sp, #20
 8001550:	781b      	ldrb	r3, [r3, #0]
	dataToStore[1] = stChannel;
 8001552:	4944      	ldr	r1, [pc, #272]	@ (8001664 <storeSettingsToEeprom+0x140>)
	dataToStore[8] = m3Rev;
 8001554:	722b      	strb	r3, [r5, #8]
	dataToStore[9] = s1Rev;
 8001556:	4b44      	ldr	r3, [pc, #272]	@ (8001668 <storeSettingsToEeprom+0x144>)
	dataToStore[0] = thChannel;
 8001558:	4a44      	ldr	r2, [pc, #272]	@ (800166c <storeSettingsToEeprom+0x148>)
	dataToStore[9] = s1Rev;
 800155a:	781b      	ldrb	r3, [r3, #0]
	dataToStore[0] = thChannel;
 800155c:	7809      	ldrb	r1, [r1, #0]
 800155e:	7812      	ldrb	r2, [r2, #0]
	dataToStore[9] = s1Rev;
 8001560:	726b      	strb	r3, [r5, #9]
	dataToStore[10] = s2Rev;
 8001562:	4b43      	ldr	r3, [pc, #268]	@ (8001670 <storeSettingsToEeprom+0x14c>)
	dataToStore[0] = thChannel;
 8001564:	0209      	lsls	r1, r1, #8
	dataToStore[2] = wpChannel;
 8001566:	4c43      	ldr	r4, [pc, #268]	@ (8001674 <storeSettingsToEeprom+0x150>)
	dataToStore[10] = s2Rev;
 8001568:	781b      	ldrb	r3, [r3, #0]
	dataToStore[0] = thChannel;
 800156a:	430a      	orrs	r2, r1
	dataToStore[3] = s1Channel;
 800156c:	4942      	ldr	r1, [pc, #264]	@ (8001678 <storeSettingsToEeprom+0x154>)
	dataToStore[0] = thChannel;
 800156e:	7824      	ldrb	r4, [r4, #0]
 8001570:	7809      	ldrb	r1, [r1, #0]
	dataToStore[10] = s2Rev;
 8001572:	72ab      	strb	r3, [r5, #10]

	switch (mLeft) {	// mLeft is code 0
 8001574:	4b41      	ldr	r3, [pc, #260]	@ (800167c <storeSettingsToEeprom+0x158>)
	dataToStore[0] = thChannel;
 8001576:	0424      	lsls	r4, r4, #16
 8001578:	0609      	lsls	r1, r1, #24
 800157a:	4322      	orrs	r2, r4
	switch (mLeft) {	// mLeft is code 0
 800157c:	781b      	ldrb	r3, [r3, #0]
	dataToStore[0] = thChannel;
 800157e:	430a      	orrs	r2, r1
 8001580:	2000      	movs	r0, #0
 8001582:	9205      	str	r2, [sp, #20]
	switch (mLeft) {	// mLeft is code 0
 8001584:	2b01      	cmp	r3, #1
 8001586:	d046      	beq.n	8001616 <storeSettingsToEeprom+0xf2>
 8001588:	2b02      	cmp	r3, #2
 800158a:	d05e      	beq.n	800164a <storeSettingsToEeprom+0x126>
 800158c:	2b00      	cmp	r3, #0
 800158e:	d05a      	beq.n	8001646 <storeSettingsToEeprom+0x122>
		case M3:
			dataToStore[13] = 0;
			break;
	}

	switch (mRight) {	// mRight is code 1
 8001590:	4b3b      	ldr	r3, [pc, #236]	@ (8001680 <storeSettingsToEeprom+0x15c>)
 8001592:	781b      	ldrb	r3, [r3, #0]
 8001594:	2b01      	cmp	r3, #1
 8001596:	d043      	beq.n	8001620 <storeSettingsToEeprom+0xfc>
 8001598:	2b02      	cmp	r3, #2
 800159a:	d051      	beq.n	8001640 <storeSettingsToEeprom+0x11c>
 800159c:	2b00      	cmp	r3, #0
 800159e:	d04c      	beq.n	800163a <storeSettingsToEeprom+0x116>
		case M3:
			dataToStore[13] = 1;
			break;
	}

	switch (mWeapon) {	// mWeapon is code 2
 80015a0:	4b38      	ldr	r3, [pc, #224]	@ (8001684 <storeSettingsToEeprom+0x160>)
 80015a2:	781b      	ldrb	r3, [r3, #0]
 80015a4:	2b01      	cmp	r3, #1
 80015a6:	d040      	beq.n	800162a <storeSettingsToEeprom+0x106>
 80015a8:	2b02      	cmp	r3, #2
 80015aa:	d044      	beq.n	8001636 <storeSettingsToEeprom+0x112>
 80015ac:	2b00      	cmp	r3, #0
 80015ae:	d03f      	beq.n	8001630 <storeSettingsToEeprom+0x10c>
			break;
		case M3:
			dataToStore[13] = 2;
			break;
	}
	dataToStore[14] = weaponDoubleDirection;
 80015b0:	4b35      	ldr	r3, [pc, #212]	@ (8001688 <storeSettingsToEeprom+0x164>)
 80015b2:	2613      	movs	r6, #19
 80015b4:	781b      	ldrb	r3, [r3, #0]
	dataToStore[16] = noDisarm;
	dataToStore[17] = limitVoltage;
	dataToStore[18] = cutOffVoltage;
	dataToStore[19] = recieverIsPWM;
	// write to memory
	for (int i = EEPROM_DATA_BEGIN_ADDRESS; i < SETTINGS_NUMBER; i++) {
 80015b6:	2400      	movs	r4, #0
	dataToStore[14] = weaponDoubleDirection;
 80015b8:	73ab      	strb	r3, [r5, #14]
	dataToStore[15] = tankMixIsON;
 80015ba:	4b34      	ldr	r3, [pc, #208]	@ (800168c <storeSettingsToEeprom+0x168>)
	return data;
}

void write_byte_eeprom(uint8_t address, uint8_t value) {
	uint8_t data = value;
	HAL_I2C_Mem_Write(&hi2c1, EEPROM_ADDRESS, address, 1, &data, 1, 1000);
 80015bc:	2701      	movs	r7, #1
	dataToStore[15] = tankMixIsON;
 80015be:	781b      	ldrb	r3, [r3, #0]
 80015c0:	446e      	add	r6, sp
 80015c2:	73eb      	strb	r3, [r5, #15]
	dataToStore[16] = noDisarm;
 80015c4:	4b32      	ldr	r3, [pc, #200]	@ (8001690 <storeSettingsToEeprom+0x16c>)
 80015c6:	781b      	ldrb	r3, [r3, #0]
 80015c8:	742b      	strb	r3, [r5, #16]
	dataToStore[17] = limitVoltage;
 80015ca:	4b32      	ldr	r3, [pc, #200]	@ (8001694 <storeSettingsToEeprom+0x170>)
 80015cc:	781b      	ldrb	r3, [r3, #0]
 80015ce:	746b      	strb	r3, [r5, #17]
	dataToStore[18] = cutOffVoltage;
 80015d0:	4b31      	ldr	r3, [pc, #196]	@ (8001698 <storeSettingsToEeprom+0x174>)
 80015d2:	781b      	ldrb	r3, [r3, #0]
 80015d4:	74ab      	strb	r3, [r5, #18]
	dataToStore[19] = recieverIsPWM;
 80015d6:	4b31      	ldr	r3, [pc, #196]	@ (800169c <storeSettingsToEeprom+0x178>)
 80015d8:	781b      	ldrb	r3, [r3, #0]
 80015da:	74eb      	strb	r3, [r5, #19]
	for (int i = EEPROM_DATA_BEGIN_ADDRESS; i < SETTINGS_NUMBER; i++) {
 80015dc:	4b30      	ldr	r3, [pc, #192]	@ (80016a0 <storeSettingsToEeprom+0x17c>)
 80015de:	4699      	mov	r9, r3
	HAL_I2C_Mem_Write(&hi2c1, EEPROM_ADDRESS, address, 1, &data, 1, 1000);
 80015e0:	23fa      	movs	r3, #250	@ 0xfa
 80015e2:	009b      	lsls	r3, r3, #2
 80015e4:	4698      	mov	r8, r3
	uint8_t data = value;
 80015e6:	782b      	ldrb	r3, [r5, #0]
	HAL_I2C_Mem_Write(&hi2c1, EEPROM_ADDRESS, address, 1, &data, 1, 1000);
 80015e8:	b2a2      	uxth	r2, r4
	uint8_t data = value;
 80015ea:	7033      	strb	r3, [r6, #0]
	HAL_I2C_Mem_Write(&hi2c1, EEPROM_ADDRESS, address, 1, &data, 1, 1000);
 80015ec:	4643      	mov	r3, r8
 80015ee:	21a0      	movs	r1, #160	@ 0xa0
 80015f0:	9302      	str	r3, [sp, #8]
 80015f2:	4648      	mov	r0, r9
 80015f4:	2301      	movs	r3, #1
 80015f6:	9701      	str	r7, [sp, #4]
 80015f8:	9600      	str	r6, [sp, #0]
 80015fa:	f001 fecb 	bl	8003394 <HAL_I2C_Mem_Write>
	for (int i = EEPROM_DATA_BEGIN_ADDRESS; i < SETTINGS_NUMBER; i++) {
 80015fe:	3401      	adds	r4, #1
	HAL_Delay(10);
 8001600:	200a      	movs	r0, #10
 8001602:	f000 ff2f 	bl	8002464 <HAL_Delay>
	for (int i = EEPROM_DATA_BEGIN_ADDRESS; i < SETTINGS_NUMBER; i++) {
 8001606:	3501      	adds	r5, #1
 8001608:	2c14      	cmp	r4, #20
 800160a:	d1ec      	bne.n	80015e6 <storeSettingsToEeprom+0xc2>
}
 800160c:	b00b      	add	sp, #44	@ 0x2c
 800160e:	bcc0      	pop	{r6, r7}
 8001610:	46b9      	mov	r9, r7
 8001612:	46b0      	mov	r8, r6
 8001614:	bdf0      	pop	{r4, r5, r6, r7, pc}
	switch (mRight) {	// mRight is code 1
 8001616:	4b1a      	ldr	r3, [pc, #104]	@ (8001680 <storeSettingsToEeprom+0x15c>)
			dataToStore[12] = 0;
 8001618:	7328      	strb	r0, [r5, #12]
	switch (mRight) {	// mRight is code 1
 800161a:	781b      	ldrb	r3, [r3, #0]
 800161c:	2b01      	cmp	r3, #1
 800161e:	d1bb      	bne.n	8001598 <storeSettingsToEeprom+0x74>
			dataToStore[12] = 1;
 8001620:	732b      	strb	r3, [r5, #12]
	switch (mWeapon) {	// mWeapon is code 2
 8001622:	4b18      	ldr	r3, [pc, #96]	@ (8001684 <storeSettingsToEeprom+0x160>)
 8001624:	781b      	ldrb	r3, [r3, #0]
 8001626:	2b01      	cmp	r3, #1
 8001628:	d1be      	bne.n	80015a8 <storeSettingsToEeprom+0x84>
			dataToStore[12] = 2;
 800162a:	2302      	movs	r3, #2
 800162c:	732b      	strb	r3, [r5, #12]
			break;
 800162e:	e7bf      	b.n	80015b0 <storeSettingsToEeprom+0x8c>
			dataToStore[11] = 2;
 8001630:	3302      	adds	r3, #2
 8001632:	72eb      	strb	r3, [r5, #11]
			break;
 8001634:	e7bc      	b.n	80015b0 <storeSettingsToEeprom+0x8c>
			dataToStore[13] = 2;
 8001636:	736b      	strb	r3, [r5, #13]
			break;
 8001638:	e7ba      	b.n	80015b0 <storeSettingsToEeprom+0x8c>
			dataToStore[11] = 1;
 800163a:	3301      	adds	r3, #1
 800163c:	72eb      	strb	r3, [r5, #11]
			break;
 800163e:	e7af      	b.n	80015a0 <storeSettingsToEeprom+0x7c>
			dataToStore[13] = 1;
 8001640:	2301      	movs	r3, #1
 8001642:	736b      	strb	r3, [r5, #13]
			break;
 8001644:	e7ac      	b.n	80015a0 <storeSettingsToEeprom+0x7c>
			dataToStore[11] = 0;
 8001646:	72eb      	strb	r3, [r5, #11]
			break;
 8001648:	e7a2      	b.n	8001590 <storeSettingsToEeprom+0x6c>
			dataToStore[13] = 0;
 800164a:	7368      	strb	r0, [r5, #13]
			break;
 800164c:	e7a0      	b.n	8001590 <storeSettingsToEeprom+0x6c>
 800164e:	46c0      	nop			@ (mov r8, r8)
 8001650:	2000000c 	.word	0x2000000c
 8001654:	2000000d 	.word	0x2000000d
 8001658:	2000000b 	.word	0x2000000b
 800165c:	2000000a 	.word	0x2000000a
 8001660:	20000220 	.word	0x20000220
 8001664:	20000010 	.word	0x20000010
 8001668:	2000021f 	.word	0x2000021f
 800166c:	20000011 	.word	0x20000011
 8001670:	2000021e 	.word	0x2000021e
 8001674:	2000000f 	.word	0x2000000f
 8001678:	2000000e 	.word	0x2000000e
 800167c:	2000021d 	.word	0x2000021d
 8001680:	20000009 	.word	0x20000009
 8001684:	20000008 	.word	0x20000008
 8001688:	2000021c 	.word	0x2000021c
 800168c:	20000007 	.word	0x20000007
 8001690:	20000006 	.word	0x20000006
 8001694:	20000005 	.word	0x20000005
 8001698:	20000004 	.word	0x20000004
 800169c:	20000000 	.word	0x20000000
 80016a0:	20000350 	.word	0x20000350

080016a4 <readSettingsFromEeprom>:
	for (int i = EEPROM_DATA_BEGIN_ADDRESS; i < SETTINGS_NUMBER; i++) {
 80016a4:	4b4a      	ldr	r3, [pc, #296]	@ (80017d0 <readSettingsFromEeprom+0x12c>)
void readSettingsFromEeprom() {
 80016a6:	b5f0      	push	{r4, r5, r6, r7, lr}
 80016a8:	46d6      	mov	lr, sl
 80016aa:	469a      	mov	sl, r3
	HAL_I2C_Mem_Read(&hi2c1, EEPROM_ADDRESS, address, 1, &data, 1, 1000);
 80016ac:	23fa      	movs	r3, #250	@ 0xfa
void readSettingsFromEeprom() {
 80016ae:	464f      	mov	r7, r9
 80016b0:	4646      	mov	r6, r8
	HAL_I2C_Mem_Read(&hi2c1, EEPROM_ADDRESS, address, 1, &data, 1, 1000);
 80016b2:	009b      	lsls	r3, r3, #2
 80016b4:	4699      	mov	r9, r3
 80016b6:	2301      	movs	r3, #1
void readSettingsFromEeprom() {
 80016b8:	b5c0      	push	{r6, r7, lr}
 80016ba:	b08a      	sub	sp, #40	@ 0x28
 80016bc:	2613      	movs	r6, #19
 80016be:	af05      	add	r7, sp, #20
 80016c0:	003d      	movs	r5, r7
	for (int i = EEPROM_DATA_BEGIN_ADDRESS; i < SETTINGS_NUMBER; i++) {
 80016c2:	2400      	movs	r4, #0
	HAL_I2C_Mem_Read(&hi2c1, EEPROM_ADDRESS, address, 1, &data, 1, 1000);
 80016c4:	4698      	mov	r8, r3
 80016c6:	446e      	add	r6, sp
 80016c8:	464b      	mov	r3, r9
 80016ca:	9302      	str	r3, [sp, #8]
 80016cc:	4643      	mov	r3, r8
 80016ce:	b2a2      	uxth	r2, r4
 80016d0:	9301      	str	r3, [sp, #4]
 80016d2:	21a0      	movs	r1, #160	@ 0xa0
 80016d4:	2301      	movs	r3, #1
 80016d6:	4650      	mov	r0, sl
 80016d8:	9600      	str	r6, [sp, #0]
 80016da:	f001 ff53 	bl	8003584 <HAL_I2C_Mem_Read>
	return data;
 80016de:	7833      	ldrb	r3, [r6, #0]
	for (int i = EEPROM_DATA_BEGIN_ADDRESS; i < SETTINGS_NUMBER; i++) {
 80016e0:	3401      	adds	r4, #1
		dataRead[i] = read_byte_eeprom(i);
 80016e2:	702b      	strb	r3, [r5, #0]
	for (int i = EEPROM_DATA_BEGIN_ADDRESS; i < SETTINGS_NUMBER; i++) {
 80016e4:	3501      	adds	r5, #1
 80016e6:	2c14      	cmp	r4, #20
 80016e8:	d1ee      	bne.n	80016c8 <readSettingsFromEeprom+0x24>
	thChannel = dataRead[0];
 80016ea:	4b3a      	ldr	r3, [pc, #232]	@ (80017d4 <readSettingsFromEeprom+0x130>)
 80016ec:	783a      	ldrb	r2, [r7, #0]
 80016ee:	701a      	strb	r2, [r3, #0]
	stChannel = dataRead[1];
 80016f0:	787a      	ldrb	r2, [r7, #1]
 80016f2:	4b39      	ldr	r3, [pc, #228]	@ (80017d8 <readSettingsFromEeprom+0x134>)
 80016f4:	701a      	strb	r2, [r3, #0]
	wpChannel = dataRead[2];
 80016f6:	78ba      	ldrb	r2, [r7, #2]
 80016f8:	4b38      	ldr	r3, [pc, #224]	@ (80017dc <readSettingsFromEeprom+0x138>)
 80016fa:	701a      	strb	r2, [r3, #0]
	s1Channel = dataRead[3];
 80016fc:	78fa      	ldrb	r2, [r7, #3]
 80016fe:	4b38      	ldr	r3, [pc, #224]	@ (80017e0 <readSettingsFromEeprom+0x13c>)
 8001700:	701a      	strb	r2, [r3, #0]
	s2Channel = dataRead[4];
 8001702:	793a      	ldrb	r2, [r7, #4]
 8001704:	4b37      	ldr	r3, [pc, #220]	@ (80017e4 <readSettingsFromEeprom+0x140>)
 8001706:	701a      	strb	r2, [r3, #0]
	armChannel = dataRead[5];
 8001708:	797a      	ldrb	r2, [r7, #5]
 800170a:	4b37      	ldr	r3, [pc, #220]	@ (80017e8 <readSettingsFromEeprom+0x144>)
 800170c:	701a      	strb	r2, [r3, #0]
	m1Rev = dataRead[6];
 800170e:	79ba      	ldrb	r2, [r7, #6]
 8001710:	4b36      	ldr	r3, [pc, #216]	@ (80017ec <readSettingsFromEeprom+0x148>)
 8001712:	701a      	strb	r2, [r3, #0]
	m2Rev = dataRead[7];
 8001714:	79fa      	ldrb	r2, [r7, #7]
 8001716:	4b36      	ldr	r3, [pc, #216]	@ (80017f0 <readSettingsFromEeprom+0x14c>)
 8001718:	701a      	strb	r2, [r3, #0]
	m3Rev = dataRead[8];
 800171a:	7a3a      	ldrb	r2, [r7, #8]
 800171c:	4b35      	ldr	r3, [pc, #212]	@ (80017f4 <readSettingsFromEeprom+0x150>)
 800171e:	701a      	strb	r2, [r3, #0]
	s1Rev = dataRead[9];
 8001720:	7a7a      	ldrb	r2, [r7, #9]
 8001722:	4b35      	ldr	r3, [pc, #212]	@ (80017f8 <readSettingsFromEeprom+0x154>)
 8001724:	701a      	strb	r2, [r3, #0]
	s2Rev = dataRead[10];
 8001726:	7aba      	ldrb	r2, [r7, #10]
 8001728:	4b34      	ldr	r3, [pc, #208]	@ (80017fc <readSettingsFromEeprom+0x158>)
 800172a:	701a      	strb	r2, [r3, #0]
	switch (dataRead[11]) {	// control M1 at which motor is assigned
 800172c:	7afb      	ldrb	r3, [r7, #11]
 800172e:	2b01      	cmp	r3, #1
 8001730:	d029      	beq.n	8001786 <readSettingsFromEeprom+0xe2>
 8001732:	2b02      	cmp	r3, #2
 8001734:	d048      	beq.n	80017c8 <readSettingsFromEeprom+0x124>
 8001736:	2b00      	cmp	r3, #0
 8001738:	d043      	beq.n	80017c2 <readSettingsFromEeprom+0x11e>
	switch (dataRead[12]) {	// control M2 at which motor is assigned
 800173a:	7b3b      	ldrb	r3, [r7, #12]
 800173c:	2b01      	cmp	r3, #1
 800173e:	d028      	beq.n	8001792 <readSettingsFromEeprom+0xee>
 8001740:	2b02      	cmp	r3, #2
 8001742:	d03a      	beq.n	80017ba <readSettingsFromEeprom+0x116>
 8001744:	2b00      	cmp	r3, #0
 8001746:	d034      	beq.n	80017b2 <readSettingsFromEeprom+0x10e>
	switch (dataRead[13]) {	// control M3 at which motor is assigned
 8001748:	7b7b      	ldrb	r3, [r7, #13]
 800174a:	2b01      	cmp	r3, #1
 800174c:	d026      	beq.n	800179c <readSettingsFromEeprom+0xf8>
 800174e:	2b02      	cmp	r3, #2
 8001750:	d02c      	beq.n	80017ac <readSettingsFromEeprom+0x108>
 8001752:	2b00      	cmp	r3, #0
 8001754:	d026      	beq.n	80017a4 <readSettingsFromEeprom+0x100>
	weaponDoubleDirection = dataRead[14];
 8001756:	7bba      	ldrb	r2, [r7, #14]
 8001758:	4b29      	ldr	r3, [pc, #164]	@ (8001800 <readSettingsFromEeprom+0x15c>)
 800175a:	701a      	strb	r2, [r3, #0]
	tankMixIsON = dataRead[15];
 800175c:	7bfa      	ldrb	r2, [r7, #15]
 800175e:	4b29      	ldr	r3, [pc, #164]	@ (8001804 <readSettingsFromEeprom+0x160>)
 8001760:	701a      	strb	r2, [r3, #0]
	noDisarm = dataRead[16];
 8001762:	7c3a      	ldrb	r2, [r7, #16]
 8001764:	4b28      	ldr	r3, [pc, #160]	@ (8001808 <readSettingsFromEeprom+0x164>)
 8001766:	701a      	strb	r2, [r3, #0]
	limitVoltage = dataRead[17];
 8001768:	7c7a      	ldrb	r2, [r7, #17]
 800176a:	4b28      	ldr	r3, [pc, #160]	@ (800180c <readSettingsFromEeprom+0x168>)
 800176c:	701a      	strb	r2, [r3, #0]
	cutOffVoltage = dataRead[18];
 800176e:	7cba      	ldrb	r2, [r7, #18]
 8001770:	4b27      	ldr	r3, [pc, #156]	@ (8001810 <readSettingsFromEeprom+0x16c>)
 8001772:	701a      	strb	r2, [r3, #0]
	recieverIsPWM = dataRead[19];
 8001774:	7cfa      	ldrb	r2, [r7, #19]
 8001776:	4b27      	ldr	r3, [pc, #156]	@ (8001814 <readSettingsFromEeprom+0x170>)
 8001778:	701a      	strb	r2, [r3, #0]
}
 800177a:	b00a      	add	sp, #40	@ 0x28
 800177c:	bce0      	pop	{r5, r6, r7}
 800177e:	46ba      	mov	sl, r7
 8001780:	46b1      	mov	r9, r6
 8001782:	46a8      	mov	r8, r5
 8001784:	bdf0      	pop	{r4, r5, r6, r7, pc}
			mRight = M1;
 8001786:	2200      	movs	r2, #0
 8001788:	4b23      	ldr	r3, [pc, #140]	@ (8001818 <readSettingsFromEeprom+0x174>)
 800178a:	701a      	strb	r2, [r3, #0]
	switch (dataRead[12]) {	// control M2 at which motor is assigned
 800178c:	7b3b      	ldrb	r3, [r7, #12]
 800178e:	2b01      	cmp	r3, #1
 8001790:	d1d6      	bne.n	8001740 <readSettingsFromEeprom+0x9c>
			mRight = M2;
 8001792:	4a21      	ldr	r2, [pc, #132]	@ (8001818 <readSettingsFromEeprom+0x174>)
 8001794:	7013      	strb	r3, [r2, #0]
	switch (dataRead[13]) {	// control M3 at which motor is assigned
 8001796:	7b7b      	ldrb	r3, [r7, #13]
 8001798:	2b01      	cmp	r3, #1
 800179a:	d1d8      	bne.n	800174e <readSettingsFromEeprom+0xaa>
			mRight = M3;
 800179c:	2202      	movs	r2, #2
 800179e:	4b1e      	ldr	r3, [pc, #120]	@ (8001818 <readSettingsFromEeprom+0x174>)
 80017a0:	701a      	strb	r2, [r3, #0]
			break;
 80017a2:	e7d8      	b.n	8001756 <readSettingsFromEeprom+0xb2>
			mLeft = M3;
 80017a4:	2202      	movs	r2, #2
 80017a6:	4b1d      	ldr	r3, [pc, #116]	@ (800181c <readSettingsFromEeprom+0x178>)
 80017a8:	701a      	strb	r2, [r3, #0]
			break;
 80017aa:	e7d4      	b.n	8001756 <readSettingsFromEeprom+0xb2>
			mWeapon = M3;
 80017ac:	4a1c      	ldr	r2, [pc, #112]	@ (8001820 <readSettingsFromEeprom+0x17c>)
 80017ae:	7013      	strb	r3, [r2, #0]
			break;
 80017b0:	e7d1      	b.n	8001756 <readSettingsFromEeprom+0xb2>
			mLeft = M2;
 80017b2:	2201      	movs	r2, #1
 80017b4:	4b19      	ldr	r3, [pc, #100]	@ (800181c <readSettingsFromEeprom+0x178>)
 80017b6:	701a      	strb	r2, [r3, #0]
			break;
 80017b8:	e7c6      	b.n	8001748 <readSettingsFromEeprom+0xa4>
			mWeapon = M2;
 80017ba:	2201      	movs	r2, #1
 80017bc:	4b18      	ldr	r3, [pc, #96]	@ (8001820 <readSettingsFromEeprom+0x17c>)
 80017be:	701a      	strb	r2, [r3, #0]
			break;
 80017c0:	e7c2      	b.n	8001748 <readSettingsFromEeprom+0xa4>
			mLeft = M1;
 80017c2:	4a16      	ldr	r2, [pc, #88]	@ (800181c <readSettingsFromEeprom+0x178>)
 80017c4:	7013      	strb	r3, [r2, #0]
			break;
 80017c6:	e7b8      	b.n	800173a <readSettingsFromEeprom+0x96>
			mWeapon = M1;
 80017c8:	2200      	movs	r2, #0
 80017ca:	4b15      	ldr	r3, [pc, #84]	@ (8001820 <readSettingsFromEeprom+0x17c>)
 80017cc:	701a      	strb	r2, [r3, #0]
			break;
 80017ce:	e7b4      	b.n	800173a <readSettingsFromEeprom+0x96>
 80017d0:	20000350 	.word	0x20000350
 80017d4:	20000011 	.word	0x20000011
 80017d8:	20000010 	.word	0x20000010
 80017dc:	2000000f 	.word	0x2000000f
 80017e0:	2000000e 	.word	0x2000000e
 80017e4:	2000000d 	.word	0x2000000d
 80017e8:	2000000c 	.word	0x2000000c
 80017ec:	2000000b 	.word	0x2000000b
 80017f0:	2000000a 	.word	0x2000000a
 80017f4:	20000220 	.word	0x20000220
 80017f8:	2000021f 	.word	0x2000021f
 80017fc:	2000021e 	.word	0x2000021e
 8001800:	2000021c 	.word	0x2000021c
 8001804:	20000007 	.word	0x20000007
 8001808:	20000006 	.word	0x20000006
 800180c:	20000005 	.word	0x20000005
 8001810:	20000004 	.word	0x20000004
 8001814:	20000000 	.word	0x20000000
 8001818:	20000009 	.word	0x20000009
 800181c:	2000021d 	.word	0x2000021d
 8001820:	20000008 	.word	0x20000008

08001824 <loadSettingsFromEeprom>:
void loadSettingsFromEeprom() {
 8001824:	b510      	push	{r4, lr}
	readSettingsFromEeprom();
 8001826:	f7ff ff3d 	bl	80016a4 <readSettingsFromEeprom>
}
 800182a:	bd10      	pop	{r4, pc}

0800182c <read_byte_eeprom>:
	HAL_I2C_Mem_Read(&hi2c1, EEPROM_ADDRESS, address, 1, &data, 1, 1000);
 800182c:	23fa      	movs	r3, #250	@ 0xfa
uint8_t read_byte_eeprom(uint8_t address) {
 800182e:	b530      	push	{r4, r5, lr}
	HAL_I2C_Mem_Read(&hi2c1, EEPROM_ADDRESS, address, 1, &data, 1, 1000);
 8001830:	009b      	lsls	r3, r3, #2
uint8_t read_byte_eeprom(uint8_t address) {
 8001832:	b087      	sub	sp, #28
	HAL_I2C_Mem_Read(&hi2c1, EEPROM_ADDRESS, address, 1, &data, 1, 1000);
 8001834:	2517      	movs	r5, #23
 8001836:	9302      	str	r3, [sp, #8]
 8001838:	2301      	movs	r3, #1
 800183a:	4c06      	ldr	r4, [pc, #24]	@ (8001854 <read_byte_eeprom+0x28>)
 800183c:	446d      	add	r5, sp
uint8_t read_byte_eeprom(uint8_t address) {
 800183e:	0002      	movs	r2, r0
	HAL_I2C_Mem_Read(&hi2c1, EEPROM_ADDRESS, address, 1, &data, 1, 1000);
 8001840:	21a0      	movs	r1, #160	@ 0xa0
 8001842:	0020      	movs	r0, r4
 8001844:	9301      	str	r3, [sp, #4]
 8001846:	9500      	str	r5, [sp, #0]
 8001848:	f001 fe9c 	bl	8003584 <HAL_I2C_Mem_Read>
	return data;
 800184c:	7828      	ldrb	r0, [r5, #0]
}
 800184e:	b007      	add	sp, #28
 8001850:	bd30      	pop	{r4, r5, pc}
 8001852:	46c0      	nop			@ (mov r8, r8)
 8001854:	20000350 	.word	0x20000350

08001858 <write_byte_eeprom>:
	uint8_t data = value;
 8001858:	2317      	movs	r3, #23
void write_byte_eeprom(uint8_t address, uint8_t value) {
 800185a:	b510      	push	{r4, lr}
 800185c:	b086      	sub	sp, #24
	uint8_t data = value;
 800185e:	446b      	add	r3, sp
 8001860:	7019      	strb	r1, [r3, #0]
	HAL_I2C_Mem_Write(&hi2c1, EEPROM_ADDRESS, address, 1, &data, 1, 1000);
 8001862:	21fa      	movs	r1, #250	@ 0xfa
 8001864:	0089      	lsls	r1, r1, #2
 8001866:	9102      	str	r1, [sp, #8]
 8001868:	2101      	movs	r1, #1
 800186a:	4c07      	ldr	r4, [pc, #28]	@ (8001888 <write_byte_eeprom+0x30>)
void write_byte_eeprom(uint8_t address, uint8_t value) {
 800186c:	0002      	movs	r2, r0
	HAL_I2C_Mem_Write(&hi2c1, EEPROM_ADDRESS, address, 1, &data, 1, 1000);
 800186e:	9101      	str	r1, [sp, #4]
 8001870:	9300      	str	r3, [sp, #0]
 8001872:	319f      	adds	r1, #159	@ 0x9f
 8001874:	2301      	movs	r3, #1
 8001876:	0020      	movs	r0, r4
 8001878:	f001 fd8c 	bl	8003394 <HAL_I2C_Mem_Write>
	HAL_Delay(10);
 800187c:	200a      	movs	r0, #10
 800187e:	f000 fdf1 	bl	8002464 <HAL_Delay>
}
 8001882:	b006      	add	sp, #24
 8001884:	bd10      	pop	{r4, pc}
 8001886:	46c0      	nop			@ (mov r8, r8)
 8001888:	20000350 	.word	0x20000350

0800188c <serialPrintStatus>:

void serialPrintStatus() {
 800188c:	b570      	push	{r4, r5, r6, lr}
 800188e:	b088      	sub	sp, #32
	uint8_t string[30];
	// print voltage
	sprintf(string, "VBATT > %d\n", getBattVoltage());
 8001890:	466c      	mov	r4, sp
 8001892:	f7fe fe07 	bl	80004a4 <getBattVoltage>
 8001896:	4938      	ldr	r1, [pc, #224]	@ (8001978 <serialPrintStatus+0xec>)
 8001898:	0002      	movs	r2, r0
 800189a:	0020      	movs	r0, r4
 800189c:	f005 fff4 	bl	8007888 <siprintf>
	CDC_Transmit_FS(s, strlen(s));
 80018a0:	0020      	movs	r0, r4
 80018a2:	f7fe fc31 	bl	8000108 <strlen>
 80018a6:	b281      	uxth	r1, r0
 80018a8:	0020      	movs	r0, r4
 80018aa:	f005 fc25 	bl	80070f8 <CDC_Transmit_FS>
	serialPrintString(string);
	HAL_Delay(1);
 80018ae:	2001      	movs	r0, #1
 80018b0:	f000 fdd8 	bl	8002464 <HAL_Delay>
	// which battery detected
	sprintf(string, "BATT > %d\n", batteryConfiguration);
 80018b4:	4b31      	ldr	r3, [pc, #196]	@ (800197c <serialPrintStatus+0xf0>)
 80018b6:	4932      	ldr	r1, [pc, #200]	@ (8001980 <serialPrintStatus+0xf4>)
 80018b8:	781a      	ldrb	r2, [r3, #0]
 80018ba:	0020      	movs	r0, r4
 80018bc:	f005 ffe4 	bl	8007888 <siprintf>
	CDC_Transmit_FS(s, strlen(s));
 80018c0:	0020      	movs	r0, r4
 80018c2:	f7fe fc21 	bl	8000108 <strlen>
 80018c6:	b281      	uxth	r1, r0
 80018c8:	0020      	movs	r0, r4
 80018ca:	f005 fc15 	bl	80070f8 <CDC_Transmit_FS>
	serialPrintString(string);
	HAL_Delay(1);
 80018ce:	2001      	movs	r0, #1
 80018d0:	f000 fdc8 	bl	8002464 <HAL_Delay>
	// print RX channels
	if (recieverIsPWM) {	// print only four channel
 80018d4:	4b2b      	ldr	r3, [pc, #172]	@ (8001984 <serialPrintStatus+0xf8>)
		for (int i = 1; i < 5; i++) {
 80018d6:	2501      	movs	r5, #1
	if (recieverIsPWM) {	// print only four channel
 80018d8:	781b      	ldrb	r3, [r3, #0]
 80018da:	4e2b      	ldr	r6, [pc, #172]	@ (8001988 <serialPrintStatus+0xfc>)
 80018dc:	2b00      	cmp	r3, #0
 80018de:	d02b      	beq.n	8001938 <serialPrintStatus+0xac>
			sprintf(string, "CH%d > %d\n", i, getChannelValuePercentage(i));
 80018e0:	b2e8      	uxtb	r0, r5
 80018e2:	f7ff fc7d 	bl	80011e0 <getChannelValuePercentage>
 80018e6:	002a      	movs	r2, r5
 80018e8:	0003      	movs	r3, r0
 80018ea:	0031      	movs	r1, r6
 80018ec:	0020      	movs	r0, r4
 80018ee:	f005 ffcb 	bl	8007888 <siprintf>
	CDC_Transmit_FS(s, strlen(s));
 80018f2:	0020      	movs	r0, r4
 80018f4:	f7fe fc08 	bl	8000108 <strlen>
 80018f8:	b281      	uxth	r1, r0
 80018fa:	0020      	movs	r0, r4
 80018fc:	f005 fbfc 	bl	80070f8 <CDC_Transmit_FS>
		for (int i = 1; i < 5; i++) {
 8001900:	3501      	adds	r5, #1
			serialPrintString(string);
			HAL_Delay(2);
 8001902:	2002      	movs	r0, #2
 8001904:	f000 fdae 	bl	8002464 <HAL_Delay>
		for (int i = 1; i < 5; i++) {
 8001908:	2d05      	cmp	r5, #5
 800190a:	d1e9      	bne.n	80018e0 <serialPrintStatus+0x54>
			serialPrintString(string);
			HAL_Delay(2);
		}
	}
	// print armed
	if (armed) {
 800190c:	4b1f      	ldr	r3, [pc, #124]	@ (800198c <serialPrintStatus+0x100>)
 800190e:	781b      	ldrb	r3, [r3, #0]
 8001910:	2b00      	cmp	r3, #0
 8001912:	d028      	beq.n	8001966 <serialPrintStatus+0xda>
		sprintf(string, "ARMED > TRUE\n");
 8001914:	0022      	movs	r2, r4
 8001916:	4b1e      	ldr	r3, [pc, #120]	@ (8001990 <serialPrintStatus+0x104>)
 8001918:	cb23      	ldmia	r3!, {r0, r1, r5}
 800191a:	c223      	stmia	r2!, {r0, r1, r5}
 800191c:	881b      	ldrh	r3, [r3, #0]
 800191e:	8013      	strh	r3, [r2, #0]
	CDC_Transmit_FS(s, strlen(s));
 8001920:	0020      	movs	r0, r4
 8001922:	f7fe fbf1 	bl	8000108 <strlen>
 8001926:	b281      	uxth	r1, r0
 8001928:	0020      	movs	r0, r4
 800192a:	f005 fbe5 	bl	80070f8 <CDC_Transmit_FS>
		serialPrintString(string);
		HAL_Delay(1);
	} else {
		sprintf(string, "ARMED > FALSE\n");
		serialPrintString(string);
		HAL_Delay(1);
 800192e:	2001      	movs	r0, #1
 8001930:	f000 fd98 	bl	8002464 <HAL_Delay>
	}
}
 8001934:	b008      	add	sp, #32
 8001936:	bd70      	pop	{r4, r5, r6, pc}
			sprintf(string, "CH%d > %d\n", i, getChannelValuePercentage(i));
 8001938:	b2e8      	uxtb	r0, r5
 800193a:	f7ff fc51 	bl	80011e0 <getChannelValuePercentage>
 800193e:	002a      	movs	r2, r5
 8001940:	0003      	movs	r3, r0
 8001942:	0031      	movs	r1, r6
 8001944:	0020      	movs	r0, r4
 8001946:	f005 ff9f 	bl	8007888 <siprintf>
	CDC_Transmit_FS(s, strlen(s));
 800194a:	0020      	movs	r0, r4
 800194c:	f7fe fbdc 	bl	8000108 <strlen>
 8001950:	b281      	uxth	r1, r0
 8001952:	0020      	movs	r0, r4
 8001954:	f005 fbd0 	bl	80070f8 <CDC_Transmit_FS>
		for (int i = 1; i < 9; i++) {
 8001958:	3501      	adds	r5, #1
			HAL_Delay(2);
 800195a:	2002      	movs	r0, #2
 800195c:	f000 fd82 	bl	8002464 <HAL_Delay>
		for (int i = 1; i < 9; i++) {
 8001960:	2d09      	cmp	r5, #9
 8001962:	d1e9      	bne.n	8001938 <serialPrintStatus+0xac>
 8001964:	e7d2      	b.n	800190c <serialPrintStatus+0x80>
		sprintf(string, "ARMED > FALSE\n");
 8001966:	0022      	movs	r2, r4
 8001968:	4b0a      	ldr	r3, [pc, #40]	@ (8001994 <serialPrintStatus+0x108>)
 800196a:	cb23      	ldmia	r3!, {r0, r1, r5}
 800196c:	c223      	stmia	r2!, {r0, r1, r5}
 800196e:	8819      	ldrh	r1, [r3, #0]
 8001970:	8011      	strh	r1, [r2, #0]
 8001972:	789b      	ldrb	r3, [r3, #2]
 8001974:	7093      	strb	r3, [r2, #2]
 8001976:	e7d3      	b.n	8001920 <serialPrintStatus+0x94>
 8001978:	08008ba4 	.word	0x08008ba4
 800197c:	20000222 	.word	0x20000222
 8001980:	08008bb0 	.word	0x08008bb0
 8001984:	20000000 	.word	0x20000000
 8001988:	08008bbc 	.word	0x08008bbc
 800198c:	20000221 	.word	0x20000221
 8001990:	08008bc8 	.word	0x08008bc8
 8001994:	08008bd8 	.word	0x08008bd8

08001998 <serialPrintSettings>:

void serialPrintSettings() {
 8001998:	b5f0      	push	{r4, r5, r6, r7, lr}
	dataRead[0] = thChannel;
	dataRead[1] = stChannel;
	dataRead[2] = wpChannel;
	dataRead[3] = s1Channel;
	dataRead[4] = s2Channel;
	dataRead[5] = armChannel;
 800199a:	4a4e      	ldr	r2, [pc, #312]	@ (8001ad4 <serialPrintSettings+0x13c>)
	dataRead[4] = s2Channel;
 800199c:	4b4e      	ldr	r3, [pc, #312]	@ (8001ad8 <serialPrintSettings+0x140>)
 800199e:	7812      	ldrb	r2, [r2, #0]
 80019a0:	781b      	ldrb	r3, [r3, #0]
 80019a2:	0212      	lsls	r2, r2, #8

	dataRead[6] = m1Rev;
 80019a4:	494d      	ldr	r1, [pc, #308]	@ (8001adc <serialPrintSettings+0x144>)
 80019a6:	4313      	orrs	r3, r2
	dataRead[7] = m2Rev;
 80019a8:	4a4d      	ldr	r2, [pc, #308]	@ (8001ae0 <serialPrintSettings+0x148>)
 80019aa:	7809      	ldrb	r1, [r1, #0]
 80019ac:	7812      	ldrb	r2, [r2, #0]
 80019ae:	0409      	lsls	r1, r1, #16
 80019b0:	0612      	lsls	r2, r2, #24
 80019b2:	430b      	orrs	r3, r1
	dataRead[1] = stChannel;
 80019b4:	494b      	ldr	r1, [pc, #300]	@ (8001ae4 <serialPrintSettings+0x14c>)
 80019b6:	4313      	orrs	r3, r2
	dataRead[2] = wpChannel;
 80019b8:	4c4b      	ldr	r4, [pc, #300]	@ (8001ae8 <serialPrintSettings+0x150>)
	dataRead[0] = thChannel;
 80019ba:	4a4c      	ldr	r2, [pc, #304]	@ (8001aec <serialPrintSettings+0x154>)
void serialPrintSettings() {
 80019bc:	b0a5      	sub	sp, #148	@ 0x94
	dataRead[0] = thChannel;
 80019be:	7809      	ldrb	r1, [r1, #0]
 80019c0:	7812      	ldrb	r2, [r2, #0]
 80019c2:	7824      	ldrb	r4, [r4, #0]
 80019c4:	9304      	str	r3, [sp, #16]
	dataRead[8] = m3Rev;
 80019c6:	4b4a      	ldr	r3, [pc, #296]	@ (8001af0 <serialPrintSettings+0x158>)
	dataRead[0] = thChannel;
 80019c8:	0209      	lsls	r1, r1, #8
	dataRead[8] = m3Rev;
 80019ca:	781b      	ldrb	r3, [r3, #0]
	dataRead[0] = thChannel;
 80019cc:	0424      	lsls	r4, r4, #16
 80019ce:	430a      	orrs	r2, r1
 80019d0:	4322      	orrs	r2, r4
	dataRead[8] = m3Rev;
 80019d2:	ac03      	add	r4, sp, #12
 80019d4:	7223      	strb	r3, [r4, #8]
	dataRead[9] = s1Rev;
 80019d6:	4b47      	ldr	r3, [pc, #284]	@ (8001af4 <serialPrintSettings+0x15c>)
	dataRead[3] = s1Channel;
 80019d8:	4947      	ldr	r1, [pc, #284]	@ (8001af8 <serialPrintSettings+0x160>)
	dataRead[9] = s1Rev;
 80019da:	781b      	ldrb	r3, [r3, #0]
	dataRead[0] = thChannel;
 80019dc:	7809      	ldrb	r1, [r1, #0]
	dataRead[9] = s1Rev;
 80019de:	7263      	strb	r3, [r4, #9]
	dataRead[10] = s2Rev;
 80019e0:	4b46      	ldr	r3, [pc, #280]	@ (8001afc <serialPrintSettings+0x164>)
	dataRead[0] = thChannel;
 80019e2:	0609      	lsls	r1, r1, #24
	dataRead[10] = s2Rev;
 80019e4:	781b      	ldrb	r3, [r3, #0]
	dataRead[0] = thChannel;
 80019e6:	430a      	orrs	r2, r1
	dataRead[10] = s2Rev;
 80019e8:	72a3      	strb	r3, [r4, #10]

	switch (mLeft) {	// mleft is code 0
 80019ea:	4b45      	ldr	r3, [pc, #276]	@ (8001b00 <serialPrintSettings+0x168>)
 80019ec:	2000      	movs	r0, #0
 80019ee:	781b      	ldrb	r3, [r3, #0]
	dataRead[0] = thChannel;
 80019f0:	9203      	str	r2, [sp, #12]
	switch (mLeft) {	// mleft is code 0
 80019f2:	2b01      	cmp	r3, #1
 80019f4:	d051      	beq.n	8001a9a <serialPrintSettings+0x102>
 80019f6:	2b02      	cmp	r3, #2
 80019f8:	d069      	beq.n	8001ace <serialPrintSettings+0x136>
 80019fa:	2b00      	cmp	r3, #0
 80019fc:	d065      	beq.n	8001aca <serialPrintSettings+0x132>
		case M3:
			dataRead[13] = 0;
			break;
	}

	switch (mRight) {	// mright is code 1
 80019fe:	4b41      	ldr	r3, [pc, #260]	@ (8001b04 <serialPrintSettings+0x16c>)
 8001a00:	781b      	ldrb	r3, [r3, #0]
 8001a02:	2b01      	cmp	r3, #1
 8001a04:	d04e      	beq.n	8001aa4 <serialPrintSettings+0x10c>
 8001a06:	2b02      	cmp	r3, #2
 8001a08:	d05c      	beq.n	8001ac4 <serialPrintSettings+0x12c>
 8001a0a:	2b00      	cmp	r3, #0
 8001a0c:	d057      	beq.n	8001abe <serialPrintSettings+0x126>
		case M3:
			dataRead[13] = 1;
			break;
	}

	switch (mWeapon) {	// mweapon is code 2
 8001a0e:	4b3e      	ldr	r3, [pc, #248]	@ (8001b08 <serialPrintSettings+0x170>)
 8001a10:	781b      	ldrb	r3, [r3, #0]
 8001a12:	2b01      	cmp	r3, #1
 8001a14:	d04b      	beq.n	8001aae <serialPrintSettings+0x116>
 8001a16:	2b02      	cmp	r3, #2
 8001a18:	d04f      	beq.n	8001aba <serialPrintSettings+0x122>
 8001a1a:	2b00      	cmp	r3, #0
 8001a1c:	d04a      	beq.n	8001ab4 <serialPrintSettings+0x11c>
		case M3:
			dataRead[13] = 2;
			break;
	}

	dataRead[14] = weaponDoubleDirection;
 8001a1e:	4b3b      	ldr	r3, [pc, #236]	@ (8001b0c <serialPrintSettings+0x174>)
	dataRead[16] = noDisarm;
	dataRead[17] = limitVoltage;
	dataRead[18] = cutOffVoltage;
	dataRead[19] = recieverIsPWM;

	const uint8_t *commands[] = { (const uint8_t*) COMMAND_TH2CH, (const uint8_t*) COMMAND_ST2CH,
 8001a20:	493b      	ldr	r1, [pc, #236]	@ (8001b10 <serialPrintSettings+0x178>)
	dataRead[14] = weaponDoubleDirection;
 8001a22:	781b      	ldrb	r3, [r3, #0]
	const uint8_t *commands[] = { (const uint8_t*) COMMAND_TH2CH, (const uint8_t*) COMMAND_ST2CH,
 8001a24:	2250      	movs	r2, #80	@ 0x50
	dataRead[14] = weaponDoubleDirection;
 8001a26:	73a3      	strb	r3, [r4, #14]
	dataRead[15] = tankMixIsON;
 8001a28:	4b3a      	ldr	r3, [pc, #232]	@ (8001b14 <serialPrintSettings+0x17c>)
	const uint8_t *commands[] = { (const uint8_t*) COMMAND_TH2CH, (const uint8_t*) COMMAND_ST2CH,
 8001a2a:	a810      	add	r0, sp, #64	@ 0x40
	dataRead[15] = tankMixIsON;
 8001a2c:	781b      	ldrb	r3, [r3, #0]
 8001a2e:	af24      	add	r7, sp, #144	@ 0x90
 8001a30:	73e3      	strb	r3, [r4, #15]
	dataRead[16] = noDisarm;
 8001a32:	4b39      	ldr	r3, [pc, #228]	@ (8001b18 <serialPrintSettings+0x180>)
 8001a34:	781b      	ldrb	r3, [r3, #0]
 8001a36:	7423      	strb	r3, [r4, #16]
	dataRead[17] = limitVoltage;
 8001a38:	4b38      	ldr	r3, [pc, #224]	@ (8001b1c <serialPrintSettings+0x184>)
 8001a3a:	781b      	ldrb	r3, [r3, #0]
 8001a3c:	7463      	strb	r3, [r4, #17]
	dataRead[18] = cutOffVoltage;
 8001a3e:	4b38      	ldr	r3, [pc, #224]	@ (8001b20 <serialPrintSettings+0x188>)
 8001a40:	781b      	ldrb	r3, [r3, #0]
 8001a42:	74a3      	strb	r3, [r4, #18]
	dataRead[19] = recieverIsPWM;
 8001a44:	4b37      	ldr	r3, [pc, #220]	@ (8001b24 <serialPrintSettings+0x18c>)
 8001a46:	781b      	ldrb	r3, [r3, #0]
 8001a48:	74e3      	strb	r3, [r4, #19]
	const uint8_t *commands[] = { (const uint8_t*) COMMAND_TH2CH, (const uint8_t*) COMMAND_ST2CH,
 8001a4a:	f006 f874 	bl	8007b36 <memcpy>
			(const uint8_t*) COMMAND_M1ASS, (const uint8_t*) COMMAND_M2ASS, (const uint8_t*) COMMAND_M3ASS,
			(const uint8_t*) COMMAND_WPDD, (const uint8_t*) COMMAND_TANKON, (const uint8_t*) COMMAND_NODISARM,
			(const uint8_t*) COMMAND_LIMITVOLTAGE, (const uint8_t*) COMMAND_CUTOFFVOLTAGE,
			(const uint8_t*) COMMAND_RXPWMMODE };

	uint8_t c[] = "\nSETTINGS:\n";
 8001a4e:	4668      	mov	r0, sp
 8001a50:	0002      	movs	r2, r0
 8001a52:	4b35      	ldr	r3, [pc, #212]	@ (8001b28 <serialPrintSettings+0x190>)
 8001a54:	cb62      	ldmia	r3!, {r1, r5, r6}
 8001a56:	c262      	stmia	r2!, {r1, r5, r6}
	CDC_Transmit_FS(s, strlen(s));
 8001a58:	210b      	movs	r1, #11
 8001a5a:	f005 fb4d 	bl	80070f8 <CDC_Transmit_FS>
	serialPrintString(c);
	HAL_Delay(0);
 8001a5e:	2000      	movs	r0, #0
 8001a60:	f000 fd00 	bl	8002464 <HAL_Delay>
	for (int i = 0; i < SETTINGS_NUMBER; i++) {
 8001a64:	4e31      	ldr	r6, [pc, #196]	@ (8001b2c <serialPrintSettings+0x194>)
 8001a66:	ad10      	add	r5, sp, #64	@ 0x40
		uint8_t string[30];
		sprintf(string, "%s > %d\n", commands[i], dataRead[i]);
 8001a68:	7823      	ldrb	r3, [r4, #0]
 8001a6a:	cd04      	ldmia	r5!, {r2}
 8001a6c:	0031      	movs	r1, r6
 8001a6e:	a808      	add	r0, sp, #32
 8001a70:	f005 ff0a 	bl	8007888 <siprintf>
	CDC_Transmit_FS(s, strlen(s));
 8001a74:	a808      	add	r0, sp, #32
 8001a76:	f7fe fb47 	bl	8000108 <strlen>
 8001a7a:	b281      	uxth	r1, r0
 8001a7c:	a808      	add	r0, sp, #32
 8001a7e:	f005 fb3b 	bl	80070f8 <CDC_Transmit_FS>
		serialPrintString(string);
		HAL_Delay(10);
 8001a82:	200a      	movs	r0, #10
 8001a84:	f000 fcee 	bl	8002464 <HAL_Delay>
	for (int i = 0; i < SETTINGS_NUMBER; i++) {
 8001a88:	3401      	adds	r4, #1
 8001a8a:	42bd      	cmp	r5, r7
 8001a8c:	d1ec      	bne.n	8001a68 <serialPrintSettings+0xd0>
	CDC_Transmit_FS(s, strlen(s));
 8001a8e:	2151      	movs	r1, #81	@ 0x51
 8001a90:	4827      	ldr	r0, [pc, #156]	@ (8001b30 <serialPrintSettings+0x198>)
 8001a92:	f005 fb31 	bl	80070f8 <CDC_Transmit_FS>
	}
	serialPrintString("\nwrite COMAND > VALUE (e.g. TH2CH>3)\nthan SAVE>1 to store all settings on EEPROM\n");
}
 8001a96:	b025      	add	sp, #148	@ 0x94
 8001a98:	bdf0      	pop	{r4, r5, r6, r7, pc}
	switch (mRight) {	// mright is code 1
 8001a9a:	4b1a      	ldr	r3, [pc, #104]	@ (8001b04 <serialPrintSettings+0x16c>)
			dataRead[12] = 0;
 8001a9c:	7320      	strb	r0, [r4, #12]
	switch (mRight) {	// mright is code 1
 8001a9e:	781b      	ldrb	r3, [r3, #0]
 8001aa0:	2b01      	cmp	r3, #1
 8001aa2:	d1b0      	bne.n	8001a06 <serialPrintSettings+0x6e>
			dataRead[12] = 1;
 8001aa4:	7323      	strb	r3, [r4, #12]
	switch (mWeapon) {	// mweapon is code 2
 8001aa6:	4b18      	ldr	r3, [pc, #96]	@ (8001b08 <serialPrintSettings+0x170>)
 8001aa8:	781b      	ldrb	r3, [r3, #0]
 8001aaa:	2b01      	cmp	r3, #1
 8001aac:	d1b3      	bne.n	8001a16 <serialPrintSettings+0x7e>
			dataRead[12] = 2;
 8001aae:	2302      	movs	r3, #2
 8001ab0:	7323      	strb	r3, [r4, #12]
			break;
 8001ab2:	e7b4      	b.n	8001a1e <serialPrintSettings+0x86>
			dataRead[11] = 2;
 8001ab4:	3302      	adds	r3, #2
 8001ab6:	72e3      	strb	r3, [r4, #11]
			break;
 8001ab8:	e7b1      	b.n	8001a1e <serialPrintSettings+0x86>
			dataRead[13] = 2;
 8001aba:	7363      	strb	r3, [r4, #13]
			break;
 8001abc:	e7af      	b.n	8001a1e <serialPrintSettings+0x86>
			dataRead[11] = 1;
 8001abe:	3301      	adds	r3, #1
 8001ac0:	72e3      	strb	r3, [r4, #11]
			break;
 8001ac2:	e7a4      	b.n	8001a0e <serialPrintSettings+0x76>
			dataRead[13] = 1;
 8001ac4:	2301      	movs	r3, #1
 8001ac6:	7363      	strb	r3, [r4, #13]
			break;
 8001ac8:	e7a1      	b.n	8001a0e <serialPrintSettings+0x76>
			dataRead[11] = 0;
 8001aca:	72e3      	strb	r3, [r4, #11]
			break;
 8001acc:	e797      	b.n	80019fe <serialPrintSettings+0x66>
			dataRead[13] = 0;
 8001ace:	7360      	strb	r0, [r4, #13]
			break;
 8001ad0:	e795      	b.n	80019fe <serialPrintSettings+0x66>
 8001ad2:	46c0      	nop			@ (mov r8, r8)
 8001ad4:	2000000c 	.word	0x2000000c
 8001ad8:	2000000d 	.word	0x2000000d
 8001adc:	2000000b 	.word	0x2000000b
 8001ae0:	2000000a 	.word	0x2000000a
 8001ae4:	20000010 	.word	0x20000010
 8001ae8:	2000000f 	.word	0x2000000f
 8001aec:	20000011 	.word	0x20000011
 8001af0:	20000220 	.word	0x20000220
 8001af4:	2000021f 	.word	0x2000021f
 8001af8:	2000000e 	.word	0x2000000e
 8001afc:	2000021e 	.word	0x2000021e
 8001b00:	2000021d 	.word	0x2000021d
 8001b04:	20000009 	.word	0x20000009
 8001b08:	20000008 	.word	0x20000008
 8001b0c:	2000021c 	.word	0x2000021c
 8001b10:	08008b3c 	.word	0x08008b3c
 8001b14:	20000007 	.word	0x20000007
 8001b18:	20000006 	.word	0x20000006
 8001b1c:	20000005 	.word	0x20000005
 8001b20:	20000004 	.word	0x20000004
 8001b24:	20000000 	.word	0x20000000
 8001b28:	08008c48 	.word	0x08008c48
 8001b2c:	08008be8 	.word	0x08008be8
 8001b30:	08008bf4 	.word	0x08008bf4

08001b34 <modifySettingsWithCommand>:
int modifySettingsWithCommand() {
 8001b34:	b570      	push	{r4, r5, r6, lr}
 8001b36:	b086      	sub	sp, #24
	Command c = decodeCommand(buffer);
 8001b38:	ad01      	add	r5, sp, #4
 8001b3a:	0028      	movs	r0, r5
 8001b3c:	49c1      	ldr	r1, [pc, #772]	@ (8001e44 <modifySettingsWithCommand+0x310>)
 8001b3e:	f7ff fc95 	bl	800146c <decodeCommand>
	if (strcmp(c.type, COMMAND_TH2CH) == 0) {	// COMMAND_TH2CH recieved
 8001b42:	4ac1      	ldr	r2, [pc, #772]	@ (8001e48 <modifySettingsWithCommand+0x314>)
 8001b44:	9b01      	ldr	r3, [sp, #4]
 8001b46:	4293      	cmp	r3, r2
 8001b48:	d100      	bne.n	8001b4c <modifySettingsWithCommand+0x18>
 8001b4a:	e071      	b.n	8001c30 <modifySettingsWithCommand+0xfc>
 8001b4c:	240e      	movs	r4, #14
	if (strcmp(c.type, COMMAND_ST2CH) == 0) {
 8001b4e:	4abf      	ldr	r2, [pc, #764]	@ (8001e4c <modifySettingsWithCommand+0x318>)
 8001b50:	2600      	movs	r6, #0
 8001b52:	446c      	add	r4, sp
 8001b54:	4293      	cmp	r3, r2
 8001b56:	d100      	bne.n	8001b5a <modifySettingsWithCommand+0x26>
 8001b58:	e07b      	b.n	8001c52 <modifySettingsWithCommand+0x11e>
	if (strcmp(c.type, COMMAND_WP2CH) == 0) {
 8001b5a:	4abd      	ldr	r2, [pc, #756]	@ (8001e50 <modifySettingsWithCommand+0x31c>)
 8001b5c:	4293      	cmp	r3, r2
 8001b5e:	d100      	bne.n	8001b62 <modifySettingsWithCommand+0x2e>
 8001b60:	e086      	b.n	8001c70 <modifySettingsWithCommand+0x13c>
	if (strcmp(c.type, COMMAND_S12CH) == 0) {
 8001b62:	4abc      	ldr	r2, [pc, #752]	@ (8001e54 <modifySettingsWithCommand+0x320>)
 8001b64:	4293      	cmp	r3, r2
 8001b66:	d100      	bne.n	8001b6a <modifySettingsWithCommand+0x36>
 8001b68:	e091      	b.n	8001c8e <modifySettingsWithCommand+0x15a>
	if (strcmp(c.type, COMMAND_S22CH) == 0) {
 8001b6a:	4abb      	ldr	r2, [pc, #748]	@ (8001e58 <modifySettingsWithCommand+0x324>)
 8001b6c:	4293      	cmp	r3, r2
 8001b6e:	d100      	bne.n	8001b72 <modifySettingsWithCommand+0x3e>
 8001b70:	e09c      	b.n	8001cac <modifySettingsWithCommand+0x178>
	if (strcmp(c.type, COMMAND_ARM) == 0) {
 8001b72:	4bba      	ldr	r3, [pc, #744]	@ (8001e5c <modifySettingsWithCommand+0x328>)
 8001b74:	9a01      	ldr	r2, [sp, #4]
 8001b76:	429a      	cmp	r2, r3
 8001b78:	d100      	bne.n	8001b7c <modifySettingsWithCommand+0x48>
 8001b7a:	e0a6      	b.n	8001cca <modifySettingsWithCommand+0x196>
	if (strcmp(c.type, COMMAND_M1REV) == 0) {
 8001b7c:	4ab8      	ldr	r2, [pc, #736]	@ (8001e60 <modifySettingsWithCommand+0x32c>)
 8001b7e:	9b01      	ldr	r3, [sp, #4]
 8001b80:	4293      	cmp	r3, r2
 8001b82:	d100      	bne.n	8001b86 <modifySettingsWithCommand+0x52>
 8001b84:	e0b5      	b.n	8001cf2 <modifySettingsWithCommand+0x1be>
	if (strcmp(c.type, COMMAND_M2REV) == 0) {
 8001b86:	4ab7      	ldr	r2, [pc, #732]	@ (8001e64 <modifySettingsWithCommand+0x330>)
 8001b88:	4293      	cmp	r3, r2
 8001b8a:	d100      	bne.n	8001b8e <modifySettingsWithCommand+0x5a>
 8001b8c:	e0c0      	b.n	8001d10 <modifySettingsWithCommand+0x1dc>
	if (strcmp(c.type, COMMAND_M3REV) == 0) {
 8001b8e:	4ab6      	ldr	r2, [pc, #728]	@ (8001e68 <modifySettingsWithCommand+0x334>)
 8001b90:	4293      	cmp	r3, r2
 8001b92:	d100      	bne.n	8001b96 <modifySettingsWithCommand+0x62>
 8001b94:	e0cb      	b.n	8001d2e <modifySettingsWithCommand+0x1fa>
	if (strcmp(c.type, COMMAND_S1REV) == 0) {
 8001b96:	4ab5      	ldr	r2, [pc, #724]	@ (8001e6c <modifySettingsWithCommand+0x338>)
 8001b98:	4293      	cmp	r3, r2
 8001b9a:	d100      	bne.n	8001b9e <modifySettingsWithCommand+0x6a>
 8001b9c:	e0d6      	b.n	8001d4c <modifySettingsWithCommand+0x218>
	if (strcmp(c.type, COMMAND_S2REV) == 0) {
 8001b9e:	4ab4      	ldr	r2, [pc, #720]	@ (8001e70 <modifySettingsWithCommand+0x33c>)
 8001ba0:	4293      	cmp	r3, r2
 8001ba2:	d100      	bne.n	8001ba6 <modifySettingsWithCommand+0x72>
 8001ba4:	e0e1      	b.n	8001d6a <modifySettingsWithCommand+0x236>
	if (strcmp(c.type, COMMAND_M1ASS) == 0) {
 8001ba6:	4ab3      	ldr	r2, [pc, #716]	@ (8001e74 <modifySettingsWithCommand+0x340>)
 8001ba8:	4293      	cmp	r3, r2
 8001baa:	d100      	bne.n	8001bae <modifySettingsWithCommand+0x7a>
 8001bac:	e0ec      	b.n	8001d88 <modifySettingsWithCommand+0x254>
	if (strcmp(c.type, COMMAND_M2ASS) == 0) {
 8001bae:	4ab2      	ldr	r2, [pc, #712]	@ (8001e78 <modifySettingsWithCommand+0x344>)
 8001bb0:	4293      	cmp	r3, r2
 8001bb2:	d100      	bne.n	8001bb6 <modifySettingsWithCommand+0x82>
 8001bb4:	e1e7      	b.n	8001f86 <modifySettingsWithCommand+0x452>
	if (strcmp(c.type, COMMAND_M3ASS) == 0) {
 8001bb6:	4ab1      	ldr	r2, [pc, #708]	@ (8001e7c <modifySettingsWithCommand+0x348>)
 8001bb8:	4293      	cmp	r3, r2
 8001bba:	d100      	bne.n	8001bbe <modifySettingsWithCommand+0x8a>
 8001bbc:	e1c9      	b.n	8001f52 <modifySettingsWithCommand+0x41e>
	if (strcmp(c.type, COMMAND_WPDD) == 0) {
 8001bbe:	4ab0      	ldr	r2, [pc, #704]	@ (8001e80 <modifySettingsWithCommand+0x34c>)
 8001bc0:	9901      	ldr	r1, [sp, #4]
 8001bc2:	4291      	cmp	r1, r2
 8001bc4:	d100      	bne.n	8001bc8 <modifySettingsWithCommand+0x94>
 8001bc6:	e1b8      	b.n	8001f3a <modifySettingsWithCommand+0x406>
	if (strcmp(c.type, COMMAND_TANKON) == 0) {
 8001bc8:	4aae      	ldr	r2, [pc, #696]	@ (8001e84 <modifySettingsWithCommand+0x350>)
 8001bca:	4293      	cmp	r3, r2
 8001bcc:	d100      	bne.n	8001bd0 <modifySettingsWithCommand+0x9c>
 8001bce:	e1a9      	b.n	8001f24 <modifySettingsWithCommand+0x3f0>
	if (strcmp(c.type, COMMAND_NODISARM) == 0) {
 8001bd0:	4bad      	ldr	r3, [pc, #692]	@ (8001e88 <modifySettingsWithCommand+0x354>)
 8001bd2:	9a01      	ldr	r2, [sp, #4]
 8001bd4:	429a      	cmp	r2, r3
 8001bd6:	d100      	bne.n	8001bda <modifySettingsWithCommand+0xa6>
 8001bd8:	e194      	b.n	8001f04 <modifySettingsWithCommand+0x3d0>
	if (strcmp(c.type, COMMAND_LIMITVOLTAGE) == 0) {
 8001bda:	4bac      	ldr	r3, [pc, #688]	@ (8001e8c <modifySettingsWithCommand+0x358>)
 8001bdc:	9a01      	ldr	r2, [sp, #4]
 8001bde:	429a      	cmp	r2, r3
 8001be0:	d100      	bne.n	8001be4 <modifySettingsWithCommand+0xb0>
 8001be2:	e123      	b.n	8001e2c <modifySettingsWithCommand+0x2f8>
	if (strcmp(c.type, COMMAND_CUTOFFVOLTAGE) == 0) {
 8001be4:	4baa      	ldr	r3, [pc, #680]	@ (8001e90 <modifySettingsWithCommand+0x35c>)
 8001be6:	9a01      	ldr	r2, [sp, #4]
 8001be8:	429a      	cmp	r2, r3
 8001bea:	d100      	bne.n	8001bee <modifySettingsWithCommand+0xba>
 8001bec:	e112      	b.n	8001e14 <modifySettingsWithCommand+0x2e0>
	if (strcmp(c.type, COMMAND_RXPWMMODE) == 0) {
 8001bee:	4ba9      	ldr	r3, [pc, #676]	@ (8001e94 <modifySettingsWithCommand+0x360>)
 8001bf0:	9a01      	ldr	r2, [sp, #4]
 8001bf2:	429a      	cmp	r2, r3
 8001bf4:	d100      	bne.n	8001bf8 <modifySettingsWithCommand+0xc4>
 8001bf6:	e102      	b.n	8001dfe <modifySettingsWithCommand+0x2ca>
	if (strcmp(c.type, COMMAND_SAVE) == 0) {
 8001bf8:	4aa7      	ldr	r2, [pc, #668]	@ (8001e98 <modifySettingsWithCommand+0x364>)
 8001bfa:	9b01      	ldr	r3, [sp, #4]
 8001bfc:	4293      	cmp	r3, r2
 8001bfe:	d100      	bne.n	8001c02 <modifySettingsWithCommand+0xce>
 8001c00:	e0f4      	b.n	8001dec <modifySettingsWithCommand+0x2b8>
	if (strcmp(c.type, COMMAND_READ) == 0) {
 8001c02:	4aa6      	ldr	r2, [pc, #664]	@ (8001e9c <modifySettingsWithCommand+0x368>)
 8001c04:	4293      	cmp	r3, r2
 8001c06:	d100      	bne.n	8001c0a <modifySettingsWithCommand+0xd6>
 8001c08:	e0e6      	b.n	8001dd8 <modifySettingsWithCommand+0x2a4>
	if (strcmp(c.type, COMMAND_CONNECTED) == 0) {
 8001c0a:	4ba5      	ldr	r3, [pc, #660]	@ (8001ea0 <modifySettingsWithCommand+0x36c>)
 8001c0c:	9a01      	ldr	r2, [sp, #4]
 8001c0e:	429a      	cmp	r2, r3
 8001c10:	d100      	bne.n	8001c14 <modifySettingsWithCommand+0xe0>
 8001c12:	2601      	movs	r6, #1
	if (strcmp(c.type, COMMAND_STATUS) == 0) {
 8001c14:	4ba3      	ldr	r3, [pc, #652]	@ (8001ea4 <modifySettingsWithCommand+0x370>)
 8001c16:	9a01      	ldr	r2, [sp, #4]
 8001c18:	429a      	cmp	r2, r3
 8001c1a:	d100      	bne.n	8001c1e <modifySettingsWithCommand+0xea>
 8001c1c:	e0cf      	b.n	8001dbe <modifySettingsWithCommand+0x28a>
	sprintf(recievedString, "%s, %s", c.type, c.value);
 8001c1e:	0023      	movs	r3, r4
 8001c20:	002a      	movs	r2, r5
 8001c22:	49a1      	ldr	r1, [pc, #644]	@ (8001ea8 <modifySettingsWithCommand+0x374>)
 8001c24:	48a1      	ldr	r0, [pc, #644]	@ (8001eac <modifySettingsWithCommand+0x378>)
 8001c26:	f005 fe2f 	bl	8007888 <siprintf>
}
 8001c2a:	0030      	movs	r0, r6
 8001c2c:	b006      	add	sp, #24
 8001c2e:	bd70      	pop	{r4, r5, r6, pc}
	if (strcmp(c.type, COMMAND_TH2CH) == 0) {	// COMMAND_TH2CH recieved
 8001c30:	88aa      	ldrh	r2, [r5, #4]
 8001c32:	2a48      	cmp	r2, #72	@ 0x48
 8001c34:	d000      	beq.n	8001c38 <modifySettingsWithCommand+0x104>
 8001c36:	e789      	b.n	8001b4c <modifySettingsWithCommand+0x18>
		thChannel = atoi(c.value);	// convert value string into integer value (the value of the channel)
 8001c38:	240e      	movs	r4, #14
 8001c3a:	446c      	add	r4, sp
 8001c3c:	0020      	movs	r0, r4
 8001c3e:	f005 fcc3 	bl	80075c8 <atoi>
 8001c42:	4b9b      	ldr	r3, [pc, #620]	@ (8001eb0 <modifySettingsWithCommand+0x37c>)
	if (strcmp(c.type, COMMAND_ST2CH) == 0) {
 8001c44:	4a81      	ldr	r2, [pc, #516]	@ (8001e4c <modifySettingsWithCommand+0x318>)
		thChannel = atoi(c.value);	// convert value string into integer value (the value of the channel)
 8001c46:	7018      	strb	r0, [r3, #0]
		isOK = TRUE;
 8001c48:	9b01      	ldr	r3, [sp, #4]
		thChannel = atoi(c.value);	// convert value string into integer value (the value of the channel)
 8001c4a:	2601      	movs	r6, #1
	if (strcmp(c.type, COMMAND_ST2CH) == 0) {
 8001c4c:	4293      	cmp	r3, r2
 8001c4e:	d000      	beq.n	8001c52 <modifySettingsWithCommand+0x11e>
 8001c50:	e783      	b.n	8001b5a <modifySettingsWithCommand+0x26>
 8001c52:	88aa      	ldrh	r2, [r5, #4]
 8001c54:	2a48      	cmp	r2, #72	@ 0x48
 8001c56:	d000      	beq.n	8001c5a <modifySettingsWithCommand+0x126>
 8001c58:	e77f      	b.n	8001b5a <modifySettingsWithCommand+0x26>
		stChannel = atoi(c.value);
 8001c5a:	0020      	movs	r0, r4
 8001c5c:	f005 fcb4 	bl	80075c8 <atoi>
 8001c60:	4b94      	ldr	r3, [pc, #592]	@ (8001eb4 <modifySettingsWithCommand+0x380>)
	if (strcmp(c.type, COMMAND_WP2CH) == 0) {
 8001c62:	4a7b      	ldr	r2, [pc, #492]	@ (8001e50 <modifySettingsWithCommand+0x31c>)
		stChannel = atoi(c.value);
 8001c64:	7018      	strb	r0, [r3, #0]
		isOK = TRUE;
 8001c66:	9b01      	ldr	r3, [sp, #4]
		stChannel = atoi(c.value);
 8001c68:	2601      	movs	r6, #1
	if (strcmp(c.type, COMMAND_WP2CH) == 0) {
 8001c6a:	4293      	cmp	r3, r2
 8001c6c:	d000      	beq.n	8001c70 <modifySettingsWithCommand+0x13c>
 8001c6e:	e778      	b.n	8001b62 <modifySettingsWithCommand+0x2e>
 8001c70:	88aa      	ldrh	r2, [r5, #4]
 8001c72:	2a48      	cmp	r2, #72	@ 0x48
 8001c74:	d000      	beq.n	8001c78 <modifySettingsWithCommand+0x144>
 8001c76:	e774      	b.n	8001b62 <modifySettingsWithCommand+0x2e>
		wpChannel = atoi(c.value);
 8001c78:	0020      	movs	r0, r4
 8001c7a:	f005 fca5 	bl	80075c8 <atoi>
 8001c7e:	4b8e      	ldr	r3, [pc, #568]	@ (8001eb8 <modifySettingsWithCommand+0x384>)
	if (strcmp(c.type, COMMAND_S12CH) == 0) {
 8001c80:	4a74      	ldr	r2, [pc, #464]	@ (8001e54 <modifySettingsWithCommand+0x320>)
		wpChannel = atoi(c.value);
 8001c82:	7018      	strb	r0, [r3, #0]
		isOK = TRUE;
 8001c84:	9b01      	ldr	r3, [sp, #4]
		wpChannel = atoi(c.value);
 8001c86:	2601      	movs	r6, #1
	if (strcmp(c.type, COMMAND_S12CH) == 0) {
 8001c88:	4293      	cmp	r3, r2
 8001c8a:	d000      	beq.n	8001c8e <modifySettingsWithCommand+0x15a>
 8001c8c:	e76d      	b.n	8001b6a <modifySettingsWithCommand+0x36>
 8001c8e:	88aa      	ldrh	r2, [r5, #4]
 8001c90:	2a48      	cmp	r2, #72	@ 0x48
 8001c92:	d000      	beq.n	8001c96 <modifySettingsWithCommand+0x162>
 8001c94:	e769      	b.n	8001b6a <modifySettingsWithCommand+0x36>
		s1Channel = atoi(c.value);
 8001c96:	0020      	movs	r0, r4
 8001c98:	f005 fc96 	bl	80075c8 <atoi>
 8001c9c:	4b87      	ldr	r3, [pc, #540]	@ (8001ebc <modifySettingsWithCommand+0x388>)
	if (strcmp(c.type, COMMAND_S22CH) == 0) {
 8001c9e:	4a6e      	ldr	r2, [pc, #440]	@ (8001e58 <modifySettingsWithCommand+0x324>)
		s1Channel = atoi(c.value);
 8001ca0:	7018      	strb	r0, [r3, #0]
		isOK = TRUE;
 8001ca2:	9b01      	ldr	r3, [sp, #4]
		s1Channel = atoi(c.value);
 8001ca4:	2601      	movs	r6, #1
	if (strcmp(c.type, COMMAND_S22CH) == 0) {
 8001ca6:	4293      	cmp	r3, r2
 8001ca8:	d000      	beq.n	8001cac <modifySettingsWithCommand+0x178>
 8001caa:	e762      	b.n	8001b72 <modifySettingsWithCommand+0x3e>
 8001cac:	88ab      	ldrh	r3, [r5, #4]
 8001cae:	2b48      	cmp	r3, #72	@ 0x48
 8001cb0:	d000      	beq.n	8001cb4 <modifySettingsWithCommand+0x180>
 8001cb2:	e75e      	b.n	8001b72 <modifySettingsWithCommand+0x3e>
		s2Channel = atoi(c.value);
 8001cb4:	0020      	movs	r0, r4
 8001cb6:	f005 fc87 	bl	80075c8 <atoi>
 8001cba:	4b81      	ldr	r3, [pc, #516]	@ (8001ec0 <modifySettingsWithCommand+0x38c>)
	if (strcmp(c.type, COMMAND_ARM) == 0) {
 8001cbc:	9a01      	ldr	r2, [sp, #4]
		s2Channel = atoi(c.value);
 8001cbe:	7018      	strb	r0, [r3, #0]
	if (strcmp(c.type, COMMAND_ARM) == 0) {
 8001cc0:	4b66      	ldr	r3, [pc, #408]	@ (8001e5c <modifySettingsWithCommand+0x328>)
		s2Channel = atoi(c.value);
 8001cc2:	2601      	movs	r6, #1
	if (strcmp(c.type, COMMAND_ARM) == 0) {
 8001cc4:	429a      	cmp	r2, r3
 8001cc6:	d000      	beq.n	8001cca <modifySettingsWithCommand+0x196>
 8001cc8:	e758      	b.n	8001b7c <modifySettingsWithCommand+0x48>
 8001cca:	4b7e      	ldr	r3, [pc, #504]	@ (8001ec4 <modifySettingsWithCommand+0x390>)
 8001ccc:	88aa      	ldrh	r2, [r5, #4]
 8001cce:	429a      	cmp	r2, r3
 8001cd0:	d000      	beq.n	8001cd4 <modifySettingsWithCommand+0x1a0>
 8001cd2:	e753      	b.n	8001b7c <modifySettingsWithCommand+0x48>
 8001cd4:	79ab      	ldrb	r3, [r5, #6]
 8001cd6:	2b00      	cmp	r3, #0
 8001cd8:	d000      	beq.n	8001cdc <modifySettingsWithCommand+0x1a8>
 8001cda:	e74f      	b.n	8001b7c <modifySettingsWithCommand+0x48>
		armChannel = atoi(c.value);
 8001cdc:	0020      	movs	r0, r4
 8001cde:	f005 fc73 	bl	80075c8 <atoi>
 8001ce2:	4b79      	ldr	r3, [pc, #484]	@ (8001ec8 <modifySettingsWithCommand+0x394>)
	if (strcmp(c.type, COMMAND_M1REV) == 0) {
 8001ce4:	4a5e      	ldr	r2, [pc, #376]	@ (8001e60 <modifySettingsWithCommand+0x32c>)
		armChannel = atoi(c.value);
 8001ce6:	7018      	strb	r0, [r3, #0]
	if (strcmp(c.type, COMMAND_M1REV) == 0) {
 8001ce8:	9b01      	ldr	r3, [sp, #4]
		armChannel = atoi(c.value);
 8001cea:	2601      	movs	r6, #1
	if (strcmp(c.type, COMMAND_M1REV) == 0) {
 8001cec:	4293      	cmp	r3, r2
 8001cee:	d000      	beq.n	8001cf2 <modifySettingsWithCommand+0x1be>
 8001cf0:	e749      	b.n	8001b86 <modifySettingsWithCommand+0x52>
 8001cf2:	88aa      	ldrh	r2, [r5, #4]
 8001cf4:	2a56      	cmp	r2, #86	@ 0x56
 8001cf6:	d000      	beq.n	8001cfa <modifySettingsWithCommand+0x1c6>
 8001cf8:	e745      	b.n	8001b86 <modifySettingsWithCommand+0x52>
		m1Rev = atoi(c.value);
 8001cfa:	0020      	movs	r0, r4
 8001cfc:	f005 fc64 	bl	80075c8 <atoi>
 8001d00:	4b72      	ldr	r3, [pc, #456]	@ (8001ecc <modifySettingsWithCommand+0x398>)
	if (strcmp(c.type, COMMAND_M2REV) == 0) {
 8001d02:	4a58      	ldr	r2, [pc, #352]	@ (8001e64 <modifySettingsWithCommand+0x330>)
		m1Rev = atoi(c.value);
 8001d04:	7018      	strb	r0, [r3, #0]
		isOK = TRUE;
 8001d06:	9b01      	ldr	r3, [sp, #4]
		m1Rev = atoi(c.value);
 8001d08:	2601      	movs	r6, #1
	if (strcmp(c.type, COMMAND_M2REV) == 0) {
 8001d0a:	4293      	cmp	r3, r2
 8001d0c:	d000      	beq.n	8001d10 <modifySettingsWithCommand+0x1dc>
 8001d0e:	e73e      	b.n	8001b8e <modifySettingsWithCommand+0x5a>
 8001d10:	88aa      	ldrh	r2, [r5, #4]
 8001d12:	2a56      	cmp	r2, #86	@ 0x56
 8001d14:	d000      	beq.n	8001d18 <modifySettingsWithCommand+0x1e4>
 8001d16:	e73a      	b.n	8001b8e <modifySettingsWithCommand+0x5a>
		m2Rev = atoi(c.value);
 8001d18:	0020      	movs	r0, r4
 8001d1a:	f005 fc55 	bl	80075c8 <atoi>
 8001d1e:	4b6c      	ldr	r3, [pc, #432]	@ (8001ed0 <modifySettingsWithCommand+0x39c>)
	if (strcmp(c.type, COMMAND_M3REV) == 0) {
 8001d20:	4a51      	ldr	r2, [pc, #324]	@ (8001e68 <modifySettingsWithCommand+0x334>)
		m2Rev = atoi(c.value);
 8001d22:	7018      	strb	r0, [r3, #0]
		isOK = TRUE;
 8001d24:	9b01      	ldr	r3, [sp, #4]
		m2Rev = atoi(c.value);
 8001d26:	2601      	movs	r6, #1
	if (strcmp(c.type, COMMAND_M3REV) == 0) {
 8001d28:	4293      	cmp	r3, r2
 8001d2a:	d000      	beq.n	8001d2e <modifySettingsWithCommand+0x1fa>
 8001d2c:	e733      	b.n	8001b96 <modifySettingsWithCommand+0x62>
 8001d2e:	88aa      	ldrh	r2, [r5, #4]
 8001d30:	2a56      	cmp	r2, #86	@ 0x56
 8001d32:	d000      	beq.n	8001d36 <modifySettingsWithCommand+0x202>
 8001d34:	e72f      	b.n	8001b96 <modifySettingsWithCommand+0x62>
		m3Rev = atoi(c.value);
 8001d36:	0020      	movs	r0, r4
 8001d38:	f005 fc46 	bl	80075c8 <atoi>
 8001d3c:	4b65      	ldr	r3, [pc, #404]	@ (8001ed4 <modifySettingsWithCommand+0x3a0>)
	if (strcmp(c.type, COMMAND_S1REV) == 0) {
 8001d3e:	4a4b      	ldr	r2, [pc, #300]	@ (8001e6c <modifySettingsWithCommand+0x338>)
		m3Rev = atoi(c.value);
 8001d40:	7018      	strb	r0, [r3, #0]
		isOK = TRUE;
 8001d42:	9b01      	ldr	r3, [sp, #4]
		m3Rev = atoi(c.value);
 8001d44:	2601      	movs	r6, #1
	if (strcmp(c.type, COMMAND_S1REV) == 0) {
 8001d46:	4293      	cmp	r3, r2
 8001d48:	d000      	beq.n	8001d4c <modifySettingsWithCommand+0x218>
 8001d4a:	e728      	b.n	8001b9e <modifySettingsWithCommand+0x6a>
 8001d4c:	88aa      	ldrh	r2, [r5, #4]
 8001d4e:	2a56      	cmp	r2, #86	@ 0x56
 8001d50:	d000      	beq.n	8001d54 <modifySettingsWithCommand+0x220>
 8001d52:	e724      	b.n	8001b9e <modifySettingsWithCommand+0x6a>
		s1Rev = atoi(c.value);
 8001d54:	0020      	movs	r0, r4
 8001d56:	f005 fc37 	bl	80075c8 <atoi>
 8001d5a:	4b5f      	ldr	r3, [pc, #380]	@ (8001ed8 <modifySettingsWithCommand+0x3a4>)
	if (strcmp(c.type, COMMAND_S2REV) == 0) {
 8001d5c:	4a44      	ldr	r2, [pc, #272]	@ (8001e70 <modifySettingsWithCommand+0x33c>)
		s1Rev = atoi(c.value);
 8001d5e:	7018      	strb	r0, [r3, #0]
		isOK = TRUE;
 8001d60:	9b01      	ldr	r3, [sp, #4]
		s1Rev = atoi(c.value);
 8001d62:	2601      	movs	r6, #1
	if (strcmp(c.type, COMMAND_S2REV) == 0) {
 8001d64:	4293      	cmp	r3, r2
 8001d66:	d000      	beq.n	8001d6a <modifySettingsWithCommand+0x236>
 8001d68:	e71d      	b.n	8001ba6 <modifySettingsWithCommand+0x72>
 8001d6a:	88aa      	ldrh	r2, [r5, #4]
 8001d6c:	2a56      	cmp	r2, #86	@ 0x56
 8001d6e:	d000      	beq.n	8001d72 <modifySettingsWithCommand+0x23e>
 8001d70:	e719      	b.n	8001ba6 <modifySettingsWithCommand+0x72>
		s2Rev = atoi(c.value);
 8001d72:	0020      	movs	r0, r4
 8001d74:	f005 fc28 	bl	80075c8 <atoi>
 8001d78:	4b58      	ldr	r3, [pc, #352]	@ (8001edc <modifySettingsWithCommand+0x3a8>)
	if (strcmp(c.type, COMMAND_M1ASS) == 0) {
 8001d7a:	4a3e      	ldr	r2, [pc, #248]	@ (8001e74 <modifySettingsWithCommand+0x340>)
		s2Rev = atoi(c.value);
 8001d7c:	7018      	strb	r0, [r3, #0]
		isOK = TRUE;
 8001d7e:	9b01      	ldr	r3, [sp, #4]
		s2Rev = atoi(c.value);
 8001d80:	2601      	movs	r6, #1
	if (strcmp(c.type, COMMAND_M1ASS) == 0) {
 8001d82:	4293      	cmp	r3, r2
 8001d84:	d000      	beq.n	8001d88 <modifySettingsWithCommand+0x254>
 8001d86:	e712      	b.n	8001bae <modifySettingsWithCommand+0x7a>
 8001d88:	88aa      	ldrh	r2, [r5, #4]
 8001d8a:	2a53      	cmp	r2, #83	@ 0x53
 8001d8c:	d000      	beq.n	8001d90 <modifySettingsWithCommand+0x25c>
 8001d8e:	e70e      	b.n	8001bae <modifySettingsWithCommand+0x7a>
		if (strcmp(c.value, VALUE_ML) == 0) {
 8001d90:	4a53      	ldr	r2, [pc, #332]	@ (8001ee0 <modifySettingsWithCommand+0x3ac>)
 8001d92:	8821      	ldrh	r1, [r4, #0]
 8001d94:	4291      	cmp	r1, r2
 8001d96:	d100      	bne.n	8001d9a <modifySettingsWithCommand+0x266>
 8001d98:	e127      	b.n	8001fea <modifySettingsWithCommand+0x4b6>
		if (strcmp(c.value, VALUE_MR) == 0) {
 8001d9a:	4a52      	ldr	r2, [pc, #328]	@ (8001ee4 <modifySettingsWithCommand+0x3b0>)
 8001d9c:	8821      	ldrh	r1, [r4, #0]
 8001d9e:	4291      	cmp	r1, r2
 8001da0:	d100      	bne.n	8001da4 <modifySettingsWithCommand+0x270>
 8001da2:	e11a      	b.n	8001fda <modifySettingsWithCommand+0x4a6>
		if (strcmp(c.value, VALUE_WP) == 0) {
 8001da4:	4a50      	ldr	r2, [pc, #320]	@ (8001ee8 <modifySettingsWithCommand+0x3b4>)
 8001da6:	8821      	ldrh	r1, [r4, #0]
 8001da8:	4291      	cmp	r1, r2
 8001daa:	d000      	beq.n	8001dae <modifySettingsWithCommand+0x27a>
 8001dac:	e6ff      	b.n	8001bae <modifySettingsWithCommand+0x7a>
 8001dae:	78a2      	ldrb	r2, [r4, #2]
 8001db0:	2a00      	cmp	r2, #0
 8001db2:	d000      	beq.n	8001db6 <modifySettingsWithCommand+0x282>
 8001db4:	e6fb      	b.n	8001bae <modifySettingsWithCommand+0x7a>
			mWeapon = M1;
 8001db6:	494d      	ldr	r1, [pc, #308]	@ (8001eec <modifySettingsWithCommand+0x3b8>)
 8001db8:	2601      	movs	r6, #1
 8001dba:	700a      	strb	r2, [r1, #0]
			isOK = TRUE;
 8001dbc:	e6f7      	b.n	8001bae <modifySettingsWithCommand+0x7a>
	if (strcmp(c.type, COMMAND_STATUS) == 0) {
 8001dbe:	4b4c      	ldr	r3, [pc, #304]	@ (8001ef0 <modifySettingsWithCommand+0x3bc>)
 8001dc0:	88aa      	ldrh	r2, [r5, #4]
 8001dc2:	429a      	cmp	r2, r3
 8001dc4:	d000      	beq.n	8001dc8 <modifySettingsWithCommand+0x294>
 8001dc6:	e72a      	b.n	8001c1e <modifySettingsWithCommand+0xea>
 8001dc8:	79ab      	ldrb	r3, [r5, #6]
 8001dca:	2b00      	cmp	r3, #0
 8001dcc:	d000      	beq.n	8001dd0 <modifySettingsWithCommand+0x29c>
 8001dce:	e726      	b.n	8001c1e <modifySettingsWithCommand+0xea>
		serialPrintStatus();
 8001dd0:	f7ff fd5c 	bl	800188c <serialPrintStatus>
 8001dd4:	2601      	movs	r6, #1
 8001dd6:	e722      	b.n	8001c1e <modifySettingsWithCommand+0xea>
	if (strcmp(c.type, COMMAND_READ) == 0) {
 8001dd8:	792b      	ldrb	r3, [r5, #4]
 8001dda:	2b00      	cmp	r3, #0
 8001ddc:	d000      	beq.n	8001de0 <modifySettingsWithCommand+0x2ac>
 8001dde:	e714      	b.n	8001c0a <modifySettingsWithCommand+0xd6>
		readSettingsFromEeprom();
 8001de0:	f7ff fc60 	bl	80016a4 <readSettingsFromEeprom>
		serialPrintSettings();
 8001de4:	2601      	movs	r6, #1
 8001de6:	f7ff fdd7 	bl	8001998 <serialPrintSettings>
		isOK = TRUE;
 8001dea:	e70e      	b.n	8001c0a <modifySettingsWithCommand+0xd6>
	if (strcmp(c.type, COMMAND_SAVE) == 0) {
 8001dec:	792a      	ldrb	r2, [r5, #4]
 8001dee:	2a00      	cmp	r2, #0
 8001df0:	d000      	beq.n	8001df4 <modifySettingsWithCommand+0x2c0>
 8001df2:	e706      	b.n	8001c02 <modifySettingsWithCommand+0xce>
		storeSettingsToEeprom();
 8001df4:	f7ff fb96 	bl	8001524 <storeSettingsToEeprom>
 8001df8:	2601      	movs	r6, #1
 8001dfa:	9b01      	ldr	r3, [sp, #4]
 8001dfc:	e701      	b.n	8001c02 <modifySettingsWithCommand+0xce>
	if (strcmp(c.type, COMMAND_RXPWMMODE) == 0) {
 8001dfe:	88ab      	ldrh	r3, [r5, #4]
 8001e00:	2b4d      	cmp	r3, #77	@ 0x4d
 8001e02:	d000      	beq.n	8001e06 <modifySettingsWithCommand+0x2d2>
 8001e04:	e6f8      	b.n	8001bf8 <modifySettingsWithCommand+0xc4>
		recieverIsPWM = atoi(c.value);
 8001e06:	0020      	movs	r0, r4
 8001e08:	f005 fbde 	bl	80075c8 <atoi>
 8001e0c:	4b39      	ldr	r3, [pc, #228]	@ (8001ef4 <modifySettingsWithCommand+0x3c0>)
 8001e0e:	2601      	movs	r6, #1
 8001e10:	7018      	strb	r0, [r3, #0]
		isOK = TRUE;
 8001e12:	e6f1      	b.n	8001bf8 <modifySettingsWithCommand+0xc4>
	if (strcmp(c.type, COMMAND_CUTOFFVOLTAGE) == 0) {
 8001e14:	4b38      	ldr	r3, [pc, #224]	@ (8001ef8 <modifySettingsWithCommand+0x3c4>)
 8001e16:	686a      	ldr	r2, [r5, #4]
 8001e18:	429a      	cmp	r2, r3
 8001e1a:	d000      	beq.n	8001e1e <modifySettingsWithCommand+0x2ea>
 8001e1c:	e6e7      	b.n	8001bee <modifySettingsWithCommand+0xba>
		cutOffVoltage = atoi(c.value);
 8001e1e:	0020      	movs	r0, r4
 8001e20:	f005 fbd2 	bl	80075c8 <atoi>
 8001e24:	4b35      	ldr	r3, [pc, #212]	@ (8001efc <modifySettingsWithCommand+0x3c8>)
 8001e26:	2601      	movs	r6, #1
 8001e28:	7018      	strb	r0, [r3, #0]
		isOK = TRUE;
 8001e2a:	e6e0      	b.n	8001bee <modifySettingsWithCommand+0xba>
	if (strcmp(c.type, COMMAND_LIMITVOLTAGE) == 0) {
 8001e2c:	792b      	ldrb	r3, [r5, #4]
 8001e2e:	2b00      	cmp	r3, #0
 8001e30:	d000      	beq.n	8001e34 <modifySettingsWithCommand+0x300>
 8001e32:	e6d7      	b.n	8001be4 <modifySettingsWithCommand+0xb0>
		limitVoltage = atoi(c.value);
 8001e34:	0020      	movs	r0, r4
 8001e36:	f005 fbc7 	bl	80075c8 <atoi>
 8001e3a:	4b31      	ldr	r3, [pc, #196]	@ (8001f00 <modifySettingsWithCommand+0x3cc>)
 8001e3c:	2601      	movs	r6, #1
 8001e3e:	7018      	strb	r0, [r3, #0]
		isOK = TRUE;
 8001e40:	e6d0      	b.n	8001be4 <modifySettingsWithCommand+0xb0>
 8001e42:	46c0      	nop			@ (mov r8, r8)
 8001e44:	200003fc 	.word	0x200003fc
 8001e48:	43324854 	.word	0x43324854
 8001e4c:	43325453 	.word	0x43325453
 8001e50:	43325057 	.word	0x43325057
 8001e54:	43323153 	.word	0x43323153
 8001e58:	43323253 	.word	0x43323253
 8001e5c:	324d5241 	.word	0x324d5241
 8001e60:	4552314d 	.word	0x4552314d
 8001e64:	4552324d 	.word	0x4552324d
 8001e68:	4552334d 	.word	0x4552334d
 8001e6c:	45523153 	.word	0x45523153
 8001e70:	45523253 	.word	0x45523253
 8001e74:	5341314d 	.word	0x5341314d
 8001e78:	5341324d 	.word	0x5341324d
 8001e7c:	5341334d 	.word	0x5341334d
 8001e80:	44445057 	.word	0x44445057
 8001e84:	4f4b4e54 	.word	0x4f4b4e54
 8001e88:	49444f4e 	.word	0x49444f4e
 8001e8c:	4d494c56 	.word	0x4d494c56
 8001e90:	54554356 	.word	0x54554356
 8001e94:	57505852 	.word	0x57505852
 8001e98:	45564153 	.word	0x45564153
 8001e9c:	44414552 	.word	0x44414552
 8001ea0:	004e4f43 	.word	0x004e4f43
 8001ea4:	54415453 	.word	0x54415453
 8001ea8:	08008d20 	.word	0x08008d20
 8001eac:	20000208 	.word	0x20000208
 8001eb0:	20000011 	.word	0x20000011
 8001eb4:	20000010 	.word	0x20000010
 8001eb8:	2000000f 	.word	0x2000000f
 8001ebc:	2000000e 	.word	0x2000000e
 8001ec0:	2000000d 	.word	0x2000000d
 8001ec4:	00004843 	.word	0x00004843
 8001ec8:	2000000c 	.word	0x2000000c
 8001ecc:	2000000b 	.word	0x2000000b
 8001ed0:	2000000a 	.word	0x2000000a
 8001ed4:	20000220 	.word	0x20000220
 8001ed8:	2000021f 	.word	0x2000021f
 8001edc:	2000021e 	.word	0x2000021e
 8001ee0:	00004c4d 	.word	0x00004c4d
 8001ee4:	0000524d 	.word	0x0000524d
 8001ee8:	00005057 	.word	0x00005057
 8001eec:	20000008 	.word	0x20000008
 8001ef0:	00005355 	.word	0x00005355
 8001ef4:	20000000 	.word	0x20000000
 8001ef8:	0046464f 	.word	0x0046464f
 8001efc:	20000004 	.word	0x20000004
 8001f00:	20000005 	.word	0x20000005
	if (strcmp(c.type, COMMAND_NODISARM) == 0) {
 8001f04:	4b45      	ldr	r3, [pc, #276]	@ (800201c <modifySettingsWithCommand+0x4e8>)
 8001f06:	686a      	ldr	r2, [r5, #4]
 8001f08:	429a      	cmp	r2, r3
 8001f0a:	d000      	beq.n	8001f0e <modifySettingsWithCommand+0x3da>
 8001f0c:	e665      	b.n	8001bda <modifySettingsWithCommand+0xa6>
 8001f0e:	7a2b      	ldrb	r3, [r5, #8]
 8001f10:	2b00      	cmp	r3, #0
 8001f12:	d000      	beq.n	8001f16 <modifySettingsWithCommand+0x3e2>
 8001f14:	e661      	b.n	8001bda <modifySettingsWithCommand+0xa6>
		noDisarm = atoi(c.value);
 8001f16:	0020      	movs	r0, r4
 8001f18:	f005 fb56 	bl	80075c8 <atoi>
 8001f1c:	4b40      	ldr	r3, [pc, #256]	@ (8002020 <modifySettingsWithCommand+0x4ec>)
 8001f1e:	2601      	movs	r6, #1
 8001f20:	7018      	strb	r0, [r3, #0]
		isOK = TRUE;
 8001f22:	e65a      	b.n	8001bda <modifySettingsWithCommand+0xa6>
	if (strcmp(c.type, COMMAND_TANKON) == 0) {
 8001f24:	88ab      	ldrh	r3, [r5, #4]
 8001f26:	2b4e      	cmp	r3, #78	@ 0x4e
 8001f28:	d000      	beq.n	8001f2c <modifySettingsWithCommand+0x3f8>
 8001f2a:	e651      	b.n	8001bd0 <modifySettingsWithCommand+0x9c>
		tankMixIsON = atoi(c.value);
 8001f2c:	0020      	movs	r0, r4
 8001f2e:	f005 fb4b 	bl	80075c8 <atoi>
 8001f32:	4b3c      	ldr	r3, [pc, #240]	@ (8002024 <modifySettingsWithCommand+0x4f0>)
 8001f34:	2601      	movs	r6, #1
 8001f36:	7018      	strb	r0, [r3, #0]
		isOK = TRUE;
 8001f38:	e64a      	b.n	8001bd0 <modifySettingsWithCommand+0x9c>
	if (strcmp(c.type, COMMAND_WPDD) == 0) {
 8001f3a:	792a      	ldrb	r2, [r5, #4]
 8001f3c:	2a00      	cmp	r2, #0
 8001f3e:	d000      	beq.n	8001f42 <modifySettingsWithCommand+0x40e>
 8001f40:	e642      	b.n	8001bc8 <modifySettingsWithCommand+0x94>
		weaponDoubleDirection = atoi(c.value);
 8001f42:	0020      	movs	r0, r4
 8001f44:	f005 fb40 	bl	80075c8 <atoi>
 8001f48:	4b37      	ldr	r3, [pc, #220]	@ (8002028 <modifySettingsWithCommand+0x4f4>)
 8001f4a:	2601      	movs	r6, #1
 8001f4c:	7018      	strb	r0, [r3, #0]
		isOK = TRUE;
 8001f4e:	9b01      	ldr	r3, [sp, #4]
 8001f50:	e63a      	b.n	8001bc8 <modifySettingsWithCommand+0x94>
	if (strcmp(c.type, COMMAND_M3ASS) == 0) {
 8001f52:	88aa      	ldrh	r2, [r5, #4]
 8001f54:	2a53      	cmp	r2, #83	@ 0x53
 8001f56:	d000      	beq.n	8001f5a <modifySettingsWithCommand+0x426>
 8001f58:	e631      	b.n	8001bbe <modifySettingsWithCommand+0x8a>
		if (strcmp(c.value, VALUE_ML) == 0) {
 8001f5a:	4a34      	ldr	r2, [pc, #208]	@ (800202c <modifySettingsWithCommand+0x4f8>)
 8001f5c:	8821      	ldrh	r1, [r4, #0]
 8001f5e:	4291      	cmp	r1, r2
 8001f60:	d033      	beq.n	8001fca <modifySettingsWithCommand+0x496>
		if (strcmp(c.value, VALUE_MR) == 0) {
 8001f62:	4a33      	ldr	r2, [pc, #204]	@ (8002030 <modifySettingsWithCommand+0x4fc>)
 8001f64:	8821      	ldrh	r1, [r4, #0]
 8001f66:	4291      	cmp	r1, r2
 8001f68:	d027      	beq.n	8001fba <modifySettingsWithCommand+0x486>
		if (strcmp(c.value, VALUE_WP) == 0) {
 8001f6a:	4a32      	ldr	r2, [pc, #200]	@ (8002034 <modifySettingsWithCommand+0x500>)
 8001f6c:	8821      	ldrh	r1, [r4, #0]
 8001f6e:	4291      	cmp	r1, r2
 8001f70:	d000      	beq.n	8001f74 <modifySettingsWithCommand+0x440>
 8001f72:	e624      	b.n	8001bbe <modifySettingsWithCommand+0x8a>
 8001f74:	78a2      	ldrb	r2, [r4, #2]
 8001f76:	2a00      	cmp	r2, #0
 8001f78:	d000      	beq.n	8001f7c <modifySettingsWithCommand+0x448>
 8001f7a:	e620      	b.n	8001bbe <modifySettingsWithCommand+0x8a>
			mWeapon = M3;
 8001f7c:	2102      	movs	r1, #2
 8001f7e:	4a2e      	ldr	r2, [pc, #184]	@ (8002038 <modifySettingsWithCommand+0x504>)
 8001f80:	2601      	movs	r6, #1
 8001f82:	7011      	strb	r1, [r2, #0]
			isOK = TRUE;
 8001f84:	e61b      	b.n	8001bbe <modifySettingsWithCommand+0x8a>
	if (strcmp(c.type, COMMAND_M2ASS) == 0) {
 8001f86:	88aa      	ldrh	r2, [r5, #4]
 8001f88:	2a53      	cmp	r2, #83	@ 0x53
 8001f8a:	d000      	beq.n	8001f8e <modifySettingsWithCommand+0x45a>
 8001f8c:	e613      	b.n	8001bb6 <modifySettingsWithCommand+0x82>
		if (strcmp(c.value, VALUE_ML) == 0) {
 8001f8e:	4a27      	ldr	r2, [pc, #156]	@ (800202c <modifySettingsWithCommand+0x4f8>)
 8001f90:	8821      	ldrh	r1, [r4, #0]
 8001f92:	4291      	cmp	r1, r2
 8001f94:	d039      	beq.n	800200a <modifySettingsWithCommand+0x4d6>
		if (strcmp(c.value, VALUE_MR) == 0) {
 8001f96:	4a26      	ldr	r2, [pc, #152]	@ (8002030 <modifySettingsWithCommand+0x4fc>)
 8001f98:	8821      	ldrh	r1, [r4, #0]
 8001f9a:	4291      	cmp	r1, r2
 8001f9c:	d02d      	beq.n	8001ffa <modifySettingsWithCommand+0x4c6>
		if (strcmp(c.value, VALUE_WP) == 0) {
 8001f9e:	4a25      	ldr	r2, [pc, #148]	@ (8002034 <modifySettingsWithCommand+0x500>)
 8001fa0:	8821      	ldrh	r1, [r4, #0]
 8001fa2:	4291      	cmp	r1, r2
 8001fa4:	d000      	beq.n	8001fa8 <modifySettingsWithCommand+0x474>
 8001fa6:	e606      	b.n	8001bb6 <modifySettingsWithCommand+0x82>
 8001fa8:	78a2      	ldrb	r2, [r4, #2]
 8001faa:	2a00      	cmp	r2, #0
 8001fac:	d000      	beq.n	8001fb0 <modifySettingsWithCommand+0x47c>
 8001fae:	e602      	b.n	8001bb6 <modifySettingsWithCommand+0x82>
			mWeapon = M2;
 8001fb0:	2101      	movs	r1, #1
 8001fb2:	4a21      	ldr	r2, [pc, #132]	@ (8002038 <modifySettingsWithCommand+0x504>)
 8001fb4:	2601      	movs	r6, #1
 8001fb6:	7011      	strb	r1, [r2, #0]
			isOK = TRUE;
 8001fb8:	e5fd      	b.n	8001bb6 <modifySettingsWithCommand+0x82>
		if (strcmp(c.value, VALUE_MR) == 0) {
 8001fba:	78a2      	ldrb	r2, [r4, #2]
 8001fbc:	2a00      	cmp	r2, #0
 8001fbe:	d1d4      	bne.n	8001f6a <modifySettingsWithCommand+0x436>
			mRight = M3;
 8001fc0:	2102      	movs	r1, #2
 8001fc2:	4a1e      	ldr	r2, [pc, #120]	@ (800203c <modifySettingsWithCommand+0x508>)
 8001fc4:	2601      	movs	r6, #1
 8001fc6:	7011      	strb	r1, [r2, #0]
			isOK = TRUE;
 8001fc8:	e7cf      	b.n	8001f6a <modifySettingsWithCommand+0x436>
		if (strcmp(c.value, VALUE_ML) == 0) {
 8001fca:	78a2      	ldrb	r2, [r4, #2]
 8001fcc:	2a00      	cmp	r2, #0
 8001fce:	d1c8      	bne.n	8001f62 <modifySettingsWithCommand+0x42e>
			mLeft = M3;
 8001fd0:	2102      	movs	r1, #2
 8001fd2:	4a1b      	ldr	r2, [pc, #108]	@ (8002040 <modifySettingsWithCommand+0x50c>)
 8001fd4:	2601      	movs	r6, #1
 8001fd6:	7011      	strb	r1, [r2, #0]
			isOK = TRUE;
 8001fd8:	e7c3      	b.n	8001f62 <modifySettingsWithCommand+0x42e>
		if (strcmp(c.value, VALUE_MR) == 0) {
 8001fda:	78a2      	ldrb	r2, [r4, #2]
 8001fdc:	2a00      	cmp	r2, #0
 8001fde:	d000      	beq.n	8001fe2 <modifySettingsWithCommand+0x4ae>
 8001fe0:	e6e0      	b.n	8001da4 <modifySettingsWithCommand+0x270>
			mRight = M1;
 8001fe2:	4916      	ldr	r1, [pc, #88]	@ (800203c <modifySettingsWithCommand+0x508>)
 8001fe4:	2601      	movs	r6, #1
 8001fe6:	700a      	strb	r2, [r1, #0]
			isOK = TRUE;
 8001fe8:	e6dc      	b.n	8001da4 <modifySettingsWithCommand+0x270>
		if (strcmp(c.value, VALUE_ML) == 0) {
 8001fea:	78a2      	ldrb	r2, [r4, #2]
 8001fec:	2a00      	cmp	r2, #0
 8001fee:	d000      	beq.n	8001ff2 <modifySettingsWithCommand+0x4be>
 8001ff0:	e6d3      	b.n	8001d9a <modifySettingsWithCommand+0x266>
			mLeft = M1;
 8001ff2:	4913      	ldr	r1, [pc, #76]	@ (8002040 <modifySettingsWithCommand+0x50c>)
 8001ff4:	2601      	movs	r6, #1
 8001ff6:	700a      	strb	r2, [r1, #0]
			isOK = TRUE;
 8001ff8:	e6cf      	b.n	8001d9a <modifySettingsWithCommand+0x266>
		if (strcmp(c.value, VALUE_MR) == 0) {
 8001ffa:	78a2      	ldrb	r2, [r4, #2]
 8001ffc:	2a00      	cmp	r2, #0
 8001ffe:	d1ce      	bne.n	8001f9e <modifySettingsWithCommand+0x46a>
			mRight = M2;
 8002000:	2101      	movs	r1, #1
 8002002:	4a0e      	ldr	r2, [pc, #56]	@ (800203c <modifySettingsWithCommand+0x508>)
 8002004:	2601      	movs	r6, #1
 8002006:	7011      	strb	r1, [r2, #0]
			isOK = TRUE;
 8002008:	e7c9      	b.n	8001f9e <modifySettingsWithCommand+0x46a>
		if (strcmp(c.value, VALUE_ML) == 0) {
 800200a:	78a2      	ldrb	r2, [r4, #2]
 800200c:	2a00      	cmp	r2, #0
 800200e:	d1c2      	bne.n	8001f96 <modifySettingsWithCommand+0x462>
			mLeft = M2;
 8002010:	2101      	movs	r1, #1
 8002012:	4a0b      	ldr	r2, [pc, #44]	@ (8002040 <modifySettingsWithCommand+0x50c>)
 8002014:	2601      	movs	r6, #1
 8002016:	7011      	strb	r1, [r2, #0]
			isOK = TRUE;
 8002018:	e7bd      	b.n	8001f96 <modifySettingsWithCommand+0x462>
 800201a:	46c0      	nop			@ (mov r8, r8)
 800201c:	4d524153 	.word	0x4d524153
 8002020:	20000006 	.word	0x20000006
 8002024:	20000007 	.word	0x20000007
 8002028:	2000021c 	.word	0x2000021c
 800202c:	00004c4d 	.word	0x00004c4d
 8002030:	0000524d 	.word	0x0000524d
 8002034:	00005057 	.word	0x00005057
 8002038:	20000008 	.word	0x20000008
 800203c:	20000009 	.word	0x20000009
 8002040:	2000021d 	.word	0x2000021d

08002044 <HAL_MspInit>:

  /* USER CODE BEGIN MspInit 0 */

  /* USER CODE END MspInit 0 */

  __HAL_RCC_SYSCFG_CLK_ENABLE();
 8002044:	2201      	movs	r2, #1
 8002046:	4b0a      	ldr	r3, [pc, #40]	@ (8002070 <HAL_MspInit+0x2c>)
{
 8002048:	b082      	sub	sp, #8
  __HAL_RCC_SYSCFG_CLK_ENABLE();
 800204a:	6999      	ldr	r1, [r3, #24]
 800204c:	4311      	orrs	r1, r2
 800204e:	6199      	str	r1, [r3, #24]
 8002050:	6999      	ldr	r1, [r3, #24]
 8002052:	400a      	ands	r2, r1
  __HAL_RCC_PWR_CLK_ENABLE();
 8002054:	2180      	movs	r1, #128	@ 0x80
  __HAL_RCC_SYSCFG_CLK_ENABLE();
 8002056:	9200      	str	r2, [sp, #0]
 8002058:	9a00      	ldr	r2, [sp, #0]
  __HAL_RCC_PWR_CLK_ENABLE();
 800205a:	69da      	ldr	r2, [r3, #28]
 800205c:	0549      	lsls	r1, r1, #21
 800205e:	430a      	orrs	r2, r1
 8002060:	61da      	str	r2, [r3, #28]
 8002062:	69db      	ldr	r3, [r3, #28]
 8002064:	400b      	ands	r3, r1
 8002066:	9301      	str	r3, [sp, #4]
 8002068:	9b01      	ldr	r3, [sp, #4]
  /* System interrupt init*/

  /* USER CODE BEGIN MspInit 1 */

  /* USER CODE END MspInit 1 */
}
 800206a:	b002      	add	sp, #8
 800206c:	4770      	bx	lr
 800206e:	46c0      	nop			@ (mov r8, r8)
 8002070:	40021000 	.word	0x40021000

08002074 <HAL_ADC_MspInit>:
* This function configures the hardware resources used in this example
* @param hadc: ADC handle pointer
* @retval None
*/
void HAL_ADC_MspInit(ADC_HandleTypeDef* hadc)
{
 8002074:	b510      	push	{r4, lr}
 8002076:	0004      	movs	r4, r0
 8002078:	b088      	sub	sp, #32
  GPIO_InitTypeDef GPIO_InitStruct = {0};
 800207a:	2214      	movs	r2, #20
 800207c:	2100      	movs	r1, #0
 800207e:	a802      	add	r0, sp, #8
 8002080:	f005 fc6e 	bl	8007960 <memset>
  if(hadc->Instance==ADC1)
 8002084:	4b11      	ldr	r3, [pc, #68]	@ (80020cc <HAL_ADC_MspInit+0x58>)
 8002086:	6822      	ldr	r2, [r4, #0]
 8002088:	429a      	cmp	r2, r3
 800208a:	d001      	beq.n	8002090 <HAL_ADC_MspInit+0x1c>

  /* USER CODE END ADC1_MspInit 1 */

  }

}
 800208c:	b008      	add	sp, #32
 800208e:	bd10      	pop	{r4, pc}
    __HAL_RCC_ADC1_CLK_ENABLE();
 8002090:	2180      	movs	r1, #128	@ 0x80
 8002092:	4b0f      	ldr	r3, [pc, #60]	@ (80020d0 <HAL_ADC_MspInit+0x5c>)
 8002094:	0089      	lsls	r1, r1, #2
 8002096:	699a      	ldr	r2, [r3, #24]
    HAL_GPIO_Init(GPIOA, &GPIO_InitStruct);
 8002098:	2090      	movs	r0, #144	@ 0x90
    __HAL_RCC_ADC1_CLK_ENABLE();
 800209a:	430a      	orrs	r2, r1
 800209c:	619a      	str	r2, [r3, #24]
 800209e:	699a      	ldr	r2, [r3, #24]
    HAL_GPIO_Init(GPIOA, &GPIO_InitStruct);
 80020a0:	05c0      	lsls	r0, r0, #23
    __HAL_RCC_ADC1_CLK_ENABLE();
 80020a2:	400a      	ands	r2, r1
    __HAL_RCC_GPIOA_CLK_ENABLE();
 80020a4:	2180      	movs	r1, #128	@ 0x80
    __HAL_RCC_ADC1_CLK_ENABLE();
 80020a6:	9200      	str	r2, [sp, #0]
 80020a8:	9a00      	ldr	r2, [sp, #0]
    __HAL_RCC_GPIOA_CLK_ENABLE();
 80020aa:	695a      	ldr	r2, [r3, #20]
 80020ac:	0289      	lsls	r1, r1, #10
 80020ae:	430a      	orrs	r2, r1
 80020b0:	615a      	str	r2, [r3, #20]
 80020b2:	695b      	ldr	r3, [r3, #20]
    GPIO_InitStruct.Pin = VBAT_Pin|POT1_Pin|POT2_Pin;
 80020b4:	2207      	movs	r2, #7
    __HAL_RCC_GPIOA_CLK_ENABLE();
 80020b6:	400b      	ands	r3, r1
 80020b8:	9301      	str	r3, [sp, #4]
 80020ba:	9b01      	ldr	r3, [sp, #4]
    GPIO_InitStruct.Pin = VBAT_Pin|POT1_Pin|POT2_Pin;
 80020bc:	2303      	movs	r3, #3
    HAL_GPIO_Init(GPIOA, &GPIO_InitStruct);
 80020be:	a902      	add	r1, sp, #8
    GPIO_InitStruct.Pin = VBAT_Pin|POT1_Pin|POT2_Pin;
 80020c0:	9202      	str	r2, [sp, #8]
 80020c2:	9303      	str	r3, [sp, #12]
    HAL_GPIO_Init(GPIOA, &GPIO_InitStruct);
 80020c4:	f000 fc74 	bl	80029b0 <HAL_GPIO_Init>
}
 80020c8:	e7e0      	b.n	800208c <HAL_ADC_MspInit+0x18>
 80020ca:	46c0      	nop			@ (mov r8, r8)
 80020cc:	40012400 	.word	0x40012400
 80020d0:	40021000 	.word	0x40021000

080020d4 <HAL_I2C_MspInit>:
* This function configures the hardware resources used in this example
* @param hi2c: I2C handle pointer
* @retval None
*/
void HAL_I2C_MspInit(I2C_HandleTypeDef* hi2c)
{
 80020d4:	b510      	push	{r4, lr}
 80020d6:	0004      	movs	r4, r0
 80020d8:	b088      	sub	sp, #32
  GPIO_InitTypeDef GPIO_InitStruct = {0};
 80020da:	2214      	movs	r2, #20
 80020dc:	2100      	movs	r1, #0
 80020de:	a802      	add	r0, sp, #8
 80020e0:	f005 fc3e 	bl	8007960 <memset>
  if(hi2c->Instance==I2C1)
 80020e4:	4b14      	ldr	r3, [pc, #80]	@ (8002138 <HAL_I2C_MspInit+0x64>)
 80020e6:	6822      	ldr	r2, [r4, #0]
 80020e8:	429a      	cmp	r2, r3
 80020ea:	d001      	beq.n	80020f0 <HAL_I2C_MspInit+0x1c>

  /* USER CODE END I2C1_MspInit 1 */

  }

}
 80020ec:	b008      	add	sp, #32
 80020ee:	bd10      	pop	{r4, pc}
    __HAL_RCC_GPIOB_CLK_ENABLE();
 80020f0:	2280      	movs	r2, #128	@ 0x80
 80020f2:	4c12      	ldr	r4, [pc, #72]	@ (800213c <HAL_I2C_MspInit+0x68>)
 80020f4:	02d2      	lsls	r2, r2, #11
 80020f6:	6963      	ldr	r3, [r4, #20]
    HAL_GPIO_Init(GPIOB, &GPIO_InitStruct);
 80020f8:	4811      	ldr	r0, [pc, #68]	@ (8002140 <HAL_I2C_MspInit+0x6c>)
    __HAL_RCC_GPIOB_CLK_ENABLE();
 80020fa:	4313      	orrs	r3, r2
 80020fc:	6163      	str	r3, [r4, #20]
 80020fe:	6963      	ldr	r3, [r4, #20]
    HAL_GPIO_Init(GPIOB, &GPIO_InitStruct);
 8002100:	a902      	add	r1, sp, #8
    __HAL_RCC_GPIOB_CLK_ENABLE();
 8002102:	4013      	ands	r3, r2
 8002104:	9300      	str	r3, [sp, #0]
    GPIO_InitStruct.Pin = GPIO_PIN_8|GPIO_PIN_9;
 8002106:	22c0      	movs	r2, #192	@ 0xc0
    __HAL_RCC_GPIOB_CLK_ENABLE();
 8002108:	9b00      	ldr	r3, [sp, #0]
    GPIO_InitStruct.Pin = GPIO_PIN_8|GPIO_PIN_9;
 800210a:	2312      	movs	r3, #18
 800210c:	0092      	lsls	r2, r2, #2
 800210e:	9202      	str	r2, [sp, #8]
 8002110:	9303      	str	r3, [sp, #12]
 8002112:	2201      	movs	r2, #1
 8002114:	2303      	movs	r3, #3
 8002116:	9204      	str	r2, [sp, #16]
 8002118:	9305      	str	r3, [sp, #20]
    GPIO_InitStruct.Alternate = GPIO_AF1_I2C1;
 800211a:	2301      	movs	r3, #1
 800211c:	9306      	str	r3, [sp, #24]
    HAL_GPIO_Init(GPIOB, &GPIO_InitStruct);
 800211e:	f000 fc47 	bl	80029b0 <HAL_GPIO_Init>
    __HAL_RCC_I2C1_CLK_ENABLE();
 8002122:	2280      	movs	r2, #128	@ 0x80
 8002124:	69e3      	ldr	r3, [r4, #28]
 8002126:	0392      	lsls	r2, r2, #14
 8002128:	4313      	orrs	r3, r2
 800212a:	61e3      	str	r3, [r4, #28]
 800212c:	69e3      	ldr	r3, [r4, #28]
 800212e:	4013      	ands	r3, r2
 8002130:	9301      	str	r3, [sp, #4]
 8002132:	9b01      	ldr	r3, [sp, #4]
}
 8002134:	e7da      	b.n	80020ec <HAL_I2C_MspInit+0x18>
 8002136:	46c0      	nop			@ (mov r8, r8)
 8002138:	40005400 	.word	0x40005400
 800213c:	40021000 	.word	0x40021000
 8002140:	48000400 	.word	0x48000400

08002144 <HAL_TIM_Base_MspInit>:
* @param htim_base: TIM_Base handle pointer
* @retval None
*/
void HAL_TIM_Base_MspInit(TIM_HandleTypeDef* htim_base)
{
  if(htim_base->Instance==TIM1)
 8002144:	6803      	ldr	r3, [r0, #0]
 8002146:	4a1d      	ldr	r2, [pc, #116]	@ (80021bc <HAL_TIM_Base_MspInit+0x78>)
{
 8002148:	b084      	sub	sp, #16
  if(htim_base->Instance==TIM1)
 800214a:	4293      	cmp	r3, r2
 800214c:	d014      	beq.n	8002178 <HAL_TIM_Base_MspInit+0x34>
    __HAL_RCC_TIM1_CLK_ENABLE();
  /* USER CODE BEGIN TIM1_MspInit 1 */

  /* USER CODE END TIM1_MspInit 1 */
  }
  else if(htim_base->Instance==TIM6)
 800214e:	4a1c      	ldr	r2, [pc, #112]	@ (80021c0 <HAL_TIM_Base_MspInit+0x7c>)
 8002150:	4293      	cmp	r3, r2
 8002152:	d007      	beq.n	8002164 <HAL_TIM_Base_MspInit+0x20>
    __HAL_RCC_TIM6_CLK_ENABLE();
  /* USER CODE BEGIN TIM6_MspInit 1 */

  /* USER CODE END TIM6_MspInit 1 */
  }
  else if(htim_base->Instance==TIM16)
 8002154:	4a1b      	ldr	r2, [pc, #108]	@ (80021c4 <HAL_TIM_Base_MspInit+0x80>)
 8002156:	4293      	cmp	r3, r2
 8002158:	d019      	beq.n	800218e <HAL_TIM_Base_MspInit+0x4a>
    __HAL_RCC_TIM16_CLK_ENABLE();
  /* USER CODE BEGIN TIM16_MspInit 1 */

  /* USER CODE END TIM16_MspInit 1 */
  }
  else if(htim_base->Instance==TIM17)
 800215a:	4a1b      	ldr	r2, [pc, #108]	@ (80021c8 <HAL_TIM_Base_MspInit+0x84>)
 800215c:	4293      	cmp	r3, r2
 800215e:	d021      	beq.n	80021a4 <HAL_TIM_Base_MspInit+0x60>
  /* USER CODE BEGIN TIM17_MspInit 1 */

  /* USER CODE END TIM17_MspInit 1 */
  }

}
 8002160:	b004      	add	sp, #16
 8002162:	4770      	bx	lr
    __HAL_RCC_TIM6_CLK_ENABLE();
 8002164:	2310      	movs	r3, #16
 8002166:	4a19      	ldr	r2, [pc, #100]	@ (80021cc <HAL_TIM_Base_MspInit+0x88>)
 8002168:	69d1      	ldr	r1, [r2, #28]
 800216a:	4319      	orrs	r1, r3
 800216c:	61d1      	str	r1, [r2, #28]
 800216e:	69d2      	ldr	r2, [r2, #28]
 8002170:	4013      	ands	r3, r2
 8002172:	9301      	str	r3, [sp, #4]
 8002174:	9b01      	ldr	r3, [sp, #4]
 8002176:	e7f3      	b.n	8002160 <HAL_TIM_Base_MspInit+0x1c>
    __HAL_RCC_TIM1_CLK_ENABLE();
 8002178:	2180      	movs	r1, #128	@ 0x80
 800217a:	4b14      	ldr	r3, [pc, #80]	@ (80021cc <HAL_TIM_Base_MspInit+0x88>)
 800217c:	0109      	lsls	r1, r1, #4
 800217e:	699a      	ldr	r2, [r3, #24]
 8002180:	430a      	orrs	r2, r1
 8002182:	619a      	str	r2, [r3, #24]
 8002184:	699b      	ldr	r3, [r3, #24]
 8002186:	400b      	ands	r3, r1
 8002188:	9300      	str	r3, [sp, #0]
 800218a:	9b00      	ldr	r3, [sp, #0]
 800218c:	e7e8      	b.n	8002160 <HAL_TIM_Base_MspInit+0x1c>
    __HAL_RCC_TIM16_CLK_ENABLE();
 800218e:	2180      	movs	r1, #128	@ 0x80
 8002190:	4b0e      	ldr	r3, [pc, #56]	@ (80021cc <HAL_TIM_Base_MspInit+0x88>)
 8002192:	0289      	lsls	r1, r1, #10
 8002194:	699a      	ldr	r2, [r3, #24]
 8002196:	430a      	orrs	r2, r1
 8002198:	619a      	str	r2, [r3, #24]
 800219a:	699b      	ldr	r3, [r3, #24]
 800219c:	400b      	ands	r3, r1
 800219e:	9302      	str	r3, [sp, #8]
 80021a0:	9b02      	ldr	r3, [sp, #8]
 80021a2:	e7dd      	b.n	8002160 <HAL_TIM_Base_MspInit+0x1c>
    __HAL_RCC_TIM17_CLK_ENABLE();
 80021a4:	2180      	movs	r1, #128	@ 0x80
 80021a6:	4b09      	ldr	r3, [pc, #36]	@ (80021cc <HAL_TIM_Base_MspInit+0x88>)
 80021a8:	02c9      	lsls	r1, r1, #11
 80021aa:	699a      	ldr	r2, [r3, #24]
 80021ac:	430a      	orrs	r2, r1
 80021ae:	619a      	str	r2, [r3, #24]
 80021b0:	699b      	ldr	r3, [r3, #24]
 80021b2:	400b      	ands	r3, r1
 80021b4:	9303      	str	r3, [sp, #12]
 80021b6:	9b03      	ldr	r3, [sp, #12]
}
 80021b8:	e7d2      	b.n	8002160 <HAL_TIM_Base_MspInit+0x1c>
 80021ba:	46c0      	nop			@ (mov r8, r8)
 80021bc:	40012c00 	.word	0x40012c00
 80021c0:	40001000 	.word	0x40001000
 80021c4:	40014400 	.word	0x40014400
 80021c8:	40014800 	.word	0x40014800
 80021cc:	40021000 	.word	0x40021000

080021d0 <HAL_TIM_MspPostInit>:

void HAL_TIM_MspPostInit(TIM_HandleTypeDef* htim)
{
 80021d0:	b510      	push	{r4, lr}
 80021d2:	0004      	movs	r4, r0
 80021d4:	b08a      	sub	sp, #40	@ 0x28
  GPIO_InitTypeDef GPIO_InitStruct = {0};
 80021d6:	2214      	movs	r2, #20
 80021d8:	2100      	movs	r1, #0
 80021da:	a804      	add	r0, sp, #16
 80021dc:	f005 fbc0 	bl	8007960 <memset>
  if(htim->Instance==TIM1)
 80021e0:	6823      	ldr	r3, [r4, #0]
 80021e2:	4a21      	ldr	r2, [pc, #132]	@ (8002268 <HAL_TIM_MspPostInit+0x98>)
 80021e4:	4293      	cmp	r3, r2
 80021e6:	d007      	beq.n	80021f8 <HAL_TIM_MspPostInit+0x28>

  /* USER CODE BEGIN TIM1_MspPostInit 1 */

  /* USER CODE END TIM1_MspPostInit 1 */
  }
  else if(htim->Instance==TIM16)
 80021e8:	4a20      	ldr	r2, [pc, #128]	@ (800226c <HAL_TIM_MspPostInit+0x9c>)
 80021ea:	4293      	cmp	r3, r2
 80021ec:	d01b      	beq.n	8002226 <HAL_TIM_MspPostInit+0x56>

  /* USER CODE BEGIN TIM16_MspPostInit 1 */

  /* USER CODE END TIM16_MspPostInit 1 */
  }
  else if(htim->Instance==TIM17)
 80021ee:	4a20      	ldr	r2, [pc, #128]	@ (8002270 <HAL_TIM_MspPostInit+0xa0>)
 80021f0:	4293      	cmp	r3, r2
 80021f2:	d02d      	beq.n	8002250 <HAL_TIM_MspPostInit+0x80>
  /* USER CODE BEGIN TIM17_MspPostInit 1 */

  /* USER CODE END TIM17_MspPostInit 1 */
  }

}
 80021f4:	b00a      	add	sp, #40	@ 0x28
 80021f6:	bd10      	pop	{r4, pc}
    __HAL_RCC_GPIOA_CLK_ENABLE();
 80021f8:	2180      	movs	r1, #128	@ 0x80
 80021fa:	4b1e      	ldr	r3, [pc, #120]	@ (8002274 <HAL_TIM_MspPostInit+0xa4>)
 80021fc:	0289      	lsls	r1, r1, #10
 80021fe:	695a      	ldr	r2, [r3, #20]
    HAL_GPIO_Init(GPIOA, &GPIO_InitStruct);
 8002200:	2090      	movs	r0, #144	@ 0x90
    __HAL_RCC_GPIOA_CLK_ENABLE();
 8002202:	430a      	orrs	r2, r1
 8002204:	615a      	str	r2, [r3, #20]
 8002206:	695b      	ldr	r3, [r3, #20]
    GPIO_InitStruct.Pin = PWM_M1_Pin|PWM_M2_Pin|PWM_M3_Pin;
 8002208:	22e0      	movs	r2, #224	@ 0xe0
    __HAL_RCC_GPIOA_CLK_ENABLE();
 800220a:	400b      	ands	r3, r1
 800220c:	9301      	str	r3, [sp, #4]
 800220e:	9b01      	ldr	r3, [sp, #4]
    GPIO_InitStruct.Pin = PWM_M1_Pin|PWM_M2_Pin|PWM_M3_Pin;
 8002210:	2302      	movs	r3, #2
 8002212:	00d2      	lsls	r2, r2, #3
 8002214:	9204      	str	r2, [sp, #16]
 8002216:	9305      	str	r3, [sp, #20]
    GPIO_InitStruct.Alternate = GPIO_AF2_TIM1;
 8002218:	2302      	movs	r3, #2
    HAL_GPIO_Init(GPIOA, &GPIO_InitStruct);
 800221a:	a904      	add	r1, sp, #16
 800221c:	05c0      	lsls	r0, r0, #23
    GPIO_InitStruct.Alternate = GPIO_AF2_TIM1;
 800221e:	9308      	str	r3, [sp, #32]
    HAL_GPIO_Init(GPIOA, &GPIO_InitStruct);
 8002220:	f000 fbc6 	bl	80029b0 <HAL_GPIO_Init>
 8002224:	e7e6      	b.n	80021f4 <HAL_TIM_MspPostInit+0x24>
    __HAL_RCC_GPIOB_CLK_ENABLE();
 8002226:	2180      	movs	r1, #128	@ 0x80
 8002228:	4b12      	ldr	r3, [pc, #72]	@ (8002274 <HAL_TIM_MspPostInit+0xa4>)
 800222a:	02c9      	lsls	r1, r1, #11
 800222c:	695a      	ldr	r2, [r3, #20]
 800222e:	430a      	orrs	r2, r1
 8002230:	615a      	str	r2, [r3, #20]
    GPIO_InitStruct.Pin = SERVO1_HV_Pin;
 8002232:	2240      	movs	r2, #64	@ 0x40
    __HAL_RCC_GPIOB_CLK_ENABLE();
 8002234:	695b      	ldr	r3, [r3, #20]
 8002236:	400b      	ands	r3, r1
 8002238:	9302      	str	r3, [sp, #8]
 800223a:	9b02      	ldr	r3, [sp, #8]
    GPIO_InitStruct.Pin = SERVO2_Pin;
 800223c:	2302      	movs	r3, #2
 800223e:	9204      	str	r2, [sp, #16]
 8002240:	9305      	str	r3, [sp, #20]
    GPIO_InitStruct.Alternate = GPIO_AF2_TIM17;
 8002242:	2302      	movs	r3, #2
    HAL_GPIO_Init(SERVO2_GPIO_Port, &GPIO_InitStruct);
 8002244:	480c      	ldr	r0, [pc, #48]	@ (8002278 <HAL_TIM_MspPostInit+0xa8>)
 8002246:	a904      	add	r1, sp, #16
    GPIO_InitStruct.Alternate = GPIO_AF2_TIM17;
 8002248:	9308      	str	r3, [sp, #32]
    HAL_GPIO_Init(SERVO2_GPIO_Port, &GPIO_InitStruct);
 800224a:	f000 fbb1 	bl	80029b0 <HAL_GPIO_Init>
}
 800224e:	e7d1      	b.n	80021f4 <HAL_TIM_MspPostInit+0x24>
    __HAL_RCC_GPIOB_CLK_ENABLE();
 8002250:	2180      	movs	r1, #128	@ 0x80
 8002252:	4b08      	ldr	r3, [pc, #32]	@ (8002274 <HAL_TIM_MspPostInit+0xa4>)
 8002254:	02c9      	lsls	r1, r1, #11
 8002256:	695a      	ldr	r2, [r3, #20]
 8002258:	430a      	orrs	r2, r1
 800225a:	615a      	str	r2, [r3, #20]
 800225c:	695b      	ldr	r3, [r3, #20]
    GPIO_InitStruct.Pin = SERVO2_Pin;
 800225e:	2280      	movs	r2, #128	@ 0x80
    __HAL_RCC_GPIOB_CLK_ENABLE();
 8002260:	400b      	ands	r3, r1
 8002262:	9303      	str	r3, [sp, #12]
 8002264:	9b03      	ldr	r3, [sp, #12]
    GPIO_InitStruct.Mode = GPIO_MODE_AF_PP;
 8002266:	e7e9      	b.n	800223c <HAL_TIM_MspPostInit+0x6c>
 8002268:	40012c00 	.word	0x40012c00
 800226c:	40014400 	.word	0x40014400
 8002270:	40014800 	.word	0x40014800
 8002274:	40021000 	.word	0x40021000
 8002278:	48000400 	.word	0x48000400

0800227c <NMI_Handler>:
{
  /* USER CODE BEGIN NonMaskableInt_IRQn 0 */

  /* USER CODE END NonMaskableInt_IRQn 0 */
  /* USER CODE BEGIN NonMaskableInt_IRQn 1 */
   while (1)
 800227c:	e7fe      	b.n	800227c <NMI_Handler>
 800227e:	46c0      	nop			@ (mov r8, r8)

08002280 <HardFault_Handler>:
void HardFault_Handler(void)
{
  /* USER CODE BEGIN HardFault_IRQn 0 */

  /* USER CODE END HardFault_IRQn 0 */
  while (1)
 8002280:	e7fe      	b.n	8002280 <HardFault_Handler>
 8002282:	46c0      	nop			@ (mov r8, r8)

08002284 <SVC_Handler>:

  /* USER CODE END SVC_IRQn 0 */
  /* USER CODE BEGIN SVC_IRQn 1 */

  /* USER CODE END SVC_IRQn 1 */
}
 8002284:	4770      	bx	lr
 8002286:	46c0      	nop			@ (mov r8, r8)

08002288 <PendSV_Handler>:

/**
  * @brief This function handles Pendable request for system service.
  */
void PendSV_Handler(void)
 8002288:	4770      	bx	lr
 800228a:	46c0      	nop			@ (mov r8, r8)

0800228c <SysTick_Handler>:

/**
  * @brief This function handles System tick timer.
  */
void SysTick_Handler(void)
{
 800228c:	b510      	push	{r4, lr}
  /* USER CODE BEGIN SysTick_IRQn 0 */

  /* USER CODE END SysTick_IRQn 0 */
  HAL_IncTick();
 800228e:	f000 f8d7 	bl	8002440 <HAL_IncTick>
  /* USER CODE BEGIN SysTick_IRQn 1 */

  /* USER CODE END SysTick_IRQn 1 */
}
 8002292:	bd10      	pop	{r4, pc}

08002294 <EXTI0_1_IRQHandler>:

/**
  * @brief This function handles EXTI line 0 and 1 interrupts.
  */
void EXTI0_1_IRQHandler(void)
{
 8002294:	b510      	push	{r4, lr}
  /* USER CODE BEGIN EXTI0_1_IRQn 0 */

  /* USER CODE END EXTI0_1_IRQn 0 */
  HAL_GPIO_EXTI_IRQHandler(CH1_Pin);
 8002296:	2001      	movs	r0, #1
 8002298:	f000 fca0 	bl	8002bdc <HAL_GPIO_EXTI_IRQHandler>
  HAL_GPIO_EXTI_IRQHandler(CH2_Pin);
 800229c:	2002      	movs	r0, #2
 800229e:	f000 fc9d 	bl	8002bdc <HAL_GPIO_EXTI_IRQHandler>
  /* USER CODE BEGIN EXTI0_1_IRQn 1 */

  /* USER CODE END EXTI0_1_IRQn 1 */
}
 80022a2:	bd10      	pop	{r4, pc}

080022a4 <EXTI2_3_IRQHandler>:

/**
  * @brief This function handles EXTI line 2 and 3 interrupts.
  */
void EXTI2_3_IRQHandler(void)
{
 80022a4:	b510      	push	{r4, lr}
  /* USER CODE BEGIN EXTI2_3_IRQn 0 */

  /* USER CODE END EXTI2_3_IRQn 0 */
  HAL_GPIO_EXTI_IRQHandler(CH3_Pin);
 80022a6:	2004      	movs	r0, #4
 80022a8:	f000 fc98 	bl	8002bdc <HAL_GPIO_EXTI_IRQHandler>
  HAL_GPIO_EXTI_IRQHandler(CH4_Pin);
 80022ac:	2008      	movs	r0, #8
 80022ae:	f000 fc95 	bl	8002bdc <HAL_GPIO_EXTI_IRQHandler>
  /* USER CODE BEGIN EXTI2_3_IRQn 1 */

  /* USER CODE END EXTI2_3_IRQn 1 */
}
 80022b2:	bd10      	pop	{r4, pc}

080022b4 <USB_IRQHandler>:

/**
  * @brief This function handles USB global interrupt / USB wake-up interrupt through EXTI line 18.
  */
void USB_IRQHandler(void)
{
 80022b4:	b510      	push	{r4, lr}
  /* USER CODE BEGIN USB_IRQn 0 */

  /* USER CODE END USB_IRQn 0 */
  HAL_PCD_IRQHandler(&hpcd_USB_FS);
 80022b6:	4802      	ldr	r0, [pc, #8]	@ (80022c0 <USB_IRQHandler+0xc>)
 80022b8:	f001 fbd8 	bl	8003a6c <HAL_PCD_IRQHandler>
  /* USER CODE BEGIN USB_IRQn 1 */

  /* USER CODE END USB_IRQn 1 */
}
 80022bc:	bd10      	pop	{r4, pc}
 80022be:	46c0      	nop			@ (mov r8, r8)
 80022c0:	2000132c 	.word	0x2000132c

080022c4 <_getpid>:
}

int _getpid(void)
{
  return 1;
}
 80022c4:	2001      	movs	r0, #1
 80022c6:	4770      	bx	lr

080022c8 <_kill>:

int _kill(int pid, int sig)
{
 80022c8:	b510      	push	{r4, lr}
  (void)pid;
  (void)sig;
  errno = EINVAL;
 80022ca:	f005 fbff 	bl	8007acc <__errno>
 80022ce:	2316      	movs	r3, #22
 80022d0:	6003      	str	r3, [r0, #0]
  return -1;
 80022d2:	2001      	movs	r0, #1
}
 80022d4:	4240      	negs	r0, r0
 80022d6:	bd10      	pop	{r4, pc}

080022d8 <_exit>:

void _exit (int status)
{
 80022d8:	b510      	push	{r4, lr}
  errno = EINVAL;
 80022da:	f005 fbf7 	bl	8007acc <__errno>
 80022de:	2316      	movs	r3, #22
 80022e0:	6003      	str	r3, [r0, #0]
  _kill(status, -1);
  while (1) {}    /* Make sure we hang here */
 80022e2:	e7fe      	b.n	80022e2 <_exit+0xa>

080022e4 <_read>:
}

__attribute__((weak)) int _read(int file, char *ptr, int len)
{
 80022e4:	b570      	push	{r4, r5, r6, lr}
 80022e6:	1e16      	subs	r6, r2, #0
  (void)file;
  int DataIdx;

  for (DataIdx = 0; DataIdx < len; DataIdx++)
 80022e8:	dd07      	ble.n	80022fa <_read+0x16>
 80022ea:	000c      	movs	r4, r1
 80022ec:	188d      	adds	r5, r1, r2
  {
    *ptr++ = __io_getchar();
 80022ee:	e000      	b.n	80022f2 <_read+0xe>
 80022f0:	bf00      	nop
 80022f2:	7020      	strb	r0, [r4, #0]
  for (DataIdx = 0; DataIdx < len; DataIdx++)
 80022f4:	3401      	adds	r4, #1
 80022f6:	42ac      	cmp	r4, r5
 80022f8:	d1f9      	bne.n	80022ee <_read+0xa>
  }

  return len;
}
 80022fa:	0030      	movs	r0, r6
 80022fc:	bd70      	pop	{r4, r5, r6, pc}
 80022fe:	46c0      	nop			@ (mov r8, r8)

08002300 <_write>:

__attribute__((weak)) int _write(int file, char *ptr, int len)
{
 8002300:	b570      	push	{r4, r5, r6, lr}
 8002302:	1e16      	subs	r6, r2, #0
  (void)file;
  int DataIdx;

  for (DataIdx = 0; DataIdx < len; DataIdx++)
 8002304:	dd07      	ble.n	8002316 <_write+0x16>
 8002306:	000c      	movs	r4, r1
 8002308:	188d      	adds	r5, r1, r2
  {
    __io_putchar(*ptr++);
 800230a:	7820      	ldrb	r0, [r4, #0]
  for (DataIdx = 0; DataIdx < len; DataIdx++)
 800230c:	3401      	adds	r4, #1
    __io_putchar(*ptr++);
 800230e:	e000      	b.n	8002312 <_write+0x12>
 8002310:	bf00      	nop
  for (DataIdx = 0; DataIdx < len; DataIdx++)
 8002312:	42ac      	cmp	r4, r5
 8002314:	d1f9      	bne.n	800230a <_write+0xa>
  }
  return len;
}
 8002316:	0030      	movs	r0, r6
 8002318:	bd70      	pop	{r4, r5, r6, pc}
 800231a:	46c0      	nop			@ (mov r8, r8)

0800231c <_close>:

int _close(int file)
{
  (void)file;
  return -1;
 800231c:	2001      	movs	r0, #1
}
 800231e:	4240      	negs	r0, r0
 8002320:	4770      	bx	lr
 8002322:	46c0      	nop			@ (mov r8, r8)

08002324 <_fstat>:


int _fstat(int file, struct stat *st)
{
  (void)file;
  st->st_mode = S_IFCHR;
 8002324:	2380      	movs	r3, #128	@ 0x80
 8002326:	019b      	lsls	r3, r3, #6
  return 0;
}
 8002328:	2000      	movs	r0, #0
  st->st_mode = S_IFCHR;
 800232a:	604b      	str	r3, [r1, #4]
}
 800232c:	4770      	bx	lr
 800232e:	46c0      	nop			@ (mov r8, r8)

08002330 <_isatty>:

int _isatty(int file)
{
  (void)file;
  return 1;
}
 8002330:	2001      	movs	r0, #1
 8002332:	4770      	bx	lr

08002334 <_lseek>:
{
  (void)file;
  (void)ptr;
  (void)dir;
  return 0;
}
 8002334:	2000      	movs	r0, #0
 8002336:	4770      	bx	lr

08002338 <_sbrk>:
void *_sbrk(ptrdiff_t incr)
{
  extern uint8_t _end; /* Symbol defined in the linker script */
  extern uint8_t _estack; /* Symbol defined in the linker script */
  extern uint32_t _Min_Stack_Size; /* Symbol defined in the linker script */
  const uint32_t stack_limit = (uint32_t)&_estack - (uint32_t)&_Min_Stack_Size;
 8002338:	490c      	ldr	r1, [pc, #48]	@ (800236c <_sbrk+0x34>)
 800233a:	4a0d      	ldr	r2, [pc, #52]	@ (8002370 <_sbrk+0x38>)
{
 800233c:	0003      	movs	r3, r0
  const uint32_t stack_limit = (uint32_t)&_estack - (uint32_t)&_Min_Stack_Size;
 800233e:	1a52      	subs	r2, r2, r1
  const uint8_t *max_heap = (uint8_t *)stack_limit;
  uint8_t *prev_heap_end;

  /* Initialize heap end at first call */
  if (NULL == __sbrk_heap_end)
 8002340:	490c      	ldr	r1, [pc, #48]	@ (8002374 <_sbrk+0x3c>)
{
 8002342:	b510      	push	{r4, lr}
  if (NULL == __sbrk_heap_end)
 8002344:	6808      	ldr	r0, [r1, #0]
 8002346:	2800      	cmp	r0, #0
 8002348:	d004      	beq.n	8002354 <_sbrk+0x1c>
  {
    __sbrk_heap_end = &_end;
  }

  /* Protect heap from growing into the reserved MSP stack */
  if (__sbrk_heap_end + incr > max_heap)
 800234a:	18c3      	adds	r3, r0, r3
 800234c:	4293      	cmp	r3, r2
 800234e:	d806      	bhi.n	800235e <_sbrk+0x26>
    errno = ENOMEM;
    return (void *)-1;
  }

  prev_heap_end = __sbrk_heap_end;
  __sbrk_heap_end += incr;
 8002350:	600b      	str	r3, [r1, #0]

  return (void *)prev_heap_end;
}
 8002352:	bd10      	pop	{r4, pc}
    __sbrk_heap_end = &_end;
 8002354:	4808      	ldr	r0, [pc, #32]	@ (8002378 <_sbrk+0x40>)
  if (__sbrk_heap_end + incr > max_heap)
 8002356:	18c3      	adds	r3, r0, r3
    __sbrk_heap_end = &_end;
 8002358:	6008      	str	r0, [r1, #0]
  if (__sbrk_heap_end + incr > max_heap)
 800235a:	4293      	cmp	r3, r2
 800235c:	d9f8      	bls.n	8002350 <_sbrk+0x18>
    errno = ENOMEM;
 800235e:	f005 fbb5 	bl	8007acc <__errno>
 8002362:	230c      	movs	r3, #12
 8002364:	6003      	str	r3, [r0, #0]
    return (void *)-1;
 8002366:	2001      	movs	r0, #1
 8002368:	4240      	negs	r0, r0
 800236a:	e7f2      	b.n	8002352 <_sbrk+0x1a>
 800236c:	00000400 	.word	0x00000400
 8002370:	20004000 	.word	0x20004000
 8002374:	2000043c 	.word	0x2000043c
 8002378:	20001758 	.word	0x20001758

0800237c <SystemInit>:
                         before branch to main program. This call is made inside
                         the "startup_stm32f0xx.s" file.
                         User can setups the default system clock (System clock source, PLL Multiplier
                         and Divider factors, AHB/APBx prescalers and Flash settings).
   */
}
 800237c:	4770      	bx	lr
 800237e:	46c0      	nop			@ (mov r8, r8)

08002380 <Reset_Handler>:

  .section .text.Reset_Handler
  .weak Reset_Handler
  .type Reset_Handler, %function
Reset_Handler:
  ldr   r0, =_estack
 8002380:	480d      	ldr	r0, [pc, #52]	@ (80023b8 <LoopForever+0x2>)
  mov   sp, r0          /* set stack pointer */
 8002382:	4685      	mov	sp, r0
  
/* Call the clock system initialization function.*/

  bl  SystemInit
 8002384:	f7ff fffa 	bl	800237c <SystemInit>

/* Copy the data segment initializers from flash to SRAM */
  ldr r0, =_sdata
 8002388:	480c      	ldr	r0, [pc, #48]	@ (80023bc <LoopForever+0x6>)
  ldr r1, =_edata
 800238a:	490d      	ldr	r1, [pc, #52]	@ (80023c0 <LoopForever+0xa>)
  ldr r2, =_sidata
 800238c:	4a0d      	ldr	r2, [pc, #52]	@ (80023c4 <LoopForever+0xe>)
  movs r3, #0
 800238e:	2300      	movs	r3, #0
  b LoopCopyDataInit
 8002390:	e002      	b.n	8002398 <LoopCopyDataInit>

08002392 <CopyDataInit>:

CopyDataInit:
  ldr r4, [r2, r3]
 8002392:	58d4      	ldr	r4, [r2, r3]
  str r4, [r0, r3]
 8002394:	50c4      	str	r4, [r0, r3]
  adds r3, r3, #4
 8002396:	3304      	adds	r3, #4

08002398 <LoopCopyDataInit>:

LoopCopyDataInit:
  adds r4, r0, r3
 8002398:	18c4      	adds	r4, r0, r3
  cmp r4, r1
 800239a:	428c      	cmp	r4, r1
  bcc CopyDataInit
 800239c:	d3f9      	bcc.n	8002392 <CopyDataInit>
  
/* Zero fill the bss segment. */
  ldr r2, =_sbss
 800239e:	4a0a      	ldr	r2, [pc, #40]	@ (80023c8 <LoopForever+0x12>)
  ldr r4, =_ebss
 80023a0:	4c0a      	ldr	r4, [pc, #40]	@ (80023cc <LoopForever+0x16>)
  movs r3, #0
 80023a2:	2300      	movs	r3, #0
  b LoopFillZerobss
 80023a4:	e001      	b.n	80023aa <LoopFillZerobss>

080023a6 <FillZerobss>:

FillZerobss:
  str  r3, [r2]
 80023a6:	6013      	str	r3, [r2, #0]
  adds r2, r2, #4
 80023a8:	3204      	adds	r2, #4

080023aa <LoopFillZerobss>:

LoopFillZerobss:
  cmp r2, r4
 80023aa:	42a2      	cmp	r2, r4
  bcc FillZerobss
 80023ac:	d3fb      	bcc.n	80023a6 <FillZerobss>

/* Call static constructors */
  bl __libc_init_array
 80023ae:	f005 fb93 	bl	8007ad8 <__libc_init_array>
/* Call the application's entry point.*/
  bl main
 80023b2:	f7fe f8dd 	bl	8000570 <main>

080023b6 <LoopForever>:

LoopForever:
    b LoopForever
 80023b6:	e7fe      	b.n	80023b6 <LoopForever>
  ldr   r0, =_estack
 80023b8:	20004000 	.word	0x20004000
  ldr r0, =_sdata
 80023bc:	20000000 	.word	0x20000000
  ldr r1, =_edata
 80023c0:	200001ec 	.word	0x200001ec
  ldr r2, =_sidata
 80023c4:	08008fe8 	.word	0x08008fe8
  ldr r2, =_sbss
 80023c8:	200001ec 	.word	0x200001ec
  ldr r4, =_ebss
 80023cc:	20001754 	.word	0x20001754

080023d0 <ADC1_IRQHandler>:
 * @retval : None
*/
    .section .text.Default_Handler,"ax",%progbits
Default_Handler:
Infinite_Loop:
  b Infinite_Loop
 80023d0:	e7fe      	b.n	80023d0 <ADC1_IRQHandler>
	...

080023d4 <HAL_InitTick>:
  *       implementation  in user file.
  * @param TickPriority Tick interrupt priority.
  * @retval HAL status
  */
__weak HAL_StatusTypeDef HAL_InitTick(uint32_t TickPriority)
{
 80023d4:	b570      	push	{r4, r5, r6, lr}
 80023d6:	0004      	movs	r4, r0
  /*Configure the SysTick to have interrupt in 1ms time basis*/
  if (HAL_SYSTICK_Config(SystemCoreClock / (1000U / uwTickFreq)) > 0U)
 80023d8:	20fa      	movs	r0, #250	@ 0xfa
 80023da:	4b0e      	ldr	r3, [pc, #56]	@ (8002414 <HAL_InitTick+0x40>)
 80023dc:	0080      	lsls	r0, r0, #2
 80023de:	7819      	ldrb	r1, [r3, #0]
 80023e0:	f7fd fea4 	bl	800012c <__udivsi3>
 80023e4:	4d0c      	ldr	r5, [pc, #48]	@ (8002418 <HAL_InitTick+0x44>)
 80023e6:	0001      	movs	r1, r0
 80023e8:	6828      	ldr	r0, [r5, #0]
 80023ea:	f7fd fe9f 	bl	800012c <__udivsi3>
 80023ee:	f000 fac5 	bl	800297c <HAL_SYSTICK_Config>
 80023f2:	2800      	cmp	r0, #0
 80023f4:	d10c      	bne.n	8002410 <HAL_InitTick+0x3c>
  {
    return HAL_ERROR;
 80023f6:	3001      	adds	r0, #1
  }

  /* Configure the SysTick IRQ priority */
  if (TickPriority < (1UL << __NVIC_PRIO_BITS))
 80023f8:	2c03      	cmp	r4, #3
 80023fa:	d900      	bls.n	80023fe <HAL_InitTick+0x2a>
    return HAL_ERROR;
  }

   /* Return function status */
  return HAL_OK;
}
 80023fc:	bd70      	pop	{r4, r5, r6, pc}
    HAL_NVIC_SetPriority(SysTick_IRQn, TickPriority, 0U);
 80023fe:	3802      	subs	r0, #2
 8002400:	2200      	movs	r2, #0
 8002402:	0021      	movs	r1, r4
 8002404:	f000 fa84 	bl	8002910 <HAL_NVIC_SetPriority>
    uwTickPrio = TickPriority;
 8002408:	4b04      	ldr	r3, [pc, #16]	@ (800241c <HAL_InitTick+0x48>)
 800240a:	2000      	movs	r0, #0
 800240c:	601c      	str	r4, [r3, #0]
  return HAL_OK;
 800240e:	e7f5      	b.n	80023fc <HAL_InitTick+0x28>
    return HAL_ERROR;
 8002410:	2001      	movs	r0, #1
 8002412:	e7f3      	b.n	80023fc <HAL_InitTick+0x28>
 8002414:	20000018 	.word	0x20000018
 8002418:	20000014 	.word	0x20000014
 800241c:	2000001c 	.word	0x2000001c

08002420 <HAL_Init>:
  __HAL_FLASH_PREFETCH_BUFFER_ENABLE();
 8002420:	2110      	movs	r1, #16
 8002422:	4a06      	ldr	r2, [pc, #24]	@ (800243c <HAL_Init+0x1c>)
{
 8002424:	b510      	push	{r4, lr}
  __HAL_FLASH_PREFETCH_BUFFER_ENABLE();
 8002426:	6813      	ldr	r3, [r2, #0]
  HAL_InitTick(TICK_INT_PRIORITY);
 8002428:	2003      	movs	r0, #3
  __HAL_FLASH_PREFETCH_BUFFER_ENABLE();
 800242a:	430b      	orrs	r3, r1
 800242c:	6013      	str	r3, [r2, #0]
  HAL_InitTick(TICK_INT_PRIORITY);
 800242e:	f7ff ffd1 	bl	80023d4 <HAL_InitTick>
  HAL_MspInit();
 8002432:	f7ff fe07 	bl	8002044 <HAL_MspInit>
}
 8002436:	2000      	movs	r0, #0
 8002438:	bd10      	pop	{r4, pc}
 800243a:	46c0      	nop			@ (mov r8, r8)
 800243c:	40022000 	.word	0x40022000

08002440 <HAL_IncTick>:
  *       implementations in user file.
  * @retval None
  */
__weak void HAL_IncTick(void)
{
  uwTick += uwTickFreq;
 8002440:	4a03      	ldr	r2, [pc, #12]	@ (8002450 <HAL_IncTick+0x10>)
 8002442:	4b04      	ldr	r3, [pc, #16]	@ (8002454 <HAL_IncTick+0x14>)
 8002444:	6811      	ldr	r1, [r2, #0]
 8002446:	781b      	ldrb	r3, [r3, #0]
 8002448:	185b      	adds	r3, r3, r1
 800244a:	6013      	str	r3, [r2, #0]
}
 800244c:	4770      	bx	lr
 800244e:	46c0      	nop			@ (mov r8, r8)
 8002450:	20000440 	.word	0x20000440
 8002454:	20000018 	.word	0x20000018

08002458 <HAL_GetTick>:
  *       implementations in user file.
  * @retval tick value
  */
__weak uint32_t HAL_GetTick(void)
{
  return uwTick;
 8002458:	4b01      	ldr	r3, [pc, #4]	@ (8002460 <HAL_GetTick+0x8>)
 800245a:	6818      	ldr	r0, [r3, #0]
}
 800245c:	4770      	bx	lr
 800245e:	46c0      	nop			@ (mov r8, r8)
 8002460:	20000440 	.word	0x20000440

08002464 <HAL_Delay>:
  *       implementations in user file.
  * @param Delay specifies the delay time length, in milliseconds.
  * @retval None
  */
__weak void HAL_Delay(uint32_t Delay)
{
 8002464:	b570      	push	{r4, r5, r6, lr}
 8002466:	0004      	movs	r4, r0
  uint32_t tickstart = HAL_GetTick();
 8002468:	f7ff fff6 	bl	8002458 <HAL_GetTick>
 800246c:	0005      	movs	r5, r0
  uint32_t wait = Delay;
  
  /* Add a freq to guarantee minimum wait */
  if (wait < HAL_MAX_DELAY)
 800246e:	1c63      	adds	r3, r4, #1
 8002470:	d002      	beq.n	8002478 <HAL_Delay+0x14>
  {
    wait += (uint32_t)(uwTickFreq);
 8002472:	4b04      	ldr	r3, [pc, #16]	@ (8002484 <HAL_Delay+0x20>)
 8002474:	781b      	ldrb	r3, [r3, #0]
 8002476:	18e4      	adds	r4, r4, r3
  }
  
  while((HAL_GetTick() - tickstart) < wait)
 8002478:	f7ff ffee 	bl	8002458 <HAL_GetTick>
 800247c:	1b40      	subs	r0, r0, r5
 800247e:	42a0      	cmp	r0, r4
 8002480:	d3fa      	bcc.n	8002478 <HAL_Delay+0x14>
  {
  }
}
 8002482:	bd70      	pop	{r4, r5, r6, pc}
 8002484:	20000018 	.word	0x20000018

08002488 <ADC_Disable>:
  *         stopped.
  * @param  hadc ADC handle
  * @retval HAL status.
  */
static HAL_StatusTypeDef ADC_Disable(ADC_HandleTypeDef* hadc)
{
 8002488:	b5f8      	push	{r3, r4, r5, r6, r7, lr}
  uint32_t tickstart = 0U;
  
  /* Verification if ADC is not already disabled:                             */
  /* Note: forbidden to disable ADC (set bit ADC_CR_ADDIS) if ADC is already  */
  /*       disabled.                                                          */
  if (ADC_IS_ENABLE(hadc) != RESET)
 800248a:	2303      	movs	r3, #3
 800248c:	6802      	ldr	r2, [r0, #0]
{
 800248e:	0004      	movs	r4, r0
  if (ADC_IS_ENABLE(hadc) != RESET)
 8002490:	6891      	ldr	r1, [r2, #8]
 8002492:	400b      	ands	r3, r1
 8002494:	2b01      	cmp	r3, #1
 8002496:	d001      	beq.n	800249c <ADC_Disable+0x14>
      }
    }
  }
  
  /* Return HAL status */
  return HAL_OK;
 8002498:	2000      	movs	r0, #0
}
 800249a:	bdf8      	pop	{r3, r4, r5, r6, r7, pc}
  if (ADC_IS_ENABLE(hadc) != RESET)
 800249c:	6811      	ldr	r1, [r2, #0]
 800249e:	420b      	tst	r3, r1
 80024a0:	d00e      	beq.n	80024c0 <ADC_Disable+0x38>
    if (ADC_DISABLING_CONDITIONS(hadc) != RESET)
 80024a2:	2705      	movs	r7, #5
 80024a4:	6893      	ldr	r3, [r2, #8]
 80024a6:	401f      	ands	r7, r3
 80024a8:	2f01      	cmp	r7, #1
 80024aa:	d00d      	beq.n	80024c8 <ADC_Disable+0x40>
      SET_BIT(hadc->State, HAL_ADC_STATE_ERROR_INTERNAL);
 80024ac:	2210      	movs	r2, #16
 80024ae:	6ba3      	ldr	r3, [r4, #56]	@ 0x38
      return HAL_ERROR;
 80024b0:	2001      	movs	r0, #1
      SET_BIT(hadc->State, HAL_ADC_STATE_ERROR_INTERNAL);
 80024b2:	4313      	orrs	r3, r2
 80024b4:	63a3      	str	r3, [r4, #56]	@ 0x38
      SET_BIT(hadc->ErrorCode, HAL_ADC_ERROR_INTERNAL);
 80024b6:	6be3      	ldr	r3, [r4, #60]	@ 0x3c
 80024b8:	3a0f      	subs	r2, #15
 80024ba:	4313      	orrs	r3, r2
 80024bc:	63e3      	str	r3, [r4, #60]	@ 0x3c
      return HAL_ERROR;
 80024be:	e7ec      	b.n	800249a <ADC_Disable+0x12>
  if (ADC_IS_ENABLE(hadc) != RESET)
 80024c0:	68d3      	ldr	r3, [r2, #12]
 80024c2:	041b      	lsls	r3, r3, #16
 80024c4:	d5e8      	bpl.n	8002498 <ADC_Disable+0x10>
 80024c6:	e7ec      	b.n	80024a2 <ADC_Disable+0x1a>
      __HAL_ADC_DISABLE(hadc);
 80024c8:	2102      	movs	r1, #2
 80024ca:	6893      	ldr	r3, [r2, #8]
        if(HAL_IS_BIT_SET(hadc->Instance->CR, ADC_CR_ADEN))
 80024cc:	2501      	movs	r5, #1
      __HAL_ADC_DISABLE(hadc);
 80024ce:	430b      	orrs	r3, r1
 80024d0:	6093      	str	r3, [r2, #8]
 80024d2:	2303      	movs	r3, #3
 80024d4:	6013      	str	r3, [r2, #0]
    tickstart = HAL_GetTick();
 80024d6:	f7ff ffbf 	bl	8002458 <HAL_GetTick>
    while(HAL_IS_BIT_SET(hadc->Instance->CR, ADC_CR_ADEN))
 80024da:	6823      	ldr	r3, [r4, #0]
    tickstart = HAL_GetTick();
 80024dc:	0006      	movs	r6, r0
    while(HAL_IS_BIT_SET(hadc->Instance->CR, ADC_CR_ADEN))
 80024de:	689b      	ldr	r3, [r3, #8]
 80024e0:	421f      	tst	r7, r3
 80024e2:	d0d9      	beq.n	8002498 <ADC_Disable+0x10>
      if((HAL_GetTick() - tickstart) > ADC_DISABLE_TIMEOUT)
 80024e4:	f7ff ffb8 	bl	8002458 <HAL_GetTick>
        if(HAL_IS_BIT_SET(hadc->Instance->CR, ADC_CR_ADEN))
 80024e8:	6823      	ldr	r3, [r4, #0]
      if((HAL_GetTick() - tickstart) > ADC_DISABLE_TIMEOUT)
 80024ea:	1b80      	subs	r0, r0, r6
 80024ec:	2802      	cmp	r0, #2
 80024ee:	d902      	bls.n	80024f6 <ADC_Disable+0x6e>
        if(HAL_IS_BIT_SET(hadc->Instance->CR, ADC_CR_ADEN))
 80024f0:	689a      	ldr	r2, [r3, #8]
 80024f2:	4215      	tst	r5, r2
 80024f4:	d103      	bne.n	80024fe <ADC_Disable+0x76>
    while(HAL_IS_BIT_SET(hadc->Instance->CR, ADC_CR_ADEN))
 80024f6:	689b      	ldr	r3, [r3, #8]
 80024f8:	421d      	tst	r5, r3
 80024fa:	d1f3      	bne.n	80024e4 <ADC_Disable+0x5c>
 80024fc:	e7cc      	b.n	8002498 <ADC_Disable+0x10>
          SET_BIT(hadc->State, HAL_ADC_STATE_ERROR_INTERNAL);
 80024fe:	2210      	movs	r2, #16
 8002500:	6ba3      	ldr	r3, [r4, #56]	@ 0x38
      return HAL_ERROR;
 8002502:	2001      	movs	r0, #1
          SET_BIT(hadc->State, HAL_ADC_STATE_ERROR_INTERNAL);
 8002504:	4313      	orrs	r3, r2
 8002506:	63a3      	str	r3, [r4, #56]	@ 0x38
          SET_BIT(hadc->ErrorCode, HAL_ADC_ERROR_INTERNAL);
 8002508:	6be3      	ldr	r3, [r4, #60]	@ 0x3c
 800250a:	432b      	orrs	r3, r5
 800250c:	63e3      	str	r3, [r4, #60]	@ 0x3c
          return HAL_ERROR;
 800250e:	e7c4      	b.n	800249a <ADC_Disable+0x12>

08002510 <ADC_ConversionStop>:
  /* Check the parameters */
  assert_param(IS_ADC_ALL_INSTANCE(hadc->Instance));
    
  /* Verification if ADC is not already stopped on regular group to bypass    */
  /* this function if not needed.                                             */
  if (ADC_IS_CONVERSION_ONGOING_REGULAR(hadc))
 8002510:	2204      	movs	r2, #4
 8002512:	6803      	ldr	r3, [r0, #0]
{
 8002514:	b570      	push	{r4, r5, r6, lr}
  if (ADC_IS_CONVERSION_ONGOING_REGULAR(hadc))
 8002516:	6899      	ldr	r1, [r3, #8]
{
 8002518:	0004      	movs	r4, r0
  if (ADC_IS_CONVERSION_ONGOING_REGULAR(hadc))
 800251a:	420a      	tst	r2, r1
 800251c:	d01d      	beq.n	800255a <ADC_ConversionStop+0x4a>
  {
    
    /* Stop potential conversion on going on regular group */
    /* Software is allowed to set ADSTP only when ADSTART=1 and ADDIS=0 */
    if (HAL_IS_BIT_SET(hadc->Instance->CR, ADC_CR_ADSTART) && 
 800251e:	6899      	ldr	r1, [r3, #8]
 8002520:	420a      	tst	r2, r1
 8002522:	d006      	beq.n	8002532 <ADC_ConversionStop+0x22>
        HAL_IS_BIT_CLR(hadc->Instance->CR, ADC_CR_ADDIS)                  )
 8002524:	689a      	ldr	r2, [r3, #8]
    if (HAL_IS_BIT_SET(hadc->Instance->CR, ADC_CR_ADSTART) && 
 8002526:	0792      	lsls	r2, r2, #30
 8002528:	d403      	bmi.n	8002532 <ADC_ConversionStop+0x22>
    {
      /* Stop conversions on regular group */
      hadc->Instance->CR |= ADC_CR_ADSTP;
 800252a:	2110      	movs	r1, #16
 800252c:	689a      	ldr	r2, [r3, #8]
 800252e:	430a      	orrs	r2, r1
 8002530:	609a      	str	r2, [r3, #8]
    }
    
    /* Wait for conversion effectively stopped */
    /* Get tick count */
    tickstart = HAL_GetTick();
 8002532:	f7ff ff91 	bl	8002458 <HAL_GetTick>
      
    while((hadc->Instance->CR & ADC_CR_ADSTART) != RESET)
 8002536:	6823      	ldr	r3, [r4, #0]
    tickstart = HAL_GetTick();
 8002538:	0006      	movs	r6, r0
    while((hadc->Instance->CR & ADC_CR_ADSTART) != RESET)
 800253a:	689b      	ldr	r3, [r3, #8]
 800253c:	075b      	lsls	r3, r3, #29
 800253e:	d50c      	bpl.n	800255a <ADC_ConversionStop+0x4a>
    {
      if((HAL_GetTick() - tickstart) > ADC_STOP_CONVERSION_TIMEOUT)
      {
        /* New check to avoid false timeout detection in case of preemption */
        if((hadc->Instance->CR & ADC_CR_ADSTART) != RESET)
 8002540:	2504      	movs	r5, #4
      if((HAL_GetTick() - tickstart) > ADC_STOP_CONVERSION_TIMEOUT)
 8002542:	f7ff ff89 	bl	8002458 <HAL_GetTick>
        if((hadc->Instance->CR & ADC_CR_ADSTART) != RESET)
 8002546:	6823      	ldr	r3, [r4, #0]
      if((HAL_GetTick() - tickstart) > ADC_STOP_CONVERSION_TIMEOUT)
 8002548:	1b80      	subs	r0, r0, r6
 800254a:	2802      	cmp	r0, #2
 800254c:	d902      	bls.n	8002554 <ADC_ConversionStop+0x44>
        if((hadc->Instance->CR & ADC_CR_ADSTART) != RESET)
 800254e:	689a      	ldr	r2, [r3, #8]
 8002550:	4215      	tst	r5, r2
 8002552:	d104      	bne.n	800255e <ADC_ConversionStop+0x4e>
    while((hadc->Instance->CR & ADC_CR_ADSTART) != RESET)
 8002554:	689b      	ldr	r3, [r3, #8]
 8002556:	421d      	tst	r5, r3
 8002558:	d1f3      	bne.n	8002542 <ADC_ConversionStop+0x32>
      }
    }
  }
   
  /* Return HAL status */
  return HAL_OK;
 800255a:	2000      	movs	r0, #0
}
 800255c:	bd70      	pop	{r4, r5, r6, pc}
          SET_BIT(hadc->State, HAL_ADC_STATE_ERROR_INTERNAL);
 800255e:	2210      	movs	r2, #16
 8002560:	6ba3      	ldr	r3, [r4, #56]	@ 0x38
          SET_BIT(hadc->ErrorCode, HAL_ADC_ERROR_INTERNAL);
 8002562:	2001      	movs	r0, #1
          SET_BIT(hadc->State, HAL_ADC_STATE_ERROR_INTERNAL);
 8002564:	4313      	orrs	r3, r2
 8002566:	63a3      	str	r3, [r4, #56]	@ 0x38
          SET_BIT(hadc->ErrorCode, HAL_ADC_ERROR_INTERNAL);
 8002568:	6be3      	ldr	r3, [r4, #60]	@ 0x3c
 800256a:	3a0f      	subs	r2, #15
 800256c:	4313      	orrs	r3, r2
 800256e:	63e3      	str	r3, [r4, #60]	@ 0x3c
          return HAL_ERROR;
 8002570:	e7f4      	b.n	800255c <ADC_ConversionStop+0x4c>
 8002572:	46c0      	nop			@ (mov r8, r8)

08002574 <ADC_Enable.constprop.0>:
  __IO uint32_t wait_loop_index = 0U;
 8002574:	2300      	movs	r3, #0
static HAL_StatusTypeDef ADC_Enable(ADC_HandleTypeDef* hadc)
 8002576:	b570      	push	{r4, r5, r6, lr}
  if (ADC_IS_ENABLE(hadc) == RESET)
 8002578:	6802      	ldr	r2, [r0, #0]
static HAL_StatusTypeDef ADC_Enable(ADC_HandleTypeDef* hadc)
 800257a:	b082      	sub	sp, #8
  __IO uint32_t wait_loop_index = 0U;
 800257c:	9301      	str	r3, [sp, #4]
  if (ADC_IS_ENABLE(hadc) == RESET)
 800257e:	6891      	ldr	r1, [r2, #8]
 8002580:	3303      	adds	r3, #3
static HAL_StatusTypeDef ADC_Enable(ADC_HandleTypeDef* hadc)
 8002582:	0004      	movs	r4, r0
  if (ADC_IS_ENABLE(hadc) == RESET)
 8002584:	400b      	ands	r3, r1
 8002586:	2b01      	cmp	r3, #1
 8002588:	d037      	beq.n	80025fa <ADC_Enable.constprop.0+0x86>
    if (ADC_ENABLING_CONDITIONS(hadc) == RESET)
 800258a:	6891      	ldr	r1, [r2, #8]
 800258c:	4b23      	ldr	r3, [pc, #140]	@ (800261c <ADC_Enable.constprop.0+0xa8>)
 800258e:	4219      	tst	r1, r3
 8002590:	d129      	bne.n	80025e6 <ADC_Enable.constprop.0+0x72>
    __HAL_ADC_ENABLE(hadc);
 8002592:	2101      	movs	r1, #1
 8002594:	6893      	ldr	r3, [r2, #8]
 8002596:	430b      	orrs	r3, r1
 8002598:	6093      	str	r3, [r2, #8]
    wait_loop_index = (ADC_STAB_DELAY_US * (SystemCoreClock / 1000000U));
 800259a:	4b21      	ldr	r3, [pc, #132]	@ (8002620 <ADC_Enable.constprop.0+0xac>)
 800259c:	4921      	ldr	r1, [pc, #132]	@ (8002624 <ADC_Enable.constprop.0+0xb0>)
 800259e:	6818      	ldr	r0, [r3, #0]
 80025a0:	f7fd fdc4 	bl	800012c <__udivsi3>
 80025a4:	9001      	str	r0, [sp, #4]
    while(wait_loop_index != 0U)
 80025a6:	9b01      	ldr	r3, [sp, #4]
 80025a8:	2b00      	cmp	r3, #0
 80025aa:	d005      	beq.n	80025b8 <ADC_Enable.constprop.0+0x44>
      wait_loop_index--;
 80025ac:	9b01      	ldr	r3, [sp, #4]
 80025ae:	3b01      	subs	r3, #1
 80025b0:	9301      	str	r3, [sp, #4]
    while(wait_loop_index != 0U)
 80025b2:	9b01      	ldr	r3, [sp, #4]
 80025b4:	2b00      	cmp	r3, #0
 80025b6:	d1f9      	bne.n	80025ac <ADC_Enable.constprop.0+0x38>
    tickstart = HAL_GetTick();
 80025b8:	f7ff ff4e 	bl	8002458 <HAL_GetTick>
    while(__HAL_ADC_GET_FLAG(hadc, ADC_FLAG_RDY) == RESET)
 80025bc:	6823      	ldr	r3, [r4, #0]
    tickstart = HAL_GetTick();
 80025be:	0006      	movs	r6, r0
    while(__HAL_ADC_GET_FLAG(hadc, ADC_FLAG_RDY) == RESET)
 80025c0:	681b      	ldr	r3, [r3, #0]
        if(__HAL_ADC_GET_FLAG(hadc, ADC_FLAG_RDY) == RESET)
 80025c2:	2501      	movs	r5, #1
    while(__HAL_ADC_GET_FLAG(hadc, ADC_FLAG_RDY) == RESET)
 80025c4:	07db      	lsls	r3, r3, #31
 80025c6:	d40b      	bmi.n	80025e0 <ADC_Enable.constprop.0+0x6c>
      if((HAL_GetTick() - tickstart) > ADC_ENABLE_TIMEOUT)
 80025c8:	f7ff ff46 	bl	8002458 <HAL_GetTick>
        if(__HAL_ADC_GET_FLAG(hadc, ADC_FLAG_RDY) == RESET)
 80025cc:	6823      	ldr	r3, [r4, #0]
      if((HAL_GetTick() - tickstart) > ADC_ENABLE_TIMEOUT)
 80025ce:	1b80      	subs	r0, r0, r6
 80025d0:	2802      	cmp	r0, #2
 80025d2:	d902      	bls.n	80025da <ADC_Enable.constprop.0+0x66>
        if(__HAL_ADC_GET_FLAG(hadc, ADC_FLAG_RDY) == RESET)
 80025d4:	681a      	ldr	r2, [r3, #0]
 80025d6:	4215      	tst	r5, r2
 80025d8:	d016      	beq.n	8002608 <ADC_Enable.constprop.0+0x94>
    while(__HAL_ADC_GET_FLAG(hadc, ADC_FLAG_RDY) == RESET)
 80025da:	681b      	ldr	r3, [r3, #0]
 80025dc:	421d      	tst	r5, r3
 80025de:	d0f3      	beq.n	80025c8 <ADC_Enable.constprop.0+0x54>
  return HAL_OK;
 80025e0:	2000      	movs	r0, #0
}
 80025e2:	b002      	add	sp, #8
 80025e4:	bd70      	pop	{r4, r5, r6, pc}
      SET_BIT(hadc->State, HAL_ADC_STATE_ERROR_INTERNAL);
 80025e6:	2210      	movs	r2, #16
 80025e8:	6ba3      	ldr	r3, [r4, #56]	@ 0x38
      return HAL_ERROR;
 80025ea:	2001      	movs	r0, #1
      SET_BIT(hadc->State, HAL_ADC_STATE_ERROR_INTERNAL);
 80025ec:	4313      	orrs	r3, r2
 80025ee:	63a3      	str	r3, [r4, #56]	@ 0x38
      SET_BIT(hadc->ErrorCode, HAL_ADC_ERROR_INTERNAL);
 80025f0:	6be3      	ldr	r3, [r4, #60]	@ 0x3c
 80025f2:	3a0f      	subs	r2, #15
 80025f4:	4313      	orrs	r3, r2
 80025f6:	63e3      	str	r3, [r4, #60]	@ 0x3c
      return HAL_ERROR;
 80025f8:	e7f3      	b.n	80025e2 <ADC_Enable.constprop.0+0x6e>
  if (ADC_IS_ENABLE(hadc) == RESET)
 80025fa:	6811      	ldr	r1, [r2, #0]
 80025fc:	420b      	tst	r3, r1
 80025fe:	d1ef      	bne.n	80025e0 <ADC_Enable.constprop.0+0x6c>
 8002600:	68d3      	ldr	r3, [r2, #12]
 8002602:	041b      	lsls	r3, r3, #16
 8002604:	d4ec      	bmi.n	80025e0 <ADC_Enable.constprop.0+0x6c>
 8002606:	e7c0      	b.n	800258a <ADC_Enable.constprop.0+0x16>
          SET_BIT(hadc->State, HAL_ADC_STATE_ERROR_INTERNAL);
 8002608:	2210      	movs	r2, #16
 800260a:	6ba3      	ldr	r3, [r4, #56]	@ 0x38
      return HAL_ERROR;
 800260c:	2001      	movs	r0, #1
          SET_BIT(hadc->State, HAL_ADC_STATE_ERROR_INTERNAL);
 800260e:	4313      	orrs	r3, r2
 8002610:	63a3      	str	r3, [r4, #56]	@ 0x38
          SET_BIT(hadc->ErrorCode, HAL_ADC_ERROR_INTERNAL);
 8002612:	6be3      	ldr	r3, [r4, #60]	@ 0x3c
 8002614:	432b      	orrs	r3, r5
 8002616:	63e3      	str	r3, [r4, #60]	@ 0x3c
          return HAL_ERROR;
 8002618:	e7e3      	b.n	80025e2 <ADC_Enable.constprop.0+0x6e>
 800261a:	46c0      	nop			@ (mov r8, r8)
 800261c:	80000017 	.word	0x80000017
 8002620:	20000014 	.word	0x20000014
 8002624:	000f4240 	.word	0x000f4240

08002628 <HAL_ADC_Init>:
{
 8002628:	b570      	push	{r4, r5, r6, lr}
 800262a:	1e04      	subs	r4, r0, #0
  if(hadc == NULL)
 800262c:	d064      	beq.n	80026f8 <HAL_ADC_Init+0xd0>
  if (hadc->State == HAL_ADC_STATE_RESET)
 800262e:	6b83      	ldr	r3, [r0, #56]	@ 0x38
 8002630:	2b00      	cmp	r3, #0
 8002632:	d068      	beq.n	8002706 <HAL_ADC_Init+0xde>
  if (HAL_IS_BIT_CLR(hadc->State, HAL_ADC_STATE_ERROR_INTERNAL) &&
 8002634:	6ba3      	ldr	r3, [r4, #56]	@ 0x38
 8002636:	06db      	lsls	r3, r3, #27
 8002638:	d460      	bmi.n	80026fc <HAL_ADC_Init+0xd4>
      (ADC_IS_CONVERSION_ONGOING_REGULAR(hadc) == RESET)          )
 800263a:	6822      	ldr	r2, [r4, #0]
 800263c:	6893      	ldr	r3, [r2, #8]
      (tmp_hal_status == HAL_OK)                                &&
 800263e:	075b      	lsls	r3, r3, #29
 8002640:	d45c      	bmi.n	80026fc <HAL_ADC_Init+0xd4>
    ADC_STATE_CLR_SET(hadc->State,
 8002642:	6ba3      	ldr	r3, [r4, #56]	@ 0x38
 8002644:	4947      	ldr	r1, [pc, #284]	@ (8002764 <HAL_ADC_Init+0x13c>)
 8002646:	400b      	ands	r3, r1
 8002648:	3106      	adds	r1, #6
 800264a:	31ff      	adds	r1, #255	@ 0xff
 800264c:	430b      	orrs	r3, r1
 800264e:	63a3      	str	r3, [r4, #56]	@ 0x38
    if (ADC_IS_ENABLE(hadc) == RESET)
 8002650:	2303      	movs	r3, #3
 8002652:	6891      	ldr	r1, [r2, #8]
 8002654:	400b      	ands	r3, r1
 8002656:	2b01      	cmp	r3, #1
 8002658:	d05b      	beq.n	8002712 <HAL_ADC_Init+0xea>
      MODIFY_REG(hadc->Instance->CFGR1,
 800265a:	2118      	movs	r1, #24
 800265c:	68d3      	ldr	r3, [r2, #12]
 800265e:	438b      	bics	r3, r1
 8002660:	68a1      	ldr	r1, [r4, #8]
 8002662:	430b      	orrs	r3, r1
 8002664:	60d3      	str	r3, [r2, #12]
      MODIFY_REG(hadc->Instance->CFGR2    ,
 8002666:	6913      	ldr	r3, [r2, #16]
 8002668:	6861      	ldr	r1, [r4, #4]
 800266a:	009b      	lsls	r3, r3, #2
 800266c:	089b      	lsrs	r3, r3, #2
 800266e:	430b      	orrs	r3, r1
 8002670:	6113      	str	r3, [r2, #16]
    hadc->Instance->CFGR1 &= ~( ADC_CFGR1_DISCEN  |
 8002672:	68d3      	ldr	r3, [r2, #12]
 8002674:	493c      	ldr	r1, [pc, #240]	@ (8002768 <HAL_ADC_Init+0x140>)
 8002676:	400b      	ands	r3, r1
 8002678:	60d3      	str	r3, [r2, #12]
    tmpCFGR1 |= (ADC_CFGR1_AUTOWAIT((uint32_t)hadc->Init.LowPowerAutoWait)        |
 800267a:	7e23      	ldrb	r3, [r4, #24]
                 ADC_CFGR1_AUTOOFF((uint32_t)hadc->Init.LowPowerAutoPowerOff)     |
 800267c:	7e61      	ldrb	r1, [r4, #25]
    tmpCFGR1 |= (ADC_CFGR1_AUTOWAIT((uint32_t)hadc->Init.LowPowerAutoWait)        |
 800267e:	039b      	lsls	r3, r3, #14
                 ADC_CFGR1_AUTOOFF((uint32_t)hadc->Init.LowPowerAutoPowerOff)     |
 8002680:	03c9      	lsls	r1, r1, #15
    tmpCFGR1 |= (ADC_CFGR1_AUTOWAIT((uint32_t)hadc->Init.LowPowerAutoWait)        |
 8002682:	430b      	orrs	r3, r1
                 ADC_CFGR1_CONTINUOUS((uint32_t)hadc->Init.ContinuousConvMode)    |
 8002684:	7ea0      	ldrb	r0, [r4, #26]
                 ADC_SCANDIR(hadc->Init.ScanConvMode)                             |
 8002686:	68e1      	ldr	r1, [r4, #12]
 8002688:	430b      	orrs	r3, r1
                 ADC_CFGR1_CONTINUOUS((uint32_t)hadc->Init.ContinuousConvMode)    |
 800268a:	0341      	lsls	r1, r0, #13
                 ADC_SCANDIR(hadc->Init.ScanConvMode)                             |
 800268c:	430b      	orrs	r3, r1
                 ADC_CFGR1_DMACONTREQ((uint32_t)hadc->Init.DMAContinuousRequests)  );
 800268e:	2124      	movs	r1, #36	@ 0x24
 8002690:	5c61      	ldrb	r1, [r4, r1]
 8002692:	0049      	lsls	r1, r1, #1
                 ADC_SCANDIR(hadc->Init.ScanConvMode)                             |
 8002694:	430b      	orrs	r3, r1
                 ADC_CFGR1_OVERRUN(hadc->Init.Overrun)                            |
 8002696:	6aa1      	ldr	r1, [r4, #40]	@ 0x28
 8002698:	3901      	subs	r1, #1
 800269a:	1e4d      	subs	r5, r1, #1
 800269c:	41a9      	sbcs	r1, r5
 800269e:	0309      	lsls	r1, r1, #12
                 ADC_SCANDIR(hadc->Init.ScanConvMode)                             |
 80026a0:	430b      	orrs	r3, r1
 80026a2:	6921      	ldr	r1, [r4, #16]
 80026a4:	3902      	subs	r1, #2
 80026a6:	424d      	negs	r5, r1
 80026a8:	4169      	adcs	r1, r5
 80026aa:	0089      	lsls	r1, r1, #2
 80026ac:	430b      	orrs	r3, r1
    if (hadc->Init.DiscontinuousConvMode == ENABLE)
 80026ae:	7ee1      	ldrb	r1, [r4, #27]
 80026b0:	2901      	cmp	r1, #1
 80026b2:	d03e      	beq.n	8002732 <HAL_ADC_Init+0x10a>
    if (hadc->Init.ExternalTrigConv != ADC_SOFTWARE_START)
 80026b4:	20c2      	movs	r0, #194	@ 0xc2
 80026b6:	69e1      	ldr	r1, [r4, #28]
 80026b8:	30ff      	adds	r0, #255	@ 0xff
 80026ba:	4281      	cmp	r1, r0
 80026bc:	d002      	beq.n	80026c4 <HAL_ADC_Init+0x9c>
      tmpCFGR1 |= ( hadc->Init.ExternalTrigConv    |
 80026be:	6a20      	ldr	r0, [r4, #32]
 80026c0:	4301      	orrs	r1, r0
 80026c2:	430b      	orrs	r3, r1
    hadc->Instance->CFGR1 |= tmpCFGR1;
 80026c4:	68d1      	ldr	r1, [r2, #12]
    if (IS_ADC_SAMPLE_TIME(hadc->Init.SamplingTimeCommon))
 80026c6:	6ae5      	ldr	r5, [r4, #44]	@ 0x2c
    hadc->Instance->CFGR1 |= tmpCFGR1;
 80026c8:	4319      	orrs	r1, r3
 80026ca:	60d1      	str	r1, [r2, #12]
    if (IS_ADC_SAMPLE_TIME(hadc->Init.SamplingTimeCommon))
 80026cc:	2180      	movs	r1, #128	@ 0x80
 80026ce:	0549      	lsls	r1, r1, #21
 80026d0:	428d      	cmp	r5, r1
 80026d2:	d025      	beq.n	8002720 <HAL_ADC_Init+0xf8>
 80026d4:	1e69      	subs	r1, r5, #1
 80026d6:	2906      	cmp	r1, #6
 80026d8:	d922      	bls.n	8002720 <HAL_ADC_Init+0xf8>
    if ((hadc->Instance->CFGR1 & ~(ADC_CFGR1_AWDCH | ADC_CFGR1_AWDEN | ADC_CFGR1_AWDSGL | ADC_CFGR1_RES))
 80026da:	68d2      	ldr	r2, [r2, #12]
 80026dc:	4923      	ldr	r1, [pc, #140]	@ (800276c <HAL_ADC_Init+0x144>)
 80026de:	400a      	ands	r2, r1
 80026e0:	429a      	cmp	r2, r3
 80026e2:	d02c      	beq.n	800273e <HAL_ADC_Init+0x116>
      ADC_STATE_CLR_SET(hadc->State,
 80026e4:	2212      	movs	r2, #18
 80026e6:	6ba3      	ldr	r3, [r4, #56]	@ 0x38
 80026e8:	4393      	bics	r3, r2
 80026ea:	3a02      	subs	r2, #2
 80026ec:	4313      	orrs	r3, r2
 80026ee:	63a3      	str	r3, [r4, #56]	@ 0x38
      SET_BIT(hadc->ErrorCode, HAL_ADC_ERROR_INTERNAL);
 80026f0:	6be3      	ldr	r3, [r4, #60]	@ 0x3c
 80026f2:	3a0f      	subs	r2, #15
 80026f4:	4313      	orrs	r3, r2
 80026f6:	63e3      	str	r3, [r4, #60]	@ 0x3c
    return HAL_ERROR;
 80026f8:	2001      	movs	r0, #1
}
 80026fa:	bd70      	pop	{r4, r5, r6, pc}
    SET_BIT(hadc->State, HAL_ADC_STATE_ERROR_INTERNAL);
 80026fc:	2210      	movs	r2, #16
 80026fe:	6ba3      	ldr	r3, [r4, #56]	@ 0x38
 8002700:	4313      	orrs	r3, r2
 8002702:	63a3      	str	r3, [r4, #56]	@ 0x38
    tmp_hal_status = HAL_ERROR;
 8002704:	e7f8      	b.n	80026f8 <HAL_ADC_Init+0xd0>
    hadc->Lock = HAL_UNLOCKED;
 8002706:	2234      	movs	r2, #52	@ 0x34
    ADC_CLEAR_ERRORCODE(hadc);
 8002708:	63c3      	str	r3, [r0, #60]	@ 0x3c
    hadc->Lock = HAL_UNLOCKED;
 800270a:	5483      	strb	r3, [r0, r2]
    HAL_ADC_MspInit(hadc);
 800270c:	f7ff fcb2 	bl	8002074 <HAL_ADC_MspInit>
 8002710:	e790      	b.n	8002634 <HAL_ADC_Init+0xc>
    if (ADC_IS_ENABLE(hadc) == RESET)
 8002712:	6811      	ldr	r1, [r2, #0]
 8002714:	420b      	tst	r3, r1
 8002716:	d1ac      	bne.n	8002672 <HAL_ADC_Init+0x4a>
 8002718:	68d3      	ldr	r3, [r2, #12]
 800271a:	041b      	lsls	r3, r3, #16
 800271c:	d4a9      	bmi.n	8002672 <HAL_ADC_Init+0x4a>
 800271e:	e79c      	b.n	800265a <HAL_ADC_Init+0x32>
      hadc->Instance->SMPR &= ~(ADC_SMPR_SMP);
 8002720:	2107      	movs	r1, #7
 8002722:	6950      	ldr	r0, [r2, #20]
 8002724:	4388      	bics	r0, r1
 8002726:	6150      	str	r0, [r2, #20]
      hadc->Instance->SMPR |= ADC_SMPR_SET(hadc->Init.SamplingTimeCommon);
 8002728:	6950      	ldr	r0, [r2, #20]
 800272a:	4029      	ands	r1, r5
 800272c:	4301      	orrs	r1, r0
 800272e:	6151      	str	r1, [r2, #20]
 8002730:	e7d3      	b.n	80026da <HAL_ADC_Init+0xb2>
      if (hadc->Init.ContinuousConvMode == DISABLE)
 8002732:	2800      	cmp	r0, #0
 8002734:	d10d      	bne.n	8002752 <HAL_ADC_Init+0x12a>
        tmpCFGR1 |= ADC_CFGR1_DISCEN;
 8002736:	2180      	movs	r1, #128	@ 0x80
 8002738:	0249      	lsls	r1, r1, #9
 800273a:	430b      	orrs	r3, r1
 800273c:	e7ba      	b.n	80026b4 <HAL_ADC_Init+0x8c>
      ADC_CLEAR_ERRORCODE(hadc);
 800273e:	2300      	movs	r3, #0
      ADC_STATE_CLR_SET(hadc->State,
 8002740:	2203      	movs	r2, #3
      ADC_CLEAR_ERRORCODE(hadc);
 8002742:	63e3      	str	r3, [r4, #60]	@ 0x3c
      ADC_STATE_CLR_SET(hadc->State,
 8002744:	6ba3      	ldr	r3, [r4, #56]	@ 0x38
  HAL_StatusTypeDef tmp_hal_status = HAL_OK;
 8002746:	2000      	movs	r0, #0
      ADC_STATE_CLR_SET(hadc->State,
 8002748:	4393      	bics	r3, r2
 800274a:	3a02      	subs	r2, #2
 800274c:	4313      	orrs	r3, r2
 800274e:	63a3      	str	r3, [r4, #56]	@ 0x38
 8002750:	e7d3      	b.n	80026fa <HAL_ADC_Init+0xd2>
        SET_BIT(hadc->State, HAL_ADC_STATE_ERROR_CONFIG);
 8002752:	2520      	movs	r5, #32
 8002754:	6ba0      	ldr	r0, [r4, #56]	@ 0x38
 8002756:	4328      	orrs	r0, r5
 8002758:	63a0      	str	r0, [r4, #56]	@ 0x38
        SET_BIT(hadc->ErrorCode, HAL_ADC_ERROR_INTERNAL);
 800275a:	6be0      	ldr	r0, [r4, #60]	@ 0x3c
 800275c:	4301      	orrs	r1, r0
 800275e:	63e1      	str	r1, [r4, #60]	@ 0x3c
 8002760:	e7a8      	b.n	80026b4 <HAL_ADC_Init+0x8c>
 8002762:	46c0      	nop			@ (mov r8, r8)
 8002764:	fffffefd 	.word	0xfffffefd
 8002768:	fffe0219 	.word	0xfffe0219
 800276c:	833fffe7 	.word	0x833fffe7

08002770 <HAL_ADC_Start>:
  if (ADC_IS_CONVERSION_ONGOING_REGULAR(hadc) == RESET)
 8002770:	6803      	ldr	r3, [r0, #0]
{
 8002772:	b510      	push	{r4, lr}
  if (ADC_IS_CONVERSION_ONGOING_REGULAR(hadc) == RESET)
 8002774:	689a      	ldr	r2, [r3, #8]
{
 8002776:	0004      	movs	r4, r0
  if (ADC_IS_CONVERSION_ONGOING_REGULAR(hadc) == RESET)
 8002778:	0752      	lsls	r2, r2, #29
 800277a:	d421      	bmi.n	80027c0 <HAL_ADC_Start+0x50>
    __HAL_LOCK(hadc);
 800277c:	2234      	movs	r2, #52	@ 0x34
 800277e:	5c81      	ldrb	r1, [r0, r2]
 8002780:	2901      	cmp	r1, #1
 8002782:	d01d      	beq.n	80027c0 <HAL_ADC_Start+0x50>
 8002784:	2101      	movs	r1, #1
 8002786:	5481      	strb	r1, [r0, r2]
    if (hadc->Init.LowPowerAutoPowerOff != ENABLE)
 8002788:	7e42      	ldrb	r2, [r0, #25]
 800278a:	2a01      	cmp	r2, #1
 800278c:	d112      	bne.n	80027b4 <HAL_ADC_Start+0x44>
      ADC_STATE_CLR_SET(hadc->State,
 800278e:	6ba1      	ldr	r1, [r4, #56]	@ 0x38
 8002790:	4a0c      	ldr	r2, [pc, #48]	@ (80027c4 <HAL_ADC_Start+0x54>)
      hadc->Instance->CR |= ADC_CR_ADSTART;
 8002792:	2000      	movs	r0, #0
      ADC_STATE_CLR_SET(hadc->State,
 8002794:	4011      	ands	r1, r2
 8002796:	2280      	movs	r2, #128	@ 0x80
 8002798:	0052      	lsls	r2, r2, #1
 800279a:	430a      	orrs	r2, r1
 800279c:	63a2      	str	r2, [r4, #56]	@ 0x38
      __HAL_UNLOCK(hadc);
 800279e:	2134      	movs	r1, #52	@ 0x34
      ADC_CLEAR_ERRORCODE(hadc);
 80027a0:	2200      	movs	r2, #0
 80027a2:	63e2      	str	r2, [r4, #60]	@ 0x3c
      __HAL_UNLOCK(hadc);
 80027a4:	5462      	strb	r2, [r4, r1]
      __HAL_ADC_CLEAR_FLAG(hadc, (ADC_FLAG_EOC | ADC_FLAG_EOS | ADC_FLAG_OVR));
 80027a6:	321c      	adds	r2, #28
 80027a8:	601a      	str	r2, [r3, #0]
      hadc->Instance->CR |= ADC_CR_ADSTART;
 80027aa:	689a      	ldr	r2, [r3, #8]
 80027ac:	3930      	subs	r1, #48	@ 0x30
 80027ae:	430a      	orrs	r2, r1
 80027b0:	609a      	str	r2, [r3, #8]
}
 80027b2:	bd10      	pop	{r4, pc}
      tmp_hal_status = ADC_Enable(hadc);
 80027b4:	f7ff fede 	bl	8002574 <ADC_Enable.constprop.0>
    if (tmp_hal_status == HAL_OK)
 80027b8:	2800      	cmp	r0, #0
 80027ba:	d1fa      	bne.n	80027b2 <HAL_ADC_Start+0x42>
      __HAL_ADC_CLEAR_FLAG(hadc, (ADC_FLAG_EOC | ADC_FLAG_EOS | ADC_FLAG_OVR));
 80027bc:	6823      	ldr	r3, [r4, #0]
 80027be:	e7e6      	b.n	800278e <HAL_ADC_Start+0x1e>
    __HAL_LOCK(hadc);
 80027c0:	2002      	movs	r0, #2
 80027c2:	e7f6      	b.n	80027b2 <HAL_ADC_Start+0x42>
 80027c4:	fffff0fe 	.word	0xfffff0fe

080027c8 <HAL_ADC_Stop>:
  __HAL_LOCK(hadc);
 80027c8:	2334      	movs	r3, #52	@ 0x34
{ 
 80027ca:	b570      	push	{r4, r5, r6, lr}
  __HAL_LOCK(hadc);
 80027cc:	5cc2      	ldrb	r2, [r0, r3]
{ 
 80027ce:	0004      	movs	r4, r0
  __HAL_LOCK(hadc);
 80027d0:	2a01      	cmp	r2, #1
 80027d2:	d014      	beq.n	80027fe <HAL_ADC_Stop+0x36>
 80027d4:	2501      	movs	r5, #1
 80027d6:	54c5      	strb	r5, [r0, r3]
  tmp_hal_status = ADC_ConversionStop(hadc);
 80027d8:	f7ff fe9a 	bl	8002510 <ADC_ConversionStop>
  if (tmp_hal_status == HAL_OK)
 80027dc:	2800      	cmp	r0, #0
 80027de:	d003      	beq.n	80027e8 <HAL_ADC_Stop+0x20>
  __HAL_UNLOCK(hadc);
 80027e0:	2334      	movs	r3, #52	@ 0x34
 80027e2:	2200      	movs	r2, #0
 80027e4:	54e2      	strb	r2, [r4, r3]
}
 80027e6:	bd70      	pop	{r4, r5, r6, pc}
    tmp_hal_status = ADC_Disable(hadc);
 80027e8:	0020      	movs	r0, r4
 80027ea:	f7ff fe4d 	bl	8002488 <ADC_Disable>
    if (tmp_hal_status == HAL_OK)
 80027ee:	2800      	cmp	r0, #0
 80027f0:	d1f6      	bne.n	80027e0 <HAL_ADC_Stop+0x18>
      ADC_STATE_CLR_SET(hadc->State,
 80027f2:	6ba3      	ldr	r3, [r4, #56]	@ 0x38
 80027f4:	4a03      	ldr	r2, [pc, #12]	@ (8002804 <HAL_ADC_Stop+0x3c>)
 80027f6:	4013      	ands	r3, r2
 80027f8:	432b      	orrs	r3, r5
 80027fa:	63a3      	str	r3, [r4, #56]	@ 0x38
 80027fc:	e7f0      	b.n	80027e0 <HAL_ADC_Stop+0x18>
  __HAL_LOCK(hadc);
 80027fe:	2002      	movs	r0, #2
 8002800:	e7f1      	b.n	80027e6 <HAL_ADC_Stop+0x1e>
 8002802:	46c0      	nop			@ (mov r8, r8)
 8002804:	fffffefe 	.word	0xfffffefe

08002808 <HAL_ADC_GetValue>:
  return hadc->Instance->DR;
 8002808:	6803      	ldr	r3, [r0, #0]
 800280a:	6c18      	ldr	r0, [r3, #64]	@ 0x40
}
 800280c:	4770      	bx	lr
 800280e:	46c0      	nop			@ (mov r8, r8)

08002810 <HAL_ADC_ConfigChannel>:
{
 8002810:	b5f0      	push	{r4, r5, r6, r7, lr}
 8002812:	46c6      	mov	lr, r8
  __IO uint32_t wait_loop_index = 0U;
 8002814:	2300      	movs	r3, #0
  __HAL_LOCK(hadc);
 8002816:	2234      	movs	r2, #52	@ 0x34
{
 8002818:	b500      	push	{lr}
 800281a:	b082      	sub	sp, #8
  __IO uint32_t wait_loop_index = 0U;
 800281c:	9301      	str	r3, [sp, #4]
  __HAL_LOCK(hadc);
 800281e:	5c83      	ldrb	r3, [r0, r2]
{
 8002820:	0004      	movs	r4, r0
  if (! IS_ADC_SAMPLE_TIME(hadc->Init.SamplingTimeCommon))
 8002822:	6ac5      	ldr	r5, [r0, #44]	@ 0x2c
  __HAL_LOCK(hadc);
 8002824:	2b01      	cmp	r3, #1
 8002826:	d050      	beq.n	80028ca <HAL_ADC_ConfigChannel+0xba>
 8002828:	2301      	movs	r3, #1
 800282a:	5483      	strb	r3, [r0, r2]
  if (ADC_IS_CONVERSION_ONGOING_REGULAR(hadc) == RESET)
 800282c:	6802      	ldr	r2, [r0, #0]
 800282e:	6890      	ldr	r0, [r2, #8]
 8002830:	0740      	lsls	r0, r0, #29
 8002832:	d50b      	bpl.n	800284c <HAL_ADC_ConfigChannel+0x3c>
    SET_BIT(hadc->State, HAL_ADC_STATE_ERROR_CONFIG);
 8002834:	2220      	movs	r2, #32
    tmp_hal_status = HAL_ERROR;
 8002836:	2001      	movs	r0, #1
    SET_BIT(hadc->State, HAL_ADC_STATE_ERROR_CONFIG);
 8002838:	6ba3      	ldr	r3, [r4, #56]	@ 0x38
 800283a:	4313      	orrs	r3, r2
 800283c:	63a3      	str	r3, [r4, #56]	@ 0x38
  __HAL_UNLOCK(hadc);
 800283e:	2334      	movs	r3, #52	@ 0x34
 8002840:	2200      	movs	r2, #0
 8002842:	54e2      	strb	r2, [r4, r3]
}
 8002844:	b002      	add	sp, #8
 8002846:	bc80      	pop	{r7}
 8002848:	46b8      	mov	r8, r7
 800284a:	bdf0      	pop	{r4, r5, r6, r7, pc}
      hadc->Instance->CHSELR |= ADC_CHSELR_CHANNEL(sConfig->Channel);
 800284c:	6808      	ldr	r0, [r1, #0]
    if (sConfig->Rank != ADC_RANK_NONE)
 800284e:	4f2b      	ldr	r7, [pc, #172]	@ (80028fc <HAL_ADC_ConfigChannel+0xec>)
      if(ADC_IS_CHANNEL_INTERNAL(sConfig->Channel))
 8002850:	0006      	movs	r6, r0
    if (sConfig->Rank != ADC_RANK_NONE)
 8002852:	46b8      	mov	r8, r7
 8002854:	684f      	ldr	r7, [r1, #4]
      hadc->Instance->CHSELR |= ADC_CHSELR_CHANNEL(sConfig->Channel);
 8002856:	4083      	lsls	r3, r0
      if(ADC_IS_CHANNEL_INTERNAL(sConfig->Channel))
 8002858:	3e10      	subs	r6, #16
    if (sConfig->Rank != ADC_RANK_NONE)
 800285a:	4547      	cmp	r7, r8
 800285c:	d024      	beq.n	80028a8 <HAL_ADC_ConfigChannel+0x98>
      hadc->Instance->CHSELR |= ADC_CHSELR_CHANNEL(sConfig->Channel);
 800285e:	6a97      	ldr	r7, [r2, #40]	@ 0x28
 8002860:	433b      	orrs	r3, r7
 8002862:	6293      	str	r3, [r2, #40]	@ 0x28
      if (! IS_ADC_SAMPLE_TIME(hadc->Init.SamplingTimeCommon))
 8002864:	2380      	movs	r3, #128	@ 0x80
 8002866:	055b      	lsls	r3, r3, #21
 8002868:	429d      	cmp	r5, r3
 800286a:	d00f      	beq.n	800288c <HAL_ADC_ConfigChannel+0x7c>
 800286c:	3d01      	subs	r5, #1
 800286e:	2d06      	cmp	r5, #6
 8002870:	d90c      	bls.n	800288c <HAL_ADC_ConfigChannel+0x7c>
        if (sConfig->SamplingTime != ADC_GET_SAMPLINGTIME(hadc))
 8002872:	2307      	movs	r3, #7
 8002874:	688d      	ldr	r5, [r1, #8]
 8002876:	6951      	ldr	r1, [r2, #20]
 8002878:	4019      	ands	r1, r3
 800287a:	428d      	cmp	r5, r1
 800287c:	d006      	beq.n	800288c <HAL_ADC_ConfigChannel+0x7c>
          hadc->Instance->SMPR &= ~(ADC_SMPR_SMP);
 800287e:	6951      	ldr	r1, [r2, #20]
 8002880:	4399      	bics	r1, r3
 8002882:	6151      	str	r1, [r2, #20]
          hadc->Instance->SMPR |= ADC_SMPR_SET(sConfig->SamplingTime);
 8002884:	6951      	ldr	r1, [r2, #20]
 8002886:	402b      	ands	r3, r5
 8002888:	430b      	orrs	r3, r1
 800288a:	6153      	str	r3, [r2, #20]
      if(ADC_IS_CHANNEL_INTERNAL(sConfig->Channel))
 800288c:	2e01      	cmp	r6, #1
 800288e:	d901      	bls.n	8002894 <HAL_ADC_ConfigChannel+0x84>
  HAL_StatusTypeDef tmp_hal_status = HAL_OK;
 8002890:	2000      	movs	r0, #0
 8002892:	e7d4      	b.n	800283e <HAL_ADC_ConfigChannel+0x2e>
        ADC->CCR |= ADC_CHANNEL_INTERNAL_PATH(sConfig->Channel);
 8002894:	4b1a      	ldr	r3, [pc, #104]	@ (8002900 <HAL_ADC_ConfigChannel+0xf0>)
 8002896:	2280      	movs	r2, #128	@ 0x80
 8002898:	6819      	ldr	r1, [r3, #0]
 800289a:	2810      	cmp	r0, #16
 800289c:	d017      	beq.n	80028ce <HAL_ADC_ConfigChannel+0xbe>
 800289e:	03d2      	lsls	r2, r2, #15
 80028a0:	430a      	orrs	r2, r1
  HAL_StatusTypeDef tmp_hal_status = HAL_OK;
 80028a2:	2000      	movs	r0, #0
        ADC->CCR |= ADC_CHANNEL_INTERNAL_PATH(sConfig->Channel);
 80028a4:	601a      	str	r2, [r3, #0]
        if (sConfig->Channel == ADC_CHANNEL_TEMPSENSOR)
 80028a6:	e7ca      	b.n	800283e <HAL_ADC_ConfigChannel+0x2e>
      hadc->Instance->CHSELR &= ~ADC_CHSELR_CHANNEL(sConfig->Channel);
 80028a8:	6a91      	ldr	r1, [r2, #40]	@ 0x28
 80028aa:	4399      	bics	r1, r3
 80028ac:	6291      	str	r1, [r2, #40]	@ 0x28
      if(ADC_IS_CHANNEL_INTERNAL(sConfig->Channel))
 80028ae:	2e01      	cmp	r6, #1
 80028b0:	d8ee      	bhi.n	8002890 <HAL_ADC_ConfigChannel+0x80>
        ADC->CCR &= ~ADC_CHANNEL_INTERNAL_PATH(sConfig->Channel);
 80028b2:	1e71      	subs	r1, r6, #1
 80028b4:	418e      	sbcs	r6, r1
 80028b6:	4913      	ldr	r1, [pc, #76]	@ (8002904 <HAL_ADC_ConfigChannel+0xf4>)
 80028b8:	4b11      	ldr	r3, [pc, #68]	@ (8002900 <HAL_ADC_ConfigChannel+0xf0>)
 80028ba:	468c      	mov	ip, r1
 80028bc:	681a      	ldr	r2, [r3, #0]
 80028be:	05b6      	lsls	r6, r6, #22
 80028c0:	4466      	add	r6, ip
 80028c2:	4016      	ands	r6, r2
  HAL_StatusTypeDef tmp_hal_status = HAL_OK;
 80028c4:	2000      	movs	r0, #0
        ADC->CCR &= ~ADC_CHANNEL_INTERNAL_PATH(sConfig->Channel);
 80028c6:	601e      	str	r6, [r3, #0]
 80028c8:	e7b9      	b.n	800283e <HAL_ADC_ConfigChannel+0x2e>
  __HAL_LOCK(hadc);
 80028ca:	2002      	movs	r0, #2
 80028cc:	e7ba      	b.n	8002844 <HAL_ADC_ConfigChannel+0x34>
        ADC->CCR |= ADC_CHANNEL_INTERNAL_PATH(sConfig->Channel);
 80028ce:	0412      	lsls	r2, r2, #16
 80028d0:	430a      	orrs	r2, r1
 80028d2:	601a      	str	r2, [r3, #0]
          wait_loop_index = (ADC_TEMPSENSOR_DELAY_US * (SystemCoreClock / 1000000U));
 80028d4:	4b0c      	ldr	r3, [pc, #48]	@ (8002908 <HAL_ADC_ConfigChannel+0xf8>)
 80028d6:	490d      	ldr	r1, [pc, #52]	@ (800290c <HAL_ADC_ConfigChannel+0xfc>)
 80028d8:	6818      	ldr	r0, [r3, #0]
 80028da:	f7fd fc27 	bl	800012c <__udivsi3>
 80028de:	0083      	lsls	r3, r0, #2
 80028e0:	181b      	adds	r3, r3, r0
 80028e2:	005b      	lsls	r3, r3, #1
 80028e4:	9301      	str	r3, [sp, #4]
          while(wait_loop_index != 0U)
 80028e6:	9b01      	ldr	r3, [sp, #4]
 80028e8:	2b00      	cmp	r3, #0
 80028ea:	d0d1      	beq.n	8002890 <HAL_ADC_ConfigChannel+0x80>
            wait_loop_index--;
 80028ec:	9b01      	ldr	r3, [sp, #4]
 80028ee:	3b01      	subs	r3, #1
 80028f0:	9301      	str	r3, [sp, #4]
          while(wait_loop_index != 0U)
 80028f2:	9b01      	ldr	r3, [sp, #4]
 80028f4:	2b00      	cmp	r3, #0
 80028f6:	d1f9      	bne.n	80028ec <HAL_ADC_ConfigChannel+0xdc>
  HAL_StatusTypeDef tmp_hal_status = HAL_OK;
 80028f8:	2000      	movs	r0, #0
 80028fa:	e7a0      	b.n	800283e <HAL_ADC_ConfigChannel+0x2e>
 80028fc:	00001001 	.word	0x00001001
 8002900:	40012708 	.word	0x40012708
 8002904:	ff7fffff 	.word	0xff7fffff
 8002908:	20000014 	.word	0x20000014
 800290c:	000f4240 	.word	0x000f4240

08002910 <HAL_NVIC_SetPriority>:
 */
__STATIC_INLINE void __NVIC_SetPriority(IRQn_Type IRQn, uint32_t priority)
{
  if ((int32_t)(IRQn) >= 0)
  {
    NVIC->IP[_IP_IDX(IRQn)]  = ((uint32_t)(NVIC->IP[_IP_IDX(IRQn)]  & ~(0xFFUL << _BIT_SHIFT(IRQn))) |
 8002910:	22ff      	movs	r2, #255	@ 0xff
 8002912:	2303      	movs	r3, #3
  *         with stm32f0xx devices, this parameter is a dummy value and it is ignored, because 
  *         no subpriority supported in Cortex M0 based products.   
  * @retval None
  */
void HAL_NVIC_SetPriority(IRQn_Type IRQn, uint32_t PreemptPriority, uint32_t SubPriority)
{
 8002914:	b510      	push	{r4, lr}
 8002916:	0014      	movs	r4, r2
 8002918:	4003      	ands	r3, r0
 800291a:	00db      	lsls	r3, r3, #3
 800291c:	409c      	lsls	r4, r3
       (((priority << (8U - __NVIC_PRIO_BITS)) & (uint32_t)0xFFUL) << _BIT_SHIFT(IRQn)));
 800291e:	0189      	lsls	r1, r1, #6
 8002920:	400a      	ands	r2, r1
    NVIC->IP[_IP_IDX(IRQn)]  = ((uint32_t)(NVIC->IP[_IP_IDX(IRQn)]  & ~(0xFFUL << _BIT_SHIFT(IRQn))) |
 8002922:	43e4      	mvns	r4, r4
       (((priority << (8U - __NVIC_PRIO_BITS)) & (uint32_t)0xFFUL) << _BIT_SHIFT(IRQn)));
 8002924:	409a      	lsls	r2, r3
  if ((int32_t)(IRQn) >= 0)
 8002926:	2800      	cmp	r0, #0
 8002928:	db0b      	blt.n	8002942 <HAL_NVIC_SetPriority+0x32>
    NVIC->IP[_IP_IDX(IRQn)]  = ((uint32_t)(NVIC->IP[_IP_IDX(IRQn)]  & ~(0xFFUL << _BIT_SHIFT(IRQn))) |
 800292a:	4b0c      	ldr	r3, [pc, #48]	@ (800295c <HAL_NVIC_SetPriority+0x4c>)
 800292c:	21c0      	movs	r1, #192	@ 0xc0
 800292e:	469c      	mov	ip, r3
 8002930:	0880      	lsrs	r0, r0, #2
 8002932:	0080      	lsls	r0, r0, #2
 8002934:	4460      	add	r0, ip
 8002936:	0089      	lsls	r1, r1, #2
 8002938:	5843      	ldr	r3, [r0, r1]
 800293a:	4023      	ands	r3, r4
 800293c:	4313      	orrs	r3, r2
 800293e:	5043      	str	r3, [r0, r1]
  assert_param(IS_NVIC_PREEMPTION_PRIORITY(PreemptPriority));
  NVIC_SetPriority(IRQn,PreemptPriority);

  /* Prevent unused argument(s) compilation warning */
  UNUSED(SubPriority);
}
 8002940:	bd10      	pop	{r4, pc}
  }
  else
  {
    SCB->SHP[_SHP_IDX(IRQn)] = ((uint32_t)(SCB->SHP[_SHP_IDX(IRQn)] & ~(0xFFUL << _BIT_SHIFT(IRQn))) |
 8002942:	230f      	movs	r3, #15
 8002944:	4906      	ldr	r1, [pc, #24]	@ (8002960 <HAL_NVIC_SetPriority+0x50>)
 8002946:	4003      	ands	r3, r0
 8002948:	468c      	mov	ip, r1
 800294a:	3b08      	subs	r3, #8
 800294c:	089b      	lsrs	r3, r3, #2
 800294e:	009b      	lsls	r3, r3, #2
 8002950:	4463      	add	r3, ip
 8002952:	69d9      	ldr	r1, [r3, #28]
 8002954:	400c      	ands	r4, r1
 8002956:	4314      	orrs	r4, r2
 8002958:	61dc      	str	r4, [r3, #28]
 800295a:	e7f1      	b.n	8002940 <HAL_NVIC_SetPriority+0x30>
 800295c:	e000e100 	.word	0xe000e100
 8002960:	e000ed00 	.word	0xe000ed00

08002964 <HAL_NVIC_EnableIRQ>:
  if ((int32_t)(IRQn) >= 0)
 8002964:	2800      	cmp	r0, #0
 8002966:	db05      	blt.n	8002974 <HAL_NVIC_EnableIRQ+0x10>
    NVIC->ISER[0U] = (uint32_t)(1UL << (((uint32_t)IRQn) & 0x1FUL));
 8002968:	221f      	movs	r2, #31
 800296a:	2301      	movs	r3, #1
 800296c:	4002      	ands	r2, r0
 800296e:	4093      	lsls	r3, r2
 8002970:	4a01      	ldr	r2, [pc, #4]	@ (8002978 <HAL_NVIC_EnableIRQ+0x14>)
 8002972:	6013      	str	r3, [r2, #0]
  /* Check the parameters */
  assert_param(IS_NVIC_DEVICE_IRQ(IRQn));
  
  /* Enable interrupt */
  NVIC_EnableIRQ(IRQn);
}
 8002974:	4770      	bx	lr
 8002976:	46c0      	nop			@ (mov r8, r8)
 8002978:	e000e100 	.word	0xe000e100

0800297c <HAL_SYSTICK_Config>:
           function <b>SysTick_Config</b> is not included. In this case, the file <b><i>device</i>.h</b>
           must contain a vendor-specific implementation of this function.
 */
__STATIC_INLINE uint32_t SysTick_Config(uint32_t ticks)
{
  if ((ticks - 1UL) > SysTick_LOAD_RELOAD_Msk)
 800297c:	2280      	movs	r2, #128	@ 0x80
 800297e:	1e43      	subs	r3, r0, #1
 8002980:	0452      	lsls	r2, r2, #17
  {
    return (1UL);                                                   /* Reload value impossible */
 8002982:	2001      	movs	r0, #1
  if ((ticks - 1UL) > SysTick_LOAD_RELOAD_Msk)
 8002984:	4293      	cmp	r3, r2
 8002986:	d20e      	bcs.n	80029a6 <HAL_SYSTICK_Config+0x2a>
    SCB->SHP[_SHP_IDX(IRQn)] = ((uint32_t)(SCB->SHP[_SHP_IDX(IRQn)] & ~(0xFFUL << _BIT_SHIFT(IRQn))) |
 8002988:	21c0      	movs	r1, #192	@ 0xc0
  }

  SysTick->LOAD  = (uint32_t)(ticks - 1UL);                         /* set reload register */
 800298a:	4a07      	ldr	r2, [pc, #28]	@ (80029a8 <HAL_SYSTICK_Config+0x2c>)
    SCB->SHP[_SHP_IDX(IRQn)] = ((uint32_t)(SCB->SHP[_SHP_IDX(IRQn)] & ~(0xFFUL << _BIT_SHIFT(IRQn))) |
 800298c:	4807      	ldr	r0, [pc, #28]	@ (80029ac <HAL_SYSTICK_Config+0x30>)
  SysTick->LOAD  = (uint32_t)(ticks - 1UL);                         /* set reload register */
 800298e:	6053      	str	r3, [r2, #4]
    SCB->SHP[_SHP_IDX(IRQn)] = ((uint32_t)(SCB->SHP[_SHP_IDX(IRQn)] & ~(0xFFUL << _BIT_SHIFT(IRQn))) |
 8002990:	6a03      	ldr	r3, [r0, #32]
 8002992:	0609      	lsls	r1, r1, #24
 8002994:	021b      	lsls	r3, r3, #8
 8002996:	0a1b      	lsrs	r3, r3, #8
 8002998:	430b      	orrs	r3, r1
 800299a:	6203      	str	r3, [r0, #32]
  NVIC_SetPriority (SysTick_IRQn, (1UL << __NVIC_PRIO_BITS) - 1UL); /* set Priority for Systick Interrupt */
  SysTick->VAL   = 0UL;                                             /* Load the SysTick Counter Value */
 800299c:	2300      	movs	r3, #0
  SysTick->CTRL  = SysTick_CTRL_CLKSOURCE_Msk |
                   SysTick_CTRL_TICKINT_Msk   |
                   SysTick_CTRL_ENABLE_Msk;                         /* Enable SysTick IRQ and SysTick Timer */
  return (0UL);                                                     /* Function successful */
 800299e:	2000      	movs	r0, #0
  SysTick->VAL   = 0UL;                                             /* Load the SysTick Counter Value */
 80029a0:	6093      	str	r3, [r2, #8]
  SysTick->CTRL  = SysTick_CTRL_CLKSOURCE_Msk |
 80029a2:	3307      	adds	r3, #7
 80029a4:	6013      	str	r3, [r2, #0]
  *                  - 1  Function failed.
  */
uint32_t HAL_SYSTICK_Config(uint32_t TicksNumb)
{
   return SysTick_Config(TicksNumb);
}
 80029a6:	4770      	bx	lr
 80029a8:	e000e010 	.word	0xe000e010
 80029ac:	e000ed00 	.word	0xe000ed00

080029b0 <HAL_GPIO_Init>:
  * @param  GPIO_Init pointer to a GPIO_InitTypeDef structure that contains
  *         the configuration information for the specified GPIO peripheral.
  * @retval None
  */
void HAL_GPIO_Init(GPIO_TypeDef  *GPIOx, GPIO_InitTypeDef *GPIO_Init)
{
 80029b0:	b5f0      	push	{r4, r5, r6, r7, lr}
 80029b2:	46de      	mov	lr, fp
 80029b4:	4657      	mov	r7, sl
 80029b6:	464e      	mov	r6, r9
 80029b8:	4645      	mov	r5, r8
 80029ba:	b5e0      	push	{r5, r6, r7, lr}
  assert_param(IS_GPIO_ALL_INSTANCE(GPIOx));
  assert_param(IS_GPIO_PIN(GPIO_Init->Pin));
  assert_param(IS_GPIO_MODE(GPIO_Init->Mode));

  /* Configure the port pins */
  while (((GPIO_Init->Pin) >> position) != 0x00u)
 80029bc:	680c      	ldr	r4, [r1, #0]
  uint32_t position = 0x00u;
 80029be:	2300      	movs	r3, #0
{
 80029c0:	b087      	sub	sp, #28
  while (((GPIO_Init->Pin) >> position) != 0x00u)
 80029c2:	2c00      	cmp	r4, #0
 80029c4:	d072      	beq.n	8002aac <HAL_GPIO_Init+0xfc>
      /*--------------------- EXTI Mode Configuration ------------------------*/
      /* Configure the External Interrupt or event for the current IO */
      if((GPIO_Init->Mode & EXTI_MODE) != 0x00u)
      {
        /* Enable SYSCFG Clock */
        __HAL_RCC_SYSCFG_CLK_ENABLE();
 80029c6:	4a75      	ldr	r2, [pc, #468]	@ (8002b9c <HAL_GPIO_Init+0x1ec>)
        temp &= ~(0x0FuL << (4u * (position & 0x03u)));
        temp |= (GPIO_GET_INDEX(GPIOx) << (4u * (position & 0x03u)));
        SYSCFG->EXTICR[position >> 2u] = temp;

        /* Clear Rising Falling edge configuration */
        temp = EXTI->RTSR;
 80029c8:	4e75      	ldr	r6, [pc, #468]	@ (8002ba0 <HAL_GPIO_Init+0x1f0>)
        __HAL_RCC_SYSCFG_CLK_ENABLE();
 80029ca:	4693      	mov	fp, r2
        temp &= ~(iocurrent);
        if((GPIO_Init->Mode & TRIGGER_RISING) != 0x00u)
 80029cc:	9102      	str	r1, [sp, #8]
    iocurrent = (GPIO_Init->Pin) & (1uL << position);
 80029ce:	2201      	movs	r2, #1
 80029d0:	409a      	lsls	r2, r3
 80029d2:	4694      	mov	ip, r2
 80029d4:	4022      	ands	r2, r4
 80029d6:	9200      	str	r2, [sp, #0]
    if (iocurrent != 0x00u)
 80029d8:	4662      	mov	r2, ip
 80029da:	4214      	tst	r4, r2
 80029dc:	d062      	beq.n	8002aa4 <HAL_GPIO_Init+0xf4>
      if(((GPIO_Init->Mode & GPIO_MODE) == MODE_OUTPUT) ||
 80029de:	9902      	ldr	r1, [sp, #8]
 80029e0:	005d      	lsls	r5, r3, #1
 80029e2:	684a      	ldr	r2, [r1, #4]
 80029e4:	4692      	mov	sl, r2
 80029e6:	2203      	movs	r2, #3
 80029e8:	4651      	mov	r1, sl
 80029ea:	400a      	ands	r2, r1
        temp &= ~(GPIO_OSPEEDER_OSPEEDR0 << (position * 2u));
 80029ec:	2103      	movs	r1, #3
 80029ee:	40a9      	lsls	r1, r5
 80029f0:	43c9      	mvns	r1, r1
      if(((GPIO_Init->Mode & GPIO_MODE) == MODE_OUTPUT) ||
 80029f2:	1e57      	subs	r7, r2, #1
        temp &= ~(GPIO_OSPEEDER_OSPEEDR0 << (position * 2u));
 80029f4:	9101      	str	r1, [sp, #4]
      if(((GPIO_Init->Mode & GPIO_MODE) == MODE_OUTPUT) ||
 80029f6:	2f01      	cmp	r7, #1
 80029f8:	d95f      	bls.n	8002aba <HAL_GPIO_Init+0x10a>
      if((GPIO_Init->Mode & GPIO_MODE) != MODE_ANALOG)
 80029fa:	2a03      	cmp	r2, #3
 80029fc:	d000      	beq.n	8002a00 <HAL_GPIO_Init+0x50>
 80029fe:	e0b3      	b.n	8002b68 <HAL_GPIO_Init+0x1b8>
      temp |= ((GPIO_Init->Mode & GPIO_MODE) << (position * 2u));
 8002a00:	40aa      	lsls	r2, r5
      temp = GPIOx->MODER;
 8002a02:	6807      	ldr	r7, [r0, #0]
      temp &= ~(GPIO_MODER_MODER0 << (position * 2u));
 8002a04:	9901      	ldr	r1, [sp, #4]
 8002a06:	4039      	ands	r1, r7
      temp |= ((GPIO_Init->Mode & GPIO_MODE) << (position * 2u));
 8002a08:	430a      	orrs	r2, r1
      if((GPIO_Init->Mode & EXTI_MODE) != 0x00u)
 8002a0a:	21c0      	movs	r1, #192	@ 0xc0
      GPIOx->MODER = temp;
 8002a0c:	6002      	str	r2, [r0, #0]
      if((GPIO_Init->Mode & EXTI_MODE) != 0x00u)
 8002a0e:	4652      	mov	r2, sl
 8002a10:	0289      	lsls	r1, r1, #10
 8002a12:	420a      	tst	r2, r1
 8002a14:	d046      	beq.n	8002aa4 <HAL_GPIO_Init+0xf4>
        __HAL_RCC_SYSCFG_CLK_ENABLE();
 8002a16:	465a      	mov	r2, fp
 8002a18:	2101      	movs	r1, #1
 8002a1a:	465d      	mov	r5, fp
 8002a1c:	6992      	ldr	r2, [r2, #24]
        temp &= ~(0x0FuL << (4u * (position & 0x03u)));
 8002a1e:	270f      	movs	r7, #15
        __HAL_RCC_SYSCFG_CLK_ENABLE();
 8002a20:	430a      	orrs	r2, r1
 8002a22:	61aa      	str	r2, [r5, #24]
 8002a24:	69aa      	ldr	r2, [r5, #24]
        temp &= ~(0x0FuL << (4u * (position & 0x03u)));
 8002a26:	2503      	movs	r5, #3
        __HAL_RCC_SYSCFG_CLK_ENABLE();
 8002a28:	400a      	ands	r2, r1
 8002a2a:	495e      	ldr	r1, [pc, #376]	@ (8002ba4 <HAL_GPIO_Init+0x1f4>)
        temp &= ~(0x0FuL << (4u * (position & 0x03u)));
 8002a2c:	401d      	ands	r5, r3
 8002a2e:	468c      	mov	ip, r1
 8002a30:	00ad      	lsls	r5, r5, #2
 8002a32:	40af      	lsls	r7, r5
        __HAL_RCC_SYSCFG_CLK_ENABLE();
 8002a34:	9205      	str	r2, [sp, #20]
 8002a36:	9a05      	ldr	r2, [sp, #20]
        temp = SYSCFG->EXTICR[position >> 2u];
 8002a38:	089a      	lsrs	r2, r3, #2
 8002a3a:	0092      	lsls	r2, r2, #2
 8002a3c:	4462      	add	r2, ip
 8002a3e:	6891      	ldr	r1, [r2, #8]
        temp &= ~(0x0FuL << (4u * (position & 0x03u)));
 8002a40:	43b9      	bics	r1, r7
        temp |= (GPIO_GET_INDEX(GPIOx) << (4u * (position & 0x03u)));
 8002a42:	2790      	movs	r7, #144	@ 0x90
 8002a44:	05ff      	lsls	r7, r7, #23
 8002a46:	42b8      	cmp	r0, r7
 8002a48:	d00e      	beq.n	8002a68 <HAL_GPIO_Init+0xb8>
 8002a4a:	4f57      	ldr	r7, [pc, #348]	@ (8002ba8 <HAL_GPIO_Init+0x1f8>)
 8002a4c:	42b8      	cmp	r0, r7
 8002a4e:	d100      	bne.n	8002a52 <HAL_GPIO_Init+0xa2>
 8002a50:	e09b      	b.n	8002b8a <HAL_GPIO_Init+0x1da>
 8002a52:	4f56      	ldr	r7, [pc, #344]	@ (8002bac <HAL_GPIO_Init+0x1fc>)
 8002a54:	42b8      	cmp	r0, r7
 8002a56:	d100      	bne.n	8002a5a <HAL_GPIO_Init+0xaa>
 8002a58:	e09b      	b.n	8002b92 <HAL_GPIO_Init+0x1e2>
 8002a5a:	4f55      	ldr	r7, [pc, #340]	@ (8002bb0 <HAL_GPIO_Init+0x200>)
 8002a5c:	42b8      	cmp	r0, r7
 8002a5e:	d100      	bne.n	8002a62 <HAL_GPIO_Init+0xb2>
 8002a60:	e08f      	b.n	8002b82 <HAL_GPIO_Init+0x1d2>
 8002a62:	2705      	movs	r7, #5
 8002a64:	40af      	lsls	r7, r5
 8002a66:	4339      	orrs	r1, r7
        if((GPIO_Init->Mode & TRIGGER_RISING) != 0x00u)
 8002a68:	2780      	movs	r7, #128	@ 0x80
 8002a6a:	4655      	mov	r5, sl
        SYSCFG->EXTICR[position >> 2u] = temp;
 8002a6c:	6091      	str	r1, [r2, #8]
        temp &= ~(iocurrent);
 8002a6e:	9900      	ldr	r1, [sp, #0]
        if((GPIO_Init->Mode & TRIGGER_RISING) != 0x00u)
 8002a70:	037f      	lsls	r7, r7, #13
        temp &= ~(iocurrent);
 8002a72:	43c9      	mvns	r1, r1
        temp = EXTI->RTSR;
 8002a74:	68b2      	ldr	r2, [r6, #8]
        if((GPIO_Init->Mode & TRIGGER_RISING) != 0x00u)
 8002a76:	423d      	tst	r5, r7
 8002a78:	d000      	beq.n	8002a7c <HAL_GPIO_Init+0xcc>
 8002a7a:	e072      	b.n	8002b62 <HAL_GPIO_Init+0x1b2>
        temp &= ~(iocurrent);
 8002a7c:	400a      	ands	r2, r1
        }
        EXTI->RTSR = temp;

        temp = EXTI->FTSR;
        temp &= ~(iocurrent);
        if((GPIO_Init->Mode & TRIGGER_FALLING) != 0x00u)
 8002a7e:	4655      	mov	r5, sl
        EXTI->RTSR = temp;
 8002a80:	60b2      	str	r2, [r6, #8]
        temp = EXTI->FTSR;
 8002a82:	68f2      	ldr	r2, [r6, #12]
        if((GPIO_Init->Mode & TRIGGER_FALLING) != 0x00u)
 8002a84:	02ad      	lsls	r5, r5, #10
 8002a86:	d469      	bmi.n	8002b5c <HAL_GPIO_Init+0x1ac>
        temp &= ~(iocurrent);
 8002a88:	400a      	ands	r2, r1
        EXTI->FTSR = temp;

        /* Clear EXTI line configuration */
        temp = EXTI->EMR;
        temp &= ~(iocurrent);
        if((GPIO_Init->Mode & EXTI_EVT) != 0x00u)
 8002a8a:	4655      	mov	r5, sl
        EXTI->FTSR = temp;
 8002a8c:	60f2      	str	r2, [r6, #12]
        temp = EXTI->EMR;
 8002a8e:	6872      	ldr	r2, [r6, #4]
        if((GPIO_Init->Mode & EXTI_EVT) != 0x00u)
 8002a90:	03ad      	lsls	r5, r5, #14
 8002a92:	d460      	bmi.n	8002b56 <HAL_GPIO_Init+0x1a6>
        temp &= ~(iocurrent);
 8002a94:	400a      	ands	r2, r1
        }
        EXTI->EMR = temp;

        temp = EXTI->IMR;
        temp &= ~(iocurrent);
        if((GPIO_Init->Mode & EXTI_IT) != 0x00u)
 8002a96:	4655      	mov	r5, sl
        EXTI->EMR = temp;
 8002a98:	6072      	str	r2, [r6, #4]
        temp = EXTI->IMR;
 8002a9a:	6832      	ldr	r2, [r6, #0]
        if((GPIO_Init->Mode & EXTI_IT) != 0x00u)
 8002a9c:	03ed      	lsls	r5, r5, #15
 8002a9e:	d455      	bmi.n	8002b4c <HAL_GPIO_Init+0x19c>
        temp &= ~(iocurrent);
 8002aa0:	400a      	ands	r2, r1
        {
          temp |= iocurrent;
        }
        EXTI->IMR = temp;
 8002aa2:	6032      	str	r2, [r6, #0]
  while (((GPIO_Init->Pin) >> position) != 0x00u)
 8002aa4:	0022      	movs	r2, r4
      }
    }

    position++;
 8002aa6:	3301      	adds	r3, #1
  while (((GPIO_Init->Pin) >> position) != 0x00u)
 8002aa8:	40da      	lsrs	r2, r3
 8002aaa:	d190      	bne.n	80029ce <HAL_GPIO_Init+0x1e>
  } 
}
 8002aac:	b007      	add	sp, #28
 8002aae:	bcf0      	pop	{r4, r5, r6, r7}
 8002ab0:	46bb      	mov	fp, r7
 8002ab2:	46b2      	mov	sl, r6
 8002ab4:	46a9      	mov	r9, r5
 8002ab6:	46a0      	mov	r8, r4
 8002ab8:	bdf0      	pop	{r4, r5, r6, r7, pc}
        temp = GPIOx->OSPEEDR;
 8002aba:	6881      	ldr	r1, [r0, #8]
        temp &= ~(GPIO_OSPEEDER_OSPEEDR0 << (position * 2u));
 8002abc:	000f      	movs	r7, r1
 8002abe:	9901      	ldr	r1, [sp, #4]
 8002ac0:	400f      	ands	r7, r1
 8002ac2:	46b9      	mov	r9, r7
        temp |= (GPIO_Init->Speed << (position * 2u));
 8002ac4:	9f02      	ldr	r7, [sp, #8]
 8002ac6:	68f9      	ldr	r1, [r7, #12]
 8002ac8:	000f      	movs	r7, r1
 8002aca:	40af      	lsls	r7, r5
 8002acc:	46b8      	mov	r8, r7
 8002ace:	464f      	mov	r7, r9
 8002ad0:	4641      	mov	r1, r8
 8002ad2:	430f      	orrs	r7, r1
        GPIOx->OSPEEDR = temp;
 8002ad4:	6087      	str	r7, [r0, #8]
        temp = GPIOx->OTYPER;
 8002ad6:	6841      	ldr	r1, [r0, #4]
        temp &= ~(GPIO_OTYPER_OT_0 << position) ;
 8002ad8:	000f      	movs	r7, r1
 8002ada:	4661      	mov	r1, ip
 8002adc:	438f      	bics	r7, r1
        temp |= (((GPIO_Init->Mode & OUTPUT_TYPE) >> OUTPUT_TYPE_Pos) << position);
 8002ade:	4651      	mov	r1, sl
 8002ae0:	0909      	lsrs	r1, r1, #4
        temp &= ~(GPIO_OTYPER_OT_0 << position) ;
 8002ae2:	46b8      	mov	r8, r7
        temp |= (((GPIO_Init->Mode & OUTPUT_TYPE) >> OUTPUT_TYPE_Pos) << position);
 8002ae4:	000f      	movs	r7, r1
 8002ae6:	2101      	movs	r1, #1
 8002ae8:	400f      	ands	r7, r1
 8002aea:	409f      	lsls	r7, r3
 8002aec:	46bc      	mov	ip, r7
 8002aee:	4647      	mov	r7, r8
 8002af0:	4661      	mov	r1, ip
 8002af2:	430f      	orrs	r7, r1
        GPIOx->OTYPER = temp;
 8002af4:	6047      	str	r7, [r0, #4]
        temp = GPIOx->PUPDR;
 8002af6:	68c1      	ldr	r1, [r0, #12]
        temp &= ~(GPIO_PUPDR_PUPDR0 << (position * 2u));
 8002af8:	000f      	movs	r7, r1
 8002afa:	9901      	ldr	r1, [sp, #4]
 8002afc:	400f      	ands	r7, r1
        temp |= ((GPIO_Init->Pull) << (position * 2u));
 8002afe:	9902      	ldr	r1, [sp, #8]
        temp &= ~(GPIO_PUPDR_PUPDR0 << (position * 2u));
 8002b00:	46b8      	mov	r8, r7
        temp |= ((GPIO_Init->Pull) << (position * 2u));
 8002b02:	6889      	ldr	r1, [r1, #8]
 8002b04:	000f      	movs	r7, r1
 8002b06:	40af      	lsls	r7, r5
 8002b08:	46bc      	mov	ip, r7
 8002b0a:	4647      	mov	r7, r8
 8002b0c:	4661      	mov	r1, ip
 8002b0e:	430f      	orrs	r7, r1
        GPIOx->PUPDR = temp;
 8002b10:	60c7      	str	r7, [r0, #12]
      if((GPIO_Init->Mode & GPIO_MODE) == MODE_AF)
 8002b12:	2a02      	cmp	r2, #2
 8002b14:	d000      	beq.n	8002b18 <HAL_GPIO_Init+0x168>
 8002b16:	e773      	b.n	8002a00 <HAL_GPIO_Init+0x50>
        temp = GPIOx->AFR[position >> 3u];
 8002b18:	08d9      	lsrs	r1, r3, #3
 8002b1a:	0089      	lsls	r1, r1, #2
 8002b1c:	468c      	mov	ip, r1
 8002b1e:	4484      	add	ip, r0
 8002b20:	4661      	mov	r1, ip
 8002b22:	6a0f      	ldr	r7, [r1, #32]
        temp &= ~(0xFu << ((position & 0x07u) * 4u));
 8002b24:	2107      	movs	r1, #7
 8002b26:	4019      	ands	r1, r3
 8002b28:	0089      	lsls	r1, r1, #2
 8002b2a:	4688      	mov	r8, r1
        temp = GPIOx->AFR[position >> 3u];
 8002b2c:	9703      	str	r7, [sp, #12]
        temp &= ~(0xFu << ((position & 0x07u) * 4u));
 8002b2e:	210f      	movs	r1, #15
 8002b30:	4647      	mov	r7, r8
 8002b32:	40b9      	lsls	r1, r7
 8002b34:	9f03      	ldr	r7, [sp, #12]
 8002b36:	438f      	bics	r7, r1
 8002b38:	9703      	str	r7, [sp, #12]
        temp |= ((GPIO_Init->Alternate) << ((position & 0x07u) * 4u));
 8002b3a:	4647      	mov	r7, r8
 8002b3c:	9902      	ldr	r1, [sp, #8]
 8002b3e:	6909      	ldr	r1, [r1, #16]
 8002b40:	40b9      	lsls	r1, r7
 8002b42:	9f03      	ldr	r7, [sp, #12]
 8002b44:	430f      	orrs	r7, r1
        GPIOx->AFR[position >> 3u] = temp;
 8002b46:	4661      	mov	r1, ip
 8002b48:	620f      	str	r7, [r1, #32]
 8002b4a:	e759      	b.n	8002a00 <HAL_GPIO_Init+0x50>
          temp |= iocurrent;
 8002b4c:	9900      	ldr	r1, [sp, #0]
 8002b4e:	4311      	orrs	r1, r2
 8002b50:	000a      	movs	r2, r1
        EXTI->IMR = temp;
 8002b52:	6032      	str	r2, [r6, #0]
 8002b54:	e7a6      	b.n	8002aa4 <HAL_GPIO_Init+0xf4>
          temp |= iocurrent;
 8002b56:	9d00      	ldr	r5, [sp, #0]
 8002b58:	432a      	orrs	r2, r5
 8002b5a:	e79c      	b.n	8002a96 <HAL_GPIO_Init+0xe6>
          temp |= iocurrent;
 8002b5c:	9d00      	ldr	r5, [sp, #0]
 8002b5e:	432a      	orrs	r2, r5
 8002b60:	e793      	b.n	8002a8a <HAL_GPIO_Init+0xda>
          temp |= iocurrent;
 8002b62:	9d00      	ldr	r5, [sp, #0]
 8002b64:	432a      	orrs	r2, r5
 8002b66:	e78a      	b.n	8002a7e <HAL_GPIO_Init+0xce>
 8002b68:	000f      	movs	r7, r1
        temp = GPIOx->PUPDR;
 8002b6a:	68c1      	ldr	r1, [r0, #12]
        temp &= ~(GPIO_PUPDR_PUPDR0 << (position * 2u));
 8002b6c:	4039      	ands	r1, r7
 8002b6e:	4688      	mov	r8, r1
        temp |= ((GPIO_Init->Pull) << (position * 2u));
 8002b70:	9902      	ldr	r1, [sp, #8]
 8002b72:	6889      	ldr	r1, [r1, #8]
 8002b74:	40a9      	lsls	r1, r5
 8002b76:	468c      	mov	ip, r1
 8002b78:	4641      	mov	r1, r8
 8002b7a:	4667      	mov	r7, ip
 8002b7c:	4339      	orrs	r1, r7
        GPIOx->PUPDR = temp;
 8002b7e:	60c1      	str	r1, [r0, #12]
      if((GPIO_Init->Mode & GPIO_MODE) == MODE_AF)
 8002b80:	e73e      	b.n	8002a00 <HAL_GPIO_Init+0x50>
        temp |= (GPIO_GET_INDEX(GPIOx) << (4u * (position & 0x03u)));
 8002b82:	2703      	movs	r7, #3
 8002b84:	40af      	lsls	r7, r5
 8002b86:	4339      	orrs	r1, r7
 8002b88:	e76e      	b.n	8002a68 <HAL_GPIO_Init+0xb8>
 8002b8a:	2701      	movs	r7, #1
 8002b8c:	40af      	lsls	r7, r5
 8002b8e:	4339      	orrs	r1, r7
 8002b90:	e76a      	b.n	8002a68 <HAL_GPIO_Init+0xb8>
 8002b92:	2702      	movs	r7, #2
 8002b94:	40af      	lsls	r7, r5
 8002b96:	4339      	orrs	r1, r7
 8002b98:	e766      	b.n	8002a68 <HAL_GPIO_Init+0xb8>
 8002b9a:	46c0      	nop			@ (mov r8, r8)
 8002b9c:	40021000 	.word	0x40021000
 8002ba0:	40010400 	.word	0x40010400
 8002ba4:	40010000 	.word	0x40010000
 8002ba8:	48000400 	.word	0x48000400
 8002bac:	48000800 	.word	0x48000800
 8002bb0:	48000c00 	.word	0x48000c00

08002bb4 <HAL_GPIO_ReadPin>:
  GPIO_PinState bitstatus;

  /* Check the parameters */
  assert_param(IS_GPIO_PIN(GPIO_Pin));

  if ((GPIOx->IDR & GPIO_Pin) != (uint32_t)GPIO_PIN_RESET)
 8002bb4:	6900      	ldr	r0, [r0, #16]
 8002bb6:	4008      	ands	r0, r1
 8002bb8:	1e43      	subs	r3, r0, #1
 8002bba:	4198      	sbcs	r0, r3
  }
  else
  {
    bitstatus = GPIO_PIN_RESET;
  }
  return bitstatus;
 8002bbc:	b2c0      	uxtb	r0, r0
  }
 8002bbe:	4770      	bx	lr

08002bc0 <HAL_GPIO_WritePin>:
{
  /* Check the parameters */
  assert_param(IS_GPIO_PIN(GPIO_Pin));
  assert_param(IS_GPIO_PIN_ACTION(PinState));

  if (PinState != GPIO_PIN_RESET)
 8002bc0:	2a00      	cmp	r2, #0
 8002bc2:	d001      	beq.n	8002bc8 <HAL_GPIO_WritePin+0x8>
  {
    GPIOx->BSRR = (uint32_t)GPIO_Pin;
 8002bc4:	6181      	str	r1, [r0, #24]
  }
  else
  {
    GPIOx->BRR = (uint32_t)GPIO_Pin;
  }
}
 8002bc6:	4770      	bx	lr
    GPIOx->BRR = (uint32_t)GPIO_Pin;
 8002bc8:	6281      	str	r1, [r0, #40]	@ 0x28
}
 8002bca:	e7fc      	b.n	8002bc6 <HAL_GPIO_WritePin+0x6>

08002bcc <HAL_GPIO_TogglePin>:

  /* Check the parameters */
  assert_param(IS_GPIO_PIN(GPIO_Pin));

  /* get current Output Data Register value */
  odr = GPIOx->ODR;
 8002bcc:	6942      	ldr	r2, [r0, #20]

  /* Set selected pins that were at low level, and reset ones that were high */
  GPIOx->BSRR = ((odr & GPIO_Pin) << GPIO_NUMBER) | (~odr & GPIO_Pin);
 8002bce:	0013      	movs	r3, r2
 8002bd0:	400b      	ands	r3, r1
 8002bd2:	041b      	lsls	r3, r3, #16
 8002bd4:	4391      	bics	r1, r2
 8002bd6:	430b      	orrs	r3, r1
 8002bd8:	6183      	str	r3, [r0, #24]
}
 8002bda:	4770      	bx	lr

08002bdc <HAL_GPIO_EXTI_IRQHandler>:
  * @retval None
  */
void HAL_GPIO_EXTI_IRQHandler(uint16_t GPIO_Pin)
{
  /* EXTI line interrupt detected */
  if(__HAL_GPIO_EXTI_GET_IT(GPIO_Pin) != 0x00u)
 8002bdc:	4b04      	ldr	r3, [pc, #16]	@ (8002bf0 <HAL_GPIO_EXTI_IRQHandler+0x14>)
{
 8002bde:	b510      	push	{r4, lr}
  if(__HAL_GPIO_EXTI_GET_IT(GPIO_Pin) != 0x00u)
 8002be0:	695a      	ldr	r2, [r3, #20]
 8002be2:	4210      	tst	r0, r2
 8002be4:	d100      	bne.n	8002be8 <HAL_GPIO_EXTI_IRQHandler+0xc>
  { 
    __HAL_GPIO_EXTI_CLEAR_IT(GPIO_Pin);
    HAL_GPIO_EXTI_Callback(GPIO_Pin);
  }
}
 8002be6:	bd10      	pop	{r4, pc}
    __HAL_GPIO_EXTI_CLEAR_IT(GPIO_Pin);
 8002be8:	6158      	str	r0, [r3, #20]
    HAL_GPIO_EXTI_Callback(GPIO_Pin);
 8002bea:	f7fe fb19 	bl	8001220 <HAL_GPIO_EXTI_Callback>
}
 8002bee:	e7fa      	b.n	8002be6 <HAL_GPIO_EXTI_IRQHandler+0xa>
 8002bf0:	40010400 	.word	0x40010400

08002bf4 <I2C_WaitOnFlagUntilTimeout.constprop.0>:
  * @param  Status The actual Flag status (SET or RESET).
  * @param  Timeout Timeout duration
  * @param  Tickstart Tick start value
  * @retval HAL status
  */
static HAL_StatusTypeDef I2C_WaitOnFlagUntilTimeout(I2C_HandleTypeDef *hi2c, uint32_t Flag, FlagStatus Status,
 8002bf4:	b5f0      	push	{r4, r5, r6, r7, lr}
 8002bf6:	4657      	mov	r7, sl
 8002bf8:	4645      	mov	r5, r8
 8002bfa:	46de      	mov	lr, fp
 8002bfc:	464e      	mov	r6, r9
 8002bfe:	b5e0      	push	{r5, r6, r7, lr}
 8002c00:	b083      	sub	sp, #12
 8002c02:	9101      	str	r1, [sp, #4]
  uint32_t error_code = 0;
  uint32_t tickstart = Tickstart;
  uint32_t tmp1;
  HAL_I2C_ModeTypeDef tmp2;

  if (HAL_IS_BIT_SET(itflag, I2C_FLAG_AF))
 8002c04:	2110      	movs	r1, #16
  while (__HAL_I2C_GET_FLAG(hi2c, Flag) == Status)
 8002c06:	6803      	ldr	r3, [r0, #0]
  if (HAL_IS_BIT_SET(itflag, I2C_FLAG_AF))
 8002c08:	4688      	mov	r8, r1
  while (__HAL_I2C_GET_FLAG(hi2c, Flag) == Status)
 8002c0a:	699a      	ldr	r2, [r3, #24]
      if (Timeout != HAL_MAX_DELAY)
      {
        if (((HAL_GetTick() - tickstart) > Timeout) || (Timeout == 0U))
        {
          tmp1 = (uint32_t)(hi2c->Instance->CR2 & I2C_CR2_STOP);
          tmp2 = hi2c->Mode;
 8002c0c:	3132      	adds	r1, #50	@ 0x32
static HAL_StatusTypeDef I2C_WaitOnFlagUntilTimeout(I2C_HandleTypeDef *hi2c, uint32_t Flag, FlagStatus Status,
 8002c0e:	0004      	movs	r4, r0
          tmp2 = hi2c->Mode;
 8002c10:	468a      	mov	sl, r1
  while (__HAL_I2C_GET_FLAG(hi2c, Flag) == Status)
 8002c12:	0412      	lsls	r2, r2, #16
 8002c14:	d400      	bmi.n	8002c18 <I2C_WaitOnFlagUntilTimeout.constprop.0+0x24>
 8002c16:	e096      	b.n	8002d46 <I2C_WaitOnFlagUntilTimeout.constprop.0+0x152>
  if (HAL_IS_BIT_SET(itflag, I2C_FLAG_AF))
 8002c18:	4642      	mov	r2, r8
 8002c1a:	4640      	mov	r0, r8
  uint32_t itflag   = hi2c->Instance->ISR;
 8002c1c:	6999      	ldr	r1, [r3, #24]
  HAL_StatusTypeDef status = HAL_OK;
 8002c1e:	2500      	movs	r5, #0
  if (HAL_IS_BIT_SET(itflag, I2C_FLAG_AF))
 8002c20:	400a      	ands	r2, r1
 8002c22:	4208      	tst	r0, r1
 8002c24:	d041      	beq.n	8002caa <I2C_WaitOnFlagUntilTimeout.constprop.0+0xb6>
  uint32_t error_code = 0;
 8002c26:	2200      	movs	r2, #0
 8002c28:	4693      	mov	fp, r2

          /* In case of I2C still busy, try to regenerate a STOP manually */
          if ((__HAL_I2C_GET_FLAG(hi2c, I2C_FLAG_BUSY) != RESET) && \
 8002c2a:	2280      	movs	r2, #128	@ 0x80
 8002c2c:	0212      	lsls	r2, r2, #8
  HAL_StatusTypeDef status = HAL_OK;
 8002c2e:	2700      	movs	r7, #0
          if ((__HAL_I2C_GET_FLAG(hi2c, I2C_FLAG_BUSY) != RESET) && \
 8002c30:	4691      	mov	r9, r2
  uint32_t tickstart = Tickstart;
 8002c32:	9e01      	ldr	r6, [sp, #4]
    __HAL_I2C_CLEAR_FLAG(hi2c, I2C_FLAG_AF);
 8002c34:	61d8      	str	r0, [r3, #28]
    while ((__HAL_I2C_GET_FLAG(hi2c, I2C_FLAG_STOPF) == RESET) && (status == HAL_OK))
 8002c36:	3520      	adds	r5, #32
 8002c38:	699a      	ldr	r2, [r3, #24]
 8002c3a:	4215      	tst	r5, r2
 8002c3c:	d12d      	bne.n	8002c9a <I2C_WaitOnFlagUntilTimeout.constprop.0+0xa6>
 8002c3e:	2f00      	cmp	r7, #0
 8002c40:	d12e      	bne.n	8002ca0 <I2C_WaitOnFlagUntilTimeout.constprop.0+0xac>
        if (((HAL_GetTick() - tickstart) > Timeout) || (Timeout == 0U))
 8002c42:	f7ff fc09 	bl	8002458 <HAL_GetTick>
          tmp1 = (uint32_t)(hi2c->Instance->CR2 & I2C_CR2_STOP);
 8002c46:	6823      	ldr	r3, [r4, #0]
        if (((HAL_GetTick() - tickstart) > Timeout) || (Timeout == 0U))
 8002c48:	1b80      	subs	r0, r0, r6
 8002c4a:	2819      	cmp	r0, #25
 8002c4c:	d9f4      	bls.n	8002c38 <I2C_WaitOnFlagUntilTimeout.constprop.0+0x44>
          tmp2 = hi2c->Mode;
 8002c4e:	4652      	mov	r2, sl
          tmp1 = (uint32_t)(hi2c->Instance->CR2 & I2C_CR2_STOP);
 8002c50:	6858      	ldr	r0, [r3, #4]
          tmp2 = hi2c->Mode;
 8002c52:	5ca2      	ldrb	r2, [r4, r2]
          if ((__HAL_I2C_GET_FLAG(hi2c, I2C_FLAG_BUSY) != RESET) && \
 8002c54:	6999      	ldr	r1, [r3, #24]
          tmp2 = hi2c->Mode;
 8002c56:	b2d2      	uxtb	r2, r2
 8002c58:	4694      	mov	ip, r2
          if ((__HAL_I2C_GET_FLAG(hi2c, I2C_FLAG_BUSY) != RESET) && \
 8002c5a:	464a      	mov	r2, r9
 8002c5c:	4211      	tst	r1, r2
 8002c5e:	d00d      	beq.n	8002c7c <I2C_WaitOnFlagUntilTimeout.constprop.0+0x88>
          tmp1 = (uint32_t)(hi2c->Instance->CR2 & I2C_CR2_STOP);
 8002c60:	2180      	movs	r1, #128	@ 0x80
 8002c62:	01c9      	lsls	r1, r1, #7
          if ((__HAL_I2C_GET_FLAG(hi2c, I2C_FLAG_BUSY) != RESET) && \
 8002c64:	4208      	tst	r0, r1
 8002c66:	d109      	bne.n	8002c7c <I2C_WaitOnFlagUntilTimeout.constprop.0+0x88>
              (tmp1 != I2C_CR2_STOP) && \
 8002c68:	4662      	mov	r2, ip
 8002c6a:	2a20      	cmp	r2, #32
 8002c6c:	d006      	beq.n	8002c7c <I2C_WaitOnFlagUntilTimeout.constprop.0+0x88>
              (tmp2 != HAL_I2C_MODE_SLAVE))
          {
            /* Generate Stop */
            hi2c->Instance->CR2 |= I2C_CR2_STOP;
 8002c6e:	685a      	ldr	r2, [r3, #4]
 8002c70:	4311      	orrs	r1, r2
 8002c72:	6059      	str	r1, [r3, #4]

            /* Update Tick with new reference */
            tickstart = HAL_GetTick();
 8002c74:	f7ff fbf0 	bl	8002458 <HAL_GetTick>
 8002c78:	0006      	movs	r6, r0
          }

          while (__HAL_I2C_GET_FLAG(hi2c, I2C_FLAG_STOPF) == RESET)
 8002c7a:	6823      	ldr	r3, [r4, #0]
 8002c7c:	699a      	ldr	r2, [r3, #24]
 8002c7e:	4215      	tst	r5, r2
 8002c80:	d1da      	bne.n	8002c38 <I2C_WaitOnFlagUntilTimeout.constprop.0+0x44>
          {
            /* Check for the Timeout */
            if ((HAL_GetTick() - tickstart) > I2C_TIMEOUT_STOPF)
 8002c82:	f7ff fbe9 	bl	8002458 <HAL_GetTick>
    while ((__HAL_I2C_GET_FLAG(hi2c, I2C_FLAG_STOPF) == RESET) && (status == HAL_OK))
 8002c86:	6823      	ldr	r3, [r4, #0]
            if ((HAL_GetTick() - tickstart) > I2C_TIMEOUT_STOPF)
 8002c88:	1b80      	subs	r0, r0, r6
 8002c8a:	2819      	cmp	r0, #25
 8002c8c:	d9f6      	bls.n	8002c7c <I2C_WaitOnFlagUntilTimeout.constprop.0+0x88>
            {
              error_code |= HAL_I2C_ERROR_TIMEOUT;
 8002c8e:	2220      	movs	r2, #32
 8002c90:	4693      	mov	fp, r2
    while ((__HAL_I2C_GET_FLAG(hi2c, I2C_FLAG_STOPF) == RESET) && (status == HAL_OK))
 8002c92:	699a      	ldr	r2, [r3, #24]

              status = HAL_ERROR;
 8002c94:	2701      	movs	r7, #1
    while ((__HAL_I2C_GET_FLAG(hi2c, I2C_FLAG_STOPF) == RESET) && (status == HAL_OK))
 8002c96:	4215      	tst	r5, r2
 8002c98:	d0d1      	beq.n	8002c3e <I2C_WaitOnFlagUntilTimeout.constprop.0+0x4a>
        }
      }
    }

    /* In case STOP Flag is detected, clear it */
    if (status == HAL_OK)
 8002c9a:	2f00      	cmp	r7, #0
 8002c9c:	d100      	bne.n	8002ca0 <I2C_WaitOnFlagUntilTimeout.constprop.0+0xac>
    {
      /* Clear STOP Flag */
      __HAL_I2C_CLEAR_FLAG(hi2c, I2C_FLAG_STOPF);
 8002c9e:	61dd      	str	r5, [r3, #28]
    }

    error_code |= HAL_I2C_ERROR_AF;
 8002ca0:	2204      	movs	r2, #4
 8002ca2:	4659      	mov	r1, fp
 8002ca4:	4311      	orrs	r1, r2
 8002ca6:	000a      	movs	r2, r1

    status = HAL_ERROR;
 8002ca8:	2501      	movs	r5, #1
  /* Refresh Content of Status register */
  itflag = hi2c->Instance->ISR;

  /* Then verify if an additional errors occurs */
  /* Check if a Bus error occurred */
  if (HAL_IS_BIT_SET(itflag, I2C_FLAG_BERR))
 8002caa:	2080      	movs	r0, #128	@ 0x80
  itflag = hi2c->Instance->ISR;
 8002cac:	6999      	ldr	r1, [r3, #24]
  if (HAL_IS_BIT_SET(itflag, I2C_FLAG_BERR))
 8002cae:	0040      	lsls	r0, r0, #1
 8002cb0:	4201      	tst	r1, r0
 8002cb2:	d034      	beq.n	8002d1e <I2C_WaitOnFlagUntilTimeout.constprop.0+0x12a>
  {
    error_code |= HAL_I2C_ERROR_BERR;
 8002cb4:	2501      	movs	r5, #1

    /* Clear BERR flag */
    __HAL_I2C_CLEAR_FLAG(hi2c, I2C_FLAG_BERR);
 8002cb6:	61d8      	str	r0, [r3, #28]
    error_code |= HAL_I2C_ERROR_BERR;
 8002cb8:	432a      	orrs	r2, r5

    status = HAL_ERROR;
  }

  /* Check if an Over-Run/Under-Run error occurred */
  if (HAL_IS_BIT_SET(itflag, I2C_FLAG_OVR))
 8002cba:	0548      	lsls	r0, r1, #21
 8002cbc:	d504      	bpl.n	8002cc8 <I2C_WaitOnFlagUntilTimeout.constprop.0+0xd4>
  {
    error_code |= HAL_I2C_ERROR_OVR;
 8002cbe:	2008      	movs	r0, #8
 8002cc0:	4302      	orrs	r2, r0

    /* Clear OVR flag */
    __HAL_I2C_CLEAR_FLAG(hi2c, I2C_FLAG_OVR);
 8002cc2:	2080      	movs	r0, #128	@ 0x80
 8002cc4:	00c0      	lsls	r0, r0, #3
 8002cc6:	61d8      	str	r0, [r3, #28]

    status = HAL_ERROR;
  }

  /* Check if an Arbitration Loss error occurred */
  if (HAL_IS_BIT_SET(itflag, I2C_FLAG_ARLO))
 8002cc8:	0589      	lsls	r1, r1, #22
 8002cca:	d504      	bpl.n	8002cd6 <I2C_WaitOnFlagUntilTimeout.constprop.0+0xe2>
  {
    error_code |= HAL_I2C_ERROR_ARLO;
 8002ccc:	2102      	movs	r1, #2
 8002cce:	430a      	orrs	r2, r1

    /* Clear ARLO flag */
    __HAL_I2C_CLEAR_FLAG(hi2c, I2C_FLAG_ARLO);
 8002cd0:	31ff      	adds	r1, #255	@ 0xff
 8002cd2:	31ff      	adds	r1, #255	@ 0xff
 8002cd4:	61d9      	str	r1, [r3, #28]
  if (__HAL_I2C_GET_FLAG(hi2c, I2C_FLAG_TXIS) != RESET)
 8002cd6:	6999      	ldr	r1, [r3, #24]
 8002cd8:	0789      	lsls	r1, r1, #30
 8002cda:	d501      	bpl.n	8002ce0 <I2C_WaitOnFlagUntilTimeout.constprop.0+0xec>
    hi2c->Instance->TXDR = 0x00U;
 8002cdc:	2100      	movs	r1, #0
 8002cde:	6299      	str	r1, [r3, #40]	@ 0x28
  if (__HAL_I2C_GET_FLAG(hi2c, I2C_FLAG_TXE) == RESET)
 8002ce0:	2101      	movs	r1, #1
 8002ce2:	6998      	ldr	r0, [r3, #24]
 8002ce4:	4201      	tst	r1, r0
 8002ce6:	d102      	bne.n	8002cee <I2C_WaitOnFlagUntilTimeout.constprop.0+0xfa>
    __HAL_I2C_CLEAR_FLAG(hi2c, I2C_FLAG_TXE);
 8002ce8:	6998      	ldr	r0, [r3, #24]
 8002cea:	4301      	orrs	r1, r0
 8002cec:	6199      	str	r1, [r3, #24]
  {
    /* Flush TX register */
    I2C_Flush_TXDR(hi2c);

    /* Clear Configuration Register 2 */
    I2C_RESET_CR2(hi2c);
 8002cee:	6859      	ldr	r1, [r3, #4]
 8002cf0:	481a      	ldr	r0, [pc, #104]	@ (8002d5c <I2C_WaitOnFlagUntilTimeout.constprop.0+0x168>)
 8002cf2:	4001      	ands	r1, r0
 8002cf4:	6059      	str	r1, [r3, #4]

    hi2c->ErrorCode |= error_code;
 8002cf6:	6c63      	ldr	r3, [r4, #68]	@ 0x44
 8002cf8:	4313      	orrs	r3, r2
 8002cfa:	6463      	str	r3, [r4, #68]	@ 0x44
    hi2c->State = HAL_I2C_STATE_READY;
 8002cfc:	2220      	movs	r2, #32
 8002cfe:	2341      	movs	r3, #65	@ 0x41
 8002d00:	54e2      	strb	r2, [r4, r3]
    hi2c->Mode = HAL_I2C_MODE_NONE;
 8002d02:	2200      	movs	r2, #0
 8002d04:	3301      	adds	r3, #1
 8002d06:	54e2      	strb	r2, [r4, r3]
          __HAL_UNLOCK(hi2c);
 8002d08:	2340      	movs	r3, #64	@ 0x40
 8002d0a:	2200      	movs	r2, #0
      return HAL_ERROR;
 8002d0c:	2001      	movs	r0, #1
          __HAL_UNLOCK(hi2c);
 8002d0e:	54e2      	strb	r2, [r4, r3]
}
 8002d10:	b003      	add	sp, #12
 8002d12:	bcf0      	pop	{r4, r5, r6, r7}
 8002d14:	46bb      	mov	fp, r7
 8002d16:	46b2      	mov	sl, r6
 8002d18:	46a9      	mov	r9, r5
 8002d1a:	46a0      	mov	r8, r4
 8002d1c:	bdf0      	pop	{r4, r5, r6, r7, pc}
  if (HAL_IS_BIT_SET(itflag, I2C_FLAG_OVR))
 8002d1e:	0548      	lsls	r0, r1, #21
 8002d20:	d4cd      	bmi.n	8002cbe <I2C_WaitOnFlagUntilTimeout.constprop.0+0xca>
  if (HAL_IS_BIT_SET(itflag, I2C_FLAG_ARLO))
 8002d22:	0589      	lsls	r1, r1, #22
 8002d24:	d4d2      	bmi.n	8002ccc <I2C_WaitOnFlagUntilTimeout.constprop.0+0xd8>
  if (status != HAL_OK)
 8002d26:	2d00      	cmp	r5, #0
 8002d28:	d1d5      	bne.n	8002cd6 <I2C_WaitOnFlagUntilTimeout.constprop.0+0xe2>
      if (((HAL_GetTick() - Tickstart) > Timeout) || (Timeout == 0U))
 8002d2a:	f7ff fb95 	bl	8002458 <HAL_GetTick>
 8002d2e:	9b01      	ldr	r3, [sp, #4]
 8002d30:	1ac0      	subs	r0, r0, r3
        if ((__HAL_I2C_GET_FLAG(hi2c, Flag) == Status))
 8002d32:	6823      	ldr	r3, [r4, #0]
      if (((HAL_GetTick() - Tickstart) > Timeout) || (Timeout == 0U))
 8002d34:	2819      	cmp	r0, #25
 8002d36:	d902      	bls.n	8002d3e <I2C_WaitOnFlagUntilTimeout.constprop.0+0x14a>
        if ((__HAL_I2C_GET_FLAG(hi2c, Flag) == Status))
 8002d38:	699a      	ldr	r2, [r3, #24]
 8002d3a:	0412      	lsls	r2, r2, #16
 8002d3c:	d405      	bmi.n	8002d4a <I2C_WaitOnFlagUntilTimeout.constprop.0+0x156>
  while (__HAL_I2C_GET_FLAG(hi2c, Flag) == Status)
 8002d3e:	699a      	ldr	r2, [r3, #24]
 8002d40:	0412      	lsls	r2, r2, #16
 8002d42:	d500      	bpl.n	8002d46 <I2C_WaitOnFlagUntilTimeout.constprop.0+0x152>
 8002d44:	e768      	b.n	8002c18 <I2C_WaitOnFlagUntilTimeout.constprop.0+0x24>
  return HAL_OK;
 8002d46:	2000      	movs	r0, #0
 8002d48:	e7e2      	b.n	8002d10 <I2C_WaitOnFlagUntilTimeout.constprop.0+0x11c>
          hi2c->ErrorCode |= HAL_I2C_ERROR_TIMEOUT;
 8002d4a:	2220      	movs	r2, #32
 8002d4c:	6c63      	ldr	r3, [r4, #68]	@ 0x44
 8002d4e:	4313      	orrs	r3, r2
 8002d50:	6463      	str	r3, [r4, #68]	@ 0x44
          hi2c->State = HAL_I2C_STATE_READY;
 8002d52:	2341      	movs	r3, #65	@ 0x41
 8002d54:	54e2      	strb	r2, [r4, r3]
          hi2c->Mode = HAL_I2C_MODE_NONE;
 8002d56:	3301      	adds	r3, #1
 8002d58:	54e5      	strb	r5, [r4, r3]
          return HAL_ERROR;
 8002d5a:	e7d5      	b.n	8002d08 <I2C_WaitOnFlagUntilTimeout.constprop.0+0x114>
 8002d5c:	fe00e800 	.word	0xfe00e800

08002d60 <I2C_WaitOnTXISFlagUntilTimeout>:
{
 8002d60:	b5f0      	push	{r4, r5, r6, r7, lr}
 8002d62:	4657      	mov	r7, sl
 8002d64:	464e      	mov	r6, r9
 8002d66:	46de      	mov	lr, fp
 8002d68:	4645      	mov	r5, r8
  if (HAL_IS_BIT_SET(itflag, I2C_FLAG_AF))
 8002d6a:	2410      	movs	r4, #16
{
 8002d6c:	b5e0      	push	{r5, r6, r7, lr}
 8002d6e:	0006      	movs	r6, r0
 8002d70:	000f      	movs	r7, r1
 8002d72:	b083      	sub	sp, #12
  while (__HAL_I2C_GET_FLAG(hi2c, I2C_FLAG_TXIS) == RESET)
 8002d74:	6803      	ldr	r3, [r0, #0]
 8002d76:	9201      	str	r2, [sp, #4]
 8002d78:	2502      	movs	r5, #2
 8002d7a:	46b3      	mov	fp, r6
 8002d7c:	002a      	movs	r2, r5
 8002d7e:	6999      	ldr	r1, [r3, #24]
 8002d80:	400a      	ands	r2, r1
 8002d82:	420d      	tst	r5, r1
 8002d84:	d000      	beq.n	8002d88 <I2C_WaitOnTXISFlagUntilTimeout+0x28>
 8002d86:	e072      	b.n	8002e6e <I2C_WaitOnTXISFlagUntilTimeout+0x10e>
  if (HAL_IS_BIT_SET(itflag, I2C_FLAG_AF))
 8002d88:	0021      	movs	r1, r4
  uint32_t itflag   = hi2c->Instance->ISR;
 8002d8a:	6998      	ldr	r0, [r3, #24]
  HAL_StatusTypeDef status = HAL_OK;
 8002d8c:	2600      	movs	r6, #0
  if (HAL_IS_BIT_SET(itflag, I2C_FLAG_AF))
 8002d8e:	4001      	ands	r1, r0
 8002d90:	4204      	tst	r4, r0
 8002d92:	d00b      	beq.n	8002dac <I2C_WaitOnTXISFlagUntilTimeout+0x4c>
    __HAL_I2C_CLEAR_FLAG(hi2c, I2C_FLAG_AF);
 8002d94:	61dc      	str	r4, [r3, #28]
    while ((__HAL_I2C_GET_FLAG(hi2c, I2C_FLAG_STOPF) == RESET) && (status == HAL_OK))
 8002d96:	1c79      	adds	r1, r7, #1
 8002d98:	d16d      	bne.n	8002e76 <I2C_WaitOnTXISFlagUntilTimeout+0x116>
 8002d9a:	2020      	movs	r0, #32
 8002d9c:	6999      	ldr	r1, [r3, #24]
 8002d9e:	4208      	tst	r0, r1
 8002da0:	d0fc      	beq.n	8002d9c <I2C_WaitOnTXISFlagUntilTimeout+0x3c>
      __HAL_I2C_CLEAR_FLAG(hi2c, I2C_FLAG_STOPF);
 8002da2:	2120      	movs	r1, #32
 8002da4:	61d9      	str	r1, [r3, #28]
    error_code |= HAL_I2C_ERROR_AF;
 8002da6:	2104      	movs	r1, #4
    status = HAL_ERROR;
 8002da8:	2601      	movs	r6, #1
    error_code |= HAL_I2C_ERROR_AF;
 8002daa:	4311      	orrs	r1, r2
  if (HAL_IS_BIT_SET(itflag, I2C_FLAG_BERR))
 8002dac:	2080      	movs	r0, #128	@ 0x80
  itflag = hi2c->Instance->ISR;
 8002dae:	699a      	ldr	r2, [r3, #24]
  if (HAL_IS_BIT_SET(itflag, I2C_FLAG_BERR))
 8002db0:	0040      	lsls	r0, r0, #1
 8002db2:	4202      	tst	r2, r0
 8002db4:	d035      	beq.n	8002e22 <I2C_WaitOnTXISFlagUntilTimeout+0xc2>
    error_code |= HAL_I2C_ERROR_BERR;
 8002db6:	2401      	movs	r4, #1
 8002db8:	465e      	mov	r6, fp
 8002dba:	4321      	orrs	r1, r4
    __HAL_I2C_CLEAR_FLAG(hi2c, I2C_FLAG_BERR);
 8002dbc:	61d8      	str	r0, [r3, #28]
  if (HAL_IS_BIT_SET(itflag, I2C_FLAG_OVR))
 8002dbe:	0550      	lsls	r0, r2, #21
 8002dc0:	d504      	bpl.n	8002dcc <I2C_WaitOnTXISFlagUntilTimeout+0x6c>
    error_code |= HAL_I2C_ERROR_OVR;
 8002dc2:	2008      	movs	r0, #8
 8002dc4:	4301      	orrs	r1, r0
    __HAL_I2C_CLEAR_FLAG(hi2c, I2C_FLAG_OVR);
 8002dc6:	2080      	movs	r0, #128	@ 0x80
 8002dc8:	00c0      	lsls	r0, r0, #3
 8002dca:	61d8      	str	r0, [r3, #28]
  if (HAL_IS_BIT_SET(itflag, I2C_FLAG_ARLO))
 8002dcc:	0592      	lsls	r2, r2, #22
 8002dce:	d504      	bpl.n	8002dda <I2C_WaitOnTXISFlagUntilTimeout+0x7a>
    error_code |= HAL_I2C_ERROR_ARLO;
 8002dd0:	2202      	movs	r2, #2
 8002dd2:	4311      	orrs	r1, r2
    __HAL_I2C_CLEAR_FLAG(hi2c, I2C_FLAG_ARLO);
 8002dd4:	32ff      	adds	r2, #255	@ 0xff
 8002dd6:	32ff      	adds	r2, #255	@ 0xff
 8002dd8:	61da      	str	r2, [r3, #28]
  if (__HAL_I2C_GET_FLAG(hi2c, I2C_FLAG_TXIS) != RESET)
 8002dda:	699a      	ldr	r2, [r3, #24]
 8002ddc:	0792      	lsls	r2, r2, #30
 8002dde:	d501      	bpl.n	8002de4 <I2C_WaitOnTXISFlagUntilTimeout+0x84>
    hi2c->Instance->TXDR = 0x00U;
 8002de0:	2200      	movs	r2, #0
 8002de2:	629a      	str	r2, [r3, #40]	@ 0x28
  if (__HAL_I2C_GET_FLAG(hi2c, I2C_FLAG_TXE) == RESET)
 8002de4:	2201      	movs	r2, #1
 8002de6:	6998      	ldr	r0, [r3, #24]
 8002de8:	4202      	tst	r2, r0
 8002dea:	d102      	bne.n	8002df2 <I2C_WaitOnTXISFlagUntilTimeout+0x92>
    __HAL_I2C_CLEAR_FLAG(hi2c, I2C_FLAG_TXE);
 8002dec:	6998      	ldr	r0, [r3, #24]
 8002dee:	4302      	orrs	r2, r0
 8002df0:	619a      	str	r2, [r3, #24]
    I2C_RESET_CR2(hi2c);
 8002df2:	685a      	ldr	r2, [r3, #4]
 8002df4:	4851      	ldr	r0, [pc, #324]	@ (8002f3c <I2C_WaitOnTXISFlagUntilTimeout+0x1dc>)
 8002df6:	4002      	ands	r2, r0
 8002df8:	605a      	str	r2, [r3, #4]
    hi2c->ErrorCode |= error_code;
 8002dfa:	6c73      	ldr	r3, [r6, #68]	@ 0x44
    hi2c->State = HAL_I2C_STATE_READY;
 8002dfc:	2220      	movs	r2, #32
    hi2c->ErrorCode |= error_code;
 8002dfe:	430b      	orrs	r3, r1
 8002e00:	6473      	str	r3, [r6, #68]	@ 0x44
    hi2c->State = HAL_I2C_STATE_READY;
 8002e02:	2341      	movs	r3, #65	@ 0x41
 8002e04:	54f2      	strb	r2, [r6, r3]
    hi2c->Mode = HAL_I2C_MODE_NONE;
 8002e06:	2200      	movs	r2, #0
 8002e08:	3301      	adds	r3, #1
 8002e0a:	54f2      	strb	r2, [r6, r3]
          __HAL_UNLOCK(hi2c);
 8002e0c:	2340      	movs	r3, #64	@ 0x40
 8002e0e:	2200      	movs	r2, #0
      return HAL_ERROR;
 8002e10:	2001      	movs	r0, #1
          __HAL_UNLOCK(hi2c);
 8002e12:	54f2      	strb	r2, [r6, r3]
}
 8002e14:	b003      	add	sp, #12
 8002e16:	bcf0      	pop	{r4, r5, r6, r7}
 8002e18:	46bb      	mov	fp, r7
 8002e1a:	46b2      	mov	sl, r6
 8002e1c:	46a9      	mov	r9, r5
 8002e1e:	46a0      	mov	r8, r4
 8002e20:	bdf0      	pop	{r4, r5, r6, r7, pc}
  if (HAL_IS_BIT_SET(itflag, I2C_FLAG_OVR))
 8002e22:	0550      	lsls	r0, r2, #21
 8002e24:	d501      	bpl.n	8002e2a <I2C_WaitOnTXISFlagUntilTimeout+0xca>
 8002e26:	465e      	mov	r6, fp
 8002e28:	e7cb      	b.n	8002dc2 <I2C_WaitOnTXISFlagUntilTimeout+0x62>
  if (HAL_IS_BIT_SET(itflag, I2C_FLAG_ARLO))
 8002e2a:	0592      	lsls	r2, r2, #22
 8002e2c:	d501      	bpl.n	8002e32 <I2C_WaitOnTXISFlagUntilTimeout+0xd2>
 8002e2e:	465e      	mov	r6, fp
 8002e30:	e7ce      	b.n	8002dd0 <I2C_WaitOnTXISFlagUntilTimeout+0x70>
  if (status != HAL_OK)
 8002e32:	2e00      	cmp	r6, #0
 8002e34:	d11d      	bne.n	8002e72 <I2C_WaitOnTXISFlagUntilTimeout+0x112>
    if (Timeout != HAL_MAX_DELAY)
 8002e36:	1c7a      	adds	r2, r7, #1
 8002e38:	d0a0      	beq.n	8002d7c <I2C_WaitOnTXISFlagUntilTimeout+0x1c>
      if (((HAL_GetTick() - Tickstart) > Timeout) || (Timeout == 0U))
 8002e3a:	f7ff fb0d 	bl	8002458 <HAL_GetTick>
 8002e3e:	465e      	mov	r6, fp
 8002e40:	9b01      	ldr	r3, [sp, #4]
 8002e42:	1ac0      	subs	r0, r0, r3
        if ((__HAL_I2C_GET_FLAG(hi2c, I2C_FLAG_TXIS) == RESET))
 8002e44:	6833      	ldr	r3, [r6, #0]
      if (((HAL_GetTick() - Tickstart) > Timeout) || (Timeout == 0U))
 8002e46:	42b8      	cmp	r0, r7
 8002e48:	d801      	bhi.n	8002e4e <I2C_WaitOnTXISFlagUntilTimeout+0xee>
 8002e4a:	2f00      	cmp	r7, #0
 8002e4c:	d194      	bne.n	8002d78 <I2C_WaitOnTXISFlagUntilTimeout+0x18>
        if ((__HAL_I2C_GET_FLAG(hi2c, I2C_FLAG_TXIS) == RESET))
 8002e4e:	2102      	movs	r1, #2
 8002e50:	0008      	movs	r0, r1
 8002e52:	699a      	ldr	r2, [r3, #24]
 8002e54:	4010      	ands	r0, r2
 8002e56:	4211      	tst	r1, r2
 8002e58:	d000      	beq.n	8002e5c <I2C_WaitOnTXISFlagUntilTimeout+0xfc>
 8002e5a:	e78d      	b.n	8002d78 <I2C_WaitOnTXISFlagUntilTimeout+0x18>
          hi2c->ErrorCode |= HAL_I2C_ERROR_TIMEOUT;
 8002e5c:	2220      	movs	r2, #32
 8002e5e:	6c73      	ldr	r3, [r6, #68]	@ 0x44
 8002e60:	4313      	orrs	r3, r2
 8002e62:	6473      	str	r3, [r6, #68]	@ 0x44
          hi2c->State = HAL_I2C_STATE_READY;
 8002e64:	2341      	movs	r3, #65	@ 0x41
 8002e66:	54f2      	strb	r2, [r6, r3]
          hi2c->Mode = HAL_I2C_MODE_NONE;
 8002e68:	3301      	adds	r3, #1
 8002e6a:	54f0      	strb	r0, [r6, r3]
          return HAL_ERROR;
 8002e6c:	e7ce      	b.n	8002e0c <I2C_WaitOnTXISFlagUntilTimeout+0xac>
  return HAL_OK;
 8002e6e:	2000      	movs	r0, #0
 8002e70:	e7d0      	b.n	8002e14 <I2C_WaitOnTXISFlagUntilTimeout+0xb4>
 8002e72:	465e      	mov	r6, fp
 8002e74:	e7b1      	b.n	8002dda <I2C_WaitOnTXISFlagUntilTimeout+0x7a>
  uint32_t tickstart = Tickstart;
 8002e76:	9901      	ldr	r1, [sp, #4]
          if ((__HAL_I2C_GET_FLAG(hi2c, I2C_FLAG_BUSY) != RESET) && \
 8002e78:	9200      	str	r2, [sp, #0]
  uint32_t tickstart = Tickstart;
 8002e7a:	4688      	mov	r8, r1
  HAL_StatusTypeDef status = HAL_OK;
 8002e7c:	2100      	movs	r1, #0
          if ((__HAL_I2C_GET_FLAG(hi2c, I2C_FLAG_BUSY) != RESET) && \
 8002e7e:	003a      	movs	r2, r7
  HAL_StatusTypeDef status = HAL_OK;
 8002e80:	4689      	mov	r9, r1
          tmp2 = hi2c->Mode;
 8002e82:	3142      	adds	r1, #66	@ 0x42
          if ((__HAL_I2C_GET_FLAG(hi2c, I2C_FLAG_BUSY) != RESET) && \
 8002e84:	465f      	mov	r7, fp
    while ((__HAL_I2C_GET_FLAG(hi2c, I2C_FLAG_STOPF) == RESET) && (status == HAL_OK))
 8002e86:	2620      	movs	r6, #32
          tmp2 = hi2c->Mode;
 8002e88:	468a      	mov	sl, r1
          if ((__HAL_I2C_GET_FLAG(hi2c, I2C_FLAG_BUSY) != RESET) && \
 8002e8a:	4693      	mov	fp, r2
    while ((__HAL_I2C_GET_FLAG(hi2c, I2C_FLAG_STOPF) == RESET) && (status == HAL_OK))
 8002e8c:	699a      	ldr	r2, [r3, #24]
 8002e8e:	4216      	tst	r6, r2
 8002e90:	d10f      	bne.n	8002eb2 <I2C_WaitOnTXISFlagUntilTimeout+0x152>
 8002e92:	464a      	mov	r2, r9
 8002e94:	2a00      	cmp	r2, #0
 8002e96:	d14b      	bne.n	8002f30 <I2C_WaitOnTXISFlagUntilTimeout+0x1d0>
        if (((HAL_GetTick() - tickstart) > Timeout) || (Timeout == 0U))
 8002e98:	f7ff fade 	bl	8002458 <HAL_GetTick>
 8002e9c:	4643      	mov	r3, r8
 8002e9e:	1ac0      	subs	r0, r0, r3
 8002ea0:	4583      	cmp	fp, r0
 8002ea2:	d30f      	bcc.n	8002ec4 <I2C_WaitOnTXISFlagUntilTimeout+0x164>
 8002ea4:	465b      	mov	r3, fp
 8002ea6:	2b00      	cmp	r3, #0
 8002ea8:	d00c      	beq.n	8002ec4 <I2C_WaitOnTXISFlagUntilTimeout+0x164>
          tmp1 = (uint32_t)(hi2c->Instance->CR2 & I2C_CR2_STOP);
 8002eaa:	683b      	ldr	r3, [r7, #0]
    while ((__HAL_I2C_GET_FLAG(hi2c, I2C_FLAG_STOPF) == RESET) && (status == HAL_OK))
 8002eac:	699a      	ldr	r2, [r3, #24]
 8002eae:	4216      	tst	r6, r2
 8002eb0:	d0ef      	beq.n	8002e92 <I2C_WaitOnTXISFlagUntilTimeout+0x132>
    if (status == HAL_OK)
 8002eb2:	4659      	mov	r1, fp
 8002eb4:	46bb      	mov	fp, r7
 8002eb6:	000f      	movs	r7, r1
 8002eb8:	4649      	mov	r1, r9
 8002eba:	9a00      	ldr	r2, [sp, #0]
 8002ebc:	2900      	cmp	r1, #0
 8002ebe:	d100      	bne.n	8002ec2 <I2C_WaitOnTXISFlagUntilTimeout+0x162>
 8002ec0:	e76f      	b.n	8002da2 <I2C_WaitOnTXISFlagUntilTimeout+0x42>
 8002ec2:	e770      	b.n	8002da6 <I2C_WaitOnTXISFlagUntilTimeout+0x46>
          tmp2 = hi2c->Mode;
 8002ec4:	4652      	mov	r2, sl
          tmp1 = (uint32_t)(hi2c->Instance->CR2 & I2C_CR2_STOP);
 8002ec6:	683b      	ldr	r3, [r7, #0]
 8002ec8:	6858      	ldr	r0, [r3, #4]
          tmp2 = hi2c->Mode;
 8002eca:	5cba      	ldrb	r2, [r7, r2]
          if ((__HAL_I2C_GET_FLAG(hi2c, I2C_FLAG_BUSY) != RESET) && \
 8002ecc:	6999      	ldr	r1, [r3, #24]
          tmp2 = hi2c->Mode;
 8002ece:	b2d2      	uxtb	r2, r2
 8002ed0:	4694      	mov	ip, r2
          if ((__HAL_I2C_GET_FLAG(hi2c, I2C_FLAG_BUSY) != RESET) && \
 8002ed2:	2280      	movs	r2, #128	@ 0x80
 8002ed4:	0212      	lsls	r2, r2, #8
 8002ed6:	4211      	tst	r1, r2
 8002ed8:	d01e      	beq.n	8002f18 <I2C_WaitOnTXISFlagUntilTimeout+0x1b8>
          tmp1 = (uint32_t)(hi2c->Instance->CR2 & I2C_CR2_STOP);
 8002eda:	2180      	movs	r1, #128	@ 0x80
 8002edc:	01c9      	lsls	r1, r1, #7
          if ((__HAL_I2C_GET_FLAG(hi2c, I2C_FLAG_BUSY) != RESET) && \
 8002ede:	4208      	tst	r0, r1
 8002ee0:	d11a      	bne.n	8002f18 <I2C_WaitOnTXISFlagUntilTimeout+0x1b8>
              (tmp1 != I2C_CR2_STOP) && \
 8002ee2:	4662      	mov	r2, ip
 8002ee4:	2a20      	cmp	r2, #32
 8002ee6:	d017      	beq.n	8002f18 <I2C_WaitOnTXISFlagUntilTimeout+0x1b8>
            hi2c->Instance->CR2 |= I2C_CR2_STOP;
 8002ee8:	685a      	ldr	r2, [r3, #4]
 8002eea:	4311      	orrs	r1, r2
 8002eec:	6059      	str	r1, [r3, #4]
            tickstart = HAL_GetTick();
 8002eee:	f7ff fab3 	bl	8002458 <HAL_GetTick>
 8002ef2:	003a      	movs	r2, r7
          while (__HAL_I2C_GET_FLAG(hi2c, I2C_FLAG_STOPF) == RESET)
 8002ef4:	683b      	ldr	r3, [r7, #0]
 8002ef6:	4690      	mov	r8, r2
 8002ef8:	0007      	movs	r7, r0
 8002efa:	e006      	b.n	8002f0a <I2C_WaitOnTXISFlagUntilTimeout+0x1aa>
            if ((HAL_GetTick() - tickstart) > I2C_TIMEOUT_STOPF)
 8002efc:	f7ff faac 	bl	8002458 <HAL_GetTick>
    while ((__HAL_I2C_GET_FLAG(hi2c, I2C_FLAG_STOPF) == RESET) && (status == HAL_OK))
 8002f00:	4643      	mov	r3, r8
            if ((HAL_GetTick() - tickstart) > I2C_TIMEOUT_STOPF)
 8002f02:	1bc0      	subs	r0, r0, r7
 8002f04:	2819      	cmp	r0, #25
 8002f06:	d80b      	bhi.n	8002f20 <I2C_WaitOnTXISFlagUntilTimeout+0x1c0>
    while ((__HAL_I2C_GET_FLAG(hi2c, I2C_FLAG_STOPF) == RESET) && (status == HAL_OK))
 8002f08:	681b      	ldr	r3, [r3, #0]
          while (__HAL_I2C_GET_FLAG(hi2c, I2C_FLAG_STOPF) == RESET)
 8002f0a:	699a      	ldr	r2, [r3, #24]
 8002f0c:	4216      	tst	r6, r2
 8002f0e:	d0f5      	beq.n	8002efc <I2C_WaitOnTXISFlagUntilTimeout+0x19c>
 8002f10:	4642      	mov	r2, r8
 8002f12:	46b8      	mov	r8, r7
 8002f14:	0017      	movs	r7, r2
 8002f16:	e7b9      	b.n	8002e8c <I2C_WaitOnTXISFlagUntilTimeout+0x12c>
 8002f18:	003a      	movs	r2, r7
 8002f1a:	4647      	mov	r7, r8
 8002f1c:	4690      	mov	r8, r2
 8002f1e:	e7f4      	b.n	8002f0a <I2C_WaitOnTXISFlagUntilTimeout+0x1aa>
              error_code |= HAL_I2C_ERROR_TIMEOUT;
 8002f20:	2220      	movs	r2, #32
 8002f22:	9200      	str	r2, [sp, #0]
              status = HAL_ERROR;
 8002f24:	3a1f      	subs	r2, #31
    while ((__HAL_I2C_GET_FLAG(hi2c, I2C_FLAG_STOPF) == RESET) && (status == HAL_OK))
 8002f26:	46b8      	mov	r8, r7
              status = HAL_ERROR;
 8002f28:	4691      	mov	r9, r2
    while ((__HAL_I2C_GET_FLAG(hi2c, I2C_FLAG_STOPF) == RESET) && (status == HAL_OK))
 8002f2a:	001f      	movs	r7, r3
 8002f2c:	681b      	ldr	r3, [r3, #0]
 8002f2e:	e7ad      	b.n	8002e8c <I2C_WaitOnTXISFlagUntilTimeout+0x12c>
 8002f30:	4659      	mov	r1, fp
 8002f32:	9a00      	ldr	r2, [sp, #0]
 8002f34:	46bb      	mov	fp, r7
 8002f36:	000f      	movs	r7, r1
 8002f38:	e735      	b.n	8002da6 <I2C_WaitOnTXISFlagUntilTimeout+0x46>
 8002f3a:	46c0      	nop			@ (mov r8, r8)
 8002f3c:	fe00e800 	.word	0xfe00e800

08002f40 <I2C_WaitOnFlagUntilTimeout>:
{
 8002f40:	b5f0      	push	{r4, r5, r6, r7, lr}
 8002f42:	4657      	mov	r7, sl
 8002f44:	46de      	mov	lr, fp
 8002f46:	4645      	mov	r5, r8
 8002f48:	464e      	mov	r6, r9
  if (HAL_IS_BIT_SET(itflag, I2C_FLAG_AF))
 8002f4a:	2410      	movs	r4, #16
{
 8002f4c:	b5e0      	push	{r5, r6, r7, lr}
 8002f4e:	4692      	mov	sl, r2
 8002f50:	0007      	movs	r7, r0
 8002f52:	000d      	movs	r5, r1
 8002f54:	469b      	mov	fp, r3
  while (__HAL_I2C_GET_FLAG(hi2c, Flag) == Status)
 8002f56:	6803      	ldr	r3, [r0, #0]
{
 8002f58:	b083      	sub	sp, #12
    error_code |= HAL_I2C_ERROR_AF;
 8002f5a:	2204      	movs	r2, #4
 8002f5c:	4651      	mov	r1, sl
 8002f5e:	4691      	mov	r9, r2
 8002f60:	46ba      	mov	sl, r7
 8002f62:	465f      	mov	r7, fp
  while (__HAL_I2C_GET_FLAG(hi2c, Flag) == Status)
 8002f64:	699a      	ldr	r2, [r3, #24]
 8002f66:	402a      	ands	r2, r5
 8002f68:	1b52      	subs	r2, r2, r5
 8002f6a:	4250      	negs	r0, r2
 8002f6c:	4142      	adcs	r2, r0
 8002f6e:	428a      	cmp	r2, r1
 8002f70:	d000      	beq.n	8002f74 <I2C_WaitOnFlagUntilTimeout+0x34>
 8002f72:	e080      	b.n	8003076 <I2C_WaitOnFlagUntilTimeout+0x136>
  if (HAL_IS_BIT_SET(itflag, I2C_FLAG_AF))
 8002f74:	0022      	movs	r2, r4
  uint32_t itflag   = hi2c->Instance->ISR;
 8002f76:	6998      	ldr	r0, [r3, #24]
  if (HAL_IS_BIT_SET(itflag, I2C_FLAG_AF))
 8002f78:	4002      	ands	r2, r0
 8002f7a:	4694      	mov	ip, r2
  HAL_StatusTypeDef status = HAL_OK;
 8002f7c:	2200      	movs	r2, #0
  if (HAL_IS_BIT_SET(itflag, I2C_FLAG_AF))
 8002f7e:	4204      	tst	r4, r0
 8002f80:	d00e      	beq.n	8002fa0 <I2C_WaitOnFlagUntilTimeout+0x60>
    __HAL_I2C_CLEAR_FLAG(hi2c, I2C_FLAG_AF);
 8002f82:	61dc      	str	r4, [r3, #28]
    while ((__HAL_I2C_GET_FLAG(hi2c, I2C_FLAG_STOPF) == RESET) && (status == HAL_OK))
 8002f84:	1c7a      	adds	r2, r7, #1
 8002f86:	d000      	beq.n	8002f8a <I2C_WaitOnFlagUntilTimeout+0x4a>
 8002f88:	e07c      	b.n	8003084 <I2C_WaitOnFlagUntilTimeout+0x144>
 8002f8a:	2020      	movs	r0, #32
 8002f8c:	699a      	ldr	r2, [r3, #24]
 8002f8e:	4210      	tst	r0, r2
 8002f90:	d0fc      	beq.n	8002f8c <I2C_WaitOnFlagUntilTimeout+0x4c>
  uint32_t error_code = 0;
 8002f92:	2600      	movs	r6, #0
      __HAL_I2C_CLEAR_FLAG(hi2c, I2C_FLAG_STOPF);
 8002f94:	2220      	movs	r2, #32
 8002f96:	61da      	str	r2, [r3, #28]
    error_code |= HAL_I2C_ERROR_AF;
 8002f98:	464a      	mov	r2, r9
 8002f9a:	4332      	orrs	r2, r6
 8002f9c:	4694      	mov	ip, r2
    status = HAL_ERROR;
 8002f9e:	2201      	movs	r2, #1
  if (HAL_IS_BIT_SET(itflag, I2C_FLAG_BERR))
 8002fa0:	2080      	movs	r0, #128	@ 0x80
  itflag = hi2c->Instance->ISR;
 8002fa2:	699e      	ldr	r6, [r3, #24]
  if (HAL_IS_BIT_SET(itflag, I2C_FLAG_BERR))
 8002fa4:	0040      	lsls	r0, r0, #1
 8002fa6:	4206      	tst	r6, r0
 8002fa8:	d037      	beq.n	800301a <I2C_WaitOnFlagUntilTimeout+0xda>
    error_code |= HAL_I2C_ERROR_BERR;
 8002faa:	4662      	mov	r2, ip
 8002fac:	2401      	movs	r4, #1
 8002fae:	0031      	movs	r1, r6
 8002fb0:	4657      	mov	r7, sl
 8002fb2:	4322      	orrs	r2, r4
    __HAL_I2C_CLEAR_FLAG(hi2c, I2C_FLAG_BERR);
 8002fb4:	61d8      	str	r0, [r3, #28]
  if (HAL_IS_BIT_SET(itflag, I2C_FLAG_OVR))
 8002fb6:	0570      	lsls	r0, r6, #21
 8002fb8:	d504      	bpl.n	8002fc4 <I2C_WaitOnFlagUntilTimeout+0x84>
    error_code |= HAL_I2C_ERROR_OVR;
 8002fba:	2008      	movs	r0, #8
 8002fbc:	4302      	orrs	r2, r0
    __HAL_I2C_CLEAR_FLAG(hi2c, I2C_FLAG_OVR);
 8002fbe:	2080      	movs	r0, #128	@ 0x80
 8002fc0:	00c0      	lsls	r0, r0, #3
 8002fc2:	61d8      	str	r0, [r3, #28]
  if (HAL_IS_BIT_SET(itflag, I2C_FLAG_ARLO))
 8002fc4:	0589      	lsls	r1, r1, #22
 8002fc6:	d504      	bpl.n	8002fd2 <I2C_WaitOnFlagUntilTimeout+0x92>
    error_code |= HAL_I2C_ERROR_ARLO;
 8002fc8:	2102      	movs	r1, #2
 8002fca:	430a      	orrs	r2, r1
    __HAL_I2C_CLEAR_FLAG(hi2c, I2C_FLAG_ARLO);
 8002fcc:	31ff      	adds	r1, #255	@ 0xff
 8002fce:	31ff      	adds	r1, #255	@ 0xff
 8002fd0:	61d9      	str	r1, [r3, #28]
  if (__HAL_I2C_GET_FLAG(hi2c, I2C_FLAG_TXIS) != RESET)
 8002fd2:	6999      	ldr	r1, [r3, #24]
 8002fd4:	0789      	lsls	r1, r1, #30
 8002fd6:	d501      	bpl.n	8002fdc <I2C_WaitOnFlagUntilTimeout+0x9c>
    hi2c->Instance->TXDR = 0x00U;
 8002fd8:	2100      	movs	r1, #0
 8002fda:	6299      	str	r1, [r3, #40]	@ 0x28
  if (__HAL_I2C_GET_FLAG(hi2c, I2C_FLAG_TXE) == RESET)
 8002fdc:	2101      	movs	r1, #1
 8002fde:	6998      	ldr	r0, [r3, #24]
 8002fe0:	4201      	tst	r1, r0
 8002fe2:	d102      	bne.n	8002fea <I2C_WaitOnFlagUntilTimeout+0xaa>
    __HAL_I2C_CLEAR_FLAG(hi2c, I2C_FLAG_TXE);
 8002fe4:	6998      	ldr	r0, [r3, #24]
 8002fe6:	4301      	orrs	r1, r0
 8002fe8:	6199      	str	r1, [r3, #24]
    I2C_RESET_CR2(hi2c);
 8002fea:	6859      	ldr	r1, [r3, #4]
 8002fec:	484f      	ldr	r0, [pc, #316]	@ (800312c <I2C_WaitOnFlagUntilTimeout+0x1ec>)
 8002fee:	4001      	ands	r1, r0
 8002ff0:	6059      	str	r1, [r3, #4]
    hi2c->ErrorCode |= error_code;
 8002ff2:	6c7b      	ldr	r3, [r7, #68]	@ 0x44
 8002ff4:	4313      	orrs	r3, r2
 8002ff6:	647b      	str	r3, [r7, #68]	@ 0x44
    hi2c->State = HAL_I2C_STATE_READY;
 8002ff8:	2220      	movs	r2, #32
 8002ffa:	2341      	movs	r3, #65	@ 0x41
 8002ffc:	54fa      	strb	r2, [r7, r3]
    hi2c->Mode = HAL_I2C_MODE_NONE;
 8002ffe:	2200      	movs	r2, #0
 8003000:	3301      	adds	r3, #1
 8003002:	54fa      	strb	r2, [r7, r3]
          __HAL_UNLOCK(hi2c);
 8003004:	2340      	movs	r3, #64	@ 0x40
 8003006:	2200      	movs	r2, #0
      return HAL_ERROR;
 8003008:	2001      	movs	r0, #1
          __HAL_UNLOCK(hi2c);
 800300a:	54fa      	strb	r2, [r7, r3]
}
 800300c:	b003      	add	sp, #12
 800300e:	bcf0      	pop	{r4, r5, r6, r7}
 8003010:	46bb      	mov	fp, r7
 8003012:	46b2      	mov	sl, r6
 8003014:	46a9      	mov	r9, r5
 8003016:	46a0      	mov	r8, r4
 8003018:	bdf0      	pop	{r4, r5, r6, r7, pc}
  if (HAL_IS_BIT_SET(itflag, I2C_FLAG_OVR))
 800301a:	0570      	lsls	r0, r6, #21
 800301c:	d503      	bpl.n	8003026 <I2C_WaitOnFlagUntilTimeout+0xe6>
 800301e:	4662      	mov	r2, ip
 8003020:	0031      	movs	r1, r6
 8003022:	4657      	mov	r7, sl
 8003024:	e7c9      	b.n	8002fba <I2C_WaitOnFlagUntilTimeout+0x7a>
  if (HAL_IS_BIT_SET(itflag, I2C_FLAG_ARLO))
 8003026:	05b6      	lsls	r6, r6, #22
 8003028:	d502      	bpl.n	8003030 <I2C_WaitOnFlagUntilTimeout+0xf0>
 800302a:	4662      	mov	r2, ip
 800302c:	4657      	mov	r7, sl
 800302e:	e7cb      	b.n	8002fc8 <I2C_WaitOnFlagUntilTimeout+0x88>
  if (status != HAL_OK)
 8003030:	2a00      	cmp	r2, #0
 8003032:	d124      	bne.n	800307e <I2C_WaitOnFlagUntilTimeout+0x13e>
    if (Timeout != HAL_MAX_DELAY)
 8003034:	1c7a      	adds	r2, r7, #1
 8003036:	d095      	beq.n	8002f64 <I2C_WaitOnFlagUntilTimeout+0x24>
      if (((HAL_GetTick() - Tickstart) > Timeout) || (Timeout == 0U))
 8003038:	46bb      	mov	fp, r7
 800303a:	4657      	mov	r7, sl
 800303c:	468a      	mov	sl, r1
 800303e:	f7ff fa0b 	bl	8002458 <HAL_GetTick>
 8003042:	9b0c      	ldr	r3, [sp, #48]	@ 0x30
 8003044:	1ac0      	subs	r0, r0, r3
 8003046:	4558      	cmp	r0, fp
 8003048:	d802      	bhi.n	8003050 <I2C_WaitOnFlagUntilTimeout+0x110>
 800304a:	465b      	mov	r3, fp
 800304c:	2b00      	cmp	r3, #0
 800304e:	d114      	bne.n	800307a <I2C_WaitOnFlagUntilTimeout+0x13a>
        if ((__HAL_I2C_GET_FLAG(hi2c, Flag) == Status))
 8003050:	683b      	ldr	r3, [r7, #0]
 8003052:	699a      	ldr	r2, [r3, #24]
 8003054:	402a      	ands	r2, r5
 8003056:	1b52      	subs	r2, r2, r5
 8003058:	4251      	negs	r1, r2
 800305a:	414a      	adcs	r2, r1
 800305c:	4552      	cmp	r2, sl
 800305e:	d000      	beq.n	8003062 <I2C_WaitOnFlagUntilTimeout+0x122>
 8003060:	e77b      	b.n	8002f5a <I2C_WaitOnFlagUntilTimeout+0x1a>
          hi2c->ErrorCode |= HAL_I2C_ERROR_TIMEOUT;
 8003062:	2220      	movs	r2, #32
 8003064:	6c7b      	ldr	r3, [r7, #68]	@ 0x44
 8003066:	4313      	orrs	r3, r2
 8003068:	647b      	str	r3, [r7, #68]	@ 0x44
          hi2c->State = HAL_I2C_STATE_READY;
 800306a:	2341      	movs	r3, #65	@ 0x41
 800306c:	54fa      	strb	r2, [r7, r3]
          hi2c->Mode = HAL_I2C_MODE_NONE;
 800306e:	2200      	movs	r2, #0
 8003070:	3301      	adds	r3, #1
 8003072:	54fa      	strb	r2, [r7, r3]
          return HAL_ERROR;
 8003074:	e7c6      	b.n	8003004 <I2C_WaitOnFlagUntilTimeout+0xc4>
  return HAL_OK;
 8003076:	2000      	movs	r0, #0
 8003078:	e7c8      	b.n	800300c <I2C_WaitOnFlagUntilTimeout+0xcc>
        if ((__HAL_I2C_GET_FLAG(hi2c, Flag) == Status))
 800307a:	683b      	ldr	r3, [r7, #0]
 800307c:	e76d      	b.n	8002f5a <I2C_WaitOnFlagUntilTimeout+0x1a>
 800307e:	4662      	mov	r2, ip
 8003080:	4657      	mov	r7, sl
 8003082:	e7a6      	b.n	8002fd2 <I2C_WaitOnFlagUntilTimeout+0x92>
  uint32_t tickstart = Tickstart;
 8003084:	9a0c      	ldr	r2, [sp, #48]	@ 0x30
  uint32_t error_code = 0;
 8003086:	2600      	movs	r6, #0
  uint32_t tickstart = Tickstart;
 8003088:	4693      	mov	fp, r2
  HAL_StatusTypeDef status = HAL_OK;
 800308a:	2200      	movs	r2, #0
 800308c:	9200      	str	r2, [sp, #0]
    while ((__HAL_I2C_GET_FLAG(hi2c, I2C_FLAG_STOPF) == RESET) && (status == HAL_OK))
 800308e:	3220      	adds	r2, #32
 8003090:	4690      	mov	r8, r2
          if ((__HAL_I2C_GET_FLAG(hi2c, I2C_FLAG_BUSY) != RESET) && \
 8003092:	002a      	movs	r2, r5
 8003094:	4655      	mov	r5, sl
 8003096:	46b2      	mov	sl, r6
 8003098:	465e      	mov	r6, fp
 800309a:	4693      	mov	fp, r2
 800309c:	9101      	str	r1, [sp, #4]
    while ((__HAL_I2C_GET_FLAG(hi2c, I2C_FLAG_STOPF) == RESET) && (status == HAL_OK))
 800309e:	4641      	mov	r1, r8
 80030a0:	699a      	ldr	r2, [r3, #24]
 80030a2:	4211      	tst	r1, r2
 80030a4:	d134      	bne.n	8003110 <I2C_WaitOnFlagUntilTimeout+0x1d0>
 80030a6:	9a00      	ldr	r2, [sp, #0]
 80030a8:	2a00      	cmp	r2, #0
 80030aa:	d13a      	bne.n	8003122 <I2C_WaitOnFlagUntilTimeout+0x1e2>
        if (((HAL_GetTick() - tickstart) > Timeout) || (Timeout == 0U))
 80030ac:	f7ff f9d4 	bl	8002458 <HAL_GetTick>
          tmp1 = (uint32_t)(hi2c->Instance->CR2 & I2C_CR2_STOP);
 80030b0:	682b      	ldr	r3, [r5, #0]
        if (((HAL_GetTick() - tickstart) > Timeout) || (Timeout == 0U))
 80030b2:	1b80      	subs	r0, r0, r6
 80030b4:	4287      	cmp	r7, r0
 80030b6:	d301      	bcc.n	80030bc <I2C_WaitOnFlagUntilTimeout+0x17c>
 80030b8:	2f00      	cmp	r7, #0
 80030ba:	d1f0      	bne.n	800309e <I2C_WaitOnFlagUntilTimeout+0x15e>
          tmp2 = hi2c->Mode;
 80030bc:	2242      	movs	r2, #66	@ 0x42
          tmp1 = (uint32_t)(hi2c->Instance->CR2 & I2C_CR2_STOP);
 80030be:	6858      	ldr	r0, [r3, #4]
          tmp2 = hi2c->Mode;
 80030c0:	5caa      	ldrb	r2, [r5, r2]
          if ((__HAL_I2C_GET_FLAG(hi2c, I2C_FLAG_BUSY) != RESET) && \
 80030c2:	6999      	ldr	r1, [r3, #24]
          tmp2 = hi2c->Mode;
 80030c4:	b2d2      	uxtb	r2, r2
 80030c6:	4694      	mov	ip, r2
          if ((__HAL_I2C_GET_FLAG(hi2c, I2C_FLAG_BUSY) != RESET) && \
 80030c8:	2280      	movs	r2, #128	@ 0x80
 80030ca:	0212      	lsls	r2, r2, #8
 80030cc:	4211      	tst	r1, r2
 80030ce:	d00d      	beq.n	80030ec <I2C_WaitOnFlagUntilTimeout+0x1ac>
          tmp1 = (uint32_t)(hi2c->Instance->CR2 & I2C_CR2_STOP);
 80030d0:	2180      	movs	r1, #128	@ 0x80
 80030d2:	01c9      	lsls	r1, r1, #7
          if ((__HAL_I2C_GET_FLAG(hi2c, I2C_FLAG_BUSY) != RESET) && \
 80030d4:	4208      	tst	r0, r1
 80030d6:	d109      	bne.n	80030ec <I2C_WaitOnFlagUntilTimeout+0x1ac>
              (tmp1 != I2C_CR2_STOP) && \
 80030d8:	4662      	mov	r2, ip
 80030da:	2a20      	cmp	r2, #32
 80030dc:	d006      	beq.n	80030ec <I2C_WaitOnFlagUntilTimeout+0x1ac>
            hi2c->Instance->CR2 |= I2C_CR2_STOP;
 80030de:	685a      	ldr	r2, [r3, #4]
 80030e0:	4311      	orrs	r1, r2
 80030e2:	6059      	str	r1, [r3, #4]
            tickstart = HAL_GetTick();
 80030e4:	f7ff f9b8 	bl	8002458 <HAL_GetTick>
 80030e8:	0006      	movs	r6, r0
          while (__HAL_I2C_GET_FLAG(hi2c, I2C_FLAG_STOPF) == RESET)
 80030ea:	682b      	ldr	r3, [r5, #0]
 80030ec:	4641      	mov	r1, r8
 80030ee:	699a      	ldr	r2, [r3, #24]
 80030f0:	4211      	tst	r1, r2
 80030f2:	d1d4      	bne.n	800309e <I2C_WaitOnFlagUntilTimeout+0x15e>
            if ((HAL_GetTick() - tickstart) > I2C_TIMEOUT_STOPF)
 80030f4:	f7ff f9b0 	bl	8002458 <HAL_GetTick>
    while ((__HAL_I2C_GET_FLAG(hi2c, I2C_FLAG_STOPF) == RESET) && (status == HAL_OK))
 80030f8:	682b      	ldr	r3, [r5, #0]
            if ((HAL_GetTick() - tickstart) > I2C_TIMEOUT_STOPF)
 80030fa:	1b80      	subs	r0, r0, r6
 80030fc:	2819      	cmp	r0, #25
 80030fe:	d9f5      	bls.n	80030ec <I2C_WaitOnFlagUntilTimeout+0x1ac>
              error_code |= HAL_I2C_ERROR_TIMEOUT;
 8003100:	2220      	movs	r2, #32
    while ((__HAL_I2C_GET_FLAG(hi2c, I2C_FLAG_STOPF) == RESET) && (status == HAL_OK))
 8003102:	4641      	mov	r1, r8
              error_code |= HAL_I2C_ERROR_TIMEOUT;
 8003104:	4692      	mov	sl, r2
              status = HAL_ERROR;
 8003106:	3a1f      	subs	r2, #31
 8003108:	9200      	str	r2, [sp, #0]
    while ((__HAL_I2C_GET_FLAG(hi2c, I2C_FLAG_STOPF) == RESET) && (status == HAL_OK))
 800310a:	699a      	ldr	r2, [r3, #24]
 800310c:	4211      	tst	r1, r2
 800310e:	d0ca      	beq.n	80030a6 <I2C_WaitOnFlagUntilTimeout+0x166>
    if (status == HAL_OK)
 8003110:	9a00      	ldr	r2, [sp, #0]
 8003112:	4656      	mov	r6, sl
 8003114:	9901      	ldr	r1, [sp, #4]
 8003116:	46aa      	mov	sl, r5
 8003118:	465d      	mov	r5, fp
 800311a:	2a00      	cmp	r2, #0
 800311c:	d100      	bne.n	8003120 <I2C_WaitOnFlagUntilTimeout+0x1e0>
 800311e:	e739      	b.n	8002f94 <I2C_WaitOnFlagUntilTimeout+0x54>
 8003120:	e73a      	b.n	8002f98 <I2C_WaitOnFlagUntilTimeout+0x58>
 8003122:	4656      	mov	r6, sl
 8003124:	9901      	ldr	r1, [sp, #4]
 8003126:	46aa      	mov	sl, r5
 8003128:	465d      	mov	r5, fp
 800312a:	e735      	b.n	8002f98 <I2C_WaitOnFlagUntilTimeout+0x58>
 800312c:	fe00e800 	.word	0xfe00e800

08003130 <I2C_WaitOnSTOPFlagUntilTimeout>:
{
 8003130:	b5f0      	push	{r4, r5, r6, r7, lr}
 8003132:	46de      	mov	lr, fp
 8003134:	4657      	mov	r7, sl
 8003136:	464e      	mov	r6, r9
 8003138:	4645      	mov	r5, r8
 800313a:	b5e0      	push	{r5, r6, r7, lr}
 800313c:	000d      	movs	r5, r1
    error_code |= HAL_I2C_ERROR_AF;
 800313e:	2104      	movs	r1, #4
  while (__HAL_I2C_GET_FLAG(hi2c, I2C_FLAG_STOPF) == RESET)
 8003140:	6803      	ldr	r3, [r0, #0]
{
 8003142:	4692      	mov	sl, r2
  while (__HAL_I2C_GET_FLAG(hi2c, I2C_FLAG_STOPF) == RESET)
 8003144:	699a      	ldr	r2, [r3, #24]
{
 8003146:	0004      	movs	r4, r0
  if (HAL_IS_BIT_SET(itflag, I2C_FLAG_AF))
 8003148:	2610      	movs	r6, #16
    error_code |= HAL_I2C_ERROR_AF;
 800314a:	468b      	mov	fp, r1
{
 800314c:	b083      	sub	sp, #12
  while (__HAL_I2C_GET_FLAG(hi2c, I2C_FLAG_STOPF) == RESET)
 800314e:	0692      	lsls	r2, r2, #26
 8003150:	d464      	bmi.n	800321c <I2C_WaitOnSTOPFlagUntilTimeout+0xec>
  if (HAL_IS_BIT_SET(itflag, I2C_FLAG_AF))
 8003152:	0032      	movs	r2, r6
  uint32_t itflag   = hi2c->Instance->ISR;
 8003154:	6999      	ldr	r1, [r3, #24]
  HAL_StatusTypeDef status = HAL_OK;
 8003156:	2700      	movs	r7, #0
  if (HAL_IS_BIT_SET(itflag, I2C_FLAG_AF))
 8003158:	400a      	ands	r2, r1
 800315a:	420e      	tst	r6, r1
 800315c:	d00c      	beq.n	8003178 <I2C_WaitOnSTOPFlagUntilTimeout+0x48>
    __HAL_I2C_CLEAR_FLAG(hi2c, I2C_FLAG_AF);
 800315e:	61de      	str	r6, [r3, #28]
    while ((__HAL_I2C_GET_FLAG(hi2c, I2C_FLAG_STOPF) == RESET) && (status == HAL_OK))
 8003160:	1c6a      	adds	r2, r5, #1
 8003162:	d165      	bne.n	8003230 <I2C_WaitOnSTOPFlagUntilTimeout+0x100>
 8003164:	2120      	movs	r1, #32
 8003166:	699a      	ldr	r2, [r3, #24]
 8003168:	4211      	tst	r1, r2
 800316a:	d0fc      	beq.n	8003166 <I2C_WaitOnSTOPFlagUntilTimeout+0x36>
  uint32_t error_code = 0;
 800316c:	2200      	movs	r2, #0
      __HAL_I2C_CLEAR_FLAG(hi2c, I2C_FLAG_STOPF);
 800316e:	2120      	movs	r1, #32
 8003170:	61d9      	str	r1, [r3, #28]
    error_code |= HAL_I2C_ERROR_AF;
 8003172:	4659      	mov	r1, fp
    status = HAL_ERROR;
 8003174:	2701      	movs	r7, #1
    error_code |= HAL_I2C_ERROR_AF;
 8003176:	430a      	orrs	r2, r1
  if (HAL_IS_BIT_SET(itflag, I2C_FLAG_BERR))
 8003178:	2080      	movs	r0, #128	@ 0x80
  itflag = hi2c->Instance->ISR;
 800317a:	6999      	ldr	r1, [r3, #24]
  if (HAL_IS_BIT_SET(itflag, I2C_FLAG_BERR))
 800317c:	0040      	lsls	r0, r0, #1
 800317e:	4201      	tst	r1, r0
 8003180:	d034      	beq.n	80031ec <I2C_WaitOnSTOPFlagUntilTimeout+0xbc>
    error_code |= HAL_I2C_ERROR_BERR;
 8003182:	2501      	movs	r5, #1
    __HAL_I2C_CLEAR_FLAG(hi2c, I2C_FLAG_BERR);
 8003184:	61d8      	str	r0, [r3, #28]
    error_code |= HAL_I2C_ERROR_BERR;
 8003186:	432a      	orrs	r2, r5
  if (HAL_IS_BIT_SET(itflag, I2C_FLAG_OVR))
 8003188:	0548      	lsls	r0, r1, #21
 800318a:	d504      	bpl.n	8003196 <I2C_WaitOnSTOPFlagUntilTimeout+0x66>
    error_code |= HAL_I2C_ERROR_OVR;
 800318c:	2008      	movs	r0, #8
 800318e:	4302      	orrs	r2, r0
    __HAL_I2C_CLEAR_FLAG(hi2c, I2C_FLAG_OVR);
 8003190:	2080      	movs	r0, #128	@ 0x80
 8003192:	00c0      	lsls	r0, r0, #3
 8003194:	61d8      	str	r0, [r3, #28]
  if (HAL_IS_BIT_SET(itflag, I2C_FLAG_ARLO))
 8003196:	0589      	lsls	r1, r1, #22
 8003198:	d504      	bpl.n	80031a4 <I2C_WaitOnSTOPFlagUntilTimeout+0x74>
    error_code |= HAL_I2C_ERROR_ARLO;
 800319a:	2102      	movs	r1, #2
 800319c:	430a      	orrs	r2, r1
    __HAL_I2C_CLEAR_FLAG(hi2c, I2C_FLAG_ARLO);
 800319e:	31ff      	adds	r1, #255	@ 0xff
 80031a0:	31ff      	adds	r1, #255	@ 0xff
 80031a2:	61d9      	str	r1, [r3, #28]
  if (__HAL_I2C_GET_FLAG(hi2c, I2C_FLAG_TXIS) != RESET)
 80031a4:	6999      	ldr	r1, [r3, #24]
 80031a6:	0789      	lsls	r1, r1, #30
 80031a8:	d501      	bpl.n	80031ae <I2C_WaitOnSTOPFlagUntilTimeout+0x7e>
    hi2c->Instance->TXDR = 0x00U;
 80031aa:	2100      	movs	r1, #0
 80031ac:	6299      	str	r1, [r3, #40]	@ 0x28
  if (__HAL_I2C_GET_FLAG(hi2c, I2C_FLAG_TXE) == RESET)
 80031ae:	2101      	movs	r1, #1
 80031b0:	6998      	ldr	r0, [r3, #24]
 80031b2:	4201      	tst	r1, r0
 80031b4:	d102      	bne.n	80031bc <I2C_WaitOnSTOPFlagUntilTimeout+0x8c>
    __HAL_I2C_CLEAR_FLAG(hi2c, I2C_FLAG_TXE);
 80031b6:	6998      	ldr	r0, [r3, #24]
 80031b8:	4301      	orrs	r1, r0
 80031ba:	6199      	str	r1, [r3, #24]
    I2C_RESET_CR2(hi2c);
 80031bc:	6859      	ldr	r1, [r3, #4]
 80031be:	4844      	ldr	r0, [pc, #272]	@ (80032d0 <I2C_WaitOnSTOPFlagUntilTimeout+0x1a0>)
 80031c0:	4001      	ands	r1, r0
 80031c2:	6059      	str	r1, [r3, #4]
    hi2c->ErrorCode |= error_code;
 80031c4:	6c63      	ldr	r3, [r4, #68]	@ 0x44
 80031c6:	4313      	orrs	r3, r2
 80031c8:	6463      	str	r3, [r4, #68]	@ 0x44
    hi2c->State = HAL_I2C_STATE_READY;
 80031ca:	2220      	movs	r2, #32
 80031cc:	2341      	movs	r3, #65	@ 0x41
 80031ce:	54e2      	strb	r2, [r4, r3]
    hi2c->Mode = HAL_I2C_MODE_NONE;
 80031d0:	2200      	movs	r2, #0
 80031d2:	3301      	adds	r3, #1
 80031d4:	54e2      	strb	r2, [r4, r3]
        __HAL_UNLOCK(hi2c);
 80031d6:	2340      	movs	r3, #64	@ 0x40
 80031d8:	2200      	movs	r2, #0
      return HAL_ERROR;
 80031da:	2001      	movs	r0, #1
        __HAL_UNLOCK(hi2c);
 80031dc:	54e2      	strb	r2, [r4, r3]
}
 80031de:	b003      	add	sp, #12
 80031e0:	bcf0      	pop	{r4, r5, r6, r7}
 80031e2:	46bb      	mov	fp, r7
 80031e4:	46b2      	mov	sl, r6
 80031e6:	46a9      	mov	r9, r5
 80031e8:	46a0      	mov	r8, r4
 80031ea:	bdf0      	pop	{r4, r5, r6, r7, pc}
  if (HAL_IS_BIT_SET(itflag, I2C_FLAG_OVR))
 80031ec:	0548      	lsls	r0, r1, #21
 80031ee:	d4cd      	bmi.n	800318c <I2C_WaitOnSTOPFlagUntilTimeout+0x5c>
  if (HAL_IS_BIT_SET(itflag, I2C_FLAG_ARLO))
 80031f0:	0589      	lsls	r1, r1, #22
 80031f2:	d4d2      	bmi.n	800319a <I2C_WaitOnSTOPFlagUntilTimeout+0x6a>
  if (status != HAL_OK)
 80031f4:	2f00      	cmp	r7, #0
 80031f6:	d1d5      	bne.n	80031a4 <I2C_WaitOnSTOPFlagUntilTimeout+0x74>
    if (((HAL_GetTick() - Tickstart) > Timeout) || (Timeout == 0U))
 80031f8:	f7ff f92e 	bl	8002458 <HAL_GetTick>
 80031fc:	4653      	mov	r3, sl
 80031fe:	1ac0      	subs	r0, r0, r3
      if ((__HAL_I2C_GET_FLAG(hi2c, I2C_FLAG_STOPF) == RESET))
 8003200:	6823      	ldr	r3, [r4, #0]
    if (((HAL_GetTick() - Tickstart) > Timeout) || (Timeout == 0U))
 8003202:	42a8      	cmp	r0, r5
 8003204:	d801      	bhi.n	800320a <I2C_WaitOnSTOPFlagUntilTimeout+0xda>
 8003206:	2d00      	cmp	r5, #0
 8003208:	d105      	bne.n	8003216 <I2C_WaitOnSTOPFlagUntilTimeout+0xe6>
      if ((__HAL_I2C_GET_FLAG(hi2c, I2C_FLAG_STOPF) == RESET))
 800320a:	2220      	movs	r2, #32
 800320c:	0010      	movs	r0, r2
 800320e:	6999      	ldr	r1, [r3, #24]
 8003210:	4008      	ands	r0, r1
 8003212:	420a      	tst	r2, r1
 8003214:	d004      	beq.n	8003220 <I2C_WaitOnSTOPFlagUntilTimeout+0xf0>
  while (__HAL_I2C_GET_FLAG(hi2c, I2C_FLAG_STOPF) == RESET)
 8003216:	699a      	ldr	r2, [r3, #24]
 8003218:	0692      	lsls	r2, r2, #26
 800321a:	d59a      	bpl.n	8003152 <I2C_WaitOnSTOPFlagUntilTimeout+0x22>
  return HAL_OK;
 800321c:	2000      	movs	r0, #0
 800321e:	e7de      	b.n	80031de <I2C_WaitOnSTOPFlagUntilTimeout+0xae>
        hi2c->ErrorCode |= HAL_I2C_ERROR_TIMEOUT;
 8003220:	6c63      	ldr	r3, [r4, #68]	@ 0x44
 8003222:	4313      	orrs	r3, r2
 8003224:	6463      	str	r3, [r4, #68]	@ 0x44
        hi2c->State = HAL_I2C_STATE_READY;
 8003226:	2341      	movs	r3, #65	@ 0x41
 8003228:	54e2      	strb	r2, [r4, r3]
        hi2c->Mode = HAL_I2C_MODE_NONE;
 800322a:	3301      	adds	r3, #1
 800322c:	54e0      	strb	r0, [r4, r3]
        return HAL_ERROR;
 800322e:	e7d2      	b.n	80031d6 <I2C_WaitOnSTOPFlagUntilTimeout+0xa6>
          if ((__HAL_I2C_GET_FLAG(hi2c, I2C_FLAG_BUSY) != RESET) && \
 8003230:	0028      	movs	r0, r5
  uint32_t error_code = 0;
 8003232:	2200      	movs	r2, #0
  HAL_StatusTypeDef status = HAL_OK;
 8003234:	2100      	movs	r1, #0
          if ((__HAL_I2C_GET_FLAG(hi2c, I2C_FLAG_BUSY) != RESET) && \
 8003236:	4655      	mov	r5, sl
  HAL_StatusTypeDef status = HAL_OK;
 8003238:	4689      	mov	r9, r1
    while ((__HAL_I2C_GET_FLAG(hi2c, I2C_FLAG_STOPF) == RESET) && (status == HAL_OK))
 800323a:	2720      	movs	r7, #32
          if ((__HAL_I2C_GET_FLAG(hi2c, I2C_FLAG_BUSY) != RESET) && \
 800323c:	4692      	mov	sl, r2
 800323e:	4680      	mov	r8, r0
 8003240:	9501      	str	r5, [sp, #4]
    while ((__HAL_I2C_GET_FLAG(hi2c, I2C_FLAG_STOPF) == RESET) && (status == HAL_OK))
 8003242:	699a      	ldr	r2, [r3, #24]
 8003244:	4217      	tst	r7, r2
 8003246:	d10e      	bne.n	8003266 <I2C_WaitOnSTOPFlagUntilTimeout+0x136>
 8003248:	464a      	mov	r2, r9
 800324a:	2a00      	cmp	r2, #0
 800324c:	d13b      	bne.n	80032c6 <I2C_WaitOnSTOPFlagUntilTimeout+0x196>
        if (((HAL_GetTick() - tickstart) > Timeout) || (Timeout == 0U))
 800324e:	f7ff f903 	bl	8002458 <HAL_GetTick>
 8003252:	1b40      	subs	r0, r0, r5
 8003254:	4580      	cmp	r8, r0
 8003256:	d30f      	bcc.n	8003278 <I2C_WaitOnSTOPFlagUntilTimeout+0x148>
 8003258:	4643      	mov	r3, r8
 800325a:	2b00      	cmp	r3, #0
 800325c:	d00c      	beq.n	8003278 <I2C_WaitOnSTOPFlagUntilTimeout+0x148>
          tmp1 = (uint32_t)(hi2c->Instance->CR2 & I2C_CR2_STOP);
 800325e:	6823      	ldr	r3, [r4, #0]
    while ((__HAL_I2C_GET_FLAG(hi2c, I2C_FLAG_STOPF) == RESET) && (status == HAL_OK))
 8003260:	699a      	ldr	r2, [r3, #24]
 8003262:	4217      	tst	r7, r2
 8003264:	d0f0      	beq.n	8003248 <I2C_WaitOnSTOPFlagUntilTimeout+0x118>
    if (status == HAL_OK)
 8003266:	9901      	ldr	r1, [sp, #4]
 8003268:	4652      	mov	r2, sl
 800326a:	468a      	mov	sl, r1
 800326c:	4649      	mov	r1, r9
 800326e:	4645      	mov	r5, r8
 8003270:	2900      	cmp	r1, #0
 8003272:	d100      	bne.n	8003276 <I2C_WaitOnSTOPFlagUntilTimeout+0x146>
 8003274:	e77b      	b.n	800316e <I2C_WaitOnSTOPFlagUntilTimeout+0x3e>
 8003276:	e77c      	b.n	8003172 <I2C_WaitOnSTOPFlagUntilTimeout+0x42>
          tmp2 = hi2c->Mode;
 8003278:	2242      	movs	r2, #66	@ 0x42
          tmp1 = (uint32_t)(hi2c->Instance->CR2 & I2C_CR2_STOP);
 800327a:	6823      	ldr	r3, [r4, #0]
 800327c:	6858      	ldr	r0, [r3, #4]
          tmp2 = hi2c->Mode;
 800327e:	5ca2      	ldrb	r2, [r4, r2]
          if ((__HAL_I2C_GET_FLAG(hi2c, I2C_FLAG_BUSY) != RESET) && \
 8003280:	6999      	ldr	r1, [r3, #24]
          tmp2 = hi2c->Mode;
 8003282:	b2d2      	uxtb	r2, r2
 8003284:	4694      	mov	ip, r2
          if ((__HAL_I2C_GET_FLAG(hi2c, I2C_FLAG_BUSY) != RESET) && \
 8003286:	2280      	movs	r2, #128	@ 0x80
 8003288:	0212      	lsls	r2, r2, #8
 800328a:	4211      	tst	r1, r2
 800328c:	d00d      	beq.n	80032aa <I2C_WaitOnSTOPFlagUntilTimeout+0x17a>
          tmp1 = (uint32_t)(hi2c->Instance->CR2 & I2C_CR2_STOP);
 800328e:	2180      	movs	r1, #128	@ 0x80
 8003290:	01c9      	lsls	r1, r1, #7
          if ((__HAL_I2C_GET_FLAG(hi2c, I2C_FLAG_BUSY) != RESET) && \
 8003292:	4208      	tst	r0, r1
 8003294:	d109      	bne.n	80032aa <I2C_WaitOnSTOPFlagUntilTimeout+0x17a>
              (tmp1 != I2C_CR2_STOP) && \
 8003296:	4662      	mov	r2, ip
 8003298:	2a20      	cmp	r2, #32
 800329a:	d006      	beq.n	80032aa <I2C_WaitOnSTOPFlagUntilTimeout+0x17a>
            hi2c->Instance->CR2 |= I2C_CR2_STOP;
 800329c:	685a      	ldr	r2, [r3, #4]
 800329e:	4311      	orrs	r1, r2
 80032a0:	6059      	str	r1, [r3, #4]
            tickstart = HAL_GetTick();
 80032a2:	f7ff f8d9 	bl	8002458 <HAL_GetTick>
 80032a6:	0005      	movs	r5, r0
          while (__HAL_I2C_GET_FLAG(hi2c, I2C_FLAG_STOPF) == RESET)
 80032a8:	6823      	ldr	r3, [r4, #0]
 80032aa:	699a      	ldr	r2, [r3, #24]
 80032ac:	4217      	tst	r7, r2
 80032ae:	d1c8      	bne.n	8003242 <I2C_WaitOnSTOPFlagUntilTimeout+0x112>
            if ((HAL_GetTick() - tickstart) > I2C_TIMEOUT_STOPF)
 80032b0:	f7ff f8d2 	bl	8002458 <HAL_GetTick>
    while ((__HAL_I2C_GET_FLAG(hi2c, I2C_FLAG_STOPF) == RESET) && (status == HAL_OK))
 80032b4:	6823      	ldr	r3, [r4, #0]
            if ((HAL_GetTick() - tickstart) > I2C_TIMEOUT_STOPF)
 80032b6:	1b40      	subs	r0, r0, r5
 80032b8:	2819      	cmp	r0, #25
 80032ba:	d9f6      	bls.n	80032aa <I2C_WaitOnSTOPFlagUntilTimeout+0x17a>
              error_code |= HAL_I2C_ERROR_TIMEOUT;
 80032bc:	2220      	movs	r2, #32
 80032be:	4692      	mov	sl, r2
              status = HAL_ERROR;
 80032c0:	3a1f      	subs	r2, #31
 80032c2:	4691      	mov	r9, r2
 80032c4:	e7bd      	b.n	8003242 <I2C_WaitOnSTOPFlagUntilTimeout+0x112>
 80032c6:	9901      	ldr	r1, [sp, #4]
 80032c8:	4652      	mov	r2, sl
 80032ca:	4645      	mov	r5, r8
 80032cc:	468a      	mov	sl, r1
 80032ce:	e750      	b.n	8003172 <I2C_WaitOnSTOPFlagUntilTimeout+0x42>
 80032d0:	fe00e800 	.word	0xfe00e800

080032d4 <HAL_I2C_Init>:
{
 80032d4:	b510      	push	{r4, lr}
 80032d6:	1e04      	subs	r4, r0, #0
  if (hi2c == NULL)
 80032d8:	d052      	beq.n	8003380 <HAL_I2C_Init+0xac>
  if (hi2c->State == HAL_I2C_STATE_RESET)
 80032da:	2341      	movs	r3, #65	@ 0x41
 80032dc:	5cc3      	ldrb	r3, [r0, r3]
 80032de:	b2da      	uxtb	r2, r3
 80032e0:	2b00      	cmp	r3, #0
 80032e2:	d048      	beq.n	8003376 <HAL_I2C_Init+0xa2>
  hi2c->State = HAL_I2C_STATE_BUSY;
 80032e4:	2341      	movs	r3, #65	@ 0x41
 80032e6:	2224      	movs	r2, #36	@ 0x24
  __HAL_I2C_DISABLE(hi2c);
 80032e8:	2101      	movs	r1, #1
  hi2c->State = HAL_I2C_STATE_BUSY;
 80032ea:	54e2      	strb	r2, [r4, r3]
  __HAL_I2C_DISABLE(hi2c);
 80032ec:	6823      	ldr	r3, [r4, #0]
    hi2c->Instance->OAR1 = (I2C_OAR1_OA1EN | hi2c->Init.OwnAddress1);
 80032ee:	68a0      	ldr	r0, [r4, #8]
  __HAL_I2C_DISABLE(hi2c);
 80032f0:	681a      	ldr	r2, [r3, #0]
 80032f2:	438a      	bics	r2, r1
 80032f4:	601a      	str	r2, [r3, #0]
  hi2c->Instance->TIMINGR = hi2c->Init.Timing & TIMING_CLEAR_MASK;
 80032f6:	4923      	ldr	r1, [pc, #140]	@ (8003384 <HAL_I2C_Init+0xb0>)
 80032f8:	6862      	ldr	r2, [r4, #4]
 80032fa:	400a      	ands	r2, r1
 80032fc:	611a      	str	r2, [r3, #16]
  hi2c->Instance->OAR1 &= ~I2C_OAR1_OA1EN;
 80032fe:	689a      	ldr	r2, [r3, #8]
 8003300:	4921      	ldr	r1, [pc, #132]	@ (8003388 <HAL_I2C_Init+0xb4>)
 8003302:	400a      	ands	r2, r1
 8003304:	609a      	str	r2, [r3, #8]
  if (hi2c->Init.AddressingMode == I2C_ADDRESSINGMODE_7BIT)
 8003306:	68e2      	ldr	r2, [r4, #12]
 8003308:	2a01      	cmp	r2, #1
 800330a:	d00b      	beq.n	8003324 <HAL_I2C_Init+0x50>
    hi2c->Instance->OAR1 = (I2C_OAR1_OA1EN | I2C_OAR1_OA1MODE | hi2c->Init.OwnAddress1);
 800330c:	2184      	movs	r1, #132	@ 0x84
 800330e:	0209      	lsls	r1, r1, #8
 8003310:	4301      	orrs	r1, r0
 8003312:	6099      	str	r1, [r3, #8]
  if (hi2c->Init.AddressingMode == I2C_ADDRESSINGMODE_10BIT)
 8003314:	2a02      	cmp	r2, #2
 8003316:	d109      	bne.n	800332c <HAL_I2C_Init+0x58>
    SET_BIT(hi2c->Instance->CR2, I2C_CR2_ADD10);
 8003318:	2280      	movs	r2, #128	@ 0x80
 800331a:	6859      	ldr	r1, [r3, #4]
 800331c:	0112      	lsls	r2, r2, #4
 800331e:	430a      	orrs	r2, r1
 8003320:	605a      	str	r2, [r3, #4]
 8003322:	e007      	b.n	8003334 <HAL_I2C_Init+0x60>
    hi2c->Instance->OAR1 = (I2C_OAR1_OA1EN | hi2c->Init.OwnAddress1);
 8003324:	2280      	movs	r2, #128	@ 0x80
 8003326:	0212      	lsls	r2, r2, #8
 8003328:	4302      	orrs	r2, r0
 800332a:	609a      	str	r2, [r3, #8]
    CLEAR_BIT(hi2c->Instance->CR2, I2C_CR2_ADD10);
 800332c:	685a      	ldr	r2, [r3, #4]
 800332e:	4917      	ldr	r1, [pc, #92]	@ (800338c <HAL_I2C_Init+0xb8>)
 8003330:	400a      	ands	r2, r1
 8003332:	605a      	str	r2, [r3, #4]
  hi2c->Instance->CR2 |= (I2C_CR2_AUTOEND | I2C_CR2_NACK);
 8003334:	6859      	ldr	r1, [r3, #4]
 8003336:	4a16      	ldr	r2, [pc, #88]	@ (8003390 <HAL_I2C_Init+0xbc>)
  return HAL_OK;
 8003338:	2000      	movs	r0, #0
  hi2c->Instance->CR2 |= (I2C_CR2_AUTOEND | I2C_CR2_NACK);
 800333a:	430a      	orrs	r2, r1
 800333c:	605a      	str	r2, [r3, #4]
  hi2c->Instance->OAR2 &= ~I2C_DUALADDRESS_ENABLE;
 800333e:	68da      	ldr	r2, [r3, #12]
 8003340:	4911      	ldr	r1, [pc, #68]	@ (8003388 <HAL_I2C_Init+0xb4>)
 8003342:	400a      	ands	r2, r1
 8003344:	60da      	str	r2, [r3, #12]
  hi2c->Instance->OAR2 = (hi2c->Init.DualAddressMode | hi2c->Init.OwnAddress2 | \
 8003346:	6961      	ldr	r1, [r4, #20]
 8003348:	6922      	ldr	r2, [r4, #16]
 800334a:	430a      	orrs	r2, r1
                          (hi2c->Init.OwnAddress2Masks << 8));
 800334c:	69a1      	ldr	r1, [r4, #24]
 800334e:	0209      	lsls	r1, r1, #8
  hi2c->Instance->OAR2 = (hi2c->Init.DualAddressMode | hi2c->Init.OwnAddress2 | \
 8003350:	430a      	orrs	r2, r1
 8003352:	60da      	str	r2, [r3, #12]
  hi2c->Instance->CR1 = (hi2c->Init.GeneralCallMode | hi2c->Init.NoStretchMode);
 8003354:	6a21      	ldr	r1, [r4, #32]
 8003356:	69e2      	ldr	r2, [r4, #28]
 8003358:	430a      	orrs	r2, r1
  __HAL_I2C_ENABLE(hi2c);
 800335a:	2101      	movs	r1, #1
  hi2c->Instance->CR1 = (hi2c->Init.GeneralCallMode | hi2c->Init.NoStretchMode);
 800335c:	601a      	str	r2, [r3, #0]
  __HAL_I2C_ENABLE(hi2c);
 800335e:	681a      	ldr	r2, [r3, #0]
 8003360:	430a      	orrs	r2, r1
 8003362:	601a      	str	r2, [r3, #0]
  hi2c->ErrorCode = HAL_I2C_ERROR_NONE;
 8003364:	2300      	movs	r3, #0
  hi2c->State = HAL_I2C_STATE_READY;
 8003366:	2241      	movs	r2, #65	@ 0x41
 8003368:	311f      	adds	r1, #31
  hi2c->ErrorCode = HAL_I2C_ERROR_NONE;
 800336a:	6463      	str	r3, [r4, #68]	@ 0x44
  hi2c->State = HAL_I2C_STATE_READY;
 800336c:	54a1      	strb	r1, [r4, r2]
  hi2c->Mode = HAL_I2C_MODE_NONE;
 800336e:	3201      	adds	r2, #1
  hi2c->PreviousState = I2C_STATE_NONE;
 8003370:	6323      	str	r3, [r4, #48]	@ 0x30
  hi2c->Mode = HAL_I2C_MODE_NONE;
 8003372:	54a3      	strb	r3, [r4, r2]
}
 8003374:	bd10      	pop	{r4, pc}
    hi2c->Lock = HAL_UNLOCKED;
 8003376:	3340      	adds	r3, #64	@ 0x40
 8003378:	54c2      	strb	r2, [r0, r3]
    HAL_I2C_MspInit(hi2c);
 800337a:	f7fe feab 	bl	80020d4 <HAL_I2C_MspInit>
 800337e:	e7b1      	b.n	80032e4 <HAL_I2C_Init+0x10>
    return HAL_ERROR;
 8003380:	2001      	movs	r0, #1
 8003382:	e7f7      	b.n	8003374 <HAL_I2C_Init+0xa0>
 8003384:	f0ffffff 	.word	0xf0ffffff
 8003388:	ffff7fff 	.word	0xffff7fff
 800338c:	fffff7ff 	.word	0xfffff7ff
 8003390:	02008000 	.word	0x02008000

08003394 <HAL_I2C_Mem_Write>:
{
 8003394:	b5f0      	push	{r4, r5, r6, r7, lr}
 8003396:	4657      	mov	r7, sl
 8003398:	464e      	mov	r6, r9
 800339a:	46de      	mov	lr, fp
 800339c:	4645      	mov	r5, r8
 800339e:	b5e0      	push	{r5, r6, r7, lr}
 80033a0:	b083      	sub	sp, #12
 80033a2:	001f      	movs	r7, r3
 80033a4:	ab0c      	add	r3, sp, #48	@ 0x30
 80033a6:	0016      	movs	r6, r2
 80033a8:	cb04      	ldmia	r3!, {r2}
 80033aa:	0004      	movs	r4, r0
 80033ac:	881b      	ldrh	r3, [r3, #0]
 80033ae:	000d      	movs	r5, r1
 80033b0:	469b      	mov	fp, r3
  if (hi2c->State == HAL_I2C_STATE_READY)
 80033b2:	2341      	movs	r3, #65	@ 0x41
 80033b4:	4699      	mov	r9, r3
 80033b6:	5cc3      	ldrb	r3, [r0, r3]
{
 80033b8:	4692      	mov	sl, r2
  if (hi2c->State == HAL_I2C_STATE_READY)
 80033ba:	2b20      	cmp	r3, #32
 80033bc:	d11f      	bne.n	80033fe <HAL_I2C_Mem_Write+0x6a>
    if ((pData == NULL) || (Size == 0U))
 80033be:	2a00      	cmp	r2, #0
 80033c0:	d019      	beq.n	80033f6 <HAL_I2C_Mem_Write+0x62>
 80033c2:	465b      	mov	r3, fp
 80033c4:	2b00      	cmp	r3, #0
 80033c6:	d016      	beq.n	80033f6 <HAL_I2C_Mem_Write+0x62>
    __HAL_LOCK(hi2c);
 80033c8:	2240      	movs	r2, #64	@ 0x40
 80033ca:	5c83      	ldrb	r3, [r0, r2]
 80033cc:	2b01      	cmp	r3, #1
 80033ce:	d016      	beq.n	80033fe <HAL_I2C_Mem_Write+0x6a>
 80033d0:	2301      	movs	r3, #1
 80033d2:	5483      	strb	r3, [r0, r2]
    tickstart = HAL_GetTick();
 80033d4:	f7ff f840 	bl	8002458 <HAL_GetTick>
 80033d8:	4680      	mov	r8, r0
    if (I2C_WaitOnFlagUntilTimeout(hi2c, I2C_FLAG_BUSY, SET, I2C_TIMEOUT_BUSY, tickstart) != HAL_OK)
 80033da:	0001      	movs	r1, r0
 80033dc:	0020      	movs	r0, r4
 80033de:	f7ff fc09 	bl	8002bf4 <I2C_WaitOnFlagUntilTimeout.constprop.0>
 80033e2:	2800      	cmp	r0, #0
 80033e4:	d00d      	beq.n	8003402 <HAL_I2C_Mem_Write+0x6e>
      return  HAL_ERROR;
 80033e6:	2001      	movs	r0, #1
}
 80033e8:	b003      	add	sp, #12
 80033ea:	bcf0      	pop	{r4, r5, r6, r7}
 80033ec:	46bb      	mov	fp, r7
 80033ee:	46b2      	mov	sl, r6
 80033f0:	46a9      	mov	r9, r5
 80033f2:	46a0      	mov	r8, r4
 80033f4:	bdf0      	pop	{r4, r5, r6, r7, pc}
      hi2c->ErrorCode = HAL_I2C_ERROR_INVALID_PARAM;
 80033f6:	2380      	movs	r3, #128	@ 0x80
 80033f8:	009b      	lsls	r3, r3, #2
 80033fa:	6463      	str	r3, [r4, #68]	@ 0x44
      return  HAL_ERROR;
 80033fc:	e7f3      	b.n	80033e6 <HAL_I2C_Mem_Write+0x52>
    __HAL_LOCK(hi2c);
 80033fe:	2002      	movs	r0, #2
 8003400:	e7f2      	b.n	80033e8 <HAL_I2C_Mem_Write+0x54>
    hi2c->State     = HAL_I2C_STATE_BUSY_TX;
 8003402:	2321      	movs	r3, #33	@ 0x21
 8003404:	464a      	mov	r2, r9
 8003406:	54a3      	strb	r3, [r4, r2]
    hi2c->Mode      = HAL_I2C_MODE_MEM;
 8003408:	2240      	movs	r2, #64	@ 0x40
 800340a:	3321      	adds	r3, #33	@ 0x21
 800340c:	54e2      	strb	r2, [r4, r3]
    hi2c->pBuffPtr  = pData;
 800340e:	4653      	mov	r3, sl
 8003410:	6263      	str	r3, [r4, #36]	@ 0x24
    hi2c->XferCount = Size;
 8003412:	465b      	mov	r3, fp
  uint32_t tmp = ((uint32_t)(((uint32_t)DevAddress & I2C_CR2_SADD) | \
                             (((uint32_t)Size << I2C_CR2_NBYTES_Pos) & I2C_CR2_NBYTES) | \
                             (uint32_t)Mode | (uint32_t)Request) & (~0x80000000U));

  /* update CR2 register */
  MODIFY_REG(hi2c->Instance->CR2, \
 8003414:	6821      	ldr	r1, [r4, #0]
    hi2c->ErrorCode = HAL_I2C_ERROR_NONE;
 8003416:	6460      	str	r0, [r4, #68]	@ 0x44
    hi2c->XferCount = Size;
 8003418:	8563      	strh	r3, [r4, #42]	@ 0x2a
  MODIFY_REG(hi2c->Instance->CR2, \
 800341a:	684a      	ldr	r2, [r1, #4]
    hi2c->XferISR   = NULL;
 800341c:	6360      	str	r0, [r4, #52]	@ 0x34
  MODIFY_REG(hi2c->Instance->CR2, \
 800341e:	4854      	ldr	r0, [pc, #336]	@ (8003570 <HAL_I2C_Mem_Write+0x1dc>)
                             (((uint32_t)Size << I2C_CR2_NBYTES_Pos) & I2C_CR2_NBYTES) | \
 8003420:	b2fb      	uxtb	r3, r7
  MODIFY_REG(hi2c->Instance->CR2, \
 8003422:	4002      	ands	r2, r0
  uint32_t tmp = ((uint32_t)(((uint32_t)DevAddress & I2C_CR2_SADD) | \
 8003424:	05ad      	lsls	r5, r5, #22
                             (((uint32_t)Size << I2C_CR2_NBYTES_Pos) & I2C_CR2_NBYTES) | \
 8003426:	041b      	lsls	r3, r3, #16
  MODIFY_REG(hi2c->Instance->CR2, \
 8003428:	4313      	orrs	r3, r2
  uint32_t tmp = ((uint32_t)(((uint32_t)DevAddress & I2C_CR2_SADD) | \
 800342a:	0dad      	lsrs	r5, r5, #22
  MODIFY_REG(hi2c->Instance->CR2, \
 800342c:	4a51      	ldr	r2, [pc, #324]	@ (8003574 <HAL_I2C_Mem_Write+0x1e0>)
 800342e:	432b      	orrs	r3, r5
 8003430:	4313      	orrs	r3, r2
 8003432:	604b      	str	r3, [r1, #4]
  if (I2C_WaitOnTXISFlagUntilTimeout(hi2c, Timeout, Tickstart) != HAL_OK)
 8003434:	4642      	mov	r2, r8
 8003436:	0020      	movs	r0, r4
 8003438:	990e      	ldr	r1, [sp, #56]	@ 0x38
 800343a:	f7ff fc91 	bl	8002d60 <I2C_WaitOnTXISFlagUntilTimeout>
 800343e:	2800      	cmp	r0, #0
 8003440:	d157      	bne.n	80034f2 <HAL_I2C_Mem_Write+0x15e>
    hi2c->Instance->TXDR = I2C_MEM_ADD_LSB(MemAddress);
 8003442:	6823      	ldr	r3, [r4, #0]
  if (MemAddSize == I2C_MEMADD_SIZE_8BIT)
 8003444:	2f01      	cmp	r7, #1
 8003446:	d162      	bne.n	800350e <HAL_I2C_Mem_Write+0x17a>
    hi2c->Instance->TXDR = I2C_MEM_ADD_LSB(MemAddress);
 8003448:	b2f6      	uxtb	r6, r6
 800344a:	629e      	str	r6, [r3, #40]	@ 0x28
  if (I2C_WaitOnFlagUntilTimeout(hi2c, I2C_FLAG_TCR, RESET, Timeout, Tickstart) != HAL_OK)
 800344c:	4643      	mov	r3, r8
 800344e:	2200      	movs	r2, #0
 8003450:	9300      	str	r3, [sp, #0]
 8003452:	2180      	movs	r1, #128	@ 0x80
 8003454:	0020      	movs	r0, r4
 8003456:	9b0e      	ldr	r3, [sp, #56]	@ 0x38
 8003458:	f7ff fd72 	bl	8002f40 <I2C_WaitOnFlagUntilTimeout>
 800345c:	2800      	cmp	r0, #0
 800345e:	d148      	bne.n	80034f2 <HAL_I2C_Mem_Write+0x15e>
    if (hi2c->XferCount > MAX_NBYTE_SIZE)
 8003460:	8d63      	ldrh	r3, [r4, #42]	@ 0x2a
  MODIFY_REG(hi2c->Instance->CR2, \
 8003462:	6822      	ldr	r2, [r4, #0]
    if (hi2c->XferCount > MAX_NBYTE_SIZE)
 8003464:	2bff      	cmp	r3, #255	@ 0xff
 8003466:	d848      	bhi.n	80034fa <HAL_I2C_Mem_Write+0x166>
      hi2c->XferSize = hi2c->XferCount;
 8003468:	8d63      	ldrh	r3, [r4, #42]	@ 0x2a
  MODIFY_REG(hi2c->Instance->CR2, \
 800346a:	4843      	ldr	r0, [pc, #268]	@ (8003578 <HAL_I2C_Mem_Write+0x1e4>)
      hi2c->XferSize = hi2c->XferCount;
 800346c:	b29b      	uxth	r3, r3
  MODIFY_REG(hi2c->Instance->CR2, \
 800346e:	6851      	ldr	r1, [r2, #4]
      hi2c->XferSize = hi2c->XferCount;
 8003470:	8523      	strh	r3, [r4, #40]	@ 0x28
                             (((uint32_t)Size << I2C_CR2_NBYTES_Pos) & I2C_CR2_NBYTES) | \
 8003472:	b2db      	uxtb	r3, r3
 8003474:	041b      	lsls	r3, r3, #16
  MODIFY_REG(hi2c->Instance->CR2, \
 8003476:	4001      	ands	r1, r0
 8003478:	432b      	orrs	r3, r5
 800347a:	430b      	orrs	r3, r1
 800347c:	2180      	movs	r1, #128	@ 0x80
 800347e:	0489      	lsls	r1, r1, #18
 8003480:	430b      	orrs	r3, r1
 8003482:	6053      	str	r3, [r2, #4]
             ((I2C_CR2_SADD | I2C_CR2_NBYTES | I2C_CR2_RELOAD | I2C_CR2_AUTOEND | \
               (I2C_CR2_RD_WRN & (uint32_t)(Request >> (31U - I2C_CR2_RD_WRN_Pos))) | \
               I2C_CR2_START | I2C_CR2_STOP)), tmp);
}
 8003484:	e002      	b.n	800348c <HAL_I2C_Mem_Write+0xf8>
    } while (hi2c->XferCount > 0U);
 8003486:	8d63      	ldrh	r3, [r4, #42]	@ 0x2a
 8003488:	2b00      	cmp	r3, #0
 800348a:	d05a      	beq.n	8003542 <HAL_I2C_Mem_Write+0x1ae>
      if (I2C_WaitOnTXISFlagUntilTimeout(hi2c, Timeout, tickstart) != HAL_OK)
 800348c:	4642      	mov	r2, r8
 800348e:	0020      	movs	r0, r4
 8003490:	990e      	ldr	r1, [sp, #56]	@ 0x38
 8003492:	f7ff fc65 	bl	8002d60 <I2C_WaitOnTXISFlagUntilTimeout>
 8003496:	2800      	cmp	r0, #0
 8003498:	d1a5      	bne.n	80033e6 <HAL_I2C_Mem_Write+0x52>
      hi2c->Instance->TXDR = *hi2c->pBuffPtr;
 800349a:	6a63      	ldr	r3, [r4, #36]	@ 0x24
 800349c:	6822      	ldr	r2, [r4, #0]
 800349e:	7819      	ldrb	r1, [r3, #0]
      hi2c->pBuffPtr++;
 80034a0:	3301      	adds	r3, #1
      hi2c->Instance->TXDR = *hi2c->pBuffPtr;
 80034a2:	6291      	str	r1, [r2, #40]	@ 0x28
      hi2c->pBuffPtr++;
 80034a4:	6263      	str	r3, [r4, #36]	@ 0x24
      hi2c->XferCount--;
 80034a6:	8d63      	ldrh	r3, [r4, #42]	@ 0x2a
 80034a8:	3b01      	subs	r3, #1
 80034aa:	b29b      	uxth	r3, r3
 80034ac:	8563      	strh	r3, [r4, #42]	@ 0x2a
      hi2c->XferSize--;
 80034ae:	8d23      	ldrh	r3, [r4, #40]	@ 0x28
      if ((hi2c->XferCount != 0U) && (hi2c->XferSize == 0U))
 80034b0:	8d62      	ldrh	r2, [r4, #42]	@ 0x2a
      hi2c->XferSize--;
 80034b2:	3b01      	subs	r3, #1
 80034b4:	b29b      	uxth	r3, r3
 80034b6:	8523      	strh	r3, [r4, #40]	@ 0x28
      if ((hi2c->XferCount != 0U) && (hi2c->XferSize == 0U))
 80034b8:	2a00      	cmp	r2, #0
 80034ba:	d0e4      	beq.n	8003486 <HAL_I2C_Mem_Write+0xf2>
 80034bc:	2b00      	cmp	r3, #0
 80034be:	d1e2      	bne.n	8003486 <HAL_I2C_Mem_Write+0xf2>
        if (I2C_WaitOnFlagUntilTimeout(hi2c, I2C_FLAG_TCR, RESET, Timeout, tickstart) != HAL_OK)
 80034c0:	4643      	mov	r3, r8
 80034c2:	2200      	movs	r2, #0
 80034c4:	9300      	str	r3, [sp, #0]
 80034c6:	2180      	movs	r1, #128	@ 0x80
 80034c8:	0020      	movs	r0, r4
 80034ca:	9b0e      	ldr	r3, [sp, #56]	@ 0x38
 80034cc:	f7ff fd38 	bl	8002f40 <I2C_WaitOnFlagUntilTimeout>
 80034d0:	2800      	cmp	r0, #0
 80034d2:	d000      	beq.n	80034d6 <HAL_I2C_Mem_Write+0x142>
 80034d4:	e787      	b.n	80033e6 <HAL_I2C_Mem_Write+0x52>
        if (hi2c->XferCount > MAX_NBYTE_SIZE)
 80034d6:	8d63      	ldrh	r3, [r4, #42]	@ 0x2a
  MODIFY_REG(hi2c->Instance->CR2, \
 80034d8:	6822      	ldr	r2, [r4, #0]
        if (hi2c->XferCount > MAX_NBYTE_SIZE)
 80034da:	2bff      	cmp	r3, #255	@ 0xff
 80034dc:	d922      	bls.n	8003524 <HAL_I2C_Mem_Write+0x190>
          hi2c->XferSize = MAX_NBYTE_SIZE;
 80034de:	23ff      	movs	r3, #255	@ 0xff
  MODIFY_REG(hi2c->Instance->CR2, \
 80034e0:	4925      	ldr	r1, [pc, #148]	@ (8003578 <HAL_I2C_Mem_Write+0x1e4>)
          hi2c->XferSize = MAX_NBYTE_SIZE;
 80034e2:	8523      	strh	r3, [r4, #40]	@ 0x28
  MODIFY_REG(hi2c->Instance->CR2, \
 80034e4:	6853      	ldr	r3, [r2, #4]
 80034e6:	400b      	ands	r3, r1
 80034e8:	4924      	ldr	r1, [pc, #144]	@ (800357c <HAL_I2C_Mem_Write+0x1e8>)
 80034ea:	432b      	orrs	r3, r5
 80034ec:	430b      	orrs	r3, r1
 80034ee:	6053      	str	r3, [r2, #4]
}
 80034f0:	e7c9      	b.n	8003486 <HAL_I2C_Mem_Write+0xf2>
      __HAL_UNLOCK(hi2c);
 80034f2:	2340      	movs	r3, #64	@ 0x40
 80034f4:	2200      	movs	r2, #0
 80034f6:	54e2      	strb	r2, [r4, r3]
      return HAL_ERROR;
 80034f8:	e775      	b.n	80033e6 <HAL_I2C_Mem_Write+0x52>
      hi2c->XferSize = MAX_NBYTE_SIZE;
 80034fa:	23ff      	movs	r3, #255	@ 0xff
  MODIFY_REG(hi2c->Instance->CR2, \
 80034fc:	491e      	ldr	r1, [pc, #120]	@ (8003578 <HAL_I2C_Mem_Write+0x1e4>)
      hi2c->XferSize = MAX_NBYTE_SIZE;
 80034fe:	8523      	strh	r3, [r4, #40]	@ 0x28
  MODIFY_REG(hi2c->Instance->CR2, \
 8003500:	6853      	ldr	r3, [r2, #4]
 8003502:	400b      	ands	r3, r1
 8003504:	491d      	ldr	r1, [pc, #116]	@ (800357c <HAL_I2C_Mem_Write+0x1e8>)
 8003506:	432b      	orrs	r3, r5
 8003508:	430b      	orrs	r3, r1
 800350a:	6053      	str	r3, [r2, #4]
}
 800350c:	e7be      	b.n	800348c <HAL_I2C_Mem_Write+0xf8>
    hi2c->Instance->TXDR = I2C_MEM_ADD_MSB(MemAddress);
 800350e:	0a32      	lsrs	r2, r6, #8
 8003510:	629a      	str	r2, [r3, #40]	@ 0x28
    if (I2C_WaitOnTXISFlagUntilTimeout(hi2c, Timeout, Tickstart) != HAL_OK)
 8003512:	0020      	movs	r0, r4
 8003514:	4642      	mov	r2, r8
 8003516:	990e      	ldr	r1, [sp, #56]	@ 0x38
 8003518:	f7ff fc22 	bl	8002d60 <I2C_WaitOnTXISFlagUntilTimeout>
 800351c:	2800      	cmp	r0, #0
 800351e:	d1e8      	bne.n	80034f2 <HAL_I2C_Mem_Write+0x15e>
    hi2c->Instance->TXDR = I2C_MEM_ADD_LSB(MemAddress);
 8003520:	6823      	ldr	r3, [r4, #0]
 8003522:	e791      	b.n	8003448 <HAL_I2C_Mem_Write+0xb4>
          hi2c->XferSize = hi2c->XferCount;
 8003524:	8d63      	ldrh	r3, [r4, #42]	@ 0x2a
  MODIFY_REG(hi2c->Instance->CR2, \
 8003526:	4814      	ldr	r0, [pc, #80]	@ (8003578 <HAL_I2C_Mem_Write+0x1e4>)
          hi2c->XferSize = hi2c->XferCount;
 8003528:	b29b      	uxth	r3, r3
  MODIFY_REG(hi2c->Instance->CR2, \
 800352a:	6851      	ldr	r1, [r2, #4]
          hi2c->XferSize = hi2c->XferCount;
 800352c:	8523      	strh	r3, [r4, #40]	@ 0x28
                             (((uint32_t)Size << I2C_CR2_NBYTES_Pos) & I2C_CR2_NBYTES) | \
 800352e:	b2db      	uxtb	r3, r3
 8003530:	041b      	lsls	r3, r3, #16
  MODIFY_REG(hi2c->Instance->CR2, \
 8003532:	4001      	ands	r1, r0
 8003534:	432b      	orrs	r3, r5
 8003536:	430b      	orrs	r3, r1
 8003538:	2180      	movs	r1, #128	@ 0x80
 800353a:	0489      	lsls	r1, r1, #18
 800353c:	430b      	orrs	r3, r1
 800353e:	6053      	str	r3, [r2, #4]
}
 8003540:	e7a1      	b.n	8003486 <HAL_I2C_Mem_Write+0xf2>
    if (I2C_WaitOnSTOPFlagUntilTimeout(hi2c, Timeout, tickstart) != HAL_OK)
 8003542:	4642      	mov	r2, r8
 8003544:	0020      	movs	r0, r4
 8003546:	990e      	ldr	r1, [sp, #56]	@ 0x38
 8003548:	f7ff fdf2 	bl	8003130 <I2C_WaitOnSTOPFlagUntilTimeout>
 800354c:	2800      	cmp	r0, #0
 800354e:	d000      	beq.n	8003552 <HAL_I2C_Mem_Write+0x1be>
 8003550:	e749      	b.n	80033e6 <HAL_I2C_Mem_Write+0x52>
    __HAL_I2C_CLEAR_FLAG(hi2c, I2C_FLAG_STOPF);
 8003552:	2120      	movs	r1, #32
 8003554:	6823      	ldr	r3, [r4, #0]
    I2C_RESET_CR2(hi2c);
 8003556:	4d0a      	ldr	r5, [pc, #40]	@ (8003580 <HAL_I2C_Mem_Write+0x1ec>)
    __HAL_I2C_CLEAR_FLAG(hi2c, I2C_FLAG_STOPF);
 8003558:	61d9      	str	r1, [r3, #28]
    I2C_RESET_CR2(hi2c);
 800355a:	685a      	ldr	r2, [r3, #4]
 800355c:	402a      	ands	r2, r5
 800355e:	605a      	str	r2, [r3, #4]
    hi2c->State = HAL_I2C_STATE_READY;
 8003560:	2341      	movs	r3, #65	@ 0x41
 8003562:	54e1      	strb	r1, [r4, r3]
    hi2c->Mode  = HAL_I2C_MODE_NONE;
 8003564:	3301      	adds	r3, #1
 8003566:	54e0      	strb	r0, [r4, r3]
    __HAL_UNLOCK(hi2c);
 8003568:	3b02      	subs	r3, #2
 800356a:	54e0      	strb	r0, [r4, r3]
    return HAL_OK;
 800356c:	e73c      	b.n	80033e8 <HAL_I2C_Mem_Write+0x54>
 800356e:	46c0      	nop			@ (mov r8, r8)
 8003570:	fc009800 	.word	0xfc009800
 8003574:	01002000 	.word	0x01002000
 8003578:	fc009c00 	.word	0xfc009c00
 800357c:	01ff0000 	.word	0x01ff0000
 8003580:	fe00e800 	.word	0xfe00e800

08003584 <HAL_I2C_Mem_Read>:
{
 8003584:	b5f0      	push	{r4, r5, r6, r7, lr}
 8003586:	4657      	mov	r7, sl
 8003588:	464e      	mov	r6, r9
 800358a:	46de      	mov	lr, fp
 800358c:	4645      	mov	r5, r8
 800358e:	b5e0      	push	{r5, r6, r7, lr}
 8003590:	b083      	sub	sp, #12
 8003592:	001f      	movs	r7, r3
 8003594:	ab0c      	add	r3, sp, #48	@ 0x30
 8003596:	0016      	movs	r6, r2
 8003598:	cb04      	ldmia	r3!, {r2}
 800359a:	0004      	movs	r4, r0
 800359c:	881b      	ldrh	r3, [r3, #0]
 800359e:	000d      	movs	r5, r1
 80035a0:	469b      	mov	fp, r3
  if (hi2c->State == HAL_I2C_STATE_READY)
 80035a2:	2341      	movs	r3, #65	@ 0x41
 80035a4:	4699      	mov	r9, r3
 80035a6:	5cc3      	ldrb	r3, [r0, r3]
{
 80035a8:	4692      	mov	sl, r2
  if (hi2c->State == HAL_I2C_STATE_READY)
 80035aa:	2b20      	cmp	r3, #32
 80035ac:	d11f      	bne.n	80035ee <HAL_I2C_Mem_Read+0x6a>
    if ((pData == NULL) || (Size == 0U))
 80035ae:	2a00      	cmp	r2, #0
 80035b0:	d019      	beq.n	80035e6 <HAL_I2C_Mem_Read+0x62>
 80035b2:	465b      	mov	r3, fp
 80035b4:	2b00      	cmp	r3, #0
 80035b6:	d016      	beq.n	80035e6 <HAL_I2C_Mem_Read+0x62>
    __HAL_LOCK(hi2c);
 80035b8:	2240      	movs	r2, #64	@ 0x40
 80035ba:	5c83      	ldrb	r3, [r0, r2]
 80035bc:	2b01      	cmp	r3, #1
 80035be:	d016      	beq.n	80035ee <HAL_I2C_Mem_Read+0x6a>
 80035c0:	2301      	movs	r3, #1
 80035c2:	5483      	strb	r3, [r0, r2]
    tickstart = HAL_GetTick();
 80035c4:	f7fe ff48 	bl	8002458 <HAL_GetTick>
 80035c8:	4680      	mov	r8, r0
    if (I2C_WaitOnFlagUntilTimeout(hi2c, I2C_FLAG_BUSY, SET, I2C_TIMEOUT_BUSY, tickstart) != HAL_OK)
 80035ca:	0001      	movs	r1, r0
 80035cc:	0020      	movs	r0, r4
 80035ce:	f7ff fb11 	bl	8002bf4 <I2C_WaitOnFlagUntilTimeout.constprop.0>
 80035d2:	2800      	cmp	r0, #0
 80035d4:	d00d      	beq.n	80035f2 <HAL_I2C_Mem_Read+0x6e>
      return  HAL_ERROR;
 80035d6:	2001      	movs	r0, #1
}
 80035d8:	b003      	add	sp, #12
 80035da:	bcf0      	pop	{r4, r5, r6, r7}
 80035dc:	46bb      	mov	fp, r7
 80035de:	46b2      	mov	sl, r6
 80035e0:	46a9      	mov	r9, r5
 80035e2:	46a0      	mov	r8, r4
 80035e4:	bdf0      	pop	{r4, r5, r6, r7, pc}
      hi2c->ErrorCode = HAL_I2C_ERROR_INVALID_PARAM;
 80035e6:	2380      	movs	r3, #128	@ 0x80
 80035e8:	009b      	lsls	r3, r3, #2
 80035ea:	6463      	str	r3, [r4, #68]	@ 0x44
      return  HAL_ERROR;
 80035ec:	e7f3      	b.n	80035d6 <HAL_I2C_Mem_Read+0x52>
    __HAL_LOCK(hi2c);
 80035ee:	2002      	movs	r0, #2
 80035f0:	e7f2      	b.n	80035d8 <HAL_I2C_Mem_Read+0x54>
    hi2c->State     = HAL_I2C_STATE_BUSY_RX;
 80035f2:	2322      	movs	r3, #34	@ 0x22
 80035f4:	464a      	mov	r2, r9
 80035f6:	54a3      	strb	r3, [r4, r2]
    hi2c->Mode      = HAL_I2C_MODE_MEM;
 80035f8:	2240      	movs	r2, #64	@ 0x40
 80035fa:	3320      	adds	r3, #32
 80035fc:	54e2      	strb	r2, [r4, r3]
    hi2c->pBuffPtr  = pData;
 80035fe:	4653      	mov	r3, sl
 8003600:	6263      	str	r3, [r4, #36]	@ 0x24
    hi2c->XferCount = Size;
 8003602:	465b      	mov	r3, fp
  MODIFY_REG(hi2c->Instance->CR2, \
 8003604:	6821      	ldr	r1, [r4, #0]
    hi2c->ErrorCode = HAL_I2C_ERROR_NONE;
 8003606:	6460      	str	r0, [r4, #68]	@ 0x44
    hi2c->XferCount = Size;
 8003608:	8563      	strh	r3, [r4, #42]	@ 0x2a
  MODIFY_REG(hi2c->Instance->CR2, \
 800360a:	684a      	ldr	r2, [r1, #4]
    hi2c->XferISR   = NULL;
 800360c:	6360      	str	r0, [r4, #52]	@ 0x34
  MODIFY_REG(hi2c->Instance->CR2, \
 800360e:	4856      	ldr	r0, [pc, #344]	@ (8003768 <HAL_I2C_Mem_Read+0x1e4>)
                             (((uint32_t)Size << I2C_CR2_NBYTES_Pos) & I2C_CR2_NBYTES) | \
 8003610:	b2fb      	uxtb	r3, r7
  MODIFY_REG(hi2c->Instance->CR2, \
 8003612:	4002      	ands	r2, r0
                             (((uint32_t)Size << I2C_CR2_NBYTES_Pos) & I2C_CR2_NBYTES) | \
 8003614:	041b      	lsls	r3, r3, #16
  MODIFY_REG(hi2c->Instance->CR2, \
 8003616:	4313      	orrs	r3, r2
 8003618:	2280      	movs	r2, #128	@ 0x80
  uint32_t tmp = ((uint32_t)(((uint32_t)DevAddress & I2C_CR2_SADD) | \
 800361a:	05ad      	lsls	r5, r5, #22
 800361c:	0dad      	lsrs	r5, r5, #22
  MODIFY_REG(hi2c->Instance->CR2, \
 800361e:	0192      	lsls	r2, r2, #6
 8003620:	432b      	orrs	r3, r5
 8003622:	4313      	orrs	r3, r2
 8003624:	604b      	str	r3, [r1, #4]
  if (I2C_WaitOnTXISFlagUntilTimeout(hi2c, Timeout, Tickstart) != HAL_OK)
 8003626:	4642      	mov	r2, r8
 8003628:	0020      	movs	r0, r4
 800362a:	990e      	ldr	r1, [sp, #56]	@ 0x38
 800362c:	f7ff fb98 	bl	8002d60 <I2C_WaitOnTXISFlagUntilTimeout>
 8003630:	2800      	cmp	r0, #0
 8003632:	d15a      	bne.n	80036ea <HAL_I2C_Mem_Read+0x166>
    hi2c->Instance->TXDR = I2C_MEM_ADD_LSB(MemAddress);
 8003634:	6823      	ldr	r3, [r4, #0]
  if (MemAddSize == I2C_MEMADD_SIZE_8BIT)
 8003636:	2f01      	cmp	r7, #1
 8003638:	d165      	bne.n	8003706 <HAL_I2C_Mem_Read+0x182>
    hi2c->Instance->TXDR = I2C_MEM_ADD_LSB(MemAddress);
 800363a:	b2f6      	uxtb	r6, r6
 800363c:	629e      	str	r6, [r3, #40]	@ 0x28
  if (I2C_WaitOnFlagUntilTimeout(hi2c, I2C_FLAG_TC, RESET, Timeout, Tickstart) != HAL_OK)
 800363e:	4643      	mov	r3, r8
 8003640:	2200      	movs	r2, #0
 8003642:	9300      	str	r3, [sp, #0]
 8003644:	2140      	movs	r1, #64	@ 0x40
 8003646:	0020      	movs	r0, r4
 8003648:	9b0e      	ldr	r3, [sp, #56]	@ 0x38
 800364a:	f7ff fc79 	bl	8002f40 <I2C_WaitOnFlagUntilTimeout>
 800364e:	2800      	cmp	r0, #0
 8003650:	d14b      	bne.n	80036ea <HAL_I2C_Mem_Read+0x166>
    if (hi2c->XferCount > MAX_NBYTE_SIZE)
 8003652:	8d63      	ldrh	r3, [r4, #42]	@ 0x2a
  MODIFY_REG(hi2c->Instance->CR2, \
 8003654:	6822      	ldr	r2, [r4, #0]
    if (hi2c->XferCount > MAX_NBYTE_SIZE)
 8003656:	2bff      	cmp	r3, #255	@ 0xff
 8003658:	d84b      	bhi.n	80036f2 <HAL_I2C_Mem_Read+0x16e>
      hi2c->XferSize = hi2c->XferCount;
 800365a:	8d63      	ldrh	r3, [r4, #42]	@ 0x2a
  MODIFY_REG(hi2c->Instance->CR2, \
 800365c:	4842      	ldr	r0, [pc, #264]	@ (8003768 <HAL_I2C_Mem_Read+0x1e4>)
      hi2c->XferSize = hi2c->XferCount;
 800365e:	b29b      	uxth	r3, r3
  MODIFY_REG(hi2c->Instance->CR2, \
 8003660:	6851      	ldr	r1, [r2, #4]
      hi2c->XferSize = hi2c->XferCount;
 8003662:	8523      	strh	r3, [r4, #40]	@ 0x28
                             (((uint32_t)Size << I2C_CR2_NBYTES_Pos) & I2C_CR2_NBYTES) | \
 8003664:	b2db      	uxtb	r3, r3
 8003666:	041b      	lsls	r3, r3, #16
  MODIFY_REG(hi2c->Instance->CR2, \
 8003668:	4001      	ands	r1, r0
 800366a:	432b      	orrs	r3, r5
 800366c:	430b      	orrs	r3, r1
 800366e:	493f      	ldr	r1, [pc, #252]	@ (800376c <HAL_I2C_Mem_Read+0x1e8>)
 8003670:	430b      	orrs	r3, r1
 8003672:	6053      	str	r3, [r2, #4]
}
 8003674:	e002      	b.n	800367c <HAL_I2C_Mem_Read+0xf8>
    } while (hi2c->XferCount > 0U);
 8003676:	8d63      	ldrh	r3, [r4, #42]	@ 0x2a
 8003678:	2b00      	cmp	r3, #0
 800367a:	d05e      	beq.n	800373a <HAL_I2C_Mem_Read+0x1b6>
      if (I2C_WaitOnFlagUntilTimeout(hi2c, I2C_FLAG_RXNE, RESET, Timeout, tickstart) != HAL_OK)
 800367c:	4643      	mov	r3, r8
 800367e:	2200      	movs	r2, #0
 8003680:	9300      	str	r3, [sp, #0]
 8003682:	2104      	movs	r1, #4
 8003684:	0020      	movs	r0, r4
 8003686:	9b0e      	ldr	r3, [sp, #56]	@ 0x38
 8003688:	f7ff fc5a 	bl	8002f40 <I2C_WaitOnFlagUntilTimeout>
 800368c:	2800      	cmp	r0, #0
 800368e:	d1a2      	bne.n	80035d6 <HAL_I2C_Mem_Read+0x52>
      *hi2c->pBuffPtr = (uint8_t)hi2c->Instance->RXDR;
 8003690:	6823      	ldr	r3, [r4, #0]
 8003692:	6a5a      	ldr	r2, [r3, #36]	@ 0x24
 8003694:	6a63      	ldr	r3, [r4, #36]	@ 0x24
 8003696:	701a      	strb	r2, [r3, #0]
      hi2c->XferCount--;
 8003698:	8d62      	ldrh	r2, [r4, #42]	@ 0x2a
      hi2c->pBuffPtr++;
 800369a:	6a63      	ldr	r3, [r4, #36]	@ 0x24
      hi2c->XferCount--;
 800369c:	3a01      	subs	r2, #1
      hi2c->pBuffPtr++;
 800369e:	3301      	adds	r3, #1
      hi2c->XferCount--;
 80036a0:	b292      	uxth	r2, r2
      hi2c->pBuffPtr++;
 80036a2:	6263      	str	r3, [r4, #36]	@ 0x24
      hi2c->XferSize--;
 80036a4:	8d23      	ldrh	r3, [r4, #40]	@ 0x28
      hi2c->XferCount--;
 80036a6:	8562      	strh	r2, [r4, #42]	@ 0x2a
      hi2c->XferSize--;
 80036a8:	3b01      	subs	r3, #1
      if ((hi2c->XferCount != 0U) && (hi2c->XferSize == 0U))
 80036aa:	8d62      	ldrh	r2, [r4, #42]	@ 0x2a
      hi2c->XferSize--;
 80036ac:	b29b      	uxth	r3, r3
 80036ae:	8523      	strh	r3, [r4, #40]	@ 0x28
      if ((hi2c->XferCount != 0U) && (hi2c->XferSize == 0U))
 80036b0:	2a00      	cmp	r2, #0
 80036b2:	d0e0      	beq.n	8003676 <HAL_I2C_Mem_Read+0xf2>
 80036b4:	2b00      	cmp	r3, #0
 80036b6:	d1de      	bne.n	8003676 <HAL_I2C_Mem_Read+0xf2>
        if (I2C_WaitOnFlagUntilTimeout(hi2c, I2C_FLAG_TCR, RESET, Timeout, tickstart) != HAL_OK)
 80036b8:	4643      	mov	r3, r8
 80036ba:	2200      	movs	r2, #0
 80036bc:	9300      	str	r3, [sp, #0]
 80036be:	2180      	movs	r1, #128	@ 0x80
 80036c0:	0020      	movs	r0, r4
 80036c2:	9b0e      	ldr	r3, [sp, #56]	@ 0x38
 80036c4:	f7ff fc3c 	bl	8002f40 <I2C_WaitOnFlagUntilTimeout>
 80036c8:	2800      	cmp	r0, #0
 80036ca:	d000      	beq.n	80036ce <HAL_I2C_Mem_Read+0x14a>
 80036cc:	e783      	b.n	80035d6 <HAL_I2C_Mem_Read+0x52>
        if (hi2c->XferCount > MAX_NBYTE_SIZE)
 80036ce:	8d63      	ldrh	r3, [r4, #42]	@ 0x2a
  MODIFY_REG(hi2c->Instance->CR2, \
 80036d0:	6822      	ldr	r2, [r4, #0]
        if (hi2c->XferCount > MAX_NBYTE_SIZE)
 80036d2:	2bff      	cmp	r3, #255	@ 0xff
 80036d4:	d922      	bls.n	800371c <HAL_I2C_Mem_Read+0x198>
          hi2c->XferSize = 1U;
 80036d6:	2301      	movs	r3, #1
  MODIFY_REG(hi2c->Instance->CR2, \
 80036d8:	4925      	ldr	r1, [pc, #148]	@ (8003770 <HAL_I2C_Mem_Read+0x1ec>)
          hi2c->XferSize = 1U;
 80036da:	8523      	strh	r3, [r4, #40]	@ 0x28
  MODIFY_REG(hi2c->Instance->CR2, \
 80036dc:	6853      	ldr	r3, [r2, #4]
 80036de:	400b      	ands	r3, r1
 80036e0:	4924      	ldr	r1, [pc, #144]	@ (8003774 <HAL_I2C_Mem_Read+0x1f0>)
 80036e2:	432b      	orrs	r3, r5
 80036e4:	430b      	orrs	r3, r1
 80036e6:	6053      	str	r3, [r2, #4]
}
 80036e8:	e7c5      	b.n	8003676 <HAL_I2C_Mem_Read+0xf2>
      __HAL_UNLOCK(hi2c);
 80036ea:	2340      	movs	r3, #64	@ 0x40
 80036ec:	2200      	movs	r2, #0
 80036ee:	54e2      	strb	r2, [r4, r3]
      return HAL_ERROR;
 80036f0:	e771      	b.n	80035d6 <HAL_I2C_Mem_Read+0x52>
      hi2c->XferSize = 1U;
 80036f2:	2301      	movs	r3, #1
  MODIFY_REG(hi2c->Instance->CR2, \
 80036f4:	491c      	ldr	r1, [pc, #112]	@ (8003768 <HAL_I2C_Mem_Read+0x1e4>)
      hi2c->XferSize = 1U;
 80036f6:	8523      	strh	r3, [r4, #40]	@ 0x28
  MODIFY_REG(hi2c->Instance->CR2, \
 80036f8:	6853      	ldr	r3, [r2, #4]
 80036fa:	400b      	ands	r3, r1
 80036fc:	491e      	ldr	r1, [pc, #120]	@ (8003778 <HAL_I2C_Mem_Read+0x1f4>)
 80036fe:	432b      	orrs	r3, r5
 8003700:	430b      	orrs	r3, r1
 8003702:	6053      	str	r3, [r2, #4]
}
 8003704:	e7ba      	b.n	800367c <HAL_I2C_Mem_Read+0xf8>
    hi2c->Instance->TXDR = I2C_MEM_ADD_MSB(MemAddress);
 8003706:	0a32      	lsrs	r2, r6, #8
 8003708:	629a      	str	r2, [r3, #40]	@ 0x28
    if (I2C_WaitOnTXISFlagUntilTimeout(hi2c, Timeout, Tickstart) != HAL_OK)
 800370a:	0020      	movs	r0, r4
 800370c:	4642      	mov	r2, r8
 800370e:	990e      	ldr	r1, [sp, #56]	@ 0x38
 8003710:	f7ff fb26 	bl	8002d60 <I2C_WaitOnTXISFlagUntilTimeout>
 8003714:	2800      	cmp	r0, #0
 8003716:	d1e8      	bne.n	80036ea <HAL_I2C_Mem_Read+0x166>
    hi2c->Instance->TXDR = I2C_MEM_ADD_LSB(MemAddress);
 8003718:	6823      	ldr	r3, [r4, #0]
 800371a:	e78e      	b.n	800363a <HAL_I2C_Mem_Read+0xb6>
          hi2c->XferSize = hi2c->XferCount;
 800371c:	8d63      	ldrh	r3, [r4, #42]	@ 0x2a
  MODIFY_REG(hi2c->Instance->CR2, \
 800371e:	4814      	ldr	r0, [pc, #80]	@ (8003770 <HAL_I2C_Mem_Read+0x1ec>)
          hi2c->XferSize = hi2c->XferCount;
 8003720:	b29b      	uxth	r3, r3
  MODIFY_REG(hi2c->Instance->CR2, \
 8003722:	6851      	ldr	r1, [r2, #4]
          hi2c->XferSize = hi2c->XferCount;
 8003724:	8523      	strh	r3, [r4, #40]	@ 0x28
                             (((uint32_t)Size << I2C_CR2_NBYTES_Pos) & I2C_CR2_NBYTES) | \
 8003726:	b2db      	uxtb	r3, r3
 8003728:	041b      	lsls	r3, r3, #16
  MODIFY_REG(hi2c->Instance->CR2, \
 800372a:	4001      	ands	r1, r0
 800372c:	432b      	orrs	r3, r5
 800372e:	430b      	orrs	r3, r1
 8003730:	2180      	movs	r1, #128	@ 0x80
 8003732:	0489      	lsls	r1, r1, #18
 8003734:	430b      	orrs	r3, r1
 8003736:	6053      	str	r3, [r2, #4]
}
 8003738:	e79d      	b.n	8003676 <HAL_I2C_Mem_Read+0xf2>
    if (I2C_WaitOnSTOPFlagUntilTimeout(hi2c, Timeout, tickstart) != HAL_OK)
 800373a:	4642      	mov	r2, r8
 800373c:	0020      	movs	r0, r4
 800373e:	990e      	ldr	r1, [sp, #56]	@ 0x38
 8003740:	f7ff fcf6 	bl	8003130 <I2C_WaitOnSTOPFlagUntilTimeout>
 8003744:	2800      	cmp	r0, #0
 8003746:	d000      	beq.n	800374a <HAL_I2C_Mem_Read+0x1c6>
 8003748:	e745      	b.n	80035d6 <HAL_I2C_Mem_Read+0x52>
    __HAL_I2C_CLEAR_FLAG(hi2c, I2C_FLAG_STOPF);
 800374a:	2120      	movs	r1, #32
 800374c:	6823      	ldr	r3, [r4, #0]
    I2C_RESET_CR2(hi2c);
 800374e:	4d0b      	ldr	r5, [pc, #44]	@ (800377c <HAL_I2C_Mem_Read+0x1f8>)
    __HAL_I2C_CLEAR_FLAG(hi2c, I2C_FLAG_STOPF);
 8003750:	61d9      	str	r1, [r3, #28]
    I2C_RESET_CR2(hi2c);
 8003752:	685a      	ldr	r2, [r3, #4]
 8003754:	402a      	ands	r2, r5
 8003756:	605a      	str	r2, [r3, #4]
    hi2c->State = HAL_I2C_STATE_READY;
 8003758:	2341      	movs	r3, #65	@ 0x41
 800375a:	54e1      	strb	r1, [r4, r3]
    hi2c->Mode  = HAL_I2C_MODE_NONE;
 800375c:	3301      	adds	r3, #1
 800375e:	54e0      	strb	r0, [r4, r3]
    __HAL_UNLOCK(hi2c);
 8003760:	3b02      	subs	r3, #2
 8003762:	54e0      	strb	r0, [r4, r3]
    return HAL_OK;
 8003764:	e738      	b.n	80035d8 <HAL_I2C_Mem_Read+0x54>
 8003766:	46c0      	nop			@ (mov r8, r8)
 8003768:	fc009800 	.word	0xfc009800
 800376c:	02002400 	.word	0x02002400
 8003770:	fc009c00 	.word	0xfc009c00
 8003774:	01010000 	.word	0x01010000
 8003778:	01012400 	.word	0x01012400
 800377c:	fe00e800 	.word	0xfe00e800

08003780 <HAL_I2CEx_ConfigAnalogFilter>:
  *                the configuration information for the specified I2Cx peripheral.
  * @param  AnalogFilter New state of the Analog filter.
  * @retval HAL status
  */
HAL_StatusTypeDef HAL_I2CEx_ConfigAnalogFilter(I2C_HandleTypeDef *hi2c, uint32_t AnalogFilter)
{
 8003780:	b5f0      	push	{r4, r5, r6, r7, lr}
  /* Check the parameters */
  assert_param(IS_I2C_ALL_INSTANCE(hi2c->Instance));
  assert_param(IS_I2C_ANALOG_FILTER(AnalogFilter));

  if (hi2c->State == HAL_I2C_STATE_READY)
 8003782:	2441      	movs	r4, #65	@ 0x41
 8003784:	5d03      	ldrb	r3, [r0, r4]
{
 8003786:	468c      	mov	ip, r1
  if (hi2c->State == HAL_I2C_STATE_READY)
 8003788:	b2dd      	uxtb	r5, r3
 800378a:	2b20      	cmp	r3, #32
 800378c:	d11a      	bne.n	80037c4 <HAL_I2CEx_ConfigAnalogFilter+0x44>
  {
    /* Process Locked */
    __HAL_LOCK(hi2c);
 800378e:	2640      	movs	r6, #64	@ 0x40
 8003790:	5d83      	ldrb	r3, [r0, r6]
 8003792:	2b01      	cmp	r3, #1
 8003794:	d016      	beq.n	80037c4 <HAL_I2CEx_ConfigAnalogFilter+0x44>

    hi2c->State = HAL_I2C_STATE_BUSY;
 8003796:	2324      	movs	r3, #36	@ 0x24

    /* Disable the selected I2C peripheral */
    __HAL_I2C_DISABLE(hi2c);
 8003798:	2701      	movs	r7, #1
    hi2c->State = HAL_I2C_STATE_BUSY;
 800379a:	5503      	strb	r3, [r0, r4]
    __HAL_I2C_DISABLE(hi2c);
 800379c:	6803      	ldr	r3, [r0, #0]

    /* Reset I2Cx ANOFF bit */
    hi2c->Instance->CR1 &= ~(I2C_CR1_ANFOFF);
 800379e:	490a      	ldr	r1, [pc, #40]	@ (80037c8 <HAL_I2CEx_ConfigAnalogFilter+0x48>)
    __HAL_I2C_DISABLE(hi2c);
 80037a0:	681a      	ldr	r2, [r3, #0]
 80037a2:	43ba      	bics	r2, r7
 80037a4:	601a      	str	r2, [r3, #0]
    hi2c->Instance->CR1 &= ~(I2C_CR1_ANFOFF);
 80037a6:	681a      	ldr	r2, [r3, #0]
 80037a8:	400a      	ands	r2, r1
 80037aa:	601a      	str	r2, [r3, #0]

    /* Set analog filter bit*/
    hi2c->Instance->CR1 |= AnalogFilter;
 80037ac:	4662      	mov	r2, ip
 80037ae:	6819      	ldr	r1, [r3, #0]
 80037b0:	4311      	orrs	r1, r2
 80037b2:	6019      	str	r1, [r3, #0]

    __HAL_I2C_ENABLE(hi2c);
 80037b4:	681a      	ldr	r2, [r3, #0]
 80037b6:	433a      	orrs	r2, r7
 80037b8:	601a      	str	r2, [r3, #0]

    hi2c->State = HAL_I2C_STATE_READY;

    /* Process Unlocked */
    __HAL_UNLOCK(hi2c);
 80037ba:	2300      	movs	r3, #0
    hi2c->State = HAL_I2C_STATE_READY;
 80037bc:	5505      	strb	r5, [r0, r4]
    __HAL_UNLOCK(hi2c);
 80037be:	5583      	strb	r3, [r0, r6]

    return HAL_OK;
 80037c0:	2000      	movs	r0, #0
  }
  else
  {
    return HAL_BUSY;
  }
}
 80037c2:	bdf0      	pop	{r4, r5, r6, r7, pc}
    __HAL_LOCK(hi2c);
 80037c4:	2002      	movs	r0, #2
 80037c6:	e7fc      	b.n	80037c2 <HAL_I2CEx_ConfigAnalogFilter+0x42>
 80037c8:	ffffefff 	.word	0xffffefff

080037cc <HAL_I2CEx_ConfigDigitalFilter>:
  *                the configuration information for the specified I2Cx peripheral.
  * @param  DigitalFilter Coefficient of digital noise filter between Min_Data=0x00 and Max_Data=0x0F.
  * @retval HAL status
  */
HAL_StatusTypeDef HAL_I2CEx_ConfigDigitalFilter(I2C_HandleTypeDef *hi2c, uint32_t DigitalFilter)
{
 80037cc:	b5f0      	push	{r4, r5, r6, r7, lr}
 80037ce:	46ce      	mov	lr, r9
 80037d0:	4647      	mov	r7, r8

  /* Check the parameters */
  assert_param(IS_I2C_ALL_INSTANCE(hi2c->Instance));
  assert_param(IS_I2C_DIGITAL_FILTER(DigitalFilter));

  if (hi2c->State == HAL_I2C_STATE_READY)
 80037d2:	2441      	movs	r4, #65	@ 0x41
{
 80037d4:	b580      	push	{r7, lr}
  if (hi2c->State == HAL_I2C_STATE_READY)
 80037d6:	5d03      	ldrb	r3, [r0, r4]
 80037d8:	b2dd      	uxtb	r5, r3
 80037da:	2b20      	cmp	r3, #32
 80037dc:	d11f      	bne.n	800381e <HAL_I2CEx_ConfigDigitalFilter+0x52>
  {
    /* Process Locked */
    __HAL_LOCK(hi2c);
 80037de:	2640      	movs	r6, #64	@ 0x40
 80037e0:	5d83      	ldrb	r3, [r0, r6]
 80037e2:	2b01      	cmp	r3, #1
 80037e4:	d01b      	beq.n	800381e <HAL_I2CEx_ConfigDigitalFilter+0x52>

    hi2c->State = HAL_I2C_STATE_BUSY;
 80037e6:	2324      	movs	r3, #36	@ 0x24

    /* Disable the selected I2C peripheral */
    __HAL_I2C_DISABLE(hi2c);
 80037e8:	2701      	movs	r7, #1
    hi2c->State = HAL_I2C_STATE_BUSY;
 80037ea:	5503      	strb	r3, [r0, r4]
    __HAL_I2C_DISABLE(hi2c);
 80037ec:	6802      	ldr	r2, [r0, #0]
 80037ee:	46b9      	mov	r9, r7
 80037f0:	6813      	ldr	r3, [r2, #0]

    /* Reset I2Cx DNF bits [11:8] */
    tmpreg &= ~(I2C_CR1_DNF);

    /* Set I2Cx DNF coefficient */
    tmpreg |= DigitalFilter << 8U;
 80037f2:	0209      	lsls	r1, r1, #8
    __HAL_I2C_DISABLE(hi2c);
 80037f4:	43bb      	bics	r3, r7
 80037f6:	6013      	str	r3, [r2, #0]
    tmpreg = hi2c->Instance->CR1;
 80037f8:	6813      	ldr	r3, [r2, #0]
 80037fa:	4698      	mov	r8, r3
    tmpreg &= ~(I2C_CR1_DNF);
 80037fc:	4647      	mov	r7, r8
 80037fe:	4b09      	ldr	r3, [pc, #36]	@ (8003824 <HAL_I2CEx_ConfigDigitalFilter+0x58>)
 8003800:	401f      	ands	r7, r3
    tmpreg |= DigitalFilter << 8U;
 8003802:	4339      	orrs	r1, r7

    /* Store the new register value */
    hi2c->Instance->CR1 = tmpreg;
 8003804:	6011      	str	r1, [r2, #0]

    __HAL_I2C_ENABLE(hi2c);
 8003806:	4649      	mov	r1, r9
 8003808:	6813      	ldr	r3, [r2, #0]
 800380a:	430b      	orrs	r3, r1
 800380c:	6013      	str	r3, [r2, #0]

    hi2c->State = HAL_I2C_STATE_READY;

    /* Process Unlocked */
    __HAL_UNLOCK(hi2c);
 800380e:	2300      	movs	r3, #0
    hi2c->State = HAL_I2C_STATE_READY;
 8003810:	5505      	strb	r5, [r0, r4]
    __HAL_UNLOCK(hi2c);
 8003812:	5583      	strb	r3, [r0, r6]

    return HAL_OK;
 8003814:	2000      	movs	r0, #0
  }
  else
  {
    return HAL_BUSY;
  }
}
 8003816:	bcc0      	pop	{r6, r7}
 8003818:	46b9      	mov	r9, r7
 800381a:	46b0      	mov	r8, r6
 800381c:	bdf0      	pop	{r4, r5, r6, r7, pc}
    __HAL_LOCK(hi2c);
 800381e:	2002      	movs	r0, #2
 8003820:	e7f9      	b.n	8003816 <HAL_I2CEx_ConfigDigitalFilter+0x4a>
 8003822:	46c0      	nop			@ (mov r8, r8)
 8003824:	fffff0ff 	.word	0xfffff0ff

08003828 <HAL_PCD_Init>:
  *         parameters in the PCD_InitTypeDef and initialize the associated handle.
  * @param  hpcd PCD handle
  * @retval HAL status
  */
HAL_StatusTypeDef HAL_PCD_Init(PCD_HandleTypeDef *hpcd)
{
 8003828:	b570      	push	{r4, r5, r6, lr}
 800382a:	1e04      	subs	r4, r0, #0
  uint8_t i;

  /* Check the PCD handle allocation */
  if (hpcd == NULL)
 800382c:	d100      	bne.n	8003830 <HAL_PCD_Init+0x8>
 800382e:	e0f6      	b.n	8003a1e <HAL_PCD_Init+0x1f6>
  }

  /* Check the parameters */
  assert_param(IS_PCD_ALL_INSTANCE(hpcd->Instance));

  if (hpcd->State == HAL_PCD_STATE_RESET)
 8003830:	4b7f      	ldr	r3, [pc, #508]	@ (8003a30 <HAL_PCD_Init+0x208>)
 8003832:	5cc3      	ldrb	r3, [r0, r3]
 8003834:	b2da      	uxtb	r2, r3
 8003836:	2b00      	cmp	r3, #0
 8003838:	d100      	bne.n	800383c <HAL_PCD_Init+0x14>
 800383a:	e0e6      	b.n	8003a0a <HAL_PCD_Init+0x1e2>
    /* Init the low level hardware : GPIO, CLOCK, NVIC... */
    HAL_PCD_MspInit(hpcd);
#endif /* (USE_HAL_PCD_REGISTER_CALLBACKS) */
  }

  hpcd->State = HAL_PCD_STATE_BUSY;
 800383c:	2203      	movs	r2, #3
 800383e:	4b7c      	ldr	r3, [pc, #496]	@ (8003a30 <HAL_PCD_Init+0x208>)
 8003840:	54e2      	strb	r2, [r4, r3]

  /* Disable the Interrupts */
  __HAL_PCD_DISABLE(hpcd);
 8003842:	6820      	ldr	r0, [r4, #0]
 8003844:	f002 f82e 	bl	80058a4 <USB_DisableGlobalInt>

  /* Init endpoints structures */
  for (i = 0U; i < hpcd->Init.dev_endpoints; i++)
 8003848:	7922      	ldrb	r2, [r4, #4]
 800384a:	2a00      	cmp	r2, #0
 800384c:	d100      	bne.n	8003850 <HAL_PCD_Init+0x28>
 800384e:	e0cd      	b.n	80039ec <HAL_PCD_Init+0x1c4>
  {
    /* Init ep structure */
    hpcd->IN_ep[i].is_in = 1U;
    hpcd->IN_ep[i].num = i;
 8003850:	2180      	movs	r1, #128	@ 0x80
    /* Control until ep is activated */
    hpcd->IN_ep[i].type = EP_TYPE_CTRL;
 8003852:	2300      	movs	r3, #0
    hpcd->IN_ep[i].num = i;
 8003854:	0049      	lsls	r1, r1, #1
 8003856:	8221      	strh	r1, [r4, #16]
    hpcd->IN_ep[i].type = EP_TYPE_CTRL;
 8003858:	74e3      	strb	r3, [r4, #19]
    hpcd->IN_ep[i].maxpacket = 0U;
 800385a:	6223      	str	r3, [r4, #32]
    hpcd->IN_ep[i].xfer_buff = 0U;
 800385c:	6263      	str	r3, [r4, #36]	@ 0x24
    hpcd->IN_ep[i].xfer_len = 0U;
 800385e:	62a3      	str	r3, [r4, #40]	@ 0x28
  for (i = 0U; i < hpcd->Init.dev_endpoints; i++)
 8003860:	2a01      	cmp	r2, #1
 8003862:	d100      	bne.n	8003866 <HAL_PCD_Init+0x3e>
 8003864:	e0dd      	b.n	8003a22 <HAL_PCD_Init+0x1fa>
    hpcd->IN_ep[i].num = i;
 8003866:	2002      	movs	r0, #2
 8003868:	30ff      	adds	r0, #255	@ 0xff
 800386a:	8720      	strh	r0, [r4, #56]	@ 0x38
    hpcd->IN_ep[i].type = EP_TYPE_CTRL;
 800386c:	38c6      	subs	r0, #198	@ 0xc6
 800386e:	5423      	strb	r3, [r4, r0]
    hpcd->IN_ep[i].maxpacket = 0U;
 8003870:	64a3      	str	r3, [r4, #72]	@ 0x48
    hpcd->IN_ep[i].xfer_buff = 0U;
 8003872:	64e3      	str	r3, [r4, #76]	@ 0x4c
    hpcd->IN_ep[i].xfer_len = 0U;
 8003874:	6523      	str	r3, [r4, #80]	@ 0x50
  for (i = 0U; i < hpcd->Init.dev_endpoints; i++)
 8003876:	2a02      	cmp	r2, #2
 8003878:	d04c      	beq.n	8003914 <HAL_PCD_Init+0xec>
    hpcd->IN_ep[i].num = i;
 800387a:	2581      	movs	r5, #129	@ 0x81
 800387c:	3025      	adds	r0, #37	@ 0x25
 800387e:	006d      	lsls	r5, r5, #1
 8003880:	5225      	strh	r5, [r4, r0]
    hpcd->IN_ep[i].type = EP_TYPE_CTRL;
 8003882:	3003      	adds	r0, #3
 8003884:	5423      	strb	r3, [r4, r0]
    hpcd->IN_ep[i].maxpacket = 0U;
 8003886:	6723      	str	r3, [r4, #112]	@ 0x70
    hpcd->IN_ep[i].xfer_buff = 0U;
 8003888:	6763      	str	r3, [r4, #116]	@ 0x74
    hpcd->IN_ep[i].xfer_len = 0U;
 800388a:	67a3      	str	r3, [r4, #120]	@ 0x78
  for (i = 0U; i < hpcd->Init.dev_endpoints; i++)
 800388c:	2a03      	cmp	r2, #3
 800388e:	d041      	beq.n	8003914 <HAL_PCD_Init+0xec>
    hpcd->IN_ep[i].num = i;
 8003890:	2004      	movs	r0, #4
 8003892:	3d7a      	subs	r5, #122	@ 0x7a
 8003894:	30ff      	adds	r0, #255	@ 0xff
 8003896:	5360      	strh	r0, [r4, r5]
    hpcd->IN_ep[i].type = EP_TYPE_CTRL;
 8003898:	3503      	adds	r5, #3
 800389a:	5563      	strb	r3, [r4, r5]
    hpcd->IN_ep[i].maxpacket = 0U;
 800389c:	350d      	adds	r5, #13
 800389e:	5163      	str	r3, [r4, r5]
    hpcd->IN_ep[i].xfer_buff = 0U;
 80038a0:	3504      	adds	r5, #4
 80038a2:	5163      	str	r3, [r4, r5]
    hpcd->IN_ep[i].xfer_len = 0U;
 80038a4:	3504      	adds	r5, #4
 80038a6:	5163      	str	r3, [r4, r5]
  for (i = 0U; i < hpcd->Init.dev_endpoints; i++)
 80038a8:	2a04      	cmp	r2, #4
 80038aa:	d033      	beq.n	8003914 <HAL_PCD_Init+0xec>
    hpcd->IN_ep[i].num = i;
 80038ac:	2682      	movs	r6, #130	@ 0x82
 80038ae:	3510      	adds	r5, #16
 80038b0:	0076      	lsls	r6, r6, #1
 80038b2:	5366      	strh	r6, [r4, r5]
    hpcd->IN_ep[i].type = EP_TYPE_CTRL;
 80038b4:	3503      	adds	r5, #3
 80038b6:	5563      	strb	r3, [r4, r5]
    hpcd->IN_ep[i].maxpacket = 0U;
 80038b8:	350d      	adds	r5, #13
 80038ba:	5163      	str	r3, [r4, r5]
    hpcd->IN_ep[i].xfer_buff = 0U;
 80038bc:	3504      	adds	r5, #4
 80038be:	5163      	str	r3, [r4, r5]
    hpcd->IN_ep[i].xfer_len = 0U;
 80038c0:	3504      	adds	r5, #4
 80038c2:	5163      	str	r3, [r4, r5]
  for (i = 0U; i < hpcd->Init.dev_endpoints; i++)
 80038c4:	2a05      	cmp	r2, #5
 80038c6:	d025      	beq.n	8003914 <HAL_PCD_Init+0xec>
    hpcd->IN_ep[i].num = i;
 80038c8:	2606      	movs	r6, #6
 80038ca:	3510      	adds	r5, #16
 80038cc:	36ff      	adds	r6, #255	@ 0xff
 80038ce:	5366      	strh	r6, [r4, r5]
    hpcd->IN_ep[i].type = EP_TYPE_CTRL;
 80038d0:	3503      	adds	r5, #3
 80038d2:	5563      	strb	r3, [r4, r5]
    hpcd->IN_ep[i].maxpacket = 0U;
 80038d4:	350d      	adds	r5, #13
 80038d6:	5163      	str	r3, [r4, r5]
    hpcd->IN_ep[i].xfer_buff = 0U;
 80038d8:	3504      	adds	r5, #4
 80038da:	5163      	str	r3, [r4, r5]
    hpcd->IN_ep[i].xfer_len = 0U;
 80038dc:	3504      	adds	r5, #4
 80038de:	5163      	str	r3, [r4, r5]
  for (i = 0U; i < hpcd->Init.dev_endpoints; i++)
 80038e0:	2a06      	cmp	r2, #6
 80038e2:	d017      	beq.n	8003914 <HAL_PCD_Init+0xec>
    hpcd->IN_ep[i].num = i;
 80038e4:	3516      	adds	r5, #22
 80038e6:	5265      	strh	r5, [r4, r1]
    hpcd->IN_ep[i].maxpacket = 0U;
 80038e8:	3110      	adds	r1, #16
    hpcd->IN_ep[i].type = EP_TYPE_CTRL;
 80038ea:	5423      	strb	r3, [r4, r0]
    hpcd->IN_ep[i].maxpacket = 0U;
 80038ec:	5063      	str	r3, [r4, r1]
    hpcd->IN_ep[i].xfer_buff = 0U;
 80038ee:	3104      	adds	r1, #4
 80038f0:	5063      	str	r3, [r4, r1]
    hpcd->IN_ep[i].xfer_len = 0U;
 80038f2:	3104      	adds	r1, #4
 80038f4:	5063      	str	r3, [r4, r1]
  for (i = 0U; i < hpcd->Init.dev_endpoints; i++)
 80038f6:	2a07      	cmp	r2, #7
 80038f8:	d00c      	beq.n	8003914 <HAL_PCD_Init+0xec>
    hpcd->IN_ep[i].num = i;
 80038fa:	2008      	movs	r0, #8
 80038fc:	3110      	adds	r1, #16
 80038fe:	30ff      	adds	r0, #255	@ 0xff
 8003900:	5260      	strh	r0, [r4, r1]
    hpcd->IN_ep[i].type = EP_TYPE_CTRL;
 8003902:	212c      	movs	r1, #44	@ 0x2c
 8003904:	31ff      	adds	r1, #255	@ 0xff
 8003906:	5463      	strb	r3, [r4, r1]
    hpcd->IN_ep[i].maxpacket = 0U;
 8003908:	310d      	adds	r1, #13
 800390a:	5063      	str	r3, [r4, r1]
    hpcd->IN_ep[i].xfer_buff = 0U;
 800390c:	3104      	adds	r1, #4
 800390e:	5063      	str	r3, [r4, r1]
    hpcd->IN_ep[i].xfer_len = 0U;
 8003910:	3104      	adds	r1, #4
 8003912:	5063      	str	r3, [r4, r1]
  }

  for (i = 0U; i < hpcd->Init.dev_endpoints; i++)
  {
    hpcd->OUT_ep[i].is_in = 0U;
    hpcd->OUT_ep[i].num = i;
 8003914:	20a8      	movs	r0, #168	@ 0xa8
 8003916:	2300      	movs	r3, #0
 8003918:	0040      	lsls	r0, r0, #1
 800391a:	5223      	strh	r3, [r4, r0]
    /* Control until ep is activated */
    hpcd->OUT_ep[i].type = EP_TYPE_CTRL;
 800391c:	2054      	movs	r0, #84	@ 0x54
    hpcd->OUT_ep[i].num = i;
 800391e:	2100      	movs	r1, #0
 8003920:	2501      	movs	r5, #1
    hpcd->OUT_ep[i].type = EP_TYPE_CTRL;
 8003922:	30ff      	adds	r0, #255	@ 0xff
 8003924:	5421      	strb	r1, [r4, r0]
    hpcd->OUT_ep[i].maxpacket = 0U;
 8003926:	300d      	adds	r0, #13
 8003928:	5023      	str	r3, [r4, r0]
    hpcd->OUT_ep[i].xfer_buff = 0U;
 800392a:	3004      	adds	r0, #4
 800392c:	5023      	str	r3, [r4, r0]
    hpcd->OUT_ep[i].xfer_len = 0U;
 800392e:	3004      	adds	r0, #4
 8003930:	5023      	str	r3, [r4, r0]
    hpcd->OUT_ep[i].num = i;
 8003932:	3010      	adds	r0, #16
 8003934:	5225      	strh	r5, [r4, r0]
    hpcd->OUT_ep[i].type = EP_TYPE_CTRL;
 8003936:	207c      	movs	r0, #124	@ 0x7c
 8003938:	30ff      	adds	r0, #255	@ 0xff
 800393a:	5421      	strb	r1, [r4, r0]
    hpcd->OUT_ep[i].maxpacket = 0U;
 800393c:	300d      	adds	r0, #13
 800393e:	5023      	str	r3, [r4, r0]
    hpcd->OUT_ep[i].xfer_buff = 0U;
 8003940:	3004      	adds	r0, #4
 8003942:	5023      	str	r3, [r4, r0]
    hpcd->OUT_ep[i].xfer_len = 0U;
 8003944:	3004      	adds	r0, #4
 8003946:	5023      	str	r3, [r4, r0]
  for (i = 0U; i < hpcd->Init.dev_endpoints; i++)
 8003948:	2a02      	cmp	r2, #2
 800394a:	d04f      	beq.n	80039ec <HAL_PCD_Init+0x1c4>
    hpcd->OUT_ep[i].num = i;
 800394c:	3010      	adds	r0, #16
 800394e:	3501      	adds	r5, #1
 8003950:	5225      	strh	r5, [r4, r0]
    hpcd->OUT_ep[i].type = EP_TYPE_CTRL;
 8003952:	20a4      	movs	r0, #164	@ 0xa4
 8003954:	30ff      	adds	r0, #255	@ 0xff
 8003956:	5421      	strb	r1, [r4, r0]
    hpcd->OUT_ep[i].maxpacket = 0U;
 8003958:	300d      	adds	r0, #13
 800395a:	5023      	str	r3, [r4, r0]
    hpcd->OUT_ep[i].xfer_buff = 0U;
 800395c:	3004      	adds	r0, #4
 800395e:	5023      	str	r3, [r4, r0]
    hpcd->OUT_ep[i].xfer_len = 0U;
 8003960:	3004      	adds	r0, #4
 8003962:	5023      	str	r3, [r4, r0]
  for (i = 0U; i < hpcd->Init.dev_endpoints; i++)
 8003964:	2a03      	cmp	r2, #3
 8003966:	d041      	beq.n	80039ec <HAL_PCD_Init+0x1c4>
    hpcd->OUT_ep[i].num = i;
 8003968:	3010      	adds	r0, #16
 800396a:	3501      	adds	r5, #1
 800396c:	5225      	strh	r5, [r4, r0]
    hpcd->OUT_ep[i].type = EP_TYPE_CTRL;
 800396e:	20cc      	movs	r0, #204	@ 0xcc
 8003970:	30ff      	adds	r0, #255	@ 0xff
 8003972:	5421      	strb	r1, [r4, r0]
    hpcd->OUT_ep[i].maxpacket = 0U;
 8003974:	300d      	adds	r0, #13
 8003976:	5023      	str	r3, [r4, r0]
    hpcd->OUT_ep[i].xfer_buff = 0U;
 8003978:	3004      	adds	r0, #4
 800397a:	5023      	str	r3, [r4, r0]
    hpcd->OUT_ep[i].xfer_len = 0U;
 800397c:	3004      	adds	r0, #4
 800397e:	5023      	str	r3, [r4, r0]
  for (i = 0U; i < hpcd->Init.dev_endpoints; i++)
 8003980:	2a04      	cmp	r2, #4
 8003982:	d033      	beq.n	80039ec <HAL_PCD_Init+0x1c4>
    hpcd->OUT_ep[i].num = i;
 8003984:	3010      	adds	r0, #16
 8003986:	3501      	adds	r5, #1
 8003988:	5225      	strh	r5, [r4, r0]
    hpcd->OUT_ep[i].type = EP_TYPE_CTRL;
 800398a:	20f4      	movs	r0, #244	@ 0xf4
 800398c:	30ff      	adds	r0, #255	@ 0xff
 800398e:	5421      	strb	r1, [r4, r0]
    hpcd->OUT_ep[i].maxpacket = 0U;
 8003990:	300d      	adds	r0, #13
 8003992:	5023      	str	r3, [r4, r0]
    hpcd->OUT_ep[i].xfer_buff = 0U;
 8003994:	3004      	adds	r0, #4
 8003996:	5023      	str	r3, [r4, r0]
    hpcd->OUT_ep[i].xfer_len = 0U;
 8003998:	3004      	adds	r0, #4
 800399a:	5023      	str	r3, [r4, r0]
  for (i = 0U; i < hpcd->Init.dev_endpoints; i++)
 800399c:	2a05      	cmp	r2, #5
 800399e:	d025      	beq.n	80039ec <HAL_PCD_Init+0x1c4>
    hpcd->OUT_ep[i].num = i;
 80039a0:	3010      	adds	r0, #16
 80039a2:	3501      	adds	r5, #1
 80039a4:	5225      	strh	r5, [r4, r0]
    hpcd->OUT_ep[i].type = EP_TYPE_CTRL;
 80039a6:	4823      	ldr	r0, [pc, #140]	@ (8003a34 <HAL_PCD_Init+0x20c>)
 80039a8:	5421      	strb	r1, [r4, r0]
    hpcd->OUT_ep[i].maxpacket = 0U;
 80039aa:	300d      	adds	r0, #13
 80039ac:	5023      	str	r3, [r4, r0]
    hpcd->OUT_ep[i].xfer_buff = 0U;
 80039ae:	3004      	adds	r0, #4
 80039b0:	5023      	str	r3, [r4, r0]
    hpcd->OUT_ep[i].xfer_len = 0U;
 80039b2:	3004      	adds	r0, #4
 80039b4:	5023      	str	r3, [r4, r0]
  for (i = 0U; i < hpcd->Init.dev_endpoints; i++)
 80039b6:	2a06      	cmp	r2, #6
 80039b8:	d018      	beq.n	80039ec <HAL_PCD_Init+0x1c4>
    hpcd->OUT_ep[i].num = i;
 80039ba:	3010      	adds	r0, #16
 80039bc:	3501      	adds	r5, #1
 80039be:	5225      	strh	r5, [r4, r0]
    hpcd->OUT_ep[i].type = EP_TYPE_CTRL;
 80039c0:	481d      	ldr	r0, [pc, #116]	@ (8003a38 <HAL_PCD_Init+0x210>)
 80039c2:	5421      	strb	r1, [r4, r0]
    hpcd->OUT_ep[i].maxpacket = 0U;
 80039c4:	300d      	adds	r0, #13
 80039c6:	5023      	str	r3, [r4, r0]
    hpcd->OUT_ep[i].xfer_buff = 0U;
 80039c8:	3004      	adds	r0, #4
 80039ca:	5023      	str	r3, [r4, r0]
    hpcd->OUT_ep[i].xfer_len = 0U;
 80039cc:	3004      	adds	r0, #4
 80039ce:	5023      	str	r3, [r4, r0]
  for (i = 0U; i < hpcd->Init.dev_endpoints; i++)
 80039d0:	2a07      	cmp	r2, #7
 80039d2:	d00b      	beq.n	80039ec <HAL_PCD_Init+0x1c4>
    hpcd->OUT_ep[i].num = i;
 80039d4:	229a      	movs	r2, #154	@ 0x9a
 80039d6:	2007      	movs	r0, #7
 80039d8:	0092      	lsls	r2, r2, #2
 80039da:	52a0      	strh	r0, [r4, r2]
    hpcd->OUT_ep[i].type = EP_TYPE_CTRL;
 80039dc:	4a17      	ldr	r2, [pc, #92]	@ (8003a3c <HAL_PCD_Init+0x214>)
 80039de:	54a1      	strb	r1, [r4, r2]
    hpcd->OUT_ep[i].maxpacket = 0U;
 80039e0:	320d      	adds	r2, #13
 80039e2:	50a3      	str	r3, [r4, r2]
    hpcd->OUT_ep[i].xfer_buff = 0U;
 80039e4:	3204      	adds	r2, #4
 80039e6:	50a3      	str	r3, [r4, r2]
    hpcd->OUT_ep[i].xfer_len = 0U;
 80039e8:	3204      	adds	r2, #4
 80039ea:	50a3      	str	r3, [r4, r2]
  }

  /* Init Device */
  (void)USB_DevInit(hpcd->Instance, hpcd->Init);
 80039ec:	68a2      	ldr	r2, [r4, #8]
 80039ee:	6820      	ldr	r0, [r4, #0]
 80039f0:	6861      	ldr	r1, [r4, #4]
 80039f2:	f001 ff61 	bl	80058b8 <USB_DevInit>

  hpcd->USB_Address = 0U;
 80039f6:	2300      	movs	r3, #0
  hpcd->State = HAL_PCD_STATE_READY;
 80039f8:	2201      	movs	r2, #1
  hpcd->USB_Address = 0U;
 80039fa:	7323      	strb	r3, [r4, #12]
  hpcd->State = HAL_PCD_STATE_READY;
 80039fc:	4b0c      	ldr	r3, [pc, #48]	@ (8003a30 <HAL_PCD_Init+0x208>)
 80039fe:	54e2      	strb	r2, [r4, r3]

  /* Activate LPM */
  if (hpcd->Init.lpm_enable == 1U)
 8003a00:	7aa3      	ldrb	r3, [r4, #10]
 8003a02:	2b01      	cmp	r3, #1
 8003a04:	d007      	beq.n	8003a16 <HAL_PCD_Init+0x1ee>
  {
    (void)HAL_PCDEx_ActivateLPM(hpcd);
  }

  return HAL_OK;
 8003a06:	2000      	movs	r0, #0
}
 8003a08:	bd70      	pop	{r4, r5, r6, pc}
    hpcd->Lock = HAL_UNLOCKED;
 8003a0a:	23a4      	movs	r3, #164	@ 0xa4
 8003a0c:	009b      	lsls	r3, r3, #2
 8003a0e:	54c2      	strb	r2, [r0, r3]
    HAL_PCD_MspInit(hpcd);
 8003a10:	f003 fc7c 	bl	800730c <HAL_PCD_MspInit>
 8003a14:	e712      	b.n	800383c <HAL_PCD_Init+0x14>
    (void)HAL_PCDEx_ActivateLPM(hpcd);
 8003a16:	0020      	movs	r0, r4
 8003a18:	f000 ff14 	bl	8004844 <HAL_PCDEx_ActivateLPM>
 8003a1c:	e7f3      	b.n	8003a06 <HAL_PCD_Init+0x1de>
    return HAL_ERROR;
 8003a1e:	2001      	movs	r0, #1
 8003a20:	e7f2      	b.n	8003a08 <HAL_PCD_Init+0x1e0>
    hpcd->OUT_ep[i].num = i;
 8003a22:	22a8      	movs	r2, #168	@ 0xa8
 8003a24:	0052      	lsls	r2, r2, #1
 8003a26:	52a3      	strh	r3, [r4, r2]
    hpcd->OUT_ep[i].type = EP_TYPE_CTRL;
 8003a28:	2254      	movs	r2, #84	@ 0x54
 8003a2a:	2100      	movs	r1, #0
 8003a2c:	32ff      	adds	r2, #255	@ 0xff
 8003a2e:	e7d6      	b.n	80039de <HAL_PCD_Init+0x1b6>
 8003a30:	00000291 	.word	0x00000291
 8003a34:	0000021b 	.word	0x0000021b
 8003a38:	00000243 	.word	0x00000243
 8003a3c:	0000026b 	.word	0x0000026b

08003a40 <HAL_PCD_Start>:
  * @brief  Start the USB device
  * @param  hpcd PCD handle
  * @retval HAL status
  */
HAL_StatusTypeDef HAL_PCD_Start(PCD_HandleTypeDef *hpcd)
{
 8003a40:	b570      	push	{r4, r5, r6, lr}
  __HAL_LOCK(hpcd);
 8003a42:	25a4      	movs	r5, #164	@ 0xa4
 8003a44:	00ad      	lsls	r5, r5, #2
 8003a46:	5d43      	ldrb	r3, [r0, r5]
{
 8003a48:	0004      	movs	r4, r0
  __HAL_LOCK(hpcd);
 8003a4a:	2b01      	cmp	r3, #1
 8003a4c:	d00b      	beq.n	8003a66 <HAL_PCD_Start+0x26>
 8003a4e:	2301      	movs	r3, #1
 8003a50:	5543      	strb	r3, [r0, r5]
  __HAL_PCD_ENABLE(hpcd);
 8003a52:	6800      	ldr	r0, [r0, #0]
 8003a54:	f001 ff1c 	bl	8005890 <USB_EnableGlobalInt>
  (void)USB_DevConnect(hpcd->Instance);
 8003a58:	6820      	ldr	r0, [r4, #0]
 8003a5a:	f002 fc83 	bl	8006364 <USB_DevConnect>
  __HAL_UNLOCK(hpcd);
 8003a5e:	2300      	movs	r3, #0

  return HAL_OK;
 8003a60:	2000      	movs	r0, #0
  __HAL_UNLOCK(hpcd);
 8003a62:	5563      	strb	r3, [r4, r5]
}
 8003a64:	bd70      	pop	{r4, r5, r6, pc}
  __HAL_LOCK(hpcd);
 8003a66:	2002      	movs	r0, #2
 8003a68:	e7fc      	b.n	8003a64 <HAL_PCD_Start+0x24>
 8003a6a:	46c0      	nop			@ (mov r8, r8)

08003a6c <HAL_PCD_IRQHandler>:
  * @brief  This function handles PCD interrupt request.
  * @param  hpcd PCD handle
  * @retval HAL status
  */
void HAL_PCD_IRQHandler(PCD_HandleTypeDef *hpcd)
{
 8003a6c:	b5f0      	push	{r4, r5, r6, r7, lr}
 8003a6e:	46de      	mov	lr, fp
 8003a70:	464e      	mov	r6, r9
 8003a72:	4657      	mov	r7, sl
 8003a74:	4645      	mov	r5, r8
 8003a76:	b5e0      	push	{r5, r6, r7, lr}
 8003a78:	0004      	movs	r4, r0
 8003a7a:	b085      	sub	sp, #20
  uint32_t wIstr = USB_ReadInterrupts(hpcd->Instance);
 8003a7c:	6800      	ldr	r0, [r0, #0]
 8003a7e:	f002 fc79 	bl	8006374 <USB_ReadInterrupts>

  if ((wIstr & USB_ISTR_CTR) == USB_ISTR_CTR)
 8003a82:	2380      	movs	r3, #128	@ 0x80
 8003a84:	0006      	movs	r6, r0
 8003a86:	021b      	lsls	r3, r3, #8
 8003a88:	401e      	ands	r6, r3
 8003a8a:	4218      	tst	r0, r3
 8003a8c:	d12f      	bne.n	8003aee <HAL_PCD_IRQHandler+0x82>
    (void)PCD_EP_ISR_Handler(hpcd);

    return;
  }

  if ((wIstr & USB_ISTR_RESET) == USB_ISTR_RESET)
 8003a8e:	0543      	lsls	r3, r0, #21
 8003a90:	d500      	bpl.n	8003a94 <HAL_PCD_IRQHandler+0x28>
 8003a92:	e17c      	b.n	8003d8e <HAL_PCD_IRQHandler+0x322>
    (void)HAL_PCD_SetAddress(hpcd, 0U);

    return;
  }

  if ((wIstr & USB_ISTR_PMAOVR) == USB_ISTR_PMAOVR)
 8003a94:	0443      	lsls	r3, r0, #17
 8003a96:	d41d      	bmi.n	8003ad4 <HAL_PCD_IRQHandler+0x68>
    __HAL_PCD_CLEAR_FLAG(hpcd, USB_ISTR_PMAOVR);

    return;
  }

  if ((wIstr & USB_ISTR_ERR) == USB_ISTR_ERR)
 8003a98:	2380      	movs	r3, #128	@ 0x80
 8003a9a:	0005      	movs	r5, r0
 8003a9c:	019b      	lsls	r3, r3, #6
 8003a9e:	401d      	ands	r5, r3
 8003aa0:	4218      	tst	r0, r3
 8003aa2:	d000      	beq.n	8003aa6 <HAL_PCD_IRQHandler+0x3a>
 8003aa4:	e1f1      	b.n	8003e8a <HAL_PCD_IRQHandler+0x41e>
    __HAL_PCD_CLEAR_FLAG(hpcd, USB_ISTR_ERR);

    return;
  }

  if ((wIstr & USB_ISTR_WKUP) == USB_ISTR_WKUP)
 8003aa6:	04c3      	lsls	r3, r0, #19
 8003aa8:	d500      	bpl.n	8003aac <HAL_PCD_IRQHandler+0x40>
 8003aaa:	e08c      	b.n	8003bc6 <HAL_PCD_IRQHandler+0x15a>
    __HAL_PCD_CLEAR_FLAG(hpcd, USB_ISTR_WKUP);

    return;
  }

  if ((wIstr & USB_ISTR_SUSP) == USB_ISTR_SUSP)
 8003aac:	0503      	lsls	r3, r0, #20
 8003aae:	d500      	bpl.n	8003ab2 <HAL_PCD_IRQHandler+0x46>
 8003ab0:	e31e      	b.n	80040f0 <HAL_PCD_IRQHandler+0x684>

    return;
  }

  /* Handle LPM Interrupt */
  if ((wIstr & USB_ISTR_L1REQ) == USB_ISTR_L1REQ)
 8003ab2:	2380      	movs	r3, #128	@ 0x80
 8003ab4:	4203      	tst	r3, r0
 8003ab6:	d000      	beq.n	8003aba <HAL_PCD_IRQHandler+0x4e>
 8003ab8:	e2f8      	b.n	80040ac <HAL_PCD_IRQHandler+0x640>
    }

    return;
  }

  if ((wIstr & USB_ISTR_SOF) == USB_ISTR_SOF)
 8003aba:	0583      	lsls	r3, r0, #22
 8003abc:	d501      	bpl.n	8003ac2 <HAL_PCD_IRQHandler+0x56>
 8003abe:	f000 fc0c 	bl	80042da <HAL_PCD_IRQHandler+0x86e>
#endif /* USE_HAL_PCD_REGISTER_CALLBACKS */

    return;
  }

  if ((wIstr & USB_ISTR_ESOF) == USB_ISTR_ESOF)
 8003ac2:	05c0      	lsls	r0, r0, #23
 8003ac4:	d50c      	bpl.n	8003ae0 <HAL_PCD_IRQHandler+0x74>
  {
    /* clear ESOF flag in ISTR */
    __HAL_PCD_CLEAR_FLAG(hpcd, USB_ISTR_ESOF);
 8003ac6:	2244      	movs	r2, #68	@ 0x44
 8003ac8:	6821      	ldr	r1, [r4, #0]
 8003aca:	48bd      	ldr	r0, [pc, #756]	@ (8003dc0 <HAL_PCD_IRQHandler+0x354>)
 8003acc:	5a8b      	ldrh	r3, [r1, r2]
 8003ace:	4003      	ands	r3, r0
 8003ad0:	528b      	strh	r3, [r1, r2]

    return;
 8003ad2:	e005      	b.n	8003ae0 <HAL_PCD_IRQHandler+0x74>
    __HAL_PCD_CLEAR_FLAG(hpcd, USB_ISTR_PMAOVR);
 8003ad4:	2244      	movs	r2, #68	@ 0x44
 8003ad6:	6821      	ldr	r1, [r4, #0]
 8003ad8:	48ba      	ldr	r0, [pc, #744]	@ (8003dc4 <HAL_PCD_IRQHandler+0x358>)
 8003ada:	5a8b      	ldrh	r3, [r1, r2]
 8003adc:	4003      	ands	r3, r0
 8003ade:	528b      	strh	r3, [r1, r2]
  }
}
 8003ae0:	b005      	add	sp, #20
 8003ae2:	bcf0      	pop	{r4, r5, r6, r7}
 8003ae4:	46bb      	mov	fp, r7
 8003ae6:	46b2      	mov	sl, r6
 8003ae8:	46a9      	mov	r9, r5
 8003aea:	46a0      	mov	r8, r4
 8003aec:	bdf0      	pop	{r4, r5, r6, r7, pc}
#if (USE_USB_DOUBLE_BUFFER != 1U)
  count = 0U;
#endif /* USE_USB_DOUBLE_BUFFER */

  /* stay in loop while pending interrupts */
  while ((hpcd->Instance->ISTR & USB_ISTR_CTR) != 0U)
 8003aee:	2344      	movs	r3, #68	@ 0x44
 8003af0:	6820      	ldr	r0, [r4, #0]
 8003af2:	5ac3      	ldrh	r3, [r0, r3]
 8003af4:	b21b      	sxth	r3, r3
 8003af6:	2b00      	cmp	r3, #0
 8003af8:	daf2      	bge.n	8003ae0 <HAL_PCD_IRQHandler+0x74>
  {
    wIstr = hpcd->Instance->ISTR;
 8003afa:	2344      	movs	r3, #68	@ 0x44
 8003afc:	469b      	mov	fp, r3

    /* extract highest priority endpoint number */
    epindex = (uint8_t)(wIstr & USB_ISTR_EP_ID);
 8003afe:	3b35      	subs	r3, #53	@ 0x35
 8003b00:	469a      	mov	sl, r3
 8003b02:	e010      	b.n	8003b26 <HAL_PCD_IRQHandler+0xba>
      {
        /* DIR = 0 */

        /* DIR = 0 => IN  int */
        /* DIR = 0 implies that (EP_CTR_TX = 1) always */
        PCD_CLEAR_TX_EP_CTR(hpcd->Instance, PCD_ENDP0);
 8003b04:	8803      	ldrh	r3, [r0, #0]
      if ((wIstr & USB_ISTR_DIR) == 0U)
 8003b06:	06d2      	lsls	r2, r2, #27
 8003b08:	d400      	bmi.n	8003b0c <HAL_PCD_IRQHandler+0xa0>
 8003b0a:	e0c1      	b.n	8003c90 <HAL_PCD_IRQHandler+0x224>
        /* DIR = 1 */

        /* DIR = 1 & CTR_RX => SETUP or OUT int */
        /* DIR = 1 & (CTR_TX | CTR_RX) => 2 int pending */
        ep = &hpcd->OUT_ep[0];
        wEPVal = PCD_GET_ENDPOINT(hpcd->Instance, PCD_ENDP0);
 8003b0c:	b29a      	uxth	r2, r3

        if ((wEPVal & USB_EP_SETUP) != 0U)
 8003b0e:	051b      	lsls	r3, r3, #20
 8003b10:	d500      	bpl.n	8003b14 <HAL_PCD_IRQHandler+0xa8>
 8003b12:	e0e7      	b.n	8003ce4 <HAL_PCD_IRQHandler+0x278>
          hpcd->SetupStageCallback(hpcd);
#else
          HAL_PCD_SetupStageCallback(hpcd);
#endif /* USE_HAL_PCD_REGISTER_CALLBACKS */
        }
        else if ((wEPVal & USB_EP_CTR_RX) != 0U)
 8003b14:	b212      	sxth	r2, r2
 8003b16:	2a00      	cmp	r2, #0
 8003b18:	da00      	bge.n	8003b1c <HAL_PCD_IRQHandler+0xb0>
 8003b1a:	e167      	b.n	8003dec <HAL_PCD_IRQHandler+0x380>
  while ((hpcd->Instance->ISTR & USB_ISTR_CTR) != 0U)
 8003b1c:	465b      	mov	r3, fp
 8003b1e:	5ac3      	ldrh	r3, [r0, r3]
 8003b20:	b21b      	sxth	r3, r3
 8003b22:	2b00      	cmp	r3, #0
 8003b24:	dadc      	bge.n	8003ae0 <HAL_PCD_IRQHandler+0x74>
    wIstr = hpcd->Instance->ISTR;
 8003b26:	465b      	mov	r3, fp
    epindex = (uint8_t)(wIstr & USB_ISTR_EP_ID);
 8003b28:	4655      	mov	r5, sl
    if (epindex == 0U)
 8003b2a:	4651      	mov	r1, sl
    wIstr = hpcd->Instance->ISTR;
 8003b2c:	5ac3      	ldrh	r3, [r0, r3]
 8003b2e:	b29a      	uxth	r2, r3
    epindex = (uint8_t)(wIstr & USB_ISTR_EP_ID);
 8003b30:	401d      	ands	r5, r3
    if (epindex == 0U)
 8003b32:	4219      	tst	r1, r3
 8003b34:	d0e6      	beq.n	8003b04 <HAL_PCD_IRQHandler+0x98>
    }
    else
    {
      /* Decode and service non control endpoints interrupt */
      /* process related endpoint register */
      wEPVal = PCD_GET_ENDPOINT(hpcd->Instance, epindex);
 8003b36:	00ae      	lsls	r6, r5, #2
 8003b38:	1982      	adds	r2, r0, r6
 8003b3a:	8813      	ldrh	r3, [r2, #0]
 8003b3c:	9600      	str	r6, [sp, #0]
 8003b3e:	b29f      	uxth	r7, r3

      if ((wEPVal & USB_EP_CTR_RX) != 0U)
 8003b40:	b21b      	sxth	r3, r3
 8003b42:	2b00      	cmp	r3, #0
 8003b44:	db59      	blt.n	8003bfa <HAL_PCD_IRQHandler+0x18e>
        {
          (void)USB_EPStartXfer(hpcd->Instance, ep);
        }
      }

      if ((wEPVal & USB_EP_CTR_TX) != 0U)
 8003b46:	2380      	movs	r3, #128	@ 0x80
 8003b48:	423b      	tst	r3, r7
 8003b4a:	d0e7      	beq.n	8003b1c <HAL_PCD_IRQHandler+0xb0>
      {
        ep = &hpcd->IN_ep[epindex];

        /* clear int flag */
        PCD_CLEAR_TX_EP_CTR(hpcd->Instance, epindex);
 8003b4c:	9e00      	ldr	r6, [sp, #0]
 8003b4e:	499e      	ldr	r1, [pc, #632]	@ (8003dc8 <HAL_PCD_IRQHandler+0x35c>)
 8003b50:	1982      	adds	r2, r0, r6
 8003b52:	8813      	ldrh	r3, [r2, #0]
 8003b54:	400b      	ands	r3, r1
 8003b56:	499d      	ldr	r1, [pc, #628]	@ (8003dcc <HAL_PCD_IRQHandler+0x360>)
 8003b58:	430b      	orrs	r3, r1
 8003b5a:	468c      	mov	ip, r1

        if (ep->type == EP_TYPE_ISOC)
 8003b5c:	1971      	adds	r1, r6, r5
        PCD_CLEAR_TX_EP_CTR(hpcd->Instance, epindex);
 8003b5e:	b29b      	uxth	r3, r3
        if (ep->type == EP_TYPE_ISOC)
 8003b60:	00c9      	lsls	r1, r1, #3
        PCD_CLEAR_TX_EP_CTR(hpcd->Instance, epindex);
 8003b62:	8013      	strh	r3, [r2, #0]
        if (ep->type == EP_TYPE_ISOC)
 8003b64:	1862      	adds	r2, r4, r1
 8003b66:	7cd3      	ldrb	r3, [r2, #19]
 8003b68:	2b01      	cmp	r3, #1
 8003b6a:	d100      	bne.n	8003b6e <HAL_PCD_IRQHandler+0x102>
 8003b6c:	e194      	b.n	8003e98 <HAL_PCD_IRQHandler+0x42c>
          if ((wEPVal & USB_EP_KIND) == 0U)
          {
            /* multi-packet on the NON control IN endpoint */
            TxPctSize = (uint16_t)PCD_GET_EP_TX_CNT(hpcd->Instance, ep->num);

            if (ep->xfer_len > TxPctSize)
 8003b6e:	6a96      	ldr	r6, [r2, #40]	@ 0x28
            TxPctSize = (uint16_t)PCD_GET_EP_TX_CNT(hpcd->Instance, ep->num);
 8003b70:	7c13      	ldrb	r3, [r2, #16]
            if (ep->xfer_len > TxPctSize)
 8003b72:	9601      	str	r6, [sp, #4]
          if ((wEPVal & USB_EP_KIND) == 0U)
 8003b74:	2680      	movs	r6, #128	@ 0x80
 8003b76:	0076      	lsls	r6, r6, #1
 8003b78:	46b0      	mov	r8, r6
 8003b7a:	403e      	ands	r6, r7
 8003b7c:	9603      	str	r6, [sp, #12]
 8003b7e:	4646      	mov	r6, r8
            TxPctSize = (uint16_t)PCD_GET_EP_TX_CNT(hpcd->Instance, ep->num);
 8003b80:	4699      	mov	r9, r3
 8003b82:	00db      	lsls	r3, r3, #3
 8003b84:	9302      	str	r3, [sp, #8]
          if ((wEPVal & USB_EP_KIND) == 0U)
 8003b86:	4237      	tst	r7, r6
 8003b88:	d000      	beq.n	8003b8c <HAL_PCD_IRQHandler+0x120>
 8003b8a:	e1bd      	b.n	8003f08 <HAL_PCD_IRQHandler+0x49c>
            TxPctSize = (uint16_t)PCD_GET_EP_TX_CNT(hpcd->Instance, ep->num);
 8003b8c:	2550      	movs	r5, #80	@ 0x50
 8003b8e:	469c      	mov	ip, r3
 8003b90:	5b45      	ldrh	r5, [r0, r5]
 8003b92:	4e8f      	ldr	r6, [pc, #572]	@ (8003dd0 <HAL_PCD_IRQHandler+0x364>)
 8003b94:	4465      	add	r5, ip
 8003b96:	46b4      	mov	ip, r6
 8003b98:	182d      	adds	r5, r5, r0
 8003b9a:	4465      	add	r5, ip
 8003b9c:	882d      	ldrh	r5, [r5, #0]
            if (ep->xfer_len > TxPctSize)
 8003b9e:	9b01      	ldr	r3, [sp, #4]
            TxPctSize = (uint16_t)PCD_GET_EP_TX_CNT(hpcd->Instance, ep->num);
 8003ba0:	05ad      	lsls	r5, r5, #22
            if (ep->xfer_len > TxPctSize)
 8003ba2:	0dad      	lsrs	r5, r5, #22
 8003ba4:	429d      	cmp	r5, r3
 8003ba6:	d300      	bcc.n	8003baa <HAL_PCD_IRQHandler+0x13e>
 8003ba8:	e1a6      	b.n	8003ef8 <HAL_PCD_IRQHandler+0x48c>
            {
              ep->xfer_len -= TxPctSize;
 8003baa:	1b5b      	subs	r3, r3, r5
 8003bac:	6293      	str	r3, [r2, #40]	@ 0x28
#endif /* USE_HAL_PCD_REGISTER_CALLBACKS */
            }
            else
            {
              /* Transfer is not yet Done */
              ep->xfer_buff += TxPctSize;
 8003bae:	6a53      	ldr	r3, [r2, #36]	@ 0x24
        ep = &hpcd->IN_ep[epindex];
 8003bb0:	3110      	adds	r1, #16
              ep->xfer_buff += TxPctSize;
 8003bb2:	195b      	adds	r3, r3, r5
 8003bb4:	6253      	str	r3, [r2, #36]	@ 0x24
              ep->xfer_count += TxPctSize;
 8003bb6:	6ad3      	ldr	r3, [r2, #44]	@ 0x2c
        ep = &hpcd->IN_ep[epindex];
 8003bb8:	1861      	adds	r1, r4, r1
              ep->xfer_count += TxPctSize;
 8003bba:	195b      	adds	r3, r3, r5
 8003bbc:	62d3      	str	r3, [r2, #44]	@ 0x2c
              (void)USB_EPStartXfer(hpcd->Instance, ep);
 8003bbe:	f002 f86d 	bl	8005c9c <USB_EPStartXfer>
  while ((hpcd->Instance->ISTR & USB_ISTR_CTR) != 0U)
 8003bc2:	6820      	ldr	r0, [r4, #0]
 8003bc4:	e7aa      	b.n	8003b1c <HAL_PCD_IRQHandler+0xb0>
    hpcd->Instance->CNTR &= (uint16_t) ~(USB_CNTR_LPMODE);
 8003bc6:	2340      	movs	r3, #64	@ 0x40
 8003bc8:	2004      	movs	r0, #4
 8003bca:	6822      	ldr	r2, [r4, #0]
 8003bcc:	5ad1      	ldrh	r1, [r2, r3]
 8003bce:	4381      	bics	r1, r0
 8003bd0:	52d1      	strh	r1, [r2, r3]
    hpcd->Instance->CNTR &= (uint16_t) ~(USB_CNTR_FSUSP);
 8003bd2:	5ad1      	ldrh	r1, [r2, r3]
 8003bd4:	3004      	adds	r0, #4
 8003bd6:	4381      	bics	r1, r0
 8003bd8:	52d1      	strh	r1, [r2, r3]
    if (hpcd->LPM_State == LPM_L1)
 8003bda:	23b2      	movs	r3, #178	@ 0xb2
 8003bdc:	009b      	lsls	r3, r3, #2
 8003bde:	5ce2      	ldrb	r2, [r4, r3]
 8003be0:	2a01      	cmp	r2, #1
 8003be2:	d100      	bne.n	8003be6 <HAL_PCD_IRQHandler+0x17a>
 8003be4:	e384      	b.n	80042f0 <HAL_PCD_IRQHandler+0x884>
    HAL_PCD_ResumeCallback(hpcd);
 8003be6:	0020      	movs	r0, r4
 8003be8:	f003 fc00 	bl	80073ec <HAL_PCD_ResumeCallback>
    __HAL_PCD_CLEAR_FLAG(hpcd, USB_ISTR_WKUP);
 8003bec:	2244      	movs	r2, #68	@ 0x44
 8003bee:	6821      	ldr	r1, [r4, #0]
 8003bf0:	4878      	ldr	r0, [pc, #480]	@ (8003dd4 <HAL_PCD_IRQHandler+0x368>)
 8003bf2:	5a8b      	ldrh	r3, [r1, r2]
 8003bf4:	4003      	ands	r3, r0
 8003bf6:	528b      	strh	r3, [r1, r2]
    return;
 8003bf8:	e772      	b.n	8003ae0 <HAL_PCD_IRQHandler+0x74>
        PCD_CLEAR_RX_EP_CTR(hpcd->Instance, epindex);
 8003bfa:	8813      	ldrh	r3, [r2, #0]
 8003bfc:	4976      	ldr	r1, [pc, #472]	@ (8003dd8 <HAL_PCD_IRQHandler+0x36c>)
 8003bfe:	400b      	ands	r3, r1
 8003c00:	2180      	movs	r1, #128	@ 0x80
 8003c02:	430b      	orrs	r3, r1
 8003c04:	8013      	strh	r3, [r2, #0]
        if (ep->doublebuffer == 0U)
 8003c06:	1973      	adds	r3, r6, r5
 8003c08:	00db      	lsls	r3, r3, #3
 8003c0a:	18e3      	adds	r3, r4, r3
 8003c0c:	001a      	movs	r2, r3
 8003c0e:	325d      	adds	r2, #93	@ 0x5d
 8003c10:	32ff      	adds	r2, #255	@ 0xff
 8003c12:	7812      	ldrb	r2, [r2, #0]
 8003c14:	2a00      	cmp	r2, #0
 8003c16:	d000      	beq.n	8003c1a <HAL_PCD_IRQHandler+0x1ae>
 8003c18:	e088      	b.n	8003d2c <HAL_PCD_IRQHandler+0x2c0>
          count = (uint16_t)PCD_GET_EP_RX_CNT(hpcd->Instance, ep->num);
 8003c1a:	3250      	adds	r2, #80	@ 0x50
 8003c1c:	5a81      	ldrh	r1, [r0, r2]
 8003c1e:	001a      	movs	r2, r3
 8003c20:	3251      	adds	r2, #81	@ 0x51
 8003c22:	32ff      	adds	r2, #255	@ 0xff
 8003c24:	7812      	ldrb	r2, [r2, #0]
 8003c26:	00d2      	lsls	r2, r2, #3
 8003c28:	1852      	adds	r2, r2, r1
 8003c2a:	496c      	ldr	r1, [pc, #432]	@ (8003ddc <HAL_PCD_IRQHandler+0x370>)
 8003c2c:	1812      	adds	r2, r2, r0
 8003c2e:	468c      	mov	ip, r1
 8003c30:	4462      	add	r2, ip
 8003c32:	8812      	ldrh	r2, [r2, #0]
 8003c34:	0592      	lsls	r2, r2, #22
 8003c36:	0d91      	lsrs	r1, r2, #22
 8003c38:	4688      	mov	r8, r1
          if (count != 0U)
 8003c3a:	2a00      	cmp	r2, #0
 8003c3c:	d000      	beq.n	8003c40 <HAL_PCD_IRQHandler+0x1d4>
 8003c3e:	e1e7      	b.n	8004010 <HAL_PCD_IRQHandler+0x5a4>
{
 8003c40:	2300      	movs	r3, #0
 8003c42:	4698      	mov	r8, r3
        ep->xfer_count += count;
 8003c44:	9b00      	ldr	r3, [sp, #0]
 8003c46:	1959      	adds	r1, r3, r5
 8003c48:	00c9      	lsls	r1, r1, #3
 8003c4a:	1863      	adds	r3, r4, r1
 8003c4c:	0018      	movs	r0, r3
 8003c4e:	306d      	adds	r0, #109	@ 0x6d
 8003c50:	30ff      	adds	r0, #255	@ 0xff
 8003c52:	6802      	ldr	r2, [r0, #0]
        ep->xfer_buff += count;
 8003c54:	3808      	subs	r0, #8
        ep->xfer_count += count;
 8003c56:	4442      	add	r2, r8
 8003c58:	6082      	str	r2, [r0, #8]
        ep->xfer_buff += count;
 8003c5a:	6802      	ldr	r2, [r0, #0]
 8003c5c:	4442      	add	r2, r8
 8003c5e:	6002      	str	r2, [r0, #0]
        if ((ep->xfer_len == 0U) || (count < ep->maxpacket))
 8003c60:	001a      	movs	r2, r3
 8003c62:	3269      	adds	r2, #105	@ 0x69
 8003c64:	32ff      	adds	r2, #255	@ 0xff
 8003c66:	6812      	ldr	r2, [r2, #0]
 8003c68:	2a00      	cmp	r2, #0
 8003c6a:	d005      	beq.n	8003c78 <HAL_PCD_IRQHandler+0x20c>
 8003c6c:	3361      	adds	r3, #97	@ 0x61
 8003c6e:	33ff      	adds	r3, #255	@ 0xff
 8003c70:	681b      	ldr	r3, [r3, #0]
 8003c72:	4543      	cmp	r3, r8
 8003c74:	d800      	bhi.n	8003c78 <HAL_PCD_IRQHandler+0x20c>
 8003c76:	e1b1      	b.n	8003fdc <HAL_PCD_IRQHandler+0x570>
          HAL_PCD_DataOutStageCallback(hpcd, ep->num);
 8003c78:	9b00      	ldr	r3, [sp, #0]
 8003c7a:	0020      	movs	r0, r4
 8003c7c:	195b      	adds	r3, r3, r5
 8003c7e:	00db      	lsls	r3, r3, #3
 8003c80:	18e3      	adds	r3, r4, r3
 8003c82:	3351      	adds	r3, #81	@ 0x51
 8003c84:	33ff      	adds	r3, #255	@ 0xff
 8003c86:	7819      	ldrb	r1, [r3, #0]
 8003c88:	f003 fb6a 	bl	8007360 <HAL_PCD_DataOutStageCallback>
        PCD_CLEAR_TX_EP_CTR(hpcd->Instance, epindex);
 8003c8c:	6820      	ldr	r0, [r4, #0]
          HAL_PCD_DataOutStageCallback(hpcd, ep->num);
 8003c8e:	e75a      	b.n	8003b46 <HAL_PCD_IRQHandler+0xda>
        PCD_CLEAR_TX_EP_CTR(hpcd->Instance, PCD_ENDP0);
 8003c90:	4a4d      	ldr	r2, [pc, #308]	@ (8003dc8 <HAL_PCD_IRQHandler+0x35c>)
        HAL_PCD_DataInStageCallback(hpcd, 0U);
 8003c92:	2100      	movs	r1, #0
        PCD_CLEAR_TX_EP_CTR(hpcd->Instance, PCD_ENDP0);
 8003c94:	4013      	ands	r3, r2
 8003c96:	2280      	movs	r2, #128	@ 0x80
 8003c98:	0212      	lsls	r2, r2, #8
 8003c9a:	4313      	orrs	r3, r2
 8003c9c:	8003      	strh	r3, [r0, #0]
        ep->xfer_count = PCD_GET_EP_TX_CNT(hpcd->Instance, ep->num);
 8003c9e:	2350      	movs	r3, #80	@ 0x50
 8003ca0:	5ac2      	ldrh	r2, [r0, r3]
 8003ca2:	7c23      	ldrb	r3, [r4, #16]
 8003ca4:	00db      	lsls	r3, r3, #3
 8003ca6:	18c3      	adds	r3, r0, r3
 8003ca8:	189b      	adds	r3, r3, r2
 8003caa:	4a49      	ldr	r2, [pc, #292]	@ (8003dd0 <HAL_PCD_IRQHandler+0x364>)
        HAL_PCD_DataInStageCallback(hpcd, 0U);
 8003cac:	0020      	movs	r0, r4
        ep->xfer_count = PCD_GET_EP_TX_CNT(hpcd->Instance, ep->num);
 8003cae:	4694      	mov	ip, r2
 8003cb0:	4463      	add	r3, ip
 8003cb2:	881b      	ldrh	r3, [r3, #0]
        ep->xfer_buff += ep->xfer_count;
 8003cb4:	6a62      	ldr	r2, [r4, #36]	@ 0x24
        ep->xfer_count = PCD_GET_EP_TX_CNT(hpcd->Instance, ep->num);
 8003cb6:	059b      	lsls	r3, r3, #22
 8003cb8:	0d9b      	lsrs	r3, r3, #22
 8003cba:	62e3      	str	r3, [r4, #44]	@ 0x2c
        ep->xfer_buff += ep->xfer_count;
 8003cbc:	18d3      	adds	r3, r2, r3
 8003cbe:	6263      	str	r3, [r4, #36]	@ 0x24
        HAL_PCD_DataInStageCallback(hpcd, 0U);
 8003cc0:	f003 fb5c 	bl	800737c <HAL_PCD_DataInStageCallback>
        if ((hpcd->USB_Address > 0U) && (ep->xfer_len == 0U))
 8003cc4:	7b23      	ldrb	r3, [r4, #12]
          hpcd->Instance->DADDR = ((uint16_t)hpcd->USB_Address | USB_DADDR_EF);
 8003cc6:	6820      	ldr	r0, [r4, #0]
        if ((hpcd->USB_Address > 0U) && (ep->xfer_len == 0U))
 8003cc8:	2b00      	cmp	r3, #0
 8003cca:	d100      	bne.n	8003cce <HAL_PCD_IRQHandler+0x262>
 8003ccc:	e726      	b.n	8003b1c <HAL_PCD_IRQHandler+0xb0>
 8003cce:	6aa3      	ldr	r3, [r4, #40]	@ 0x28
 8003cd0:	2b00      	cmp	r3, #0
 8003cd2:	d000      	beq.n	8003cd6 <HAL_PCD_IRQHandler+0x26a>
 8003cd4:	e722      	b.n	8003b1c <HAL_PCD_IRQHandler+0xb0>
          hpcd->Instance->DADDR = ((uint16_t)hpcd->USB_Address | USB_DADDR_EF);
 8003cd6:	2180      	movs	r1, #128	@ 0x80
 8003cd8:	7b22      	ldrb	r2, [r4, #12]
 8003cda:	430a      	orrs	r2, r1
 8003cdc:	3934      	subs	r1, #52	@ 0x34
 8003cde:	5242      	strh	r2, [r0, r1]
          hpcd->USB_Address = 0U;
 8003ce0:	7323      	strb	r3, [r4, #12]
 8003ce2:	e71b      	b.n	8003b1c <HAL_PCD_IRQHandler+0xb0>
          ep->xfer_count = PCD_GET_EP_RX_CNT(hpcd->Instance, ep->num);
 8003ce4:	2350      	movs	r3, #80	@ 0x50
 8003ce6:	5ac2      	ldrh	r2, [r0, r3]
 8003ce8:	3301      	adds	r3, #1
 8003cea:	33ff      	adds	r3, #255	@ 0xff
 8003cec:	5ce3      	ldrb	r3, [r4, r3]
          USB_ReadPMA(hpcd->Instance, (uint8_t *)hpcd->Setup,
 8003cee:	21a6      	movs	r1, #166	@ 0xa6
          ep->xfer_count = PCD_GET_EP_RX_CNT(hpcd->Instance, ep->num);
 8003cf0:	00db      	lsls	r3, r3, #3
 8003cf2:	18c3      	adds	r3, r0, r3
 8003cf4:	189b      	adds	r3, r3, r2
 8003cf6:	4a39      	ldr	r2, [pc, #228]	@ (8003ddc <HAL_PCD_IRQHandler+0x370>)
          USB_ReadPMA(hpcd->Instance, (uint8_t *)hpcd->Setup,
 8003cf8:	0089      	lsls	r1, r1, #2
          ep->xfer_count = PCD_GET_EP_RX_CNT(hpcd->Instance, ep->num);
 8003cfa:	4694      	mov	ip, r2
 8003cfc:	0022      	movs	r2, r4
 8003cfe:	4463      	add	r3, ip
 8003d00:	881b      	ldrh	r3, [r3, #0]
 8003d02:	3251      	adds	r2, #81	@ 0x51
 8003d04:	059b      	lsls	r3, r3, #22
 8003d06:	0d9b      	lsrs	r3, r3, #22
 8003d08:	32ff      	adds	r2, #255	@ 0xff
 8003d0a:	61d3      	str	r3, [r2, #28]
          USB_ReadPMA(hpcd->Instance, (uint8_t *)hpcd->Setup,
 8003d0c:	1861      	adds	r1, r4, r1
 8003d0e:	88d2      	ldrh	r2, [r2, #6]
 8003d10:	f002 fb4c 	bl	80063ac <USB_ReadPMA>
          PCD_CLEAR_RX_EP_CTR(hpcd->Instance, PCD_ENDP0);
 8003d14:	6822      	ldr	r2, [r4, #0]
 8003d16:	4930      	ldr	r1, [pc, #192]	@ (8003dd8 <HAL_PCD_IRQHandler+0x36c>)
 8003d18:	8813      	ldrh	r3, [r2, #0]
          HAL_PCD_SetupStageCallback(hpcd);
 8003d1a:	0020      	movs	r0, r4
          PCD_CLEAR_RX_EP_CTR(hpcd->Instance, PCD_ENDP0);
 8003d1c:	400b      	ands	r3, r1
 8003d1e:	2180      	movs	r1, #128	@ 0x80
 8003d20:	430b      	orrs	r3, r1
 8003d22:	8013      	strh	r3, [r2, #0]
          HAL_PCD_SetupStageCallback(hpcd);
 8003d24:	f003 fb12 	bl	800734c <HAL_PCD_SetupStageCallback>
  while ((hpcd->Instance->ISTR & USB_ISTR_CTR) != 0U)
 8003d28:	6820      	ldr	r0, [r4, #0]
 8003d2a:	e6f7      	b.n	8003b1c <HAL_PCD_IRQHandler+0xb0>
          if (ep->type == EP_TYPE_BULK)
 8003d2c:	2654      	movs	r6, #84	@ 0x54
 8003d2e:	36ff      	adds	r6, #255	@ 0xff
 8003d30:	46b4      	mov	ip, r6
 8003d32:	449c      	add	ip, r3
          count = (uint16_t)PCD_GET_EP_RX_CNT(hpcd->Instance, ep->num);
 8003d34:	0019      	movs	r1, r3
          if (ep->type == EP_TYPE_BULK)
 8003d36:	4666      	mov	r6, ip
          count = (uint16_t)PCD_GET_EP_RX_CNT(hpcd->Instance, ep->num);
 8003d38:	3151      	adds	r1, #81	@ 0x51
          if (ep->type == EP_TYPE_BULK)
 8003d3a:	7836      	ldrb	r6, [r6, #0]
          count = (uint16_t)PCD_GET_EP_RX_CNT(hpcd->Instance, ep->num);
 8003d3c:	31ff      	adds	r1, #255	@ 0xff

  /* Manage Buffer0 OUT */
  if ((wEPVal & USB_EP_DTOG_RX) != 0U)
  {
    /* Get count of received Data on buffer0 */
    count = (uint16_t)PCD_GET_EP_DBUF0_CNT(hpcd->Instance, ep->num);
 8003d3e:	780a      	ldrb	r2, [r1, #0]
          if (ep->type == EP_TYPE_BULK)
 8003d40:	2e02      	cmp	r6, #2
 8003d42:	d100      	bne.n	8003d46 <HAL_PCD_IRQHandler+0x2da>
 8003d44:	e1fe      	b.n	8004144 <HAL_PCD_IRQHandler+0x6d8>
            PCD_FREE_USER_BUFFER(hpcd->Instance, ep->num, 0U);
 8003d46:	0092      	lsls	r2, r2, #2
 8003d48:	4694      	mov	ip, r2
 8003d4a:	4484      	add	ip, r0
 8003d4c:	4662      	mov	r2, ip
 8003d4e:	4e24      	ldr	r6, [pc, #144]	@ (8003de0 <HAL_PCD_IRQHandler+0x374>)
 8003d50:	8812      	ldrh	r2, [r2, #0]
 8003d52:	4032      	ands	r2, r6
 8003d54:	4e23      	ldr	r6, [pc, #140]	@ (8003de4 <HAL_PCD_IRQHandler+0x378>)
 8003d56:	4332      	orrs	r2, r6
 8003d58:	4666      	mov	r6, ip
 8003d5a:	8032      	strh	r2, [r6, #0]
            if ((PCD_GET_ENDPOINT(hpcd->Instance, ep->num) & USB_EP_DTOG_RX) != 0U)
 8003d5c:	780a      	ldrb	r2, [r1, #0]
 8003d5e:	0091      	lsls	r1, r2, #2
 8003d60:	1841      	adds	r1, r0, r1
 8003d62:	8809      	ldrh	r1, [r1, #0]
 8003d64:	0449      	lsls	r1, r1, #17
 8003d66:	d400      	bmi.n	8003d6a <HAL_PCD_IRQHandler+0x2fe>
 8003d68:	e140      	b.n	8003fec <HAL_PCD_IRQHandler+0x580>
              count = (uint16_t)PCD_GET_EP_DBUF0_CNT(hpcd->Instance, ep->num);
 8003d6a:	2150      	movs	r1, #80	@ 0x50
 8003d6c:	5a41      	ldrh	r1, [r0, r1]
 8003d6e:	00d2      	lsls	r2, r2, #3
 8003d70:	1852      	adds	r2, r2, r1
 8003d72:	4917      	ldr	r1, [pc, #92]	@ (8003dd0 <HAL_PCD_IRQHandler+0x364>)
 8003d74:	1812      	adds	r2, r2, r0
 8003d76:	468c      	mov	ip, r1
 8003d78:	4462      	add	r2, ip
 8003d7a:	8812      	ldrh	r2, [r2, #0]
 8003d7c:	0592      	lsls	r2, r2, #22
 8003d7e:	0d91      	lsrs	r1, r2, #22
 8003d80:	4688      	mov	r8, r1
              if (count != 0U)
 8003d82:	2a00      	cmp	r2, #0
 8003d84:	d100      	bne.n	8003d88 <HAL_PCD_IRQHandler+0x31c>
 8003d86:	e75b      	b.n	8003c40 <HAL_PCD_IRQHandler+0x1d4>
                USB_ReadPMA(hpcd->Instance, ep->xfer_buff, ep->pmaaddr0, count);
 8003d88:	001a      	movs	r2, r3
 8003d8a:	3259      	adds	r2, #89	@ 0x59
 8003d8c:	e142      	b.n	8004014 <HAL_PCD_IRQHandler+0x5a8>
    __HAL_PCD_CLEAR_FLAG(hpcd, USB_ISTR_RESET);
 8003d8e:	2244      	movs	r2, #68	@ 0x44
  __HAL_LOCK(hpcd);
 8003d90:	25a4      	movs	r5, #164	@ 0xa4
    __HAL_PCD_CLEAR_FLAG(hpcd, USB_ISTR_RESET);
 8003d92:	6821      	ldr	r1, [r4, #0]
 8003d94:	4814      	ldr	r0, [pc, #80]	@ (8003de8 <HAL_PCD_IRQHandler+0x37c>)
 8003d96:	5a8b      	ldrh	r3, [r1, r2]
  __HAL_LOCK(hpcd);
 8003d98:	00ad      	lsls	r5, r5, #2
    __HAL_PCD_CLEAR_FLAG(hpcd, USB_ISTR_RESET);
 8003d9a:	4003      	ands	r3, r0
 8003d9c:	528b      	strh	r3, [r1, r2]
    HAL_PCD_ResetCallback(hpcd);
 8003d9e:	0020      	movs	r0, r4
 8003da0:	f003 fb00 	bl	80073a4 <HAL_PCD_ResetCallback>
  __HAL_LOCK(hpcd);
 8003da4:	5d63      	ldrb	r3, [r4, r5]
 8003da6:	2b01      	cmp	r3, #1
 8003da8:	d100      	bne.n	8003dac <HAL_PCD_IRQHandler+0x340>
 8003daa:	e699      	b.n	8003ae0 <HAL_PCD_IRQHandler+0x74>
 8003dac:	2301      	movs	r3, #1
 8003dae:	5563      	strb	r3, [r4, r5]
  (void)USB_SetDevAddress(hpcd->Instance, address);
 8003db0:	2100      	movs	r1, #0
 8003db2:	6820      	ldr	r0, [r4, #0]
  hpcd->USB_Address = address;
 8003db4:	7326      	strb	r6, [r4, #12]
  (void)USB_SetDevAddress(hpcd->Instance, address);
 8003db6:	f002 facd 	bl	8006354 <USB_SetDevAddress>
  __HAL_UNLOCK(hpcd);
 8003dba:	5566      	strb	r6, [r4, r5]
  return HAL_OK;
 8003dbc:	e690      	b.n	8003ae0 <HAL_PCD_IRQHandler+0x74>
 8003dbe:	46c0      	nop			@ (mov r8, r8)
 8003dc0:	fffffeff 	.word	0xfffffeff
 8003dc4:	ffffbfff 	.word	0xffffbfff
 8003dc8:	ffff8f0f 	.word	0xffff8f0f
 8003dcc:	ffff8000 	.word	0xffff8000
 8003dd0:	00000402 	.word	0x00000402
 8003dd4:	ffffefff 	.word	0xffffefff
 8003dd8:	00000f8f 	.word	0x00000f8f
 8003ddc:	00000406 	.word	0x00000406
 8003de0:	ffff8f8f 	.word	0xffff8f8f
 8003de4:	000080c0 	.word	0x000080c0
 8003de8:	fffffbff 	.word	0xfffffbff
          PCD_CLEAR_RX_EP_CTR(hpcd->Instance, PCD_ENDP0);
 8003dec:	8803      	ldrh	r3, [r0, #0]
 8003dee:	4aca      	ldr	r2, [pc, #808]	@ (8004118 <HAL_PCD_IRQHandler+0x6ac>)
          ep->xfer_count = PCD_GET_EP_RX_CNT(hpcd->Instance, ep->num);
 8003df0:	0025      	movs	r5, r4
          PCD_CLEAR_RX_EP_CTR(hpcd->Instance, PCD_ENDP0);
 8003df2:	4013      	ands	r3, r2
 8003df4:	2280      	movs	r2, #128	@ 0x80
 8003df6:	4313      	orrs	r3, r2
 8003df8:	8003      	strh	r3, [r0, #0]
          ep->xfer_count = PCD_GET_EP_RX_CNT(hpcd->Instance, ep->num);
 8003dfa:	2350      	movs	r3, #80	@ 0x50
 8003dfc:	5ac2      	ldrh	r2, [r0, r3]
 8003dfe:	3301      	adds	r3, #1
 8003e00:	33ff      	adds	r3, #255	@ 0xff
 8003e02:	5ce3      	ldrb	r3, [r4, r3]
 8003e04:	3551      	adds	r5, #81	@ 0x51
 8003e06:	00db      	lsls	r3, r3, #3
 8003e08:	18c3      	adds	r3, r0, r3
 8003e0a:	189b      	adds	r3, r3, r2
 8003e0c:	4ac3      	ldr	r2, [pc, #780]	@ (800411c <HAL_PCD_IRQHandler+0x6b0>)
 8003e0e:	35ff      	adds	r5, #255	@ 0xff
 8003e10:	4694      	mov	ip, r2
 8003e12:	4463      	add	r3, ip
 8003e14:	881b      	ldrh	r3, [r3, #0]
 8003e16:	059b      	lsls	r3, r3, #22
 8003e18:	0d9b      	lsrs	r3, r3, #22
 8003e1a:	61eb      	str	r3, [r5, #28]
          if ((ep->xfer_count != 0U) && (ep->xfer_buff != 0U))
 8003e1c:	d00e      	beq.n	8003e3c <HAL_PCD_IRQHandler+0x3d0>
 8003e1e:	6969      	ldr	r1, [r5, #20]
 8003e20:	2900      	cmp	r1, #0
 8003e22:	d00b      	beq.n	8003e3c <HAL_PCD_IRQHandler+0x3d0>
            USB_ReadPMA(hpcd->Instance, ep->xfer_buff,
 8003e24:	88ea      	ldrh	r2, [r5, #6]
 8003e26:	f002 fac1 	bl	80063ac <USB_ReadPMA>
            ep->xfer_buff += ep->xfer_count;
 8003e2a:	696b      	ldr	r3, [r5, #20]
 8003e2c:	69ea      	ldr	r2, [r5, #28]
            HAL_PCD_DataOutStageCallback(hpcd, 0U);
 8003e2e:	0020      	movs	r0, r4
            ep->xfer_buff += ep->xfer_count;
 8003e30:	189b      	adds	r3, r3, r2
            HAL_PCD_DataOutStageCallback(hpcd, 0U);
 8003e32:	2100      	movs	r1, #0
            ep->xfer_buff += ep->xfer_count;
 8003e34:	616b      	str	r3, [r5, #20]
            HAL_PCD_DataOutStageCallback(hpcd, 0U);
 8003e36:	f003 fa93 	bl	8007360 <HAL_PCD_DataOutStageCallback>
          wEPVal = (uint16_t)PCD_GET_ENDPOINT(hpcd->Instance, PCD_ENDP0);
 8003e3a:	6820      	ldr	r0, [r4, #0]
 8003e3c:	8803      	ldrh	r3, [r0, #0]
 8003e3e:	b29a      	uxth	r2, r3
          if (((wEPVal & USB_EP_SETUP) == 0U) && ((wEPVal & USB_EP_RX_STRX) != USB_EP_RX_VALID))
 8003e40:	051b      	lsls	r3, r3, #20
 8003e42:	d500      	bpl.n	8003e46 <HAL_PCD_IRQHandler+0x3da>
 8003e44:	e66a      	b.n	8003b1c <HAL_PCD_IRQHandler+0xb0>
 8003e46:	23c0      	movs	r3, #192	@ 0xc0
 8003e48:	019b      	lsls	r3, r3, #6
 8003e4a:	401a      	ands	r2, r3
 8003e4c:	429a      	cmp	r2, r3
 8003e4e:	d100      	bne.n	8003e52 <HAL_PCD_IRQHandler+0x3e6>
 8003e50:	e664      	b.n	8003b1c <HAL_PCD_IRQHandler+0xb0>
            PCD_SET_EP_RX_CNT(hpcd->Instance, PCD_ENDP0, ep->maxpacket);
 8003e52:	2350      	movs	r3, #80	@ 0x50
 8003e54:	5ac2      	ldrh	r2, [r0, r3]
 8003e56:	4bb1      	ldr	r3, [pc, #708]	@ (800411c <HAL_PCD_IRQHandler+0x6b0>)
 8003e58:	18c3      	adds	r3, r0, r3
 8003e5a:	189b      	adds	r3, r3, r2
 8003e5c:	881a      	ldrh	r2, [r3, #0]
 8003e5e:	0592      	lsls	r2, r2, #22
 8003e60:	0d92      	lsrs	r2, r2, #22
 8003e62:	801a      	strh	r2, [r3, #0]
 8003e64:	692a      	ldr	r2, [r5, #16]
 8003e66:	2a00      	cmp	r2, #0
 8003e68:	d000      	beq.n	8003e6c <HAL_PCD_IRQHandler+0x400>
 8003e6a:	e1be      	b.n	80041ea <HAL_PCD_IRQHandler+0x77e>
 8003e6c:	2180      	movs	r1, #128	@ 0x80
 8003e6e:	881a      	ldrh	r2, [r3, #0]
 8003e70:	0209      	lsls	r1, r1, #8
 8003e72:	430a      	orrs	r2, r1
 8003e74:	801a      	strh	r2, [r3, #0]
            PCD_SET_EP_RX_STATUS(hpcd->Instance, PCD_ENDP0, USB_EP_RX_VALID);
 8003e76:	8802      	ldrh	r2, [r0, #0]
 8003e78:	4ba9      	ldr	r3, [pc, #676]	@ (8004120 <HAL_PCD_IRQHandler+0x6b4>)
 8003e7a:	401a      	ands	r2, r3
 8003e7c:	23c0      	movs	r3, #192	@ 0xc0
 8003e7e:	019b      	lsls	r3, r3, #6
 8003e80:	4053      	eors	r3, r2
 8003e82:	4aa8      	ldr	r2, [pc, #672]	@ (8004124 <HAL_PCD_IRQHandler+0x6b8>)
 8003e84:	4313      	orrs	r3, r2
 8003e86:	8003      	strh	r3, [r0, #0]
 8003e88:	e648      	b.n	8003b1c <HAL_PCD_IRQHandler+0xb0>
    __HAL_PCD_CLEAR_FLAG(hpcd, USB_ISTR_ERR);
 8003e8a:	2244      	movs	r2, #68	@ 0x44
 8003e8c:	6821      	ldr	r1, [r4, #0]
 8003e8e:	48a6      	ldr	r0, [pc, #664]	@ (8004128 <HAL_PCD_IRQHandler+0x6bc>)
 8003e90:	5a8b      	ldrh	r3, [r1, r2]
 8003e92:	4003      	ands	r3, r0
 8003e94:	528b      	strh	r3, [r1, r2]
    return;
 8003e96:	e623      	b.n	8003ae0 <HAL_PCD_IRQHandler+0x74>
          ep->xfer_len = 0U;
 8003e98:	1c69      	adds	r1, r5, #1
 8003e9a:	008b      	lsls	r3, r1, #2
 8003e9c:	185b      	adds	r3, r3, r1
 8003e9e:	2100      	movs	r1, #0
 8003ea0:	00db      	lsls	r3, r3, #3
 8003ea2:	5119      	str	r1, [r3, r4]
          if (ep->doublebuffer != 0U)
 8003ea4:	7f13      	ldrb	r3, [r2, #28]
 8003ea6:	2b00      	cmp	r3, #0
 8003ea8:	d01b      	beq.n	8003ee2 <HAL_PCD_IRQHandler+0x476>
            if ((wEPVal & USB_EP_DTOG_TX) != 0U)
 8003eaa:	2340      	movs	r3, #64	@ 0x40
 8003eac:	001e      	movs	r6, r3
 8003eae:	403e      	ands	r6, r7
 8003eb0:	423b      	tst	r3, r7
 8003eb2:	d000      	beq.n	8003eb6 <HAL_PCD_IRQHandler+0x44a>
 8003eb4:	e0f0      	b.n	8004098 <HAL_PCD_IRQHandler+0x62c>
              PCD_SET_EP_DBUF1_CNT(hpcd->Instance, ep->num, ep->is_in, 0U);
 8003eb6:	7c53      	ldrb	r3, [r2, #17]
 8003eb8:	2b00      	cmp	r3, #0
 8003eba:	d000      	beq.n	8003ebe <HAL_PCD_IRQHandler+0x452>
 8003ebc:	e22c      	b.n	8004318 <HAL_PCD_IRQHandler+0x8ac>
 8003ebe:	3350      	adds	r3, #80	@ 0x50
 8003ec0:	5ac1      	ldrh	r1, [r0, r3]
 8003ec2:	7c13      	ldrb	r3, [r2, #16]
 8003ec4:	4a95      	ldr	r2, [pc, #596]	@ (800411c <HAL_PCD_IRQHandler+0x6b0>)
 8003ec6:	00db      	lsls	r3, r3, #3
 8003ec8:	4690      	mov	r8, r2
 8003eca:	4443      	add	r3, r8
 8003ecc:	181b      	adds	r3, r3, r0
 8003ece:	185b      	adds	r3, r3, r1
 8003ed0:	4661      	mov	r1, ip
 8003ed2:	881a      	ldrh	r2, [r3, #0]
 8003ed4:	0592      	lsls	r2, r2, #22
 8003ed6:	0d92      	lsrs	r2, r2, #22
 8003ed8:	801a      	strh	r2, [r3, #0]
 8003eda:	881a      	ldrh	r2, [r3, #0]
 8003edc:	4311      	orrs	r1, r2
 8003ede:	b28a      	uxth	r2, r1
 8003ee0:	801a      	strh	r2, [r3, #0]
          HAL_PCD_DataInStageCallback(hpcd, ep->num);
 8003ee2:	9b00      	ldr	r3, [sp, #0]
 8003ee4:	0020      	movs	r0, r4
 8003ee6:	469c      	mov	ip, r3
 8003ee8:	4465      	add	r5, ip
 8003eea:	00ed      	lsls	r5, r5, #3
 8003eec:	1965      	adds	r5, r4, r5
 8003eee:	7c29      	ldrb	r1, [r5, #16]
 8003ef0:	f003 fa44 	bl	800737c <HAL_PCD_DataInStageCallback>
  while ((hpcd->Instance->ISTR & USB_ISTR_CTR) != 0U)
 8003ef4:	6820      	ldr	r0, [r4, #0]
 8003ef6:	e611      	b.n	8003b1c <HAL_PCD_IRQHandler+0xb0>
 8003ef8:	9b03      	ldr	r3, [sp, #12]
              HAL_PCD_DataInStageCallback(hpcd, ep->num);
 8003efa:	0020      	movs	r0, r4
 8003efc:	4649      	mov	r1, r9
 8003efe:	6293      	str	r3, [r2, #40]	@ 0x28
 8003f00:	f003 fa3c 	bl	800737c <HAL_PCD_DataInStageCallback>
  while ((hpcd->Instance->ISTR & USB_ISTR_CTR) != 0U)
 8003f04:	6820      	ldr	r0, [r4, #0]
 8003f06:	e609      	b.n	8003b1c <HAL_PCD_IRQHandler+0xb0>
{
  uint32_t len;
  uint16_t TxPctSize;

  /* Data Buffer0 ACK received */
  if ((wEPVal & USB_EP_DTOG_TX) != 0U)
 8003f08:	2180      	movs	r1, #128	@ 0x80
 8003f0a:	01c9      	lsls	r1, r1, #7
 8003f0c:	4039      	ands	r1, r7
 8003f0e:	000e      	movs	r6, r1
 8003f10:	9103      	str	r1, [sp, #12]
 8003f12:	2140      	movs	r1, #64	@ 0x40
 8003f14:	000b      	movs	r3, r1
 8003f16:	403b      	ands	r3, r7
 8003f18:	4698      	mov	r8, r3
 8003f1a:	4239      	tst	r1, r7
 8003f1c:	d100      	bne.n	8003f20 <HAL_PCD_IRQHandler+0x4b4>
 8003f1e:	e082      	b.n	8004026 <HAL_PCD_IRQHandler+0x5ba>
  {
    /* multi-packet on the NON control IN endpoint */
    TxPctSize = (uint16_t)PCD_GET_EP_DBUF0_CNT(hpcd->Instance, ep->num);
 8003f20:	4b82      	ldr	r3, [pc, #520]	@ (800412c <HAL_PCD_IRQHandler+0x6c0>)
 8003f22:	2750      	movs	r7, #80	@ 0x50
 8003f24:	4698      	mov	r8, r3
 8003f26:	5bc1      	ldrh	r1, [r0, r7]
 8003f28:	9b02      	ldr	r3, [sp, #8]
 8003f2a:	4480      	add	r8, r0
 8003f2c:	4441      	add	r1, r8
 8003f2e:	5ac9      	ldrh	r1, [r1, r3]

    if (ep->xfer_len > TxPctSize)
 8003f30:	9b01      	ldr	r3, [sp, #4]
    TxPctSize = (uint16_t)PCD_GET_EP_DBUF0_CNT(hpcd->Instance, ep->num);
 8003f32:	0589      	lsls	r1, r1, #22
 8003f34:	0d89      	lsrs	r1, r1, #22
    if (ep->xfer_len > TxPctSize)
 8003f36:	4299      	cmp	r1, r3
 8003f38:	d300      	bcc.n	8003f3c <HAL_PCD_IRQHandler+0x4d0>
 8003f3a:	e1a2      	b.n	8004282 <HAL_PCD_IRQHandler+0x816>
    {
      ep->xfer_len -= TxPctSize;
 8003f3c:	1a5b      	subs	r3, r3, r1
 8003f3e:	6293      	str	r3, [r2, #40]	@ 0x28
      }
    }
    else /* Transfer is not yet Done */
    {
      /* need to Free USB Buff */
      if ((wEPVal & USB_EP_DTOG_RX) != 0U)
 8003f40:	2e00      	cmp	r6, #0
 8003f42:	d008      	beq.n	8003f56 <HAL_PCD_IRQHandler+0x4ea>
      {
        PCD_FREE_USER_BUFFER(hpcd->Instance, ep->num, 1U);
 8003f44:	464b      	mov	r3, r9
 8003f46:	009f      	lsls	r7, r3, #2
 8003f48:	19c7      	adds	r7, r0, r7
 8003f4a:	883b      	ldrh	r3, [r7, #0]
 8003f4c:	4e78      	ldr	r6, [pc, #480]	@ (8004130 <HAL_PCD_IRQHandler+0x6c4>)
 8003f4e:	4033      	ands	r3, r6
 8003f50:	4e78      	ldr	r6, [pc, #480]	@ (8004134 <HAL_PCD_IRQHandler+0x6c8>)
 8003f52:	4333      	orrs	r3, r6
 8003f54:	803b      	strh	r3, [r7, #0]
      }

      /* Still there is data to Fill in the next Buffer */
      if (ep->xfer_fill_db == 1U)
 8003f56:	9b00      	ldr	r3, [sp, #0]
 8003f58:	195b      	adds	r3, r3, r5
 8003f5a:	00db      	lsls	r3, r3, #3
 8003f5c:	18e3      	adds	r3, r4, r3
 8003f5e:	001f      	movs	r7, r3
 8003f60:	3734      	adds	r7, #52	@ 0x34
 8003f62:	783e      	ldrb	r6, [r7, #0]
 8003f64:	2e01      	cmp	r6, #1
 8003f66:	d000      	beq.n	8003f6a <HAL_PCD_IRQHandler+0x4fe>
 8003f68:	e084      	b.n	8004074 <HAL_PCD_IRQHandler+0x608>
      {
        ep->xfer_buff += TxPctSize;
 8003f6a:	6a5e      	ldr	r6, [r3, #36]	@ 0x24
 8003f6c:	46b1      	mov	r9, r6
 8003f6e:	4489      	add	r9, r1
 8003f70:	464e      	mov	r6, r9
 8003f72:	625e      	str	r6, [r3, #36]	@ 0x24
        ep->xfer_count += TxPctSize;
 8003f74:	6ad6      	ldr	r6, [r2, #44]	@ 0x2c
 8003f76:	46b4      	mov	ip, r6
 8003f78:	448c      	add	ip, r1
 8003f7a:	4666      	mov	r6, ip
 8003f7c:	62d6      	str	r6, [r2, #44]	@ 0x2c

        /* Calculate the len of the new buffer to fill */
        if (ep->xfer_len_db >= ep->maxpacket)
 8003f7e:	6b1a      	ldr	r2, [r3, #48]	@ 0x30
 8003f80:	4694      	mov	ip, r2
 8003f82:	6a1a      	ldr	r2, [r3, #32]
 8003f84:	4594      	cmp	ip, r2
 8003f86:	d200      	bcs.n	8003f8a <HAL_PCD_IRQHandler+0x51e>
 8003f88:	e288      	b.n	800449c <HAL_PCD_IRQHandler+0xa30>
        {
          len = ep->maxpacket;
          ep->xfer_len_db -= len;
 8003f8a:	4661      	mov	r1, ip
 8003f8c:	1a89      	subs	r1, r1, r2
 8003f8e:	6319      	str	r1, [r3, #48]	@ 0x30
          ep->xfer_len_db = 0U;
        }

        /* Write remaining Data to Buffer */
        /* Set the Double buffer counter for pma buffer1 */
        PCD_SET_EP_DBUF0_CNT(hpcd->Instance, ep->num, ep->is_in, len);
 8003f90:	b291      	uxth	r1, r2
 8003f92:	9b00      	ldr	r3, [sp, #0]
 8003f94:	195b      	adds	r3, r3, r5
 8003f96:	00db      	lsls	r3, r3, #3
 8003f98:	18e3      	adds	r3, r4, r3
 8003f9a:	7c5b      	ldrb	r3, [r3, #17]
 8003f9c:	2b00      	cmp	r3, #0
 8003f9e:	d000      	beq.n	8003fa2 <HAL_PCD_IRQHandler+0x536>
 8003fa0:	e271      	b.n	8004486 <HAL_PCD_IRQHandler+0xa1a>
 8003fa2:	9e02      	ldr	r6, [sp, #8]
 8003fa4:	3350      	adds	r3, #80	@ 0x50
 8003fa6:	46b4      	mov	ip, r6
 8003fa8:	5ac3      	ldrh	r3, [r0, r3]
 8003faa:	4443      	add	r3, r8
 8003fac:	4463      	add	r3, ip
 8003fae:	881f      	ldrh	r7, [r3, #0]
 8003fb0:	05bf      	lsls	r7, r7, #22
 8003fb2:	0dbf      	lsrs	r7, r7, #22
 8003fb4:	801f      	strh	r7, [r3, #0]
 8003fb6:	2a00      	cmp	r2, #0
 8003fb8:	d000      	beq.n	8003fbc <HAL_PCD_IRQHandler+0x550>
 8003fba:	e2aa      	b.n	8004512 <HAL_PCD_IRQHandler+0xaa6>
 8003fbc:	2780      	movs	r7, #128	@ 0x80
 8003fbe:	881a      	ldrh	r2, [r3, #0]
 8003fc0:	023f      	lsls	r7, r7, #8
 8003fc2:	433a      	orrs	r2, r7
 8003fc4:	801a      	strh	r2, [r3, #0]

        /* Copy user buffer to USB PMA */
        USB_WritePMA(hpcd->Instance, ep->xfer_buff,  ep->pmaaddr0, (uint16_t)len);
 8003fc6:	9b00      	ldr	r3, [sp, #0]
 8003fc8:	195b      	adds	r3, r3, r5
 8003fca:	00db      	lsls	r3, r3, #3
 8003fcc:	18e3      	adds	r3, r4, r3
 8003fce:	8b1a      	ldrh	r2, [r3, #24]
 8003fd0:	000b      	movs	r3, r1
 8003fd2:	4649      	mov	r1, r9
 8003fd4:	f002 f9d2 	bl	800637c <USB_WritePMA>
      }
    }
  }

  /*enable endpoint IN*/
  PCD_SET_EP_TX_STATUS(hpcd->Instance, ep->num, USB_EP_TX_VALID);
 8003fd8:	6820      	ldr	r0, [r4, #0]
 8003fda:	e04b      	b.n	8004074 <HAL_PCD_IRQHandler+0x608>
        ep = &hpcd->OUT_ep[epindex];
 8003fdc:	3151      	adds	r1, #81	@ 0x51
 8003fde:	31ff      	adds	r1, #255	@ 0xff
          (void)USB_EPStartXfer(hpcd->Instance, ep);
 8003fe0:	6820      	ldr	r0, [r4, #0]
        ep = &hpcd->OUT_ep[epindex];
 8003fe2:	1861      	adds	r1, r4, r1
          (void)USB_EPStartXfer(hpcd->Instance, ep);
 8003fe4:	f001 fe5a 	bl	8005c9c <USB_EPStartXfer>
        PCD_CLEAR_TX_EP_CTR(hpcd->Instance, epindex);
 8003fe8:	6820      	ldr	r0, [r4, #0]
 8003fea:	e5ac      	b.n	8003b46 <HAL_PCD_IRQHandler+0xda>
              count = (uint16_t)PCD_GET_EP_DBUF1_CNT(hpcd->Instance, ep->num);
 8003fec:	2150      	movs	r1, #80	@ 0x50
 8003fee:	5a41      	ldrh	r1, [r0, r1]
 8003ff0:	00d2      	lsls	r2, r2, #3
 8003ff2:	1852      	adds	r2, r2, r1
 8003ff4:	4949      	ldr	r1, [pc, #292]	@ (800411c <HAL_PCD_IRQHandler+0x6b0>)
 8003ff6:	1812      	adds	r2, r2, r0
 8003ff8:	468c      	mov	ip, r1
 8003ffa:	4462      	add	r2, ip
 8003ffc:	8812      	ldrh	r2, [r2, #0]
 8003ffe:	0592      	lsls	r2, r2, #22
 8004000:	0d91      	lsrs	r1, r2, #22
 8004002:	4688      	mov	r8, r1
              if (count != 0U)
 8004004:	2a00      	cmp	r2, #0
 8004006:	d100      	bne.n	800400a <HAL_PCD_IRQHandler+0x59e>
 8004008:	e61a      	b.n	8003c40 <HAL_PCD_IRQHandler+0x1d4>
                USB_ReadPMA(hpcd->Instance, ep->xfer_buff, ep->pmaaddr1, count);
 800400a:	001a      	movs	r2, r3
 800400c:	325b      	adds	r2, #91	@ 0x5b
 800400e:	e001      	b.n	8004014 <HAL_PCD_IRQHandler+0x5a8>
            USB_ReadPMA(hpcd->Instance, ep->xfer_buff, ep->pmaadress, count);
 8004010:	001a      	movs	r2, r3
 8004012:	3257      	adds	r2, #87	@ 0x57
                USB_ReadPMA(hpcd->Instance, ep->xfer_buff, ep->pmaaddr0, count);
 8004014:	3365      	adds	r3, #101	@ 0x65
 8004016:	33ff      	adds	r3, #255	@ 0xff
                USB_ReadPMA(hpcd->Instance, ep->xfer_buff, ep->pmaaddr1, count);
 8004018:	32ff      	adds	r2, #255	@ 0xff
 800401a:	6819      	ldr	r1, [r3, #0]
 800401c:	8812      	ldrh	r2, [r2, #0]
 800401e:	4643      	mov	r3, r8
 8004020:	f002 f9c4 	bl	80063ac <USB_ReadPMA>
 8004024:	e60e      	b.n	8003c44 <HAL_PCD_IRQHandler+0x1d8>
    TxPctSize = (uint16_t)PCD_GET_EP_DBUF1_CNT(hpcd->Instance, ep->num);
 8004026:	4b3d      	ldr	r3, [pc, #244]	@ (800411c <HAL_PCD_IRQHandler+0x6b0>)
 8004028:	2150      	movs	r1, #80	@ 0x50
 800402a:	469c      	mov	ip, r3
 800402c:	5a41      	ldrh	r1, [r0, r1]
 800402e:	9b02      	ldr	r3, [sp, #8]
 8004030:	4484      	add	ip, r0
 8004032:	4461      	add	r1, ip
 8004034:	5ac9      	ldrh	r1, [r1, r3]
    if (ep->xfer_len >= TxPctSize)
 8004036:	9b01      	ldr	r3, [sp, #4]
    TxPctSize = (uint16_t)PCD_GET_EP_DBUF1_CNT(hpcd->Instance, ep->num);
 8004038:	0589      	lsls	r1, r1, #22
 800403a:	0d89      	lsrs	r1, r1, #22
    if (ep->xfer_len >= TxPctSize)
 800403c:	4299      	cmp	r1, r3
 800403e:	d900      	bls.n	8004042 <HAL_PCD_IRQHandler+0x5d6>
 8004040:	e0e0      	b.n	8004204 <HAL_PCD_IRQHandler+0x798>
      ep->xfer_len -= TxPctSize;
 8004042:	1a5b      	subs	r3, r3, r1
 8004044:	6293      	str	r3, [r2, #40]	@ 0x28
    if (ep->xfer_len == 0U)
 8004046:	d100      	bne.n	800404a <HAL_PCD_IRQHandler+0x5de>
 8004048:	e0de      	b.n	8004208 <HAL_PCD_IRQHandler+0x79c>
      if ((wEPVal & USB_EP_DTOG_RX) == 0U)
 800404a:	2e00      	cmp	r6, #0
 800404c:	d108      	bne.n	8004060 <HAL_PCD_IRQHandler+0x5f4>
        PCD_FREE_USER_BUFFER(hpcd->Instance, ep->num, 1U);
 800404e:	464b      	mov	r3, r9
 8004050:	009f      	lsls	r7, r3, #2
 8004052:	19c7      	adds	r7, r0, r7
 8004054:	883b      	ldrh	r3, [r7, #0]
 8004056:	4e36      	ldr	r6, [pc, #216]	@ (8004130 <HAL_PCD_IRQHandler+0x6c4>)
 8004058:	4033      	ands	r3, r6
 800405a:	4e36      	ldr	r6, [pc, #216]	@ (8004134 <HAL_PCD_IRQHandler+0x6c8>)
 800405c:	4333      	orrs	r3, r6
 800405e:	803b      	strh	r3, [r7, #0]
      if (ep->xfer_fill_db == 1U)
 8004060:	9b00      	ldr	r3, [sp, #0]
 8004062:	195b      	adds	r3, r3, r5
 8004064:	00db      	lsls	r3, r3, #3
 8004066:	18e3      	adds	r3, r4, r3
 8004068:	001f      	movs	r7, r3
 800406a:	3734      	adds	r7, #52	@ 0x34
 800406c:	783e      	ldrb	r6, [r7, #0]
 800406e:	2e01      	cmp	r6, #1
 8004070:	d100      	bne.n	8004074 <HAL_PCD_IRQHandler+0x608>
 8004072:	e1cf      	b.n	8004414 <HAL_PCD_IRQHandler+0x9a8>
  PCD_SET_EP_TX_STATUS(hpcd->Instance, ep->num, USB_EP_TX_VALID);
 8004074:	9b00      	ldr	r3, [sp, #0]
 8004076:	4a30      	ldr	r2, [pc, #192]	@ (8004138 <HAL_PCD_IRQHandler+0x6cc>)
 8004078:	469c      	mov	ip, r3
 800407a:	4465      	add	r5, ip
 800407c:	00ed      	lsls	r5, r5, #3
 800407e:	1965      	adds	r5, r4, r5
 8004080:	7c2b      	ldrb	r3, [r5, #16]
 8004082:	009b      	lsls	r3, r3, #2
 8004084:	18c3      	adds	r3, r0, r3
 8004086:	8819      	ldrh	r1, [r3, #0]
 8004088:	4011      	ands	r1, r2
 800408a:	2230      	movs	r2, #48	@ 0x30
 800408c:	4051      	eors	r1, r2
 800408e:	4a2b      	ldr	r2, [pc, #172]	@ (800413c <HAL_PCD_IRQHandler+0x6d0>)
 8004090:	430a      	orrs	r2, r1
 8004092:	b292      	uxth	r2, r2
 8004094:	801a      	strh	r2, [r3, #0]

  return HAL_OK;
 8004096:	e541      	b.n	8003b1c <HAL_PCD_IRQHandler+0xb0>
              PCD_SET_EP_DBUF0_CNT(hpcd->Instance, ep->num, ep->is_in, 0U);
 8004098:	7c53      	ldrb	r3, [r2, #17]
 800409a:	2b00      	cmp	r3, #0
 800409c:	d000      	beq.n	80040a0 <HAL_PCD_IRQHandler+0x634>
 800409e:	e12d      	b.n	80042fc <HAL_PCD_IRQHandler+0x890>
 80040a0:	3350      	adds	r3, #80	@ 0x50
 80040a2:	5ac1      	ldrh	r1, [r0, r3]
 80040a4:	7c13      	ldrb	r3, [r2, #16]
 80040a6:	4a21      	ldr	r2, [pc, #132]	@ (800412c <HAL_PCD_IRQHandler+0x6c0>)
 80040a8:	00db      	lsls	r3, r3, #3
 80040aa:	e70d      	b.n	8003ec8 <HAL_PCD_IRQHandler+0x45c>
    __HAL_PCD_CLEAR_FLAG(hpcd, USB_ISTR_L1REQ);
 80040ac:	2044      	movs	r0, #68	@ 0x44
 80040ae:	6822      	ldr	r2, [r4, #0]
 80040b0:	5a11      	ldrh	r1, [r2, r0]
 80040b2:	4399      	bics	r1, r3
    if (hpcd->LPM_State == LPM_L0)
 80040b4:	23b2      	movs	r3, #178	@ 0xb2
    __HAL_PCD_CLEAR_FLAG(hpcd, USB_ISTR_L1REQ);
 80040b6:	5211      	strh	r1, [r2, r0]
    if (hpcd->LPM_State == LPM_L0)
 80040b8:	009b      	lsls	r3, r3, #2
 80040ba:	5ce1      	ldrb	r1, [r4, r3]
 80040bc:	2900      	cmp	r1, #0
 80040be:	d000      	beq.n	80040c2 <HAL_PCD_IRQHandler+0x656>
 80040c0:	e08f      	b.n	80041e2 <HAL_PCD_IRQHandler+0x776>
      hpcd->Instance->CNTR |= (uint16_t)USB_CNTR_LPMODE;
 80040c2:	2504      	movs	r5, #4
 80040c4:	3140      	adds	r1, #64	@ 0x40
 80040c6:	5a50      	ldrh	r0, [r2, r1]
 80040c8:	4328      	orrs	r0, r5
 80040ca:	5250      	strh	r0, [r2, r1]
      hpcd->Instance->CNTR |= (uint16_t)USB_CNTR_FSUSP;
 80040cc:	5a50      	ldrh	r0, [r2, r1]
 80040ce:	3504      	adds	r5, #4
 80040d0:	4328      	orrs	r0, r5
 80040d2:	5250      	strh	r0, [r2, r1]
      hpcd->LPM_State = LPM_L1;
 80040d4:	393f      	subs	r1, #63	@ 0x3f
 80040d6:	54e1      	strb	r1, [r4, r3]
      hpcd->BESL = ((uint32_t)hpcd->Instance->LPMCSR & USB_LPMCSR_BESL) >> 2;
 80040d8:	2354      	movs	r3, #84	@ 0x54
 80040da:	5ad2      	ldrh	r2, [r2, r3]
 80040dc:	3b18      	subs	r3, #24
 80040de:	0892      	lsrs	r2, r2, #2
 80040e0:	4013      	ands	r3, r2
 80040e2:	22b3      	movs	r2, #179	@ 0xb3
 80040e4:	0092      	lsls	r2, r2, #2
      HAL_PCDEx_LPM_Callback(hpcd, PCD_LPM_L1_ACTIVE);
 80040e6:	0020      	movs	r0, r4
      hpcd->BESL = ((uint32_t)hpcd->Instance->LPMCSR & USB_LPMCSR_BESL) >> 2;
 80040e8:	50a3      	str	r3, [r4, r2]
      HAL_PCDEx_LPM_Callback(hpcd, PCD_LPM_L1_ACTIVE);
 80040ea:	f000 fbbf 	bl	800486c <HAL_PCDEx_LPM_Callback>
 80040ee:	e4f7      	b.n	8003ae0 <HAL_PCD_IRQHandler+0x74>
    hpcd->Instance->CNTR |= (uint16_t)USB_CNTR_FSUSP;
 80040f0:	2240      	movs	r2, #64	@ 0x40
 80040f2:	2008      	movs	r0, #8
 80040f4:	6823      	ldr	r3, [r4, #0]
    __HAL_PCD_CLEAR_FLAG(hpcd, USB_ISTR_SUSP);
 80040f6:	4d12      	ldr	r5, [pc, #72]	@ (8004140 <HAL_PCD_IRQHandler+0x6d4>)
    hpcd->Instance->CNTR |= (uint16_t)USB_CNTR_FSUSP;
 80040f8:	5a99      	ldrh	r1, [r3, r2]
 80040fa:	4301      	orrs	r1, r0
 80040fc:	5299      	strh	r1, [r3, r2]
    __HAL_PCD_CLEAR_FLAG(hpcd, USB_ISTR_SUSP);
 80040fe:	303c      	adds	r0, #60	@ 0x3c
 8004100:	5a19      	ldrh	r1, [r3, r0]
 8004102:	4029      	ands	r1, r5
 8004104:	5219      	strh	r1, [r3, r0]
    hpcd->Instance->CNTR |= (uint16_t)USB_CNTR_LPMODE;
 8004106:	5a99      	ldrh	r1, [r3, r2]
 8004108:	3840      	subs	r0, #64	@ 0x40
 800410a:	4301      	orrs	r1, r0
 800410c:	5299      	strh	r1, [r3, r2]
    HAL_PCD_SuspendCallback(hpcd);
 800410e:	0020      	movs	r0, r4
 8004110:	f003 f95a 	bl	80073c8 <HAL_PCD_SuspendCallback>
    return;
 8004114:	e4e4      	b.n	8003ae0 <HAL_PCD_IRQHandler+0x74>
 8004116:	46c0      	nop			@ (mov r8, r8)
 8004118:	00000f8f 	.word	0x00000f8f
 800411c:	00000406 	.word	0x00000406
 8004120:	ffffbf8f 	.word	0xffffbf8f
 8004124:	00008080 	.word	0x00008080
 8004128:	ffffdfff 	.word	0xffffdfff
 800412c:	00000402 	.word	0x00000402
 8004130:	ffff8f8f 	.word	0xffff8f8f
 8004134:	0000c080 	.word	0x0000c080
 8004138:	ffff8fbf 	.word	0xffff8fbf
 800413c:	ffff8080 	.word	0xffff8080
 8004140:	fffff7ff 	.word	0xfffff7ff
    if (ep->xfer_len >= count)
 8004144:	3667      	adds	r6, #103	@ 0x67
 8004146:	36ff      	adds	r6, #255	@ 0xff
 8004148:	46b4      	mov	ip, r6
  if ((wEPVal & USB_EP_DTOG_RX) != 0U)
 800414a:	2680      	movs	r6, #128	@ 0x80
 800414c:	01f6      	lsls	r6, r6, #7
 800414e:	46b0      	mov	r8, r6
    if (ep->xfer_len >= count)
 8004150:	449c      	add	ip, r3
  if ((wEPVal & USB_EP_DTOG_RX) != 0U)
 8004152:	403e      	ands	r6, r7
    if (ep->xfer_len >= count)
 8004154:	4663      	mov	r3, ip
  if ((wEPVal & USB_EP_DTOG_RX) != 0U)
 8004156:	46b1      	mov	r9, r6
 8004158:	4646      	mov	r6, r8
    if (ep->xfer_len >= count)
 800415a:	681b      	ldr	r3, [r3, #0]
    count = (uint16_t)PCD_GET_EP_DBUF0_CNT(hpcd->Instance, ep->num);
 800415c:	00d1      	lsls	r1, r2, #3
  if ((wEPVal & USB_EP_DTOG_RX) != 0U)
 800415e:	4237      	tst	r7, r6
 8004160:	d100      	bne.n	8004164 <HAL_PCD_IRQHandler+0x6f8>
 8004162:	e0e7      	b.n	8004334 <HAL_PCD_IRQHandler+0x8c8>
    count = (uint16_t)PCD_GET_EP_DBUF0_CNT(hpcd->Instance, ep->num);
 8004164:	2650      	movs	r6, #80	@ 0x50
 8004166:	5b86      	ldrh	r6, [r0, r6]
 8004168:	46b0      	mov	r8, r6
 800416a:	4ecf      	ldr	r6, [pc, #828]	@ (80044a8 <HAL_PCD_IRQHandler+0xa3c>)
 800416c:	4441      	add	r1, r8
 800416e:	46b0      	mov	r8, r6
 8004170:	1809      	adds	r1, r1, r0
 8004172:	4441      	add	r1, r8
 8004174:	8809      	ldrh	r1, [r1, #0]
 8004176:	0589      	lsls	r1, r1, #22
 8004178:	0d89      	lsrs	r1, r1, #22
    if (ep->xfer_len >= count)
 800417a:	4688      	mov	r8, r1
 800417c:	4299      	cmp	r1, r3
 800417e:	d900      	bls.n	8004182 <HAL_PCD_IRQHandler+0x716>
 8004180:	e140      	b.n	8004404 <HAL_PCD_IRQHandler+0x998>
      ep->xfer_len -= count;
 8004182:	4666      	mov	r6, ip
 8004184:	1a5b      	subs	r3, r3, r1
 8004186:	6033      	str	r3, [r6, #0]
    if (ep->xfer_len == 0U)
 8004188:	d10d      	bne.n	80041a6 <HAL_PCD_IRQHandler+0x73a>
      PCD_SET_EP_RX_STATUS(hpcd->Instance, ep->num, USB_EP_RX_NAK);
 800418a:	0093      	lsls	r3, r2, #2
 800418c:	469c      	mov	ip, r3
 800418e:	4484      	add	ip, r0
 8004190:	4663      	mov	r3, ip
 8004192:	4ec6      	ldr	r6, [pc, #792]	@ (80044ac <HAL_PCD_IRQHandler+0xa40>)
 8004194:	881b      	ldrh	r3, [r3, #0]
 8004196:	401e      	ands	r6, r3
 8004198:	2380      	movs	r3, #128	@ 0x80
 800419a:	019b      	lsls	r3, r3, #6
 800419c:	4073      	eors	r3, r6
 800419e:	4ec4      	ldr	r6, [pc, #784]	@ (80044b0 <HAL_PCD_IRQHandler+0xa44>)
 80041a0:	4333      	orrs	r3, r6
 80041a2:	4666      	mov	r6, ip
 80041a4:	8033      	strh	r3, [r6, #0]
    if ((wEPVal & USB_EP_DTOG_TX) != 0U)
 80041a6:	067b      	lsls	r3, r7, #25
 80041a8:	d507      	bpl.n	80041ba <HAL_PCD_IRQHandler+0x74e>
      PCD_FREE_USER_BUFFER(hpcd->Instance, ep->num, 0U);
 80041aa:	0092      	lsls	r2, r2, #2
 80041ac:	1882      	adds	r2, r0, r2
 80041ae:	8813      	ldrh	r3, [r2, #0]
 80041b0:	4ec0      	ldr	r6, [pc, #768]	@ (80044b4 <HAL_PCD_IRQHandler+0xa48>)
 80041b2:	4033      	ands	r3, r6
 80041b4:	4ec0      	ldr	r6, [pc, #768]	@ (80044b8 <HAL_PCD_IRQHandler+0xa4c>)
 80041b6:	4333      	orrs	r3, r6
 80041b8:	8013      	strh	r3, [r2, #0]
    if (count != 0U)
 80041ba:	2900      	cmp	r1, #0
 80041bc:	d100      	bne.n	80041c0 <HAL_PCD_IRQHandler+0x754>
 80041be:	e541      	b.n	8003c44 <HAL_PCD_IRQHandler+0x1d8>
      USB_ReadPMA(hpcd->Instance, ep->xfer_buff, ep->pmaaddr0, count);
 80041c0:	9b00      	ldr	r3, [sp, #0]
 80041c2:	195b      	adds	r3, r3, r5
 80041c4:	00db      	lsls	r3, r3, #3
 80041c6:	18e3      	adds	r3, r4, r3
 80041c8:	001a      	movs	r2, r3
 80041ca:	3259      	adds	r2, #89	@ 0x59
      USB_ReadPMA(hpcd->Instance, ep->xfer_buff, ep->pmaaddr1, count);
 80041cc:	3365      	adds	r3, #101	@ 0x65
 80041ce:	33ff      	adds	r3, #255	@ 0xff
 80041d0:	681b      	ldr	r3, [r3, #0]
 80041d2:	32ff      	adds	r2, #255	@ 0xff
 80041d4:	469c      	mov	ip, r3
 80041d6:	8812      	ldrh	r2, [r2, #0]
 80041d8:	000b      	movs	r3, r1
 80041da:	4661      	mov	r1, ip
 80041dc:	f002 f8e6 	bl	80063ac <USB_ReadPMA>
 80041e0:	e530      	b.n	8003c44 <HAL_PCD_IRQHandler+0x1d8>
      HAL_PCD_SuspendCallback(hpcd);
 80041e2:	0020      	movs	r0, r4
 80041e4:	f003 f8f0 	bl	80073c8 <HAL_PCD_SuspendCallback>
 80041e8:	e47a      	b.n	8003ae0 <HAL_PCD_IRQHandler+0x74>
            PCD_SET_EP_RX_CNT(hpcd->Instance, PCD_ENDP0, ep->maxpacket);
 80041ea:	2a3e      	cmp	r2, #62	@ 0x3e
 80041ec:	d900      	bls.n	80041f0 <HAL_PCD_IRQHandler+0x784>
 80041ee:	e0d5      	b.n	800439c <HAL_PCD_IRQHandler+0x930>
 80041f0:	2501      	movs	r5, #1
 80041f2:	0851      	lsrs	r1, r2, #1
 80041f4:	402a      	ands	r2, r5
 80041f6:	1889      	adds	r1, r1, r2
 80041f8:	881a      	ldrh	r2, [r3, #0]
 80041fa:	0289      	lsls	r1, r1, #10
 80041fc:	430a      	orrs	r2, r1
 80041fe:	b292      	uxth	r2, r2
 8004200:	801a      	strh	r2, [r3, #0]
 8004202:	e638      	b.n	8003e76 <HAL_PCD_IRQHandler+0x40a>
 8004204:	4643      	mov	r3, r8
 8004206:	6293      	str	r3, [r2, #40]	@ 0x28
      PCD_SET_EP_DBUF0_CNT(hpcd->Instance, ep->num, ep->is_in, 0U);
 8004208:	9b00      	ldr	r3, [sp, #0]
 800420a:	195b      	adds	r3, r3, r5
 800420c:	00db      	lsls	r3, r3, #3
 800420e:	18e3      	adds	r3, r4, r3
 8004210:	7c5b      	ldrb	r3, [r3, #17]
 8004212:	2b00      	cmp	r3, #0
 8004214:	d000      	beq.n	8004218 <HAL_PCD_IRQHandler+0x7ac>
 8004216:	e0e1      	b.n	80043dc <HAL_PCD_IRQHandler+0x970>
 8004218:	9e02      	ldr	r6, [sp, #8]
 800421a:	49a3      	ldr	r1, [pc, #652]	@ (80044a8 <HAL_PCD_IRQHandler+0xa3c>)
 800421c:	2750      	movs	r7, #80	@ 0x50
 800421e:	4688      	mov	r8, r1
 8004220:	0033      	movs	r3, r6
 8004222:	5bc2      	ldrh	r2, [r0, r7]
 8004224:	4443      	add	r3, r8
 8004226:	18c3      	adds	r3, r0, r3
 8004228:	189b      	adds	r3, r3, r2
 800422a:	881a      	ldrh	r2, [r3, #0]
 800422c:	0592      	lsls	r2, r2, #22
 800422e:	0d92      	lsrs	r2, r2, #22
 8004230:	801a      	strh	r2, [r3, #0]
 8004232:	8819      	ldrh	r1, [r3, #0]
 8004234:	4aa1      	ldr	r2, [pc, #644]	@ (80044bc <HAL_PCD_IRQHandler+0xa50>)
 8004236:	4311      	orrs	r1, r2
 8004238:	b289      	uxth	r1, r1
 800423a:	8019      	strh	r1, [r3, #0]
      PCD_SET_EP_DBUF1_CNT(hpcd->Instance, ep->num, ep->is_in, 0U);
 800423c:	5bc3      	ldrh	r3, [r0, r7]
 800423e:	4463      	add	r3, ip
 8004240:	46b4      	mov	ip, r6
 8004242:	4463      	add	r3, ip
 8004244:	8819      	ldrh	r1, [r3, #0]
 8004246:	0589      	lsls	r1, r1, #22
 8004248:	0d89      	lsrs	r1, r1, #22
 800424a:	8019      	strh	r1, [r3, #0]
 800424c:	8819      	ldrh	r1, [r3, #0]
 800424e:	430a      	orrs	r2, r1
 8004250:	b292      	uxth	r2, r2
 8004252:	801a      	strh	r2, [r3, #0]
      HAL_PCD_DataInStageCallback(hpcd, ep->num);
 8004254:	0020      	movs	r0, r4
 8004256:	4649      	mov	r1, r9
 8004258:	f003 f890 	bl	800737c <HAL_PCD_DataInStageCallback>
      if ((wEPVal & USB_EP_DTOG_RX) == 0U)
 800425c:	9b03      	ldr	r3, [sp, #12]
        PCD_FREE_USER_BUFFER(hpcd->Instance, ep->num, 1U);
 800425e:	6820      	ldr	r0, [r4, #0]
      if ((wEPVal & USB_EP_DTOG_RX) == 0U)
 8004260:	2b00      	cmp	r3, #0
 8004262:	d000      	beq.n	8004266 <HAL_PCD_IRQHandler+0x7fa>
 8004264:	e706      	b.n	8004074 <HAL_PCD_IRQHandler+0x608>
        PCD_FREE_USER_BUFFER(hpcd->Instance, ep->num, 1U);
 8004266:	9b00      	ldr	r3, [sp, #0]
 8004268:	4992      	ldr	r1, [pc, #584]	@ (80044b4 <HAL_PCD_IRQHandler+0xa48>)
 800426a:	195b      	adds	r3, r3, r5
 800426c:	00db      	lsls	r3, r3, #3
 800426e:	18e3      	adds	r3, r4, r3
 8004270:	7c1b      	ldrb	r3, [r3, #16]
 8004272:	009b      	lsls	r3, r3, #2
 8004274:	18c3      	adds	r3, r0, r3
 8004276:	881a      	ldrh	r2, [r3, #0]
 8004278:	400a      	ands	r2, r1
 800427a:	4991      	ldr	r1, [pc, #580]	@ (80044c0 <HAL_PCD_IRQHandler+0xa54>)
 800427c:	430a      	orrs	r2, r1
 800427e:	801a      	strh	r2, [r3, #0]
 8004280:	e6f8      	b.n	8004074 <HAL_PCD_IRQHandler+0x608>
 8004282:	2300      	movs	r3, #0
 8004284:	6293      	str	r3, [r2, #40]	@ 0x28
      PCD_SET_EP_DBUF0_CNT(hpcd->Instance, ep->num, ep->is_in, 0U);
 8004286:	7c52      	ldrb	r2, [r2, #17]
 8004288:	2a00      	cmp	r2, #0
 800428a:	d000      	beq.n	800428e <HAL_PCD_IRQHandler+0x822>
 800428c:	e094      	b.n	80043b8 <HAL_PCD_IRQHandler+0x94c>
 800428e:	5bc3      	ldrh	r3, [r0, r7]
 8004290:	9902      	ldr	r1, [sp, #8]
 8004292:	4443      	add	r3, r8
 8004294:	4688      	mov	r8, r1
 8004296:	4666      	mov	r6, ip
 8004298:	4443      	add	r3, r8
 800429a:	881a      	ldrh	r2, [r3, #0]
 800429c:	0592      	lsls	r2, r2, #22
 800429e:	0d92      	lsrs	r2, r2, #22
 80042a0:	801a      	strh	r2, [r3, #0]
 80042a2:	881a      	ldrh	r2, [r3, #0]
 80042a4:	4332      	orrs	r2, r6
 80042a6:	b292      	uxth	r2, r2
 80042a8:	801a      	strh	r2, [r3, #0]
      PCD_SET_EP_DBUF1_CNT(hpcd->Instance, ep->num, ep->is_in, 0U);
 80042aa:	000b      	movs	r3, r1
 80042ac:	4985      	ldr	r1, [pc, #532]	@ (80044c4 <HAL_PCD_IRQHandler+0xa58>)
 80042ae:	5bc2      	ldrh	r2, [r0, r7]
 80042b0:	4688      	mov	r8, r1
 80042b2:	4443      	add	r3, r8
 80042b4:	181b      	adds	r3, r3, r0
 80042b6:	189b      	adds	r3, r3, r2
 80042b8:	881a      	ldrh	r2, [r3, #0]
 80042ba:	0592      	lsls	r2, r2, #22
 80042bc:	0d92      	lsrs	r2, r2, #22
 80042be:	801a      	strh	r2, [r3, #0]
 80042c0:	881a      	ldrh	r2, [r3, #0]
 80042c2:	4332      	orrs	r2, r6
 80042c4:	b292      	uxth	r2, r2
 80042c6:	801a      	strh	r2, [r3, #0]
      HAL_PCD_DataInStageCallback(hpcd, ep->num);
 80042c8:	0020      	movs	r0, r4
 80042ca:	4649      	mov	r1, r9
 80042cc:	f003 f856 	bl	800737c <HAL_PCD_DataInStageCallback>
      if ((wEPVal & USB_EP_DTOG_RX) != 0U)
 80042d0:	9b03      	ldr	r3, [sp, #12]
        PCD_FREE_USER_BUFFER(hpcd->Instance, ep->num, 1U);
 80042d2:	6820      	ldr	r0, [r4, #0]
      if ((wEPVal & USB_EP_DTOG_RX) != 0U)
 80042d4:	2b00      	cmp	r3, #0
 80042d6:	d1c6      	bne.n	8004266 <HAL_PCD_IRQHandler+0x7fa>
 80042d8:	e6cc      	b.n	8004074 <HAL_PCD_IRQHandler+0x608>
    __HAL_PCD_CLEAR_FLAG(hpcd, USB_ISTR_SOF);
 80042da:	2244      	movs	r2, #68	@ 0x44
 80042dc:	6821      	ldr	r1, [r4, #0]
 80042de:	487a      	ldr	r0, [pc, #488]	@ (80044c8 <HAL_PCD_IRQHandler+0xa5c>)
 80042e0:	5a8b      	ldrh	r3, [r1, r2]
 80042e2:	4003      	ands	r3, r0
 80042e4:	528b      	strh	r3, [r1, r2]
    HAL_PCD_SOFCallback(hpcd);
 80042e6:	0020      	movs	r0, r4
 80042e8:	f003 f854 	bl	8007394 <HAL_PCD_SOFCallback>
    return;
 80042ec:	f7ff fbf8 	bl	8003ae0 <HAL_PCD_IRQHandler+0x74>
      HAL_PCDEx_LPM_Callback(hpcd, PCD_LPM_L0_ACTIVE);
 80042f0:	2100      	movs	r1, #0
 80042f2:	0020      	movs	r0, r4
      hpcd->LPM_State = LPM_L0;
 80042f4:	54e5      	strb	r5, [r4, r3]
      HAL_PCDEx_LPM_Callback(hpcd, PCD_LPM_L0_ACTIVE);
 80042f6:	f000 fab9 	bl	800486c <HAL_PCDEx_LPM_Callback>
 80042fa:	e474      	b.n	8003be6 <HAL_PCD_IRQHandler+0x17a>
              PCD_SET_EP_DBUF0_CNT(hpcd->Instance, ep->num, ep->is_in, 0U);
 80042fc:	2b01      	cmp	r3, #1
 80042fe:	d000      	beq.n	8004302 <HAL_PCD_IRQHandler+0x896>
 8004300:	e5ef      	b.n	8003ee2 <HAL_PCD_IRQHandler+0x476>
 8004302:	334f      	adds	r3, #79	@ 0x4f
 8004304:	5ac7      	ldrh	r7, [r0, r3]
 8004306:	7c13      	ldrb	r3, [r2, #16]
 8004308:	4a67      	ldr	r2, [pc, #412]	@ (80044a8 <HAL_PCD_IRQHandler+0xa3c>)
 800430a:	00db      	lsls	r3, r3, #3
 800430c:	4694      	mov	ip, r2
 800430e:	4463      	add	r3, ip
 8004310:	18c3      	adds	r3, r0, r3
 8004312:	19db      	adds	r3, r3, r7
 8004314:	8019      	strh	r1, [r3, #0]
 8004316:	e5e4      	b.n	8003ee2 <HAL_PCD_IRQHandler+0x476>
              PCD_SET_EP_DBUF1_CNT(hpcd->Instance, ep->num, ep->is_in, 0U);
 8004318:	2b01      	cmp	r3, #1
 800431a:	d000      	beq.n	800431e <HAL_PCD_IRQHandler+0x8b2>
 800431c:	e5e1      	b.n	8003ee2 <HAL_PCD_IRQHandler+0x476>
 800431e:	334f      	adds	r3, #79	@ 0x4f
 8004320:	5ac1      	ldrh	r1, [r0, r3]
 8004322:	7c13      	ldrb	r3, [r2, #16]
 8004324:	4a67      	ldr	r2, [pc, #412]	@ (80044c4 <HAL_PCD_IRQHandler+0xa58>)
 8004326:	00db      	lsls	r3, r3, #3
 8004328:	4694      	mov	ip, r2
 800432a:	4463      	add	r3, ip
 800432c:	181b      	adds	r3, r3, r0
 800432e:	185b      	adds	r3, r3, r1
 8004330:	801e      	strh	r6, [r3, #0]
 8004332:	e5d6      	b.n	8003ee2 <HAL_PCD_IRQHandler+0x476>
    count = (uint16_t)PCD_GET_EP_DBUF1_CNT(hpcd->Instance, ep->num);
 8004334:	2650      	movs	r6, #80	@ 0x50
 8004336:	5b86      	ldrh	r6, [r0, r6]
 8004338:	46b0      	mov	r8, r6
 800433a:	4e62      	ldr	r6, [pc, #392]	@ (80044c4 <HAL_PCD_IRQHandler+0xa58>)
 800433c:	4441      	add	r1, r8
 800433e:	46b0      	mov	r8, r6
 8004340:	1809      	adds	r1, r1, r0
 8004342:	4441      	add	r1, r8
 8004344:	8809      	ldrh	r1, [r1, #0]
 8004346:	0589      	lsls	r1, r1, #22
 8004348:	0d89      	lsrs	r1, r1, #22
    if (ep->xfer_len >= count)
 800434a:	4688      	mov	r8, r1
 800434c:	4299      	cmp	r1, r3
 800434e:	d85d      	bhi.n	800440c <HAL_PCD_IRQHandler+0x9a0>
      ep->xfer_len -= count;
 8004350:	4666      	mov	r6, ip
 8004352:	1a5b      	subs	r3, r3, r1
 8004354:	6033      	str	r3, [r6, #0]
    if (ep->xfer_len == 0U)
 8004356:	d10d      	bne.n	8004374 <HAL_PCD_IRQHandler+0x908>
      PCD_SET_EP_RX_STATUS(hpcd->Instance, ep->num, USB_EP_RX_NAK);
 8004358:	0093      	lsls	r3, r2, #2
 800435a:	469c      	mov	ip, r3
 800435c:	4484      	add	ip, r0
 800435e:	4663      	mov	r3, ip
 8004360:	4e52      	ldr	r6, [pc, #328]	@ (80044ac <HAL_PCD_IRQHandler+0xa40>)
 8004362:	881b      	ldrh	r3, [r3, #0]
 8004364:	401e      	ands	r6, r3
 8004366:	2380      	movs	r3, #128	@ 0x80
 8004368:	019b      	lsls	r3, r3, #6
 800436a:	4073      	eors	r3, r6
 800436c:	4e50      	ldr	r6, [pc, #320]	@ (80044b0 <HAL_PCD_IRQHandler+0xa44>)
 800436e:	4333      	orrs	r3, r6
 8004370:	4666      	mov	r6, ip
 8004372:	8033      	strh	r3, [r6, #0]
    if ((wEPVal & USB_EP_DTOG_TX) == 0U)
 8004374:	067b      	lsls	r3, r7, #25
 8004376:	d407      	bmi.n	8004388 <HAL_PCD_IRQHandler+0x91c>
      PCD_FREE_USER_BUFFER(hpcd->Instance, ep->num, 0U);
 8004378:	0092      	lsls	r2, r2, #2
 800437a:	1882      	adds	r2, r0, r2
 800437c:	8813      	ldrh	r3, [r2, #0]
 800437e:	4e4d      	ldr	r6, [pc, #308]	@ (80044b4 <HAL_PCD_IRQHandler+0xa48>)
 8004380:	4033      	ands	r3, r6
 8004382:	4e4d      	ldr	r6, [pc, #308]	@ (80044b8 <HAL_PCD_IRQHandler+0xa4c>)
 8004384:	4333      	orrs	r3, r6
 8004386:	8013      	strh	r3, [r2, #0]
    if (count != 0U)
 8004388:	2900      	cmp	r1, #0
 800438a:	d100      	bne.n	800438e <HAL_PCD_IRQHandler+0x922>
 800438c:	e45a      	b.n	8003c44 <HAL_PCD_IRQHandler+0x1d8>
      USB_ReadPMA(hpcd->Instance, ep->xfer_buff, ep->pmaaddr1, count);
 800438e:	9b00      	ldr	r3, [sp, #0]
 8004390:	195b      	adds	r3, r3, r5
 8004392:	00db      	lsls	r3, r3, #3
 8004394:	18e3      	adds	r3, r4, r3
 8004396:	001a      	movs	r2, r3
 8004398:	325b      	adds	r2, #91	@ 0x5b
 800439a:	e717      	b.n	80041cc <HAL_PCD_IRQHandler+0x760>
            PCD_SET_EP_RX_CNT(hpcd->Instance, PCD_ENDP0, ep->maxpacket);
 800439c:	251f      	movs	r5, #31
 800439e:	0951      	lsrs	r1, r2, #5
 80043a0:	402a      	ands	r2, r5
 80043a2:	4255      	negs	r5, r2
 80043a4:	416a      	adcs	r2, r5
 80043a6:	1a89      	subs	r1, r1, r2
 80043a8:	881a      	ldrh	r2, [r3, #0]
 80043aa:	0289      	lsls	r1, r1, #10
 80043ac:	4311      	orrs	r1, r2
 80043ae:	4a43      	ldr	r2, [pc, #268]	@ (80044bc <HAL_PCD_IRQHandler+0xa50>)
 80043b0:	430a      	orrs	r2, r1
 80043b2:	b292      	uxth	r2, r2
 80043b4:	801a      	strh	r2, [r3, #0]
 80043b6:	e55e      	b.n	8003e76 <HAL_PCD_IRQHandler+0x40a>
      PCD_SET_EP_DBUF0_CNT(hpcd->Instance, ep->num, ep->is_in, 0U);
 80043b8:	2a01      	cmp	r2, #1
 80043ba:	d000      	beq.n	80043be <HAL_PCD_IRQHandler+0x952>
 80043bc:	e784      	b.n	80042c8 <HAL_PCD_IRQHandler+0x85c>
 80043be:	9e02      	ldr	r6, [sp, #8]
 80043c0:	5bc2      	ldrh	r2, [r0, r7]
 80043c2:	46b4      	mov	ip, r6
 80043c4:	4442      	add	r2, r8
 80043c6:	4462      	add	r2, ip
 80043c8:	8013      	strh	r3, [r2, #0]
      PCD_SET_EP_DBUF1_CNT(hpcd->Instance, ep->num, ep->is_in, 0U);
 80043ca:	0032      	movs	r2, r6
 80043cc:	4e3d      	ldr	r6, [pc, #244]	@ (80044c4 <HAL_PCD_IRQHandler+0xa58>)
 80043ce:	5bc1      	ldrh	r1, [r0, r7]
 80043d0:	46b4      	mov	ip, r6
 80043d2:	4462      	add	r2, ip
 80043d4:	1812      	adds	r2, r2, r0
 80043d6:	1852      	adds	r2, r2, r1
 80043d8:	8013      	strh	r3, [r2, #0]
 80043da:	e775      	b.n	80042c8 <HAL_PCD_IRQHandler+0x85c>
      PCD_SET_EP_DBUF0_CNT(hpcd->Instance, ep->num, ep->is_in, 0U);
 80043dc:	2b01      	cmp	r3, #1
 80043de:	d000      	beq.n	80043e2 <HAL_PCD_IRQHandler+0x976>
 80043e0:	e738      	b.n	8004254 <HAL_PCD_IRQHandler+0x7e8>
 80043e2:	9e02      	ldr	r6, [sp, #8]
 80043e4:	4f30      	ldr	r7, [pc, #192]	@ (80044a8 <HAL_PCD_IRQHandler+0xa3c>)
 80043e6:	2150      	movs	r1, #80	@ 0x50
 80043e8:	0033      	movs	r3, r6
 80043ea:	46b8      	mov	r8, r7
 80043ec:	5a42      	ldrh	r2, [r0, r1]
 80043ee:	4443      	add	r3, r8
 80043f0:	18c3      	adds	r3, r0, r3
 80043f2:	189b      	adds	r3, r3, r2
 80043f4:	2200      	movs	r2, #0
 80043f6:	801a      	strh	r2, [r3, #0]
      PCD_SET_EP_DBUF1_CNT(hpcd->Instance, ep->num, ep->is_in, 0U);
 80043f8:	5a43      	ldrh	r3, [r0, r1]
 80043fa:	4463      	add	r3, ip
 80043fc:	46b4      	mov	ip, r6
 80043fe:	4463      	add	r3, ip
 8004400:	801a      	strh	r2, [r3, #0]
 8004402:	e727      	b.n	8004254 <HAL_PCD_IRQHandler+0x7e8>
      ep->xfer_len = 0U;
 8004404:	2300      	movs	r3, #0
 8004406:	4666      	mov	r6, ip
 8004408:	6033      	str	r3, [r6, #0]
    if (ep->xfer_len == 0U)
 800440a:	e6be      	b.n	800418a <HAL_PCD_IRQHandler+0x71e>
      ep->xfer_len = 0U;
 800440c:	4663      	mov	r3, ip
 800440e:	464e      	mov	r6, r9
 8004410:	601e      	str	r6, [r3, #0]
    if (ep->xfer_len == 0U)
 8004412:	e7a1      	b.n	8004358 <HAL_PCD_IRQHandler+0x8ec>
        ep->xfer_buff += TxPctSize;
 8004414:	6a5e      	ldr	r6, [r3, #36]	@ 0x24
 8004416:	46b1      	mov	r9, r6
 8004418:	4489      	add	r9, r1
 800441a:	464e      	mov	r6, r9
 800441c:	625e      	str	r6, [r3, #36]	@ 0x24
        ep->xfer_count += TxPctSize;
 800441e:	6ad6      	ldr	r6, [r2, #44]	@ 0x2c
 8004420:	46b0      	mov	r8, r6
 8004422:	4488      	add	r8, r1
 8004424:	4646      	mov	r6, r8
 8004426:	62d6      	str	r6, [r2, #44]	@ 0x2c
        if (ep->xfer_len_db >= ep->maxpacket)
 8004428:	6b1a      	ldr	r2, [r3, #48]	@ 0x30
 800442a:	4690      	mov	r8, r2
 800442c:	6a1a      	ldr	r2, [r3, #32]
 800442e:	4590      	cmp	r8, r2
 8004430:	d358      	bcc.n	80044e4 <HAL_PCD_IRQHandler+0xa78>
          ep->xfer_len_db -= len;
 8004432:	4641      	mov	r1, r8
 8004434:	1a89      	subs	r1, r1, r2
 8004436:	6319      	str	r1, [r3, #48]	@ 0x30
        PCD_SET_EP_DBUF1_CNT(hpcd->Instance, ep->num, ep->is_in, len);
 8004438:	b291      	uxth	r1, r2
 800443a:	9b00      	ldr	r3, [sp, #0]
 800443c:	195b      	adds	r3, r3, r5
 800443e:	00db      	lsls	r3, r3, #3
 8004440:	18e3      	adds	r3, r4, r3
 8004442:	7c5b      	ldrb	r3, [r3, #17]
 8004444:	2b00      	cmp	r3, #0
 8004446:	d143      	bne.n	80044d0 <HAL_PCD_IRQHandler+0xa64>
 8004448:	3350      	adds	r3, #80	@ 0x50
 800444a:	5ac3      	ldrh	r3, [r0, r3]
 800444c:	9e02      	ldr	r6, [sp, #8]
 800444e:	4463      	add	r3, ip
 8004450:	46b4      	mov	ip, r6
 8004452:	4463      	add	r3, ip
 8004454:	881f      	ldrh	r7, [r3, #0]
 8004456:	05bf      	lsls	r7, r7, #22
 8004458:	0dbf      	lsrs	r7, r7, #22
 800445a:	801f      	strh	r7, [r3, #0]
 800445c:	2a00      	cmp	r2, #0
 800445e:	d000      	beq.n	8004462 <HAL_PCD_IRQHandler+0x9f6>
 8004460:	e075      	b.n	800454e <HAL_PCD_IRQHandler+0xae2>
 8004462:	2780      	movs	r7, #128	@ 0x80
 8004464:	881a      	ldrh	r2, [r3, #0]
 8004466:	023f      	lsls	r7, r7, #8
 8004468:	433a      	orrs	r2, r7
 800446a:	801a      	strh	r2, [r3, #0]
        USB_WritePMA(hpcd->Instance, ep->xfer_buff,  ep->pmaaddr1, (uint16_t)len);
 800446c:	9b00      	ldr	r3, [sp, #0]
 800446e:	195b      	adds	r3, r3, r5
 8004470:	00db      	lsls	r3, r3, #3
 8004472:	18e3      	adds	r3, r4, r3
 8004474:	8b5a      	ldrh	r2, [r3, #26]
 8004476:	000b      	movs	r3, r1
 8004478:	4649      	mov	r1, r9
 800447a:	f001 ff7f 	bl	800637c <USB_WritePMA>
  PCD_SET_EP_TX_STATUS(hpcd->Instance, ep->num, USB_EP_TX_VALID);
 800447e:	6820      	ldr	r0, [r4, #0]
 8004480:	e5f8      	b.n	8004074 <HAL_PCD_IRQHandler+0x608>
        PCD_SET_EP_DBUF0_CNT(hpcd->Instance, ep->num, ep->is_in, len);
 8004482:	4662      	mov	r2, ip
 8004484:	b291      	uxth	r1, r2
 8004486:	2b01      	cmp	r3, #1
 8004488:	d000      	beq.n	800448c <HAL_PCD_IRQHandler+0xa20>
 800448a:	e59c      	b.n	8003fc6 <HAL_PCD_IRQHandler+0x55a>
 800448c:	9a02      	ldr	r2, [sp, #8]
 800448e:	334f      	adds	r3, #79	@ 0x4f
 8004490:	4694      	mov	ip, r2
 8004492:	5ac3      	ldrh	r3, [r0, r3]
 8004494:	4443      	add	r3, r8
 8004496:	4463      	add	r3, ip
 8004498:	8019      	strh	r1, [r3, #0]
 800449a:	e594      	b.n	8003fc6 <HAL_PCD_IRQHandler+0x55a>
        else if (ep->xfer_len_db == 0U)
 800449c:	4662      	mov	r2, ip
 800449e:	2a00      	cmp	r2, #0
 80044a0:	d126      	bne.n	80044f0 <HAL_PCD_IRQHandler+0xa84>
          ep->xfer_fill_db = 0U;
 80044a2:	703a      	strb	r2, [r7, #0]
    if (ep->xfer_len > TxPctSize)
 80044a4:	000a      	movs	r2, r1
 80044a6:	e574      	b.n	8003f92 <HAL_PCD_IRQHandler+0x526>
 80044a8:	00000402 	.word	0x00000402
 80044ac:	ffffbf8f 	.word	0xffffbf8f
 80044b0:	00008080 	.word	0x00008080
 80044b4:	ffff8f8f 	.word	0xffff8f8f
 80044b8:	000080c0 	.word	0x000080c0
 80044bc:	ffff8000 	.word	0xffff8000
 80044c0:	0000c080 	.word	0x0000c080
 80044c4:	00000406 	.word	0x00000406
 80044c8:	fffffdff 	.word	0xfffffdff
        PCD_SET_EP_DBUF1_CNT(hpcd->Instance, ep->num, ep->is_in, len);
 80044cc:	4642      	mov	r2, r8
 80044ce:	b291      	uxth	r1, r2
 80044d0:	2b01      	cmp	r3, #1
 80044d2:	d1cb      	bne.n	800446c <HAL_PCD_IRQHandler+0xa00>
 80044d4:	334f      	adds	r3, #79	@ 0x4f
 80044d6:	5ac3      	ldrh	r3, [r0, r3]
 80044d8:	9a02      	ldr	r2, [sp, #8]
 80044da:	4463      	add	r3, ip
 80044dc:	4694      	mov	ip, r2
 80044de:	4463      	add	r3, ip
 80044e0:	8019      	strh	r1, [r3, #0]
 80044e2:	e7c3      	b.n	800446c <HAL_PCD_IRQHandler+0xa00>
        else if (ep->xfer_len_db == 0U)
 80044e4:	4642      	mov	r2, r8
 80044e6:	2a00      	cmp	r2, #0
 80044e8:	d120      	bne.n	800452c <HAL_PCD_IRQHandler+0xac0>
          ep->xfer_fill_db = 0U;
 80044ea:	703a      	strb	r2, [r7, #0]
    if (ep->xfer_len >= TxPctSize)
 80044ec:	000a      	movs	r2, r1
 80044ee:	e7a4      	b.n	800443a <HAL_PCD_IRQHandler+0x9ce>
          ep->xfer_fill_db = 0U;
 80044f0:	2200      	movs	r2, #0
 80044f2:	703a      	strb	r2, [r7, #0]
          ep->xfer_len_db = 0U;
 80044f4:	631a      	str	r2, [r3, #48]	@ 0x30
        PCD_SET_EP_DBUF0_CNT(hpcd->Instance, ep->num, ep->is_in, len);
 80044f6:	7c5b      	ldrb	r3, [r3, #17]
 80044f8:	2b00      	cmp	r3, #0
 80044fa:	d1c2      	bne.n	8004482 <HAL_PCD_IRQHandler+0xa16>
 80044fc:	2350      	movs	r3, #80	@ 0x50
 80044fe:	9a02      	ldr	r2, [sp, #8]
 8004500:	5ac3      	ldrh	r3, [r0, r3]
 8004502:	4443      	add	r3, r8
 8004504:	4690      	mov	r8, r2
 8004506:	4443      	add	r3, r8
 8004508:	881a      	ldrh	r2, [r3, #0]
 800450a:	0592      	lsls	r2, r2, #22
 800450c:	0d92      	lsrs	r2, r2, #22
 800450e:	801a      	strh	r2, [r3, #0]
 8004510:	4662      	mov	r2, ip
 8004512:	2a3e      	cmp	r2, #62	@ 0x3e
 8004514:	d828      	bhi.n	8004568 <HAL_PCD_IRQHandler+0xafc>
 8004516:	2101      	movs	r1, #1
 8004518:	0857      	lsrs	r7, r2, #1
 800451a:	4011      	ands	r1, r2
 800451c:	187f      	adds	r7, r7, r1
 800451e:	8819      	ldrh	r1, [r3, #0]
 8004520:	02bf      	lsls	r7, r7, #10
 8004522:	4339      	orrs	r1, r7
 8004524:	b289      	uxth	r1, r1
 8004526:	8019      	strh	r1, [r3, #0]
        USB_WritePMA(hpcd->Instance, ep->xfer_buff,  ep->pmaaddr0, (uint16_t)len);
 8004528:	b291      	uxth	r1, r2
 800452a:	e54c      	b.n	8003fc6 <HAL_PCD_IRQHandler+0x55a>
          ep->xfer_len_db = 0U;
 800452c:	2200      	movs	r2, #0
 800452e:	631a      	str	r2, [r3, #48]	@ 0x30
          ep->xfer_fill_db = 0;
 8004530:	703a      	strb	r2, [r7, #0]
        PCD_SET_EP_DBUF1_CNT(hpcd->Instance, ep->num, ep->is_in, len);
 8004532:	7c5b      	ldrb	r3, [r3, #17]
 8004534:	2b00      	cmp	r3, #0
 8004536:	d1c9      	bne.n	80044cc <HAL_PCD_IRQHandler+0xa60>
 8004538:	2350      	movs	r3, #80	@ 0x50
 800453a:	9a02      	ldr	r2, [sp, #8]
 800453c:	5ac3      	ldrh	r3, [r0, r3]
 800453e:	4463      	add	r3, ip
 8004540:	4694      	mov	ip, r2
 8004542:	4463      	add	r3, ip
 8004544:	881a      	ldrh	r2, [r3, #0]
 8004546:	0592      	lsls	r2, r2, #22
 8004548:	0d92      	lsrs	r2, r2, #22
 800454a:	801a      	strh	r2, [r3, #0]
 800454c:	4642      	mov	r2, r8
 800454e:	2a3e      	cmp	r2, #62	@ 0x3e
 8004550:	d81a      	bhi.n	8004588 <HAL_PCD_IRQHandler+0xb1c>
 8004552:	2101      	movs	r1, #1
 8004554:	0857      	lsrs	r7, r2, #1
 8004556:	4011      	ands	r1, r2
 8004558:	187f      	adds	r7, r7, r1
 800455a:	8819      	ldrh	r1, [r3, #0]
 800455c:	02bf      	lsls	r7, r7, #10
 800455e:	4339      	orrs	r1, r7
 8004560:	b289      	uxth	r1, r1
 8004562:	8019      	strh	r1, [r3, #0]
        USB_WritePMA(hpcd->Instance, ep->xfer_buff,  ep->pmaaddr1, (uint16_t)len);
 8004564:	b291      	uxth	r1, r2
 8004566:	e781      	b.n	800446c <HAL_PCD_IRQHandler+0xa00>
        PCD_SET_EP_DBUF0_CNT(hpcd->Instance, ep->num, ep->is_in, len);
 8004568:	271f      	movs	r7, #31
 800456a:	4017      	ands	r7, r2
 800456c:	003e      	movs	r6, r7
 800456e:	4277      	negs	r7, r6
 8004570:	4177      	adcs	r7, r6
 8004572:	0951      	lsrs	r1, r2, #5
 8004574:	1bc9      	subs	r1, r1, r7
 8004576:	881f      	ldrh	r7, [r3, #0]
 8004578:	0289      	lsls	r1, r1, #10
 800457a:	430f      	orrs	r7, r1
 800457c:	490a      	ldr	r1, [pc, #40]	@ (80045a8 <HAL_PCD_IRQHandler+0xb3c>)
 800457e:	4339      	orrs	r1, r7
 8004580:	b289      	uxth	r1, r1
 8004582:	8019      	strh	r1, [r3, #0]
        USB_WritePMA(hpcd->Instance, ep->xfer_buff,  ep->pmaaddr0, (uint16_t)len);
 8004584:	b291      	uxth	r1, r2
 8004586:	e51e      	b.n	8003fc6 <HAL_PCD_IRQHandler+0x55a>
        PCD_SET_EP_DBUF1_CNT(hpcd->Instance, ep->num, ep->is_in, len);
 8004588:	271f      	movs	r7, #31
 800458a:	4017      	ands	r7, r2
 800458c:	003e      	movs	r6, r7
 800458e:	4277      	negs	r7, r6
 8004590:	4177      	adcs	r7, r6
 8004592:	0951      	lsrs	r1, r2, #5
 8004594:	1bc9      	subs	r1, r1, r7
 8004596:	881f      	ldrh	r7, [r3, #0]
 8004598:	0289      	lsls	r1, r1, #10
 800459a:	430f      	orrs	r7, r1
 800459c:	4902      	ldr	r1, [pc, #8]	@ (80045a8 <HAL_PCD_IRQHandler+0xb3c>)
 800459e:	4339      	orrs	r1, r7
 80045a0:	b289      	uxth	r1, r1
 80045a2:	8019      	strh	r1, [r3, #0]
        USB_WritePMA(hpcd->Instance, ep->xfer_buff,  ep->pmaaddr1, (uint16_t)len);
 80045a4:	b291      	uxth	r1, r2
 80045a6:	e761      	b.n	800446c <HAL_PCD_IRQHandler+0xa00>
 80045a8:	ffff8000 	.word	0xffff8000

080045ac <HAL_PCD_SetAddress>:
{
 80045ac:	b570      	push	{r4, r5, r6, lr}
  __HAL_LOCK(hpcd);
 80045ae:	25a4      	movs	r5, #164	@ 0xa4
 80045b0:	00ad      	lsls	r5, r5, #2
 80045b2:	5d43      	ldrb	r3, [r0, r5]
{
 80045b4:	0004      	movs	r4, r0
  __HAL_LOCK(hpcd);
 80045b6:	2b01      	cmp	r3, #1
 80045b8:	d009      	beq.n	80045ce <HAL_PCD_SetAddress+0x22>
 80045ba:	2301      	movs	r3, #1
 80045bc:	5543      	strb	r3, [r0, r5]
  hpcd->USB_Address = address;
 80045be:	7301      	strb	r1, [r0, #12]
  (void)USB_SetDevAddress(hpcd->Instance, address);
 80045c0:	6800      	ldr	r0, [r0, #0]
 80045c2:	f001 fec7 	bl	8006354 <USB_SetDevAddress>
  __HAL_UNLOCK(hpcd);
 80045c6:	2300      	movs	r3, #0
  return HAL_OK;
 80045c8:	2000      	movs	r0, #0
  __HAL_UNLOCK(hpcd);
 80045ca:	5563      	strb	r3, [r4, r5]
}
 80045cc:	bd70      	pop	{r4, r5, r6, pc}
  __HAL_LOCK(hpcd);
 80045ce:	2002      	movs	r0, #2
 80045d0:	e7fc      	b.n	80045cc <HAL_PCD_SetAddress+0x20>
 80045d2:	46c0      	nop			@ (mov r8, r8)

080045d4 <HAL_PCD_EP_Open>:
{
 80045d4:	b570      	push	{r4, r5, r6, lr}
 80045d6:	0005      	movs	r5, r0
 80045d8:	2007      	movs	r0, #7
 80045da:	4008      	ands	r0, r1
 80045dc:	0084      	lsls	r4, r0, #2
 80045de:	1824      	adds	r4, r4, r0
  if ((ep_addr & 0x80U) == 0x80U)
 80045e0:	b249      	sxtb	r1, r1
 80045e2:	00e4      	lsls	r4, r4, #3
 80045e4:	2900      	cmp	r1, #0
 80045e6:	db1d      	blt.n	8004624 <HAL_PCD_EP_Open+0x50>
    ep = &hpcd->OUT_ep[ep_addr & EP_ADDR_MSK];
 80045e8:	0021      	movs	r1, r4
    ep->is_in = 0U;
 80045ea:	2600      	movs	r6, #0
 80045ec:	192c      	adds	r4, r5, r4
    ep = &hpcd->OUT_ep[ep_addr & EP_ADDR_MSK];
 80045ee:	3151      	adds	r1, #81	@ 0x51
    ep->is_in = 0U;
 80045f0:	3452      	adds	r4, #82	@ 0x52
    ep = &hpcd->OUT_ep[ep_addr & EP_ADDR_MSK];
 80045f2:	31ff      	adds	r1, #255	@ 0xff
    ep->is_in = 0U;
 80045f4:	34ff      	adds	r4, #255	@ 0xff
    ep = &hpcd->OUT_ep[ep_addr & EP_ADDR_MSK];
 80045f6:	1869      	adds	r1, r5, r1
    ep->is_in = 0U;
 80045f8:	7026      	strb	r6, [r4, #0]
  ep->num = ep_addr & EP_ADDR_MSK;
 80045fa:	7008      	strb	r0, [r1, #0]
  ep->maxpacket = ep_mps;
 80045fc:	610a      	str	r2, [r1, #16]
  ep->type = ep_type;
 80045fe:	70cb      	strb	r3, [r1, #3]
  if (ep_type == EP_TYPE_BULK)
 8004600:	2b02      	cmp	r3, #2
 8004602:	d101      	bne.n	8004608 <HAL_PCD_EP_Open+0x34>
    ep->data_pid_start = 0U;
 8004604:	2300      	movs	r3, #0
 8004606:	710b      	strb	r3, [r1, #4]
  __HAL_LOCK(hpcd);
 8004608:	24a4      	movs	r4, #164	@ 0xa4
 800460a:	00a4      	lsls	r4, r4, #2
 800460c:	5d2b      	ldrb	r3, [r5, r4]
 800460e:	2b01      	cmp	r3, #1
 8004610:	d00f      	beq.n	8004632 <HAL_PCD_EP_Open+0x5e>
 8004612:	2301      	movs	r3, #1
 8004614:	552b      	strb	r3, [r5, r4]
  (void)USB_ActivateEndpoint(hpcd->Instance, ep);
 8004616:	6828      	ldr	r0, [r5, #0]
 8004618:	f001 f95c 	bl	80058d4 <USB_ActivateEndpoint>
  __HAL_UNLOCK(hpcd);
 800461c:	2300      	movs	r3, #0
  return ret;
 800461e:	2000      	movs	r0, #0
  __HAL_UNLOCK(hpcd);
 8004620:	552b      	strb	r3, [r5, r4]
}
 8004622:	bd70      	pop	{r4, r5, r6, pc}
    ep = &hpcd->IN_ep[ep_addr & EP_ADDR_MSK];
 8004624:	0021      	movs	r1, r4
    ep->is_in = 1U;
 8004626:	2601      	movs	r6, #1
    ep = &hpcd->IN_ep[ep_addr & EP_ADDR_MSK];
 8004628:	3110      	adds	r1, #16
    ep->is_in = 1U;
 800462a:	192c      	adds	r4, r5, r4
    ep = &hpcd->IN_ep[ep_addr & EP_ADDR_MSK];
 800462c:	1869      	adds	r1, r5, r1
    ep->is_in = 1U;
 800462e:	7466      	strb	r6, [r4, #17]
 8004630:	e7e3      	b.n	80045fa <HAL_PCD_EP_Open+0x26>
  __HAL_LOCK(hpcd);
 8004632:	2002      	movs	r0, #2
 8004634:	e7f5      	b.n	8004622 <HAL_PCD_EP_Open+0x4e>
 8004636:	46c0      	nop			@ (mov r8, r8)

08004638 <HAL_PCD_EP_Close>:
  if ((ep_addr & 0x80U) == 0x80U)
 8004638:	2207      	movs	r2, #7
 800463a:	400a      	ands	r2, r1
 800463c:	0093      	lsls	r3, r2, #2
 800463e:	189b      	adds	r3, r3, r2
 8004640:	b249      	sxtb	r1, r1
{
 8004642:	b570      	push	{r4, r5, r6, lr}
 8004644:	00db      	lsls	r3, r3, #3
 8004646:	0004      	movs	r4, r0
  if ((ep_addr & 0x80U) == 0x80U)
 8004648:	2900      	cmp	r1, #0
 800464a:	db17      	blt.n	800467c <HAL_PCD_EP_Close+0x44>
    ep = &hpcd->OUT_ep[ep_addr & EP_ADDR_MSK];
 800464c:	0019      	movs	r1, r3
 800464e:	3151      	adds	r1, #81	@ 0x51
 8004650:	31ff      	adds	r1, #255	@ 0xff
 8004652:	1841      	adds	r1, r0, r1
    ep->is_in = 0U;
 8004654:	18c3      	adds	r3, r0, r3
  __HAL_LOCK(hpcd);
 8004656:	25a4      	movs	r5, #164	@ 0xa4
    ep->is_in = 0U;
 8004658:	2000      	movs	r0, #0
 800465a:	3352      	adds	r3, #82	@ 0x52
 800465c:	33ff      	adds	r3, #255	@ 0xff
 800465e:	7018      	strb	r0, [r3, #0]
  __HAL_LOCK(hpcd);
 8004660:	00ad      	lsls	r5, r5, #2
  ep->num = ep_addr & EP_ADDR_MSK;
 8004662:	700a      	strb	r2, [r1, #0]
  __HAL_LOCK(hpcd);
 8004664:	5d63      	ldrb	r3, [r4, r5]
 8004666:	2b01      	cmp	r3, #1
 8004668:	d014      	beq.n	8004694 <HAL_PCD_EP_Close+0x5c>
 800466a:	2301      	movs	r3, #1
 800466c:	5563      	strb	r3, [r4, r5]
  (void)USB_DeactivateEndpoint(hpcd->Instance, ep);
 800466e:	6820      	ldr	r0, [r4, #0]
 8004670:	f001 fa8e 	bl	8005b90 <USB_DeactivateEndpoint>
  __HAL_UNLOCK(hpcd);
 8004674:	2300      	movs	r3, #0
  return HAL_OK;
 8004676:	2000      	movs	r0, #0
  __HAL_UNLOCK(hpcd);
 8004678:	5563      	strb	r3, [r4, r5]
}
 800467a:	bd70      	pop	{r4, r5, r6, pc}
    ep = &hpcd->IN_ep[ep_addr & EP_ADDR_MSK];
 800467c:	0019      	movs	r1, r3
 800467e:	3110      	adds	r1, #16
    ep->is_in = 1U;
 8004680:	18c3      	adds	r3, r0, r3
    ep = &hpcd->IN_ep[ep_addr & EP_ADDR_MSK];
 8004682:	1841      	adds	r1, r0, r1
  __HAL_LOCK(hpcd);
 8004684:	25a4      	movs	r5, #164	@ 0xa4
    ep->is_in = 1U;
 8004686:	2001      	movs	r0, #1
  __HAL_LOCK(hpcd);
 8004688:	00ad      	lsls	r5, r5, #2
    ep->is_in = 1U;
 800468a:	7458      	strb	r0, [r3, #17]
  ep->num = ep_addr & EP_ADDR_MSK;
 800468c:	700a      	strb	r2, [r1, #0]
  __HAL_LOCK(hpcd);
 800468e:	5d63      	ldrb	r3, [r4, r5]
 8004690:	2b01      	cmp	r3, #1
 8004692:	d1ea      	bne.n	800466a <HAL_PCD_EP_Close+0x32>
 8004694:	2002      	movs	r0, #2
 8004696:	e7f0      	b.n	800467a <HAL_PCD_EP_Close+0x42>

08004698 <HAL_PCD_EP_Receive>:
{
 8004698:	b570      	push	{r4, r5, r6, lr}
 800469a:	2407      	movs	r4, #7
}
 800469c:	4021      	ands	r1, r4
  ep->xfer_buff = pBuf;
 800469e:	008c      	lsls	r4, r1, #2
 80046a0:	1864      	adds	r4, r4, r1
 80046a2:	00e4      	lsls	r4, r4, #3
 80046a4:	1905      	adds	r5, r0, r4
 80046a6:	002e      	movs	r6, r5
 80046a8:	3665      	adds	r6, #101	@ 0x65
 80046aa:	36ff      	adds	r6, #255	@ 0xff
 80046ac:	6032      	str	r2, [r6, #0]
  ep->xfer_len = len;
 80046ae:	002a      	movs	r2, r5
 80046b0:	3269      	adds	r2, #105	@ 0x69
 80046b2:	32ff      	adds	r2, #255	@ 0xff
 80046b4:	6013      	str	r3, [r2, #0]
  ep->xfer_count = 0U;
 80046b6:	2300      	movs	r3, #0
  ep->num = ep_addr & EP_ADDR_MSK;
 80046b8:	3551      	adds	r5, #81	@ 0x51
  ep = &hpcd->OUT_ep[ep_addr & EP_ADDR_MSK];
 80046ba:	3451      	adds	r4, #81	@ 0x51
  ep->xfer_count = 0U;
 80046bc:	6053      	str	r3, [r2, #4]
  ep->num = ep_addr & EP_ADDR_MSK;
 80046be:	35ff      	adds	r5, #255	@ 0xff
  ep->is_in = 0U;
 80046c0:	3a17      	subs	r2, #23
  ep = &hpcd->OUT_ep[ep_addr & EP_ADDR_MSK];
 80046c2:	34ff      	adds	r4, #255	@ 0xff
  ep->is_in = 0U;
 80046c4:	7013      	strb	r3, [r2, #0]
  ep->num = ep_addr & EP_ADDR_MSK;
 80046c6:	7029      	strb	r1, [r5, #0]
  ep = &hpcd->OUT_ep[ep_addr & EP_ADDR_MSK];
 80046c8:	1901      	adds	r1, r0, r4
  (void)USB_EPStartXfer(hpcd->Instance, ep);
 80046ca:	6800      	ldr	r0, [r0, #0]
 80046cc:	f001 fae6 	bl	8005c9c <USB_EPStartXfer>
}
 80046d0:	2000      	movs	r0, #0
 80046d2:	bd70      	pop	{r4, r5, r6, pc}

080046d4 <HAL_PCD_EP_GetRxCount>:
  return hpcd->OUT_ep[ep_addr & EP_ADDR_MSK].xfer_count;
 80046d4:	2307      	movs	r3, #7
 80046d6:	400b      	ands	r3, r1
 80046d8:	0099      	lsls	r1, r3, #2
 80046da:	18c9      	adds	r1, r1, r3
 80046dc:	00c9      	lsls	r1, r1, #3
 80046de:	1840      	adds	r0, r0, r1
 80046e0:	306d      	adds	r0, #109	@ 0x6d
 80046e2:	30ff      	adds	r0, #255	@ 0xff
 80046e4:	6800      	ldr	r0, [r0, #0]
}
 80046e6:	4770      	bx	lr

080046e8 <HAL_PCD_EP_Transmit>:
{
 80046e8:	b570      	push	{r4, r5, r6, lr}
 80046ea:	2407      	movs	r4, #7
}
 80046ec:	4021      	ands	r1, r4
 80046ee:	008c      	lsls	r4, r1, #2
  ep->xfer_buff = pBuf;
 80046f0:	1864      	adds	r4, r4, r1
 80046f2:	00e4      	lsls	r4, r4, #3
 80046f4:	1905      	adds	r5, r0, r4
  ep->xfer_fill_db = 1U;
 80046f6:	002e      	movs	r6, r5
  ep->xfer_buff = pBuf;
 80046f8:	626a      	str	r2, [r5, #36]	@ 0x24
  ep->xfer_fill_db = 1U;
 80046fa:	2201      	movs	r2, #1
 80046fc:	3634      	adds	r6, #52	@ 0x34
  ep->xfer_len = len;
 80046fe:	62ab      	str	r3, [r5, #40]	@ 0x28
  ep->xfer_fill_db = 1U;
 8004700:	7032      	strb	r2, [r6, #0]
  ep->xfer_len_db = len;
 8004702:	632b      	str	r3, [r5, #48]	@ 0x30
  ep->xfer_count = 0U;
 8004704:	2300      	movs	r3, #0
  ep = &hpcd->IN_ep[ep_addr & EP_ADDR_MSK];
 8004706:	3410      	adds	r4, #16
  ep->num = ep_addr & EP_ADDR_MSK;
 8004708:	7429      	strb	r1, [r5, #16]
  ep->xfer_count = 0U;
 800470a:	62eb      	str	r3, [r5, #44]	@ 0x2c
  ep->is_in = 1U;
 800470c:	746a      	strb	r2, [r5, #17]
  ep = &hpcd->IN_ep[ep_addr & EP_ADDR_MSK];
 800470e:	1901      	adds	r1, r0, r4
  (void)USB_EPStartXfer(hpcd->Instance, ep);
 8004710:	6800      	ldr	r0, [r0, #0]
 8004712:	f001 fac3 	bl	8005c9c <USB_EPStartXfer>
}
 8004716:	2000      	movs	r0, #0
 8004718:	bd70      	pop	{r4, r5, r6, pc}
 800471a:	46c0      	nop			@ (mov r8, r8)

0800471c <HAL_PCD_EP_SetStall>:
  if (((uint32_t)ep_addr & EP_ADDR_MSK) > hpcd->Init.dev_endpoints)
 800471c:	2307      	movs	r3, #7
{
 800471e:	b570      	push	{r4, r5, r6, lr}
  if (((uint32_t)ep_addr & EP_ADDR_MSK) > hpcd->Init.dev_endpoints)
 8004720:	7902      	ldrb	r2, [r0, #4]
{
 8004722:	0004      	movs	r4, r0
 8004724:	400b      	ands	r3, r1
  if (((uint32_t)ep_addr & EP_ADDR_MSK) > hpcd->Init.dev_endpoints)
 8004726:	429a      	cmp	r2, r3
 8004728:	d331      	bcc.n	800478e <HAL_PCD_EP_SetStall+0x72>
  if ((0x80U & ep_addr) == 0x80U)
 800472a:	b24a      	sxtb	r2, r1
 800472c:	2a00      	cmp	r2, #0
 800472e:	db1b      	blt.n	8004768 <HAL_PCD_EP_SetStall+0x4c>
    ep = &hpcd->OUT_ep[ep_addr];
 8004730:	008a      	lsls	r2, r1, #2
 8004732:	1852      	adds	r2, r2, r1
 8004734:	00d2      	lsls	r2, r2, #3
 8004736:	0011      	movs	r1, r2
 8004738:	3151      	adds	r1, #81	@ 0x51
 800473a:	31ff      	adds	r1, #255	@ 0xff
 800473c:	1841      	adds	r1, r0, r1
    ep->is_in = 0U;
 800473e:	1882      	adds	r2, r0, r2
 8004740:	2000      	movs	r0, #0
 8004742:	3252      	adds	r2, #82	@ 0x52
 8004744:	32ff      	adds	r2, #255	@ 0xff
 8004746:	7010      	strb	r0, [r2, #0]
  __HAL_LOCK(hpcd);
 8004748:	25a4      	movs	r5, #164	@ 0xa4
  ep->is_stall = 1U;
 800474a:	2201      	movs	r2, #1
  ep->num = ep_addr & EP_ADDR_MSK;
 800474c:	700b      	strb	r3, [r1, #0]
  ep->is_stall = 1U;
 800474e:	708a      	strb	r2, [r1, #2]
  __HAL_LOCK(hpcd);
 8004750:	00ad      	lsls	r5, r5, #2
 8004752:	5d63      	ldrb	r3, [r4, r5]
 8004754:	2b01      	cmp	r3, #1
 8004756:	d018      	beq.n	800478a <HAL_PCD_EP_SetStall+0x6e>
 8004758:	5562      	strb	r2, [r4, r5]
  (void)USB_EPSetStall(hpcd->Instance, ep);
 800475a:	6820      	ldr	r0, [r4, #0]
 800475c:	f001 fd96 	bl	800628c <USB_EPSetStall>
  __HAL_UNLOCK(hpcd);
 8004760:	2300      	movs	r3, #0
  return HAL_OK;
 8004762:	2000      	movs	r0, #0
  __HAL_UNLOCK(hpcd);
 8004764:	5563      	strb	r3, [r4, r5]
}
 8004766:	bd70      	pop	{r4, r5, r6, pc}
    ep = &hpcd->IN_ep[ep_addr & EP_ADDR_MSK];
 8004768:	009a      	lsls	r2, r3, #2
 800476a:	18d2      	adds	r2, r2, r3
 800476c:	00d2      	lsls	r2, r2, #3
 800476e:	0011      	movs	r1, r2
 8004770:	3110      	adds	r1, #16
 8004772:	1841      	adds	r1, r0, r1
    ep->is_in = 1U;
 8004774:	1882      	adds	r2, r0, r2
 8004776:	2001      	movs	r0, #1
  __HAL_LOCK(hpcd);
 8004778:	25a4      	movs	r5, #164	@ 0xa4
    ep->is_in = 1U;
 800477a:	7450      	strb	r0, [r2, #17]
  ep->is_stall = 1U;
 800477c:	2201      	movs	r2, #1
  ep->num = ep_addr & EP_ADDR_MSK;
 800477e:	700b      	strb	r3, [r1, #0]
  ep->is_stall = 1U;
 8004780:	708a      	strb	r2, [r1, #2]
  __HAL_LOCK(hpcd);
 8004782:	00ad      	lsls	r5, r5, #2
 8004784:	5d63      	ldrb	r3, [r4, r5]
 8004786:	2b01      	cmp	r3, #1
 8004788:	d1e6      	bne.n	8004758 <HAL_PCD_EP_SetStall+0x3c>
 800478a:	2002      	movs	r0, #2
 800478c:	e7eb      	b.n	8004766 <HAL_PCD_EP_SetStall+0x4a>
    return HAL_ERROR;
 800478e:	2001      	movs	r0, #1
 8004790:	e7e9      	b.n	8004766 <HAL_PCD_EP_SetStall+0x4a>
 8004792:	46c0      	nop			@ (mov r8, r8)

08004794 <HAL_PCD_EP_ClrStall>:
  if (((uint32_t)ep_addr & 0x0FU) > hpcd->Init.dev_endpoints)
 8004794:	230f      	movs	r3, #15
{
 8004796:	b570      	push	{r4, r5, r6, lr}
  if (((uint32_t)ep_addr & 0x0FU) > hpcd->Init.dev_endpoints)
 8004798:	7902      	ldrb	r2, [r0, #4]
{
 800479a:	0004      	movs	r4, r0
  if (((uint32_t)ep_addr & 0x0FU) > hpcd->Init.dev_endpoints)
 800479c:	400b      	ands	r3, r1
 800479e:	429a      	cmp	r2, r3
 80047a0:	d330      	bcc.n	8004804 <HAL_PCD_EP_ClrStall+0x70>
  if ((0x80U & ep_addr) == 0x80U)
 80047a2:	2207      	movs	r2, #7
 80047a4:	400a      	ands	r2, r1
 80047a6:	0093      	lsls	r3, r2, #2
 80047a8:	189b      	adds	r3, r3, r2
 80047aa:	b249      	sxtb	r1, r1
 80047ac:	00db      	lsls	r3, r3, #3
 80047ae:	2900      	cmp	r1, #0
 80047b0:	db18      	blt.n	80047e4 <HAL_PCD_EP_ClrStall+0x50>
    ep = &hpcd->OUT_ep[ep_addr & EP_ADDR_MSK];
 80047b2:	0019      	movs	r1, r3
 80047b4:	3151      	adds	r1, #81	@ 0x51
 80047b6:	31ff      	adds	r1, #255	@ 0xff
 80047b8:	1841      	adds	r1, r0, r1
    ep->is_in = 0U;
 80047ba:	18c3      	adds	r3, r0, r3
  ep->is_stall = 0U;
 80047bc:	2600      	movs	r6, #0
    ep->is_in = 0U;
 80047be:	2000      	movs	r0, #0
  __HAL_LOCK(hpcd);
 80047c0:	25a4      	movs	r5, #164	@ 0xa4
    ep->is_in = 0U;
 80047c2:	3352      	adds	r3, #82	@ 0x52
 80047c4:	33ff      	adds	r3, #255	@ 0xff
 80047c6:	7018      	strb	r0, [r3, #0]
  __HAL_LOCK(hpcd);
 80047c8:	00ad      	lsls	r5, r5, #2
  ep->is_stall = 0U;
 80047ca:	708e      	strb	r6, [r1, #2]
  ep->num = ep_addr & EP_ADDR_MSK;
 80047cc:	700a      	strb	r2, [r1, #0]
  __HAL_LOCK(hpcd);
 80047ce:	5d63      	ldrb	r3, [r4, r5]
 80047d0:	2b01      	cmp	r3, #1
 80047d2:	d015      	beq.n	8004800 <HAL_PCD_EP_ClrStall+0x6c>
 80047d4:	2301      	movs	r3, #1
 80047d6:	5563      	strb	r3, [r4, r5]
  (void)USB_EPClearStall(hpcd->Instance, ep);
 80047d8:	6820      	ldr	r0, [r4, #0]
 80047da:	f001 fd79 	bl	80062d0 <USB_EPClearStall>
  return HAL_OK;
 80047de:	2000      	movs	r0, #0
  __HAL_UNLOCK(hpcd);
 80047e0:	5566      	strb	r6, [r4, r5]
}
 80047e2:	bd70      	pop	{r4, r5, r6, pc}
    ep = &hpcd->IN_ep[ep_addr & EP_ADDR_MSK];
 80047e4:	0019      	movs	r1, r3
 80047e6:	3110      	adds	r1, #16
 80047e8:	1841      	adds	r1, r0, r1
    ep->is_in = 1U;
 80047ea:	18c3      	adds	r3, r0, r3
  ep->is_stall = 0U;
 80047ec:	2600      	movs	r6, #0
    ep->is_in = 1U;
 80047ee:	2001      	movs	r0, #1
  __HAL_LOCK(hpcd);
 80047f0:	25a4      	movs	r5, #164	@ 0xa4
    ep->is_in = 1U;
 80047f2:	7458      	strb	r0, [r3, #17]
  __HAL_LOCK(hpcd);
 80047f4:	00ad      	lsls	r5, r5, #2
  ep->is_stall = 0U;
 80047f6:	708e      	strb	r6, [r1, #2]
  ep->num = ep_addr & EP_ADDR_MSK;
 80047f8:	700a      	strb	r2, [r1, #0]
  __HAL_LOCK(hpcd);
 80047fa:	5d63      	ldrb	r3, [r4, r5]
 80047fc:	2b01      	cmp	r3, #1
 80047fe:	d1e9      	bne.n	80047d4 <HAL_PCD_EP_ClrStall+0x40>
 8004800:	2002      	movs	r0, #2
 8004802:	e7ee      	b.n	80047e2 <HAL_PCD_EP_ClrStall+0x4e>
    return HAL_ERROR;
 8004804:	2001      	movs	r0, #1
 8004806:	e7ec      	b.n	80047e2 <HAL_PCD_EP_ClrStall+0x4e>

08004808 <HAL_PCDEx_PMAConfig>:
  * @retval HAL status
  */

HAL_StatusTypeDef  HAL_PCDEx_PMAConfig(PCD_HandleTypeDef *hpcd, uint16_t ep_addr,
                                       uint16_t ep_kind, uint32_t pmaadress)
{
 8004808:	b510      	push	{r4, lr}
  PCD_EPTypeDef *ep;

  /* initialize ep structure*/
  if ((0x80U & ep_addr) == 0x80U)
 800480a:	060c      	lsls	r4, r1, #24
 800480c:	d50e      	bpl.n	800482c <HAL_PCDEx_PMAConfig+0x24>
  {
    ep = &hpcd->IN_ep[ep_addr & EP_ADDR_MSK];
 800480e:	2407      	movs	r4, #7
 8004810:	400c      	ands	r4, r1
 8004812:	00a1      	lsls	r1, r4, #2
 8004814:	1909      	adds	r1, r1, r4
 8004816:	00c9      	lsls	r1, r1, #3
 8004818:	3110      	adds	r1, #16
 800481a:	1840      	adds	r0, r0, r1
  if (ep_kind == PCD_SNG_BUF)
  {
    /* Single Buffer */
    ep->doublebuffer = 0U;
    /* Configure the PMA */
    ep->pmaadress = (uint16_t)pmaadress;
 800481c:	b299      	uxth	r1, r3
  if (ep_kind == PCD_SNG_BUF)
 800481e:	2a00      	cmp	r2, #0
 8004820:	d10d      	bne.n	800483e <HAL_PCDEx_PMAConfig+0x36>
    ep->doublebuffer = 0U;
 8004822:	2300      	movs	r3, #0
    ep->pmaadress = (uint16_t)pmaadress;
 8004824:	80c1      	strh	r1, [r0, #6]
 8004826:	7303      	strb	r3, [r0, #12]
    ep->pmaaddr1 = (uint16_t)((pmaadress & 0xFFFF0000U) >> 16);
  }
#endif /* (USE_USB_DOUBLE_BUFFER == 1U) */

  return HAL_OK;
}
 8004828:	2000      	movs	r0, #0
 800482a:	bd10      	pop	{r4, pc}
    ep = &hpcd->OUT_ep[ep_addr];
 800482c:	008c      	lsls	r4, r1, #2
 800482e:	1861      	adds	r1, r4, r1
 8004830:	00c9      	lsls	r1, r1, #3
 8004832:	3151      	adds	r1, #81	@ 0x51
 8004834:	31ff      	adds	r1, #255	@ 0xff
 8004836:	1840      	adds	r0, r0, r1
    ep->pmaadress = (uint16_t)pmaadress;
 8004838:	b299      	uxth	r1, r3
  if (ep_kind == PCD_SNG_BUF)
 800483a:	2a00      	cmp	r2, #0
 800483c:	d0f1      	beq.n	8004822 <HAL_PCDEx_PMAConfig+0x1a>
    ep->pmaaddr0 = (uint16_t)(pmaadress & 0xFFFFU);
 800483e:	6083      	str	r3, [r0, #8]
    ep->doublebuffer = 1U;
 8004840:	2301      	movs	r3, #1
 8004842:	e7f0      	b.n	8004826 <HAL_PCDEx_PMAConfig+0x1e>

08004844 <HAL_PCDEx_ActivateLPM>:
  */
HAL_StatusTypeDef HAL_PCDEx_ActivateLPM(PCD_HandleTypeDef *hpcd)
{

  USB_TypeDef *USBx = hpcd->Instance;
  hpcd->lpm_active = 1U;
 8004844:	23b4      	movs	r3, #180	@ 0xb4
 8004846:	2101      	movs	r1, #1
 8004848:	009b      	lsls	r3, r3, #2
  USB_TypeDef *USBx = hpcd->Instance;
 800484a:	6802      	ldr	r2, [r0, #0]
  hpcd->lpm_active = 1U;
 800484c:	50c1      	str	r1, [r0, r3]
  hpcd->LPM_State = LPM_L0;
 800484e:	2100      	movs	r1, #0
 8004850:	3b08      	subs	r3, #8
 8004852:	54c1      	strb	r1, [r0, r3]

  USBx->LPMCSR |= USB_LPMCSR_LMPEN;
 8004854:	2354      	movs	r3, #84	@ 0x54
 8004856:	2001      	movs	r0, #1
 8004858:	5ad1      	ldrh	r1, [r2, r3]
 800485a:	4301      	orrs	r1, r0
 800485c:	52d1      	strh	r1, [r2, r3]
  USBx->LPMCSR |= USB_LPMCSR_LPMACK;
 800485e:	5ad1      	ldrh	r1, [r2, r3]
 8004860:	3001      	adds	r0, #1
 8004862:	4301      	orrs	r1, r0
 8004864:	52d1      	strh	r1, [r2, r3]

  return HAL_OK;
}
 8004866:	2000      	movs	r0, #0
 8004868:	4770      	bx	lr
 800486a:	46c0      	nop			@ (mov r8, r8)

0800486c <HAL_PCDEx_LPM_Callback>:
  UNUSED(msg);

  /* NOTE : This function should not be modified, when the callback is needed,
            the HAL_PCDEx_LPM_Callback could be implemented in the user file
   */
}
 800486c:	4770      	bx	lr
 800486e:	46c0      	nop			@ (mov r8, r8)

08004870 <HAL_RCC_OscConfig>:
  *         supported by this macro. User should request a transition to HSE Off
  *         first and then HSE On or HSE Bypass.
  * @retval HAL status
  */
HAL_StatusTypeDef HAL_RCC_OscConfig(RCC_OscInitTypeDef  *RCC_OscInitStruct)
{
 8004870:	b5f0      	push	{r4, r5, r6, r7, lr}
 8004872:	46ce      	mov	lr, r9
 8004874:	4647      	mov	r7, r8
 8004876:	b580      	push	{r7, lr}
 8004878:	0004      	movs	r4, r0
 800487a:	b083      	sub	sp, #12
  uint32_t tickstart;
  uint32_t pll_config;
  uint32_t pll_config2;

  /* Check Null pointer */
  if(RCC_OscInitStruct == NULL)
 800487c:	2800      	cmp	r0, #0
 800487e:	d100      	bne.n	8004882 <HAL_RCC_OscConfig+0x12>
 8004880:	e0f1      	b.n	8004a66 <HAL_RCC_OscConfig+0x1f6>

  /* Check the parameters */
  assert_param(IS_RCC_OSCILLATORTYPE(RCC_OscInitStruct->OscillatorType));

  /*------------------------------- HSE Configuration ------------------------*/ 
  if(((RCC_OscInitStruct->OscillatorType) & RCC_OSCILLATORTYPE_HSE) == RCC_OSCILLATORTYPE_HSE)
 8004882:	6803      	ldr	r3, [r0, #0]
 8004884:	07da      	lsls	r2, r3, #31
 8004886:	d52f      	bpl.n	80048e8 <HAL_RCC_OscConfig+0x78>
  {
    /* Check the parameters */
    assert_param(IS_RCC_HSE(RCC_OscInitStruct->HSEState));

    /* When the HSE is used as system clock or clock source for PLL in these cases it is not allowed to be disabled */
    if((__HAL_RCC_GET_SYSCLK_SOURCE() == RCC_SYSCLKSOURCE_STATUS_HSE) 
 8004888:	210c      	movs	r1, #12
 800488a:	48c2      	ldr	r0, [pc, #776]	@ (8004b94 <HAL_RCC_OscConfig+0x324>)
 800488c:	6842      	ldr	r2, [r0, #4]
 800488e:	400a      	ands	r2, r1
 8004890:	2a04      	cmp	r2, #4
 8004892:	d100      	bne.n	8004896 <HAL_RCC_OscConfig+0x26>
 8004894:	e105      	b.n	8004aa2 <HAL_RCC_OscConfig+0x232>
       || ((__HAL_RCC_GET_SYSCLK_SOURCE() == RCC_SYSCLKSOURCE_STATUS_PLLCLK) && (__HAL_RCC_GET_PLL_OSCSOURCE() == RCC_PLLSOURCE_HSE)))
 8004896:	6842      	ldr	r2, [r0, #4]
 8004898:	4011      	ands	r1, r2
 800489a:	2908      	cmp	r1, #8
 800489c:	d100      	bne.n	80048a0 <HAL_RCC_OscConfig+0x30>
 800489e:	e0f7      	b.n	8004a90 <HAL_RCC_OscConfig+0x220>
      }
    }
    else
    {
      /* Set the new HSE configuration ---------------------------------------*/
      __HAL_RCC_HSE_CONFIG(RCC_OscInitStruct->HSEState);
 80048a0:	6863      	ldr	r3, [r4, #4]
 80048a2:	2b01      	cmp	r3, #1
 80048a4:	d100      	bne.n	80048a8 <HAL_RCC_OscConfig+0x38>
 80048a6:	e106      	b.n	8004ab6 <HAL_RCC_OscConfig+0x246>
 80048a8:	2b00      	cmp	r3, #0
 80048aa:	d100      	bne.n	80048ae <HAL_RCC_OscConfig+0x3e>
 80048ac:	e128      	b.n	8004b00 <HAL_RCC_OscConfig+0x290>
 80048ae:	2b05      	cmp	r3, #5
 80048b0:	d100      	bne.n	80048b4 <HAL_RCC_OscConfig+0x44>
 80048b2:	e22a      	b.n	8004d0a <HAL_RCC_OscConfig+0x49a>
 80048b4:	4bb7      	ldr	r3, [pc, #732]	@ (8004b94 <HAL_RCC_OscConfig+0x324>)
 80048b6:	49b8      	ldr	r1, [pc, #736]	@ (8004b98 <HAL_RCC_OscConfig+0x328>)
 80048b8:	681a      	ldr	r2, [r3, #0]
 80048ba:	400a      	ands	r2, r1
 80048bc:	601a      	str	r2, [r3, #0]
 80048be:	681a      	ldr	r2, [r3, #0]
 80048c0:	49b6      	ldr	r1, [pc, #728]	@ (8004b9c <HAL_RCC_OscConfig+0x32c>)
 80048c2:	400a      	ands	r2, r1
 80048c4:	601a      	str	r2, [r3, #0]

       /* Check the HSE State */
      if(RCC_OscInitStruct->HSEState != RCC_HSE_OFF)
      {
        /* Get Start Tick */
        tickstart = HAL_GetTick();
 80048c6:	f7fd fdc7 	bl	8002458 <HAL_GetTick>
        
        /* Wait till HSE is ready */
        while(__HAL_RCC_GET_FLAG(RCC_FLAG_HSERDY) == RESET)
 80048ca:	2680      	movs	r6, #128	@ 0x80
        tickstart = HAL_GetTick();
 80048cc:	0005      	movs	r5, r0
        while(__HAL_RCC_GET_FLAG(RCC_FLAG_HSERDY) == RESET)
 80048ce:	4fb1      	ldr	r7, [pc, #708]	@ (8004b94 <HAL_RCC_OscConfig+0x324>)
 80048d0:	02b6      	lsls	r6, r6, #10
 80048d2:	e005      	b.n	80048e0 <HAL_RCC_OscConfig+0x70>
        {
          if((HAL_GetTick() - tickstart ) > HSE_TIMEOUT_VALUE)
 80048d4:	f7fd fdc0 	bl	8002458 <HAL_GetTick>
 80048d8:	1b40      	subs	r0, r0, r5
 80048da:	2864      	cmp	r0, #100	@ 0x64
 80048dc:	d900      	bls.n	80048e0 <HAL_RCC_OscConfig+0x70>
 80048de:	e10d      	b.n	8004afc <HAL_RCC_OscConfig+0x28c>
        while(__HAL_RCC_GET_FLAG(RCC_FLAG_HSERDY) == RESET)
 80048e0:	683b      	ldr	r3, [r7, #0]
 80048e2:	4233      	tst	r3, r6
 80048e4:	d0f6      	beq.n	80048d4 <HAL_RCC_OscConfig+0x64>
        }
      }
    }
  }
  /*----------------------------- HSI Configuration --------------------------*/ 
  if(((RCC_OscInitStruct->OscillatorType) & RCC_OSCILLATORTYPE_HSI) == RCC_OSCILLATORTYPE_HSI)
 80048e6:	6823      	ldr	r3, [r4, #0]
 80048e8:	079a      	lsls	r2, r3, #30
 80048ea:	d529      	bpl.n	8004940 <HAL_RCC_OscConfig+0xd0>
    /* Check the parameters */
    assert_param(IS_RCC_HSI(RCC_OscInitStruct->HSIState));
    assert_param(IS_RCC_CALIBRATION_VALUE(RCC_OscInitStruct->HSICalibrationValue));
    
    /* Check if HSI is used as system clock or as PLL source when PLL is selected as system clock */ 
    if((__HAL_RCC_GET_SYSCLK_SOURCE() == RCC_SYSCLKSOURCE_STATUS_HSI) 
 80048ec:	220c      	movs	r2, #12
 80048ee:	49a9      	ldr	r1, [pc, #676]	@ (8004b94 <HAL_RCC_OscConfig+0x324>)
 80048f0:	6848      	ldr	r0, [r1, #4]
 80048f2:	4202      	tst	r2, r0
 80048f4:	d100      	bne.n	80048f8 <HAL_RCC_OscConfig+0x88>
 80048f6:	e0af      	b.n	8004a58 <HAL_RCC_OscConfig+0x1e8>
       || ((__HAL_RCC_GET_SYSCLK_SOURCE() == RCC_SYSCLKSOURCE_STATUS_PLLCLK) && (__HAL_RCC_GET_PLL_OSCSOURCE() == RCC_PLLSOURCE_HSI)))
 80048f8:	6848      	ldr	r0, [r1, #4]
 80048fa:	4002      	ands	r2, r0
 80048fc:	2a08      	cmp	r2, #8
 80048fe:	d100      	bne.n	8004902 <HAL_RCC_OscConfig+0x92>
 8004900:	e0a1      	b.n	8004a46 <HAL_RCC_OscConfig+0x1d6>
      }
    }
    else
    {
      /* Check the HSI State */
      if(RCC_OscInitStruct->HSIState != RCC_HSI_OFF)
 8004902:	68e3      	ldr	r3, [r4, #12]
      {
       /* Enable the Internal High Speed oscillator (HSI). */
        __HAL_RCC_HSI_ENABLE();
 8004904:	4da3      	ldr	r5, [pc, #652]	@ (8004b94 <HAL_RCC_OscConfig+0x324>)
      if(RCC_OscInitStruct->HSIState != RCC_HSI_OFF)
 8004906:	2b00      	cmp	r3, #0
 8004908:	d100      	bne.n	800490c <HAL_RCC_OscConfig+0x9c>
 800490a:	e130      	b.n	8004b6e <HAL_RCC_OscConfig+0x2fe>
        __HAL_RCC_HSI_ENABLE();
 800490c:	2201      	movs	r2, #1
 800490e:	682b      	ldr	r3, [r5, #0]
        
        /* Get Start Tick */
        tickstart = HAL_GetTick();
        
        /* Wait till HSI is ready */
        while(__HAL_RCC_GET_FLAG(RCC_FLAG_HSIRDY) == RESET)
 8004910:	2702      	movs	r7, #2
        __HAL_RCC_HSI_ENABLE();
 8004912:	4313      	orrs	r3, r2
 8004914:	602b      	str	r3, [r5, #0]
        tickstart = HAL_GetTick();
 8004916:	f7fd fd9f 	bl	8002458 <HAL_GetTick>
 800491a:	0006      	movs	r6, r0
        while(__HAL_RCC_GET_FLAG(RCC_FLAG_HSIRDY) == RESET)
 800491c:	e005      	b.n	800492a <HAL_RCC_OscConfig+0xba>
        {
          if((HAL_GetTick() - tickstart ) > HSI_TIMEOUT_VALUE)
 800491e:	f7fd fd9b 	bl	8002458 <HAL_GetTick>
 8004922:	1b80      	subs	r0, r0, r6
 8004924:	2802      	cmp	r0, #2
 8004926:	d900      	bls.n	800492a <HAL_RCC_OscConfig+0xba>
 8004928:	e0e8      	b.n	8004afc <HAL_RCC_OscConfig+0x28c>
        while(__HAL_RCC_GET_FLAG(RCC_FLAG_HSIRDY) == RESET)
 800492a:	682b      	ldr	r3, [r5, #0]
 800492c:	421f      	tst	r7, r3
 800492e:	d0f6      	beq.n	800491e <HAL_RCC_OscConfig+0xae>
            return HAL_TIMEOUT;
          }
        }
                
        /* Adjusts the Internal High Speed oscillator (HSI) calibration value.*/
        __HAL_RCC_HSI_CALIBRATIONVALUE_ADJUST(RCC_OscInitStruct->HSICalibrationValue);
 8004930:	21f8      	movs	r1, #248	@ 0xf8
 8004932:	682a      	ldr	r2, [r5, #0]
 8004934:	6923      	ldr	r3, [r4, #16]
 8004936:	438a      	bics	r2, r1
 8004938:	00db      	lsls	r3, r3, #3
 800493a:	4313      	orrs	r3, r2
 800493c:	602b      	str	r3, [r5, #0]
        }
      }
    }
  }
  /*------------------------------ LSI Configuration -------------------------*/ 
  if(((RCC_OscInitStruct->OscillatorType) & RCC_OSCILLATORTYPE_LSI) == RCC_OSCILLATORTYPE_LSI)
 800493e:	6823      	ldr	r3, [r4, #0]
 8004940:	071a      	lsls	r2, r3, #28
 8004942:	d42d      	bmi.n	80049a0 <HAL_RCC_OscConfig+0x130>
        }
      }
    }
  }
  /*------------------------------ LSE Configuration -------------------------*/ 
  if(((RCC_OscInitStruct->OscillatorType) & RCC_OSCILLATORTYPE_LSE) == RCC_OSCILLATORTYPE_LSE)
 8004944:	075a      	lsls	r2, r3, #29
 8004946:	d544      	bpl.n	80049d2 <HAL_RCC_OscConfig+0x162>
    /* Check the parameters */
    assert_param(IS_RCC_LSE(RCC_OscInitStruct->LSEState));

    /* Update LSE configuration in Backup Domain control register    */
    /* Requires to enable write access to Backup Domain of necessary */
    if(__HAL_RCC_PWR_IS_CLK_DISABLED())
 8004948:	2280      	movs	r2, #128	@ 0x80
    FlagStatus       pwrclkchanged = RESET;
 800494a:	2000      	movs	r0, #0
    if(__HAL_RCC_PWR_IS_CLK_DISABLED())
 800494c:	4b91      	ldr	r3, [pc, #580]	@ (8004b94 <HAL_RCC_OscConfig+0x324>)
 800494e:	0552      	lsls	r2, r2, #21
 8004950:	69d9      	ldr	r1, [r3, #28]
    FlagStatus       pwrclkchanged = RESET;
 8004952:	4681      	mov	r9, r0
    if(__HAL_RCC_PWR_IS_CLK_DISABLED())
 8004954:	4211      	tst	r1, r2
 8004956:	d108      	bne.n	800496a <HAL_RCC_OscConfig+0xfa>
    {
      __HAL_RCC_PWR_CLK_ENABLE();
 8004958:	69d9      	ldr	r1, [r3, #28]
 800495a:	4311      	orrs	r1, r2
 800495c:	61d9      	str	r1, [r3, #28]
 800495e:	69db      	ldr	r3, [r3, #28]
 8004960:	4013      	ands	r3, r2
 8004962:	9301      	str	r3, [sp, #4]
 8004964:	9b01      	ldr	r3, [sp, #4]
      pwrclkchanged = SET;
 8004966:	2301      	movs	r3, #1
 8004968:	4699      	mov	r9, r3
    }
    
    if(HAL_IS_BIT_CLR(PWR->CR, PWR_CR_DBP))
 800496a:	2780      	movs	r7, #128	@ 0x80
 800496c:	4e8c      	ldr	r6, [pc, #560]	@ (8004ba0 <HAL_RCC_OscConfig+0x330>)
 800496e:	007f      	lsls	r7, r7, #1
 8004970:	6833      	ldr	r3, [r6, #0]
 8004972:	423b      	tst	r3, r7
 8004974:	d100      	bne.n	8004978 <HAL_RCC_OscConfig+0x108>
 8004976:	e0a5      	b.n	8004ac4 <HAL_RCC_OscConfig+0x254>
        }
      }
    }

    /* Set the new LSE configuration -----------------------------------------*/
    __HAL_RCC_LSE_CONFIG(RCC_OscInitStruct->LSEState);
 8004978:	68a3      	ldr	r3, [r4, #8]
 800497a:	2b01      	cmp	r3, #1
 800497c:	d100      	bne.n	8004980 <HAL_RCC_OscConfig+0x110>
 800497e:	e115      	b.n	8004bac <HAL_RCC_OscConfig+0x33c>
 8004980:	2b00      	cmp	r3, #0
 8004982:	d100      	bne.n	8004986 <HAL_RCC_OscConfig+0x116>
 8004984:	e0d5      	b.n	8004b32 <HAL_RCC_OscConfig+0x2c2>
 8004986:	2b05      	cmp	r3, #5
 8004988:	d100      	bne.n	800498c <HAL_RCC_OscConfig+0x11c>
 800498a:	e144      	b.n	8004c16 <HAL_RCC_OscConfig+0x3a6>
 800498c:	2101      	movs	r1, #1
 800498e:	4b81      	ldr	r3, [pc, #516]	@ (8004b94 <HAL_RCC_OscConfig+0x324>)
 8004990:	6a1a      	ldr	r2, [r3, #32]
 8004992:	438a      	bics	r2, r1
 8004994:	621a      	str	r2, [r3, #32]
 8004996:	6a1a      	ldr	r2, [r3, #32]
 8004998:	3103      	adds	r1, #3
 800499a:	438a      	bics	r2, r1
 800499c:	621a      	str	r2, [r3, #32]
    /* Check the LSE State */
    if(RCC_OscInitStruct->LSEState != RCC_LSE_OFF)
 800499e:	e109      	b.n	8004bb4 <HAL_RCC_OscConfig+0x344>
    if(RCC_OscInitStruct->LSIState != RCC_LSI_OFF)
 80049a0:	69e3      	ldr	r3, [r4, #28]
      __HAL_RCC_LSI_ENABLE();
 80049a2:	4d7c      	ldr	r5, [pc, #496]	@ (8004b94 <HAL_RCC_OscConfig+0x324>)
    if(RCC_OscInitStruct->LSIState != RCC_LSI_OFF)
 80049a4:	2b00      	cmp	r3, #0
 80049a6:	d060      	beq.n	8004a6a <HAL_RCC_OscConfig+0x1fa>
      __HAL_RCC_LSI_ENABLE();
 80049a8:	2201      	movs	r2, #1
 80049aa:	6a6b      	ldr	r3, [r5, #36]	@ 0x24
      while(__HAL_RCC_GET_FLAG(RCC_FLAG_LSIRDY) == RESET)
 80049ac:	2702      	movs	r7, #2
      __HAL_RCC_LSI_ENABLE();
 80049ae:	4313      	orrs	r3, r2
 80049b0:	626b      	str	r3, [r5, #36]	@ 0x24
      tickstart = HAL_GetTick();
 80049b2:	f7fd fd51 	bl	8002458 <HAL_GetTick>
 80049b6:	0006      	movs	r6, r0
      while(__HAL_RCC_GET_FLAG(RCC_FLAG_LSIRDY) == RESET)
 80049b8:	e005      	b.n	80049c6 <HAL_RCC_OscConfig+0x156>
        if((HAL_GetTick() - tickstart ) > LSI_TIMEOUT_VALUE)
 80049ba:	f7fd fd4d 	bl	8002458 <HAL_GetTick>
 80049be:	1b80      	subs	r0, r0, r6
 80049c0:	2802      	cmp	r0, #2
 80049c2:	d900      	bls.n	80049c6 <HAL_RCC_OscConfig+0x156>
 80049c4:	e09a      	b.n	8004afc <HAL_RCC_OscConfig+0x28c>
      while(__HAL_RCC_GET_FLAG(RCC_FLAG_LSIRDY) == RESET)
 80049c6:	6a6b      	ldr	r3, [r5, #36]	@ 0x24
 80049c8:	421f      	tst	r7, r3
 80049ca:	d0f6      	beq.n	80049ba <HAL_RCC_OscConfig+0x14a>
  if(((RCC_OscInitStruct->OscillatorType) & RCC_OSCILLATORTYPE_LSE) == RCC_OSCILLATORTYPE_LSE)
 80049cc:	6823      	ldr	r3, [r4, #0]
 80049ce:	075a      	lsls	r2, r3, #29
 80049d0:	d4ba      	bmi.n	8004948 <HAL_RCC_OscConfig+0xd8>
      __HAL_RCC_PWR_CLK_DISABLE();
    }
  }

  /*----------------------------- HSI14 Configuration --------------------------*/
  if(((RCC_OscInitStruct->OscillatorType) & RCC_OSCILLATORTYPE_HSI14) == RCC_OSCILLATORTYPE_HSI14)
 80049d2:	06db      	lsls	r3, r3, #27
 80049d4:	d512      	bpl.n	80049fc <HAL_RCC_OscConfig+0x18c>
    /* Check the parameters */
    assert_param(IS_RCC_HSI14(RCC_OscInitStruct->HSI14State));
    assert_param(IS_RCC_CALIBRATION_VALUE(RCC_OscInitStruct->HSI14CalibrationValue));

    /* Check the HSI14 State */
    if(RCC_OscInitStruct->HSI14State == RCC_HSI14_ON)
 80049d6:	6963      	ldr	r3, [r4, #20]
 80049d8:	2b01      	cmp	r3, #1
 80049da:	d100      	bne.n	80049de <HAL_RCC_OscConfig+0x16e>
 80049dc:	e140      	b.n	8004c60 <HAL_RCC_OscConfig+0x3f0>
      } 

      /* Adjusts the Internal High Speed oscillator 14Mhz (HSI14) calibration value. */
      __HAL_RCC_HSI14_CALIBRATIONVALUE_ADJUST(RCC_OscInitStruct->HSI14CalibrationValue);
    }
    else if(RCC_OscInitStruct->HSI14State == RCC_HSI14_ADC_CONTROL)
 80049de:	3305      	adds	r3, #5
 80049e0:	d000      	beq.n	80049e4 <HAL_RCC_OscConfig+0x174>
 80049e2:	e0f9      	b.n	8004bd8 <HAL_RCC_OscConfig+0x368>
    {
      /* Enable ADC control of the Internal High Speed oscillator HSI14 */
      __HAL_RCC_HSI14ADC_ENABLE();
 80049e4:	2104      	movs	r1, #4

      /* Adjusts the Internal High Speed oscillator 14Mhz (HSI14) calibration value. */
      __HAL_RCC_HSI14_CALIBRATIONVALUE_ADJUST(RCC_OscInitStruct->HSI14CalibrationValue);
 80049e6:	20f8      	movs	r0, #248	@ 0xf8
      __HAL_RCC_HSI14ADC_ENABLE();
 80049e8:	4a6a      	ldr	r2, [pc, #424]	@ (8004b94 <HAL_RCC_OscConfig+0x324>)
 80049ea:	6b53      	ldr	r3, [r2, #52]	@ 0x34
 80049ec:	438b      	bics	r3, r1
 80049ee:	6353      	str	r3, [r2, #52]	@ 0x34
      __HAL_RCC_HSI14_CALIBRATIONVALUE_ADJUST(RCC_OscInitStruct->HSI14CalibrationValue);
 80049f0:	6b51      	ldr	r1, [r2, #52]	@ 0x34
 80049f2:	69a3      	ldr	r3, [r4, #24]
 80049f4:	4381      	bics	r1, r0
 80049f6:	00db      	lsls	r3, r3, #3
 80049f8:	430b      	orrs	r3, r1
 80049fa:	6353      	str	r3, [r2, #52]	@ 0x34
#endif /* RCC_HSI48_SUPPORT */
       
  /*-------------------------------- PLL Configuration -----------------------*/
  /* Check the parameters */
  assert_param(IS_RCC_PLL(RCC_OscInitStruct->PLL.PLLState));
  if ((RCC_OscInitStruct->PLL.PLLState) != RCC_PLL_NONE)
 80049fc:	6a23      	ldr	r3, [r4, #32]
 80049fe:	2b00      	cmp	r3, #0
 8004a00:	d01b      	beq.n	8004a3a <HAL_RCC_OscConfig+0x1ca>
  {
    /* Check if the PLL is used as system clock or not */
    if(__HAL_RCC_GET_SYSCLK_SOURCE() != RCC_SYSCLKSOURCE_STATUS_PLLCLK)
 8004a02:	220c      	movs	r2, #12
 8004a04:	4d63      	ldr	r5, [pc, #396]	@ (8004b94 <HAL_RCC_OscConfig+0x324>)
 8004a06:	6869      	ldr	r1, [r5, #4]
 8004a08:	400a      	ands	r2, r1
 8004a0a:	2a08      	cmp	r2, #8
 8004a0c:	d100      	bne.n	8004a10 <HAL_RCC_OscConfig+0x1a0>
 8004a0e:	e10c      	b.n	8004c2a <HAL_RCC_OscConfig+0x3ba>
    { 
      if((RCC_OscInitStruct->PLL.PLLState) == RCC_PLL_ON)
 8004a10:	2b02      	cmp	r3, #2
 8004a12:	d100      	bne.n	8004a16 <HAL_RCC_OscConfig+0x1a6>
 8004a14:	e142      	b.n	8004c9c <HAL_RCC_OscConfig+0x42c>
        }
      }
      else
      {
        /* Disable the main PLL. */
        __HAL_RCC_PLL_DISABLE();
 8004a16:	682b      	ldr	r3, [r5, #0]
 8004a18:	4a62      	ldr	r2, [pc, #392]	@ (8004ba4 <HAL_RCC_OscConfig+0x334>)
 
        /* Get Start Tick */
        tickstart = HAL_GetTick();
        
        /* Wait till PLL is disabled */  
        while(__HAL_RCC_GET_FLAG(RCC_FLAG_PLLRDY)  != RESET)
 8004a1a:	2680      	movs	r6, #128	@ 0x80
        __HAL_RCC_PLL_DISABLE();
 8004a1c:	4013      	ands	r3, r2
 8004a1e:	602b      	str	r3, [r5, #0]
        tickstart = HAL_GetTick();
 8004a20:	f7fd fd1a 	bl	8002458 <HAL_GetTick>
        while(__HAL_RCC_GET_FLAG(RCC_FLAG_PLLRDY)  != RESET)
 8004a24:	04b6      	lsls	r6, r6, #18
        tickstart = HAL_GetTick();
 8004a26:	0004      	movs	r4, r0
        while(__HAL_RCC_GET_FLAG(RCC_FLAG_PLLRDY)  != RESET)
 8004a28:	e004      	b.n	8004a34 <HAL_RCC_OscConfig+0x1c4>
        {
          if((HAL_GetTick() - tickstart ) > PLL_TIMEOUT_VALUE)
 8004a2a:	f7fd fd15 	bl	8002458 <HAL_GetTick>
 8004a2e:	1b00      	subs	r0, r0, r4
 8004a30:	2802      	cmp	r0, #2
 8004a32:	d863      	bhi.n	8004afc <HAL_RCC_OscConfig+0x28c>
        while(__HAL_RCC_GET_FLAG(RCC_FLAG_PLLRDY)  != RESET)
 8004a34:	682b      	ldr	r3, [r5, #0]
 8004a36:	4233      	tst	r3, r6
 8004a38:	d1f7      	bne.n	8004a2a <HAL_RCC_OscConfig+0x1ba>
        }
      }
    }
  }

  return HAL_OK;
 8004a3a:	2000      	movs	r0, #0
}
 8004a3c:	b003      	add	sp, #12
 8004a3e:	bcc0      	pop	{r6, r7}
 8004a40:	46b9      	mov	r9, r7
 8004a42:	46b0      	mov	r8, r6
 8004a44:	bdf0      	pop	{r4, r5, r6, r7, pc}
       || ((__HAL_RCC_GET_SYSCLK_SOURCE() == RCC_SYSCLKSOURCE_STATUS_PLLCLK) && (__HAL_RCC_GET_PLL_OSCSOURCE() == RCC_PLLSOURCE_HSI)))
 8004a46:	684a      	ldr	r2, [r1, #4]
 8004a48:	21c0      	movs	r1, #192	@ 0xc0
 8004a4a:	0249      	lsls	r1, r1, #9
 8004a4c:	400a      	ands	r2, r1
 8004a4e:	2180      	movs	r1, #128	@ 0x80
 8004a50:	0209      	lsls	r1, r1, #8
 8004a52:	428a      	cmp	r2, r1
 8004a54:	d000      	beq.n	8004a58 <HAL_RCC_OscConfig+0x1e8>
 8004a56:	e754      	b.n	8004902 <HAL_RCC_OscConfig+0x92>
      if((__HAL_RCC_GET_FLAG(RCC_FLAG_HSIRDY) != RESET) && (RCC_OscInitStruct->HSIState != RCC_HSI_ON))
 8004a58:	4a4e      	ldr	r2, [pc, #312]	@ (8004b94 <HAL_RCC_OscConfig+0x324>)
 8004a5a:	6812      	ldr	r2, [r2, #0]
 8004a5c:	0792      	lsls	r2, r2, #30
 8004a5e:	d541      	bpl.n	8004ae4 <HAL_RCC_OscConfig+0x274>
 8004a60:	68e2      	ldr	r2, [r4, #12]
 8004a62:	2a01      	cmp	r2, #1
 8004a64:	d03e      	beq.n	8004ae4 <HAL_RCC_OscConfig+0x274>
    return HAL_ERROR;
 8004a66:	2001      	movs	r0, #1
 8004a68:	e7e8      	b.n	8004a3c <HAL_RCC_OscConfig+0x1cc>
      __HAL_RCC_LSI_DISABLE();
 8004a6a:	2201      	movs	r2, #1
 8004a6c:	6a6b      	ldr	r3, [r5, #36]	@ 0x24
      while(__HAL_RCC_GET_FLAG(RCC_FLAG_LSIRDY) != RESET)
 8004a6e:	2702      	movs	r7, #2
      __HAL_RCC_LSI_DISABLE();
 8004a70:	4393      	bics	r3, r2
 8004a72:	626b      	str	r3, [r5, #36]	@ 0x24
      tickstart = HAL_GetTick();
 8004a74:	f7fd fcf0 	bl	8002458 <HAL_GetTick>
 8004a78:	0006      	movs	r6, r0
      while(__HAL_RCC_GET_FLAG(RCC_FLAG_LSIRDY) != RESET)
 8004a7a:	e004      	b.n	8004a86 <HAL_RCC_OscConfig+0x216>
        if((HAL_GetTick() - tickstart ) > LSI_TIMEOUT_VALUE)
 8004a7c:	f7fd fcec 	bl	8002458 <HAL_GetTick>
 8004a80:	1b80      	subs	r0, r0, r6
 8004a82:	2802      	cmp	r0, #2
 8004a84:	d83a      	bhi.n	8004afc <HAL_RCC_OscConfig+0x28c>
      while(__HAL_RCC_GET_FLAG(RCC_FLAG_LSIRDY) != RESET)
 8004a86:	6a6b      	ldr	r3, [r5, #36]	@ 0x24
 8004a88:	421f      	tst	r7, r3
 8004a8a:	d1f7      	bne.n	8004a7c <HAL_RCC_OscConfig+0x20c>
  if(((RCC_OscInitStruct->OscillatorType) & RCC_OSCILLATORTYPE_LSE) == RCC_OSCILLATORTYPE_LSE)
 8004a8c:	6823      	ldr	r3, [r4, #0]
 8004a8e:	e79e      	b.n	80049ce <HAL_RCC_OscConfig+0x15e>
       || ((__HAL_RCC_GET_SYSCLK_SOURCE() == RCC_SYSCLKSOURCE_STATUS_PLLCLK) && (__HAL_RCC_GET_PLL_OSCSOURCE() == RCC_PLLSOURCE_HSE)))
 8004a90:	21c0      	movs	r1, #192	@ 0xc0
 8004a92:	6842      	ldr	r2, [r0, #4]
 8004a94:	0249      	lsls	r1, r1, #9
 8004a96:	400a      	ands	r2, r1
 8004a98:	2180      	movs	r1, #128	@ 0x80
 8004a9a:	0249      	lsls	r1, r1, #9
 8004a9c:	428a      	cmp	r2, r1
 8004a9e:	d000      	beq.n	8004aa2 <HAL_RCC_OscConfig+0x232>
 8004aa0:	e6fe      	b.n	80048a0 <HAL_RCC_OscConfig+0x30>
      if((__HAL_RCC_GET_FLAG(RCC_FLAG_HSERDY) != RESET) && (RCC_OscInitStruct->HSEState == RCC_HSE_OFF))
 8004aa2:	4a3c      	ldr	r2, [pc, #240]	@ (8004b94 <HAL_RCC_OscConfig+0x324>)
 8004aa4:	6812      	ldr	r2, [r2, #0]
 8004aa6:	0392      	lsls	r2, r2, #14
 8004aa8:	d400      	bmi.n	8004aac <HAL_RCC_OscConfig+0x23c>
 8004aaa:	e71d      	b.n	80048e8 <HAL_RCC_OscConfig+0x78>
 8004aac:	6862      	ldr	r2, [r4, #4]
 8004aae:	2a00      	cmp	r2, #0
 8004ab0:	d000      	beq.n	8004ab4 <HAL_RCC_OscConfig+0x244>
 8004ab2:	e719      	b.n	80048e8 <HAL_RCC_OscConfig+0x78>
 8004ab4:	e7d7      	b.n	8004a66 <HAL_RCC_OscConfig+0x1f6>
      __HAL_RCC_HSE_CONFIG(RCC_OscInitStruct->HSEState);
 8004ab6:	2380      	movs	r3, #128	@ 0x80
 8004ab8:	4a36      	ldr	r2, [pc, #216]	@ (8004b94 <HAL_RCC_OscConfig+0x324>)
 8004aba:	025b      	lsls	r3, r3, #9
 8004abc:	6811      	ldr	r1, [r2, #0]
 8004abe:	430b      	orrs	r3, r1
 8004ac0:	6013      	str	r3, [r2, #0]
      if(RCC_OscInitStruct->HSEState != RCC_HSE_OFF)
 8004ac2:	e700      	b.n	80048c6 <HAL_RCC_OscConfig+0x56>
      SET_BIT(PWR->CR, PWR_CR_DBP);
 8004ac4:	6833      	ldr	r3, [r6, #0]
 8004ac6:	433b      	orrs	r3, r7
 8004ac8:	6033      	str	r3, [r6, #0]
      tickstart = HAL_GetTick();
 8004aca:	f7fd fcc5 	bl	8002458 <HAL_GetTick>
 8004ace:	0005      	movs	r5, r0
      while(HAL_IS_BIT_CLR(PWR->CR, PWR_CR_DBP))
 8004ad0:	e004      	b.n	8004adc <HAL_RCC_OscConfig+0x26c>
        if((HAL_GetTick() - tickstart) > RCC_DBP_TIMEOUT_VALUE)
 8004ad2:	f7fd fcc1 	bl	8002458 <HAL_GetTick>
 8004ad6:	1b40      	subs	r0, r0, r5
 8004ad8:	2864      	cmp	r0, #100	@ 0x64
 8004ada:	d80f      	bhi.n	8004afc <HAL_RCC_OscConfig+0x28c>
      while(HAL_IS_BIT_CLR(PWR->CR, PWR_CR_DBP))
 8004adc:	6833      	ldr	r3, [r6, #0]
 8004ade:	423b      	tst	r3, r7
 8004ae0:	d0f7      	beq.n	8004ad2 <HAL_RCC_OscConfig+0x262>
 8004ae2:	e749      	b.n	8004978 <HAL_RCC_OscConfig+0x108>
        __HAL_RCC_HSI_CALIBRATIONVALUE_ADJUST(RCC_OscInitStruct->HSICalibrationValue);
 8004ae4:	25f8      	movs	r5, #248	@ 0xf8
 8004ae6:	482b      	ldr	r0, [pc, #172]	@ (8004b94 <HAL_RCC_OscConfig+0x324>)
 8004ae8:	6922      	ldr	r2, [r4, #16]
 8004aea:	6801      	ldr	r1, [r0, #0]
 8004aec:	00d2      	lsls	r2, r2, #3
 8004aee:	43a9      	bics	r1, r5
 8004af0:	430a      	orrs	r2, r1
 8004af2:	6002      	str	r2, [r0, #0]
  if(((RCC_OscInitStruct->OscillatorType) & RCC_OSCILLATORTYPE_LSI) == RCC_OSCILLATORTYPE_LSI)
 8004af4:	071a      	lsls	r2, r3, #28
 8004af6:	d400      	bmi.n	8004afa <HAL_RCC_OscConfig+0x28a>
 8004af8:	e724      	b.n	8004944 <HAL_RCC_OscConfig+0xd4>
 8004afa:	e751      	b.n	80049a0 <HAL_RCC_OscConfig+0x130>
            return HAL_TIMEOUT;
 8004afc:	2003      	movs	r0, #3
 8004afe:	e79d      	b.n	8004a3c <HAL_RCC_OscConfig+0x1cc>
      __HAL_RCC_HSE_CONFIG(RCC_OscInitStruct->HSEState);
 8004b00:	4d24      	ldr	r5, [pc, #144]	@ (8004b94 <HAL_RCC_OscConfig+0x324>)
 8004b02:	4a25      	ldr	r2, [pc, #148]	@ (8004b98 <HAL_RCC_OscConfig+0x328>)
 8004b04:	682b      	ldr	r3, [r5, #0]
        while(__HAL_RCC_GET_FLAG(RCC_FLAG_HSERDY) != RESET)
 8004b06:	2780      	movs	r7, #128	@ 0x80
      __HAL_RCC_HSE_CONFIG(RCC_OscInitStruct->HSEState);
 8004b08:	4013      	ands	r3, r2
 8004b0a:	602b      	str	r3, [r5, #0]
 8004b0c:	682b      	ldr	r3, [r5, #0]
 8004b0e:	4a23      	ldr	r2, [pc, #140]	@ (8004b9c <HAL_RCC_OscConfig+0x32c>)
        while(__HAL_RCC_GET_FLAG(RCC_FLAG_HSERDY) != RESET)
 8004b10:	02bf      	lsls	r7, r7, #10
      __HAL_RCC_HSE_CONFIG(RCC_OscInitStruct->HSEState);
 8004b12:	4013      	ands	r3, r2
 8004b14:	602b      	str	r3, [r5, #0]
        tickstart = HAL_GetTick();
 8004b16:	f7fd fc9f 	bl	8002458 <HAL_GetTick>
 8004b1a:	0006      	movs	r6, r0
        while(__HAL_RCC_GET_FLAG(RCC_FLAG_HSERDY) != RESET)
 8004b1c:	e004      	b.n	8004b28 <HAL_RCC_OscConfig+0x2b8>
           if((HAL_GetTick() - tickstart ) > HSE_TIMEOUT_VALUE)
 8004b1e:	f7fd fc9b 	bl	8002458 <HAL_GetTick>
 8004b22:	1b80      	subs	r0, r0, r6
 8004b24:	2864      	cmp	r0, #100	@ 0x64
 8004b26:	d8e9      	bhi.n	8004afc <HAL_RCC_OscConfig+0x28c>
        while(__HAL_RCC_GET_FLAG(RCC_FLAG_HSERDY) != RESET)
 8004b28:	682b      	ldr	r3, [r5, #0]
 8004b2a:	423b      	tst	r3, r7
 8004b2c:	d1f7      	bne.n	8004b1e <HAL_RCC_OscConfig+0x2ae>
  if(((RCC_OscInitStruct->OscillatorType) & RCC_OSCILLATORTYPE_HSI) == RCC_OSCILLATORTYPE_HSI)
 8004b2e:	6823      	ldr	r3, [r4, #0]
 8004b30:	e6da      	b.n	80048e8 <HAL_RCC_OscConfig+0x78>
    __HAL_RCC_LSE_CONFIG(RCC_OscInitStruct->LSEState);
 8004b32:	2201      	movs	r2, #1
 8004b34:	4e17      	ldr	r6, [pc, #92]	@ (8004b94 <HAL_RCC_OscConfig+0x324>)
        if((HAL_GetTick() - tickstart ) > RCC_LSE_TIMEOUT_VALUE)
 8004b36:	4d1c      	ldr	r5, [pc, #112]	@ (8004ba8 <HAL_RCC_OscConfig+0x338>)
    __HAL_RCC_LSE_CONFIG(RCC_OscInitStruct->LSEState);
 8004b38:	6a33      	ldr	r3, [r6, #32]
 8004b3a:	4393      	bics	r3, r2
 8004b3c:	6233      	str	r3, [r6, #32]
 8004b3e:	6a33      	ldr	r3, [r6, #32]
 8004b40:	3203      	adds	r2, #3
 8004b42:	4393      	bics	r3, r2
 8004b44:	6233      	str	r3, [r6, #32]
      tickstart = HAL_GetTick();
 8004b46:	f7fd fc87 	bl	8002458 <HAL_GetTick>
      while(__HAL_RCC_GET_FLAG(RCC_FLAG_LSERDY) != RESET)
 8004b4a:	2302      	movs	r3, #2
      tickstart = HAL_GetTick();
 8004b4c:	0007      	movs	r7, r0
      while(__HAL_RCC_GET_FLAG(RCC_FLAG_LSERDY) != RESET)
 8004b4e:	4698      	mov	r8, r3
 8004b50:	e004      	b.n	8004b5c <HAL_RCC_OscConfig+0x2ec>
        if((HAL_GetTick() - tickstart ) > RCC_LSE_TIMEOUT_VALUE)
 8004b52:	f7fd fc81 	bl	8002458 <HAL_GetTick>
 8004b56:	1bc0      	subs	r0, r0, r7
 8004b58:	42a8      	cmp	r0, r5
 8004b5a:	d8cf      	bhi.n	8004afc <HAL_RCC_OscConfig+0x28c>
      while(__HAL_RCC_GET_FLAG(RCC_FLAG_LSERDY) != RESET)
 8004b5c:	4642      	mov	r2, r8
 8004b5e:	6a33      	ldr	r3, [r6, #32]
 8004b60:	421a      	tst	r2, r3
 8004b62:	d1f6      	bne.n	8004b52 <HAL_RCC_OscConfig+0x2e2>
    if(pwrclkchanged == SET)
 8004b64:	464b      	mov	r3, r9
 8004b66:	2b01      	cmp	r3, #1
 8004b68:	d04e      	beq.n	8004c08 <HAL_RCC_OscConfig+0x398>
  if(((RCC_OscInitStruct->OscillatorType) & RCC_OSCILLATORTYPE_HSI14) == RCC_OSCILLATORTYPE_HSI14)
 8004b6a:	6823      	ldr	r3, [r4, #0]
 8004b6c:	e731      	b.n	80049d2 <HAL_RCC_OscConfig+0x162>
        __HAL_RCC_HSI_DISABLE();
 8004b6e:	2201      	movs	r2, #1
 8004b70:	682b      	ldr	r3, [r5, #0]
        while(__HAL_RCC_GET_FLAG(RCC_FLAG_HSIRDY) != RESET)
 8004b72:	2702      	movs	r7, #2
        __HAL_RCC_HSI_DISABLE();
 8004b74:	4393      	bics	r3, r2
 8004b76:	602b      	str	r3, [r5, #0]
        tickstart = HAL_GetTick();
 8004b78:	f7fd fc6e 	bl	8002458 <HAL_GetTick>
 8004b7c:	0006      	movs	r6, r0
        while(__HAL_RCC_GET_FLAG(RCC_FLAG_HSIRDY) != RESET)
 8004b7e:	e004      	b.n	8004b8a <HAL_RCC_OscConfig+0x31a>
          if((HAL_GetTick() - tickstart ) > HSI_TIMEOUT_VALUE)
 8004b80:	f7fd fc6a 	bl	8002458 <HAL_GetTick>
 8004b84:	1b80      	subs	r0, r0, r6
 8004b86:	2802      	cmp	r0, #2
 8004b88:	d8b8      	bhi.n	8004afc <HAL_RCC_OscConfig+0x28c>
        while(__HAL_RCC_GET_FLAG(RCC_FLAG_HSIRDY) != RESET)
 8004b8a:	682b      	ldr	r3, [r5, #0]
 8004b8c:	421f      	tst	r7, r3
 8004b8e:	d1f7      	bne.n	8004b80 <HAL_RCC_OscConfig+0x310>
  if(((RCC_OscInitStruct->OscillatorType) & RCC_OSCILLATORTYPE_LSI) == RCC_OSCILLATORTYPE_LSI)
 8004b90:	6823      	ldr	r3, [r4, #0]
 8004b92:	e6d5      	b.n	8004940 <HAL_RCC_OscConfig+0xd0>
 8004b94:	40021000 	.word	0x40021000
 8004b98:	fffeffff 	.word	0xfffeffff
 8004b9c:	fffbffff 	.word	0xfffbffff
 8004ba0:	40007000 	.word	0x40007000
 8004ba4:	feffffff 	.word	0xfeffffff
 8004ba8:	00001388 	.word	0x00001388
    __HAL_RCC_LSE_CONFIG(RCC_OscInitStruct->LSEState);
 8004bac:	495d      	ldr	r1, [pc, #372]	@ (8004d24 <HAL_RCC_OscConfig+0x4b4>)
 8004bae:	6a0a      	ldr	r2, [r1, #32]
 8004bb0:	4313      	orrs	r3, r2
 8004bb2:	620b      	str	r3, [r1, #32]
      tickstart = HAL_GetTick();
 8004bb4:	f7fd fc50 	bl	8002458 <HAL_GetTick>
      while(__HAL_RCC_GET_FLAG(RCC_FLAG_LSERDY) == RESET)
 8004bb8:	4b5a      	ldr	r3, [pc, #360]	@ (8004d24 <HAL_RCC_OscConfig+0x4b4>)
      tickstart = HAL_GetTick();
 8004bba:	0006      	movs	r6, r0
      while(__HAL_RCC_GET_FLAG(RCC_FLAG_LSERDY) == RESET)
 8004bbc:	4698      	mov	r8, r3
 8004bbe:	2702      	movs	r7, #2
        if((HAL_GetTick() - tickstart ) > RCC_LSE_TIMEOUT_VALUE)
 8004bc0:	4d59      	ldr	r5, [pc, #356]	@ (8004d28 <HAL_RCC_OscConfig+0x4b8>)
      while(__HAL_RCC_GET_FLAG(RCC_FLAG_LSERDY) == RESET)
 8004bc2:	e004      	b.n	8004bce <HAL_RCC_OscConfig+0x35e>
        if((HAL_GetTick() - tickstart ) > RCC_LSE_TIMEOUT_VALUE)
 8004bc4:	f7fd fc48 	bl	8002458 <HAL_GetTick>
 8004bc8:	1b80      	subs	r0, r0, r6
 8004bca:	42a8      	cmp	r0, r5
 8004bcc:	d896      	bhi.n	8004afc <HAL_RCC_OscConfig+0x28c>
      while(__HAL_RCC_GET_FLAG(RCC_FLAG_LSERDY) == RESET)
 8004bce:	4643      	mov	r3, r8
 8004bd0:	6a1b      	ldr	r3, [r3, #32]
 8004bd2:	421f      	tst	r7, r3
 8004bd4:	d0f6      	beq.n	8004bc4 <HAL_RCC_OscConfig+0x354>
 8004bd6:	e7c5      	b.n	8004b64 <HAL_RCC_OscConfig+0x2f4>
      __HAL_RCC_HSI14ADC_DISABLE();
 8004bd8:	2204      	movs	r2, #4
 8004bda:	4d52      	ldr	r5, [pc, #328]	@ (8004d24 <HAL_RCC_OscConfig+0x4b4>)
      while(__HAL_RCC_GET_FLAG(RCC_FLAG_HSI14RDY) != RESET)
 8004bdc:	2702      	movs	r7, #2
      __HAL_RCC_HSI14ADC_DISABLE();
 8004bde:	6b6b      	ldr	r3, [r5, #52]	@ 0x34
 8004be0:	4313      	orrs	r3, r2
 8004be2:	636b      	str	r3, [r5, #52]	@ 0x34
      __HAL_RCC_HSI14_DISABLE();
 8004be4:	6b6b      	ldr	r3, [r5, #52]	@ 0x34
 8004be6:	3a03      	subs	r2, #3
 8004be8:	4393      	bics	r3, r2
 8004bea:	636b      	str	r3, [r5, #52]	@ 0x34
      tickstart = HAL_GetTick();
 8004bec:	f7fd fc34 	bl	8002458 <HAL_GetTick>
 8004bf0:	0006      	movs	r6, r0
      while(__HAL_RCC_GET_FLAG(RCC_FLAG_HSI14RDY) != RESET)
 8004bf2:	e005      	b.n	8004c00 <HAL_RCC_OscConfig+0x390>
        if((HAL_GetTick() - tickstart) > HSI14_TIMEOUT_VALUE)
 8004bf4:	f7fd fc30 	bl	8002458 <HAL_GetTick>
 8004bf8:	1b80      	subs	r0, r0, r6
 8004bfa:	2802      	cmp	r0, #2
 8004bfc:	d900      	bls.n	8004c00 <HAL_RCC_OscConfig+0x390>
 8004bfe:	e77d      	b.n	8004afc <HAL_RCC_OscConfig+0x28c>
      while(__HAL_RCC_GET_FLAG(RCC_FLAG_HSI14RDY) != RESET)
 8004c00:	6b6b      	ldr	r3, [r5, #52]	@ 0x34
 8004c02:	421f      	tst	r7, r3
 8004c04:	d1f6      	bne.n	8004bf4 <HAL_RCC_OscConfig+0x384>
 8004c06:	e6f9      	b.n	80049fc <HAL_RCC_OscConfig+0x18c>
      __HAL_RCC_PWR_CLK_DISABLE();
 8004c08:	4a46      	ldr	r2, [pc, #280]	@ (8004d24 <HAL_RCC_OscConfig+0x4b4>)
 8004c0a:	4948      	ldr	r1, [pc, #288]	@ (8004d2c <HAL_RCC_OscConfig+0x4bc>)
 8004c0c:	69d3      	ldr	r3, [r2, #28]
 8004c0e:	400b      	ands	r3, r1
 8004c10:	61d3      	str	r3, [r2, #28]
  if(((RCC_OscInitStruct->OscillatorType) & RCC_OSCILLATORTYPE_HSI14) == RCC_OSCILLATORTYPE_HSI14)
 8004c12:	6823      	ldr	r3, [r4, #0]
 8004c14:	e6dd      	b.n	80049d2 <HAL_RCC_OscConfig+0x162>
    __HAL_RCC_LSE_CONFIG(RCC_OscInitStruct->LSEState);
 8004c16:	2104      	movs	r1, #4
 8004c18:	4b42      	ldr	r3, [pc, #264]	@ (8004d24 <HAL_RCC_OscConfig+0x4b4>)
 8004c1a:	6a1a      	ldr	r2, [r3, #32]
 8004c1c:	430a      	orrs	r2, r1
 8004c1e:	621a      	str	r2, [r3, #32]
 8004c20:	6a1a      	ldr	r2, [r3, #32]
 8004c22:	3903      	subs	r1, #3
 8004c24:	430a      	orrs	r2, r1
 8004c26:	621a      	str	r2, [r3, #32]
    if(RCC_OscInitStruct->LSEState != RCC_LSE_OFF)
 8004c28:	e7c4      	b.n	8004bb4 <HAL_RCC_OscConfig+0x344>
      if((RCC_OscInitStruct->PLL.PLLState) == RCC_PLL_OFF)
 8004c2a:	2b01      	cmp	r3, #1
 8004c2c:	d100      	bne.n	8004c30 <HAL_RCC_OscConfig+0x3c0>
 8004c2e:	e71a      	b.n	8004a66 <HAL_RCC_OscConfig+0x1f6>
        if((READ_BIT(pll_config,  RCC_CFGR_PLLSRC)  != RCC_OscInitStruct->PLL.PLLSource) ||
 8004c30:	22c0      	movs	r2, #192	@ 0xc0
        pll_config  = RCC->CFGR;
 8004c32:	686b      	ldr	r3, [r5, #4]
        if((READ_BIT(pll_config,  RCC_CFGR_PLLSRC)  != RCC_OscInitStruct->PLL.PLLSource) ||
 8004c34:	6a61      	ldr	r1, [r4, #36]	@ 0x24
 8004c36:	0252      	lsls	r2, r2, #9
        pll_config2 = RCC->CFGR2;
 8004c38:	6ae8      	ldr	r0, [r5, #44]	@ 0x2c
        if((READ_BIT(pll_config,  RCC_CFGR_PLLSRC)  != RCC_OscInitStruct->PLL.PLLSource) ||
 8004c3a:	401a      	ands	r2, r3
 8004c3c:	428a      	cmp	r2, r1
 8004c3e:	d000      	beq.n	8004c42 <HAL_RCC_OscConfig+0x3d2>
 8004c40:	e711      	b.n	8004a66 <HAL_RCC_OscConfig+0x1f6>
           (READ_BIT(pll_config2, RCC_CFGR2_PREDIV) != RCC_OscInitStruct->PLL.PREDIV)    ||
 8004c42:	220f      	movs	r2, #15
        if((READ_BIT(pll_config,  RCC_CFGR_PLLSRC)  != RCC_OscInitStruct->PLL.PLLSource) ||
 8004c44:	6ae1      	ldr	r1, [r4, #44]	@ 0x2c
           (READ_BIT(pll_config2, RCC_CFGR2_PREDIV) != RCC_OscInitStruct->PLL.PREDIV)    ||
 8004c46:	4002      	ands	r2, r0
        if((READ_BIT(pll_config,  RCC_CFGR_PLLSRC)  != RCC_OscInitStruct->PLL.PLLSource) ||
 8004c48:	428a      	cmp	r2, r1
 8004c4a:	d000      	beq.n	8004c4e <HAL_RCC_OscConfig+0x3de>
 8004c4c:	e70b      	b.n	8004a66 <HAL_RCC_OscConfig+0x1f6>
           (READ_BIT(pll_config,  RCC_CFGR_PLLMUL)  != RCC_OscInitStruct->PLL.PLLMUL))
 8004c4e:	22f0      	movs	r2, #240	@ 0xf0
           (READ_BIT(pll_config2, RCC_CFGR2_PREDIV) != RCC_OscInitStruct->PLL.PREDIV)    ||
 8004c50:	6aa0      	ldr	r0, [r4, #40]	@ 0x28
           (READ_BIT(pll_config,  RCC_CFGR_PLLMUL)  != RCC_OscInitStruct->PLL.PLLMUL))
 8004c52:	0392      	lsls	r2, r2, #14
 8004c54:	4013      	ands	r3, r2
           (READ_BIT(pll_config2, RCC_CFGR2_PREDIV) != RCC_OscInitStruct->PLL.PREDIV)    ||
 8004c56:	1a18      	subs	r0, r3, r0
 8004c58:	1e43      	subs	r3, r0, #1
 8004c5a:	4198      	sbcs	r0, r3
 8004c5c:	b2c0      	uxtb	r0, r0
 8004c5e:	e6ed      	b.n	8004a3c <HAL_RCC_OscConfig+0x1cc>
      __HAL_RCC_HSI14ADC_DISABLE();
 8004c60:	2104      	movs	r1, #4
 8004c62:	4d30      	ldr	r5, [pc, #192]	@ (8004d24 <HAL_RCC_OscConfig+0x4b4>)
      while(__HAL_RCC_GET_FLAG(RCC_FLAG_HSI14RDY) == RESET)
 8004c64:	2702      	movs	r7, #2
      __HAL_RCC_HSI14ADC_DISABLE();
 8004c66:	6b6a      	ldr	r2, [r5, #52]	@ 0x34
 8004c68:	430a      	orrs	r2, r1
 8004c6a:	636a      	str	r2, [r5, #52]	@ 0x34
      __HAL_RCC_HSI14_ENABLE();
 8004c6c:	6b6a      	ldr	r2, [r5, #52]	@ 0x34
 8004c6e:	4313      	orrs	r3, r2
 8004c70:	636b      	str	r3, [r5, #52]	@ 0x34
      tickstart = HAL_GetTick();
 8004c72:	f7fd fbf1 	bl	8002458 <HAL_GetTick>
 8004c76:	0006      	movs	r6, r0
      while(__HAL_RCC_GET_FLAG(RCC_FLAG_HSI14RDY) == RESET)
 8004c78:	e005      	b.n	8004c86 <HAL_RCC_OscConfig+0x416>
        if((HAL_GetTick() - tickstart) > HSI14_TIMEOUT_VALUE)
 8004c7a:	f7fd fbed 	bl	8002458 <HAL_GetTick>
 8004c7e:	1b80      	subs	r0, r0, r6
 8004c80:	2802      	cmp	r0, #2
 8004c82:	d900      	bls.n	8004c86 <HAL_RCC_OscConfig+0x416>
 8004c84:	e73a      	b.n	8004afc <HAL_RCC_OscConfig+0x28c>
      while(__HAL_RCC_GET_FLAG(RCC_FLAG_HSI14RDY) == RESET)
 8004c86:	6b6b      	ldr	r3, [r5, #52]	@ 0x34
 8004c88:	421f      	tst	r7, r3
 8004c8a:	d0f6      	beq.n	8004c7a <HAL_RCC_OscConfig+0x40a>
      __HAL_RCC_HSI14_CALIBRATIONVALUE_ADJUST(RCC_OscInitStruct->HSI14CalibrationValue);
 8004c8c:	21f8      	movs	r1, #248	@ 0xf8
 8004c8e:	6b6a      	ldr	r2, [r5, #52]	@ 0x34
 8004c90:	69a3      	ldr	r3, [r4, #24]
 8004c92:	438a      	bics	r2, r1
 8004c94:	00db      	lsls	r3, r3, #3
 8004c96:	4313      	orrs	r3, r2
 8004c98:	636b      	str	r3, [r5, #52]	@ 0x34
 8004c9a:	e6af      	b.n	80049fc <HAL_RCC_OscConfig+0x18c>
        __HAL_RCC_PLL_DISABLE();
 8004c9c:	682b      	ldr	r3, [r5, #0]
 8004c9e:	4a24      	ldr	r2, [pc, #144]	@ (8004d30 <HAL_RCC_OscConfig+0x4c0>)
        while(__HAL_RCC_GET_FLAG(RCC_FLAG_PLLRDY)  != RESET)
 8004ca0:	2780      	movs	r7, #128	@ 0x80
        __HAL_RCC_PLL_DISABLE();
 8004ca2:	4013      	ands	r3, r2
 8004ca4:	602b      	str	r3, [r5, #0]
        tickstart = HAL_GetTick();
 8004ca6:	f7fd fbd7 	bl	8002458 <HAL_GetTick>
        while(__HAL_RCC_GET_FLAG(RCC_FLAG_PLLRDY)  != RESET)
 8004caa:	04bf      	lsls	r7, r7, #18
        tickstart = HAL_GetTick();
 8004cac:	0006      	movs	r6, r0
        while(__HAL_RCC_GET_FLAG(RCC_FLAG_PLLRDY)  != RESET)
 8004cae:	e005      	b.n	8004cbc <HAL_RCC_OscConfig+0x44c>
          if((HAL_GetTick() - tickstart ) > PLL_TIMEOUT_VALUE)
 8004cb0:	f7fd fbd2 	bl	8002458 <HAL_GetTick>
 8004cb4:	1b80      	subs	r0, r0, r6
 8004cb6:	2802      	cmp	r0, #2
 8004cb8:	d900      	bls.n	8004cbc <HAL_RCC_OscConfig+0x44c>
 8004cba:	e71f      	b.n	8004afc <HAL_RCC_OscConfig+0x28c>
        while(__HAL_RCC_GET_FLAG(RCC_FLAG_PLLRDY)  != RESET)
 8004cbc:	682b      	ldr	r3, [r5, #0]
 8004cbe:	423b      	tst	r3, r7
 8004cc0:	d1f6      	bne.n	8004cb0 <HAL_RCC_OscConfig+0x440>
        __HAL_RCC_PLL_CONFIG(RCC_OscInitStruct->PLL.PLLSource,
 8004cc2:	220f      	movs	r2, #15
 8004cc4:	6aeb      	ldr	r3, [r5, #44]	@ 0x2c
        while(__HAL_RCC_GET_FLAG(RCC_FLAG_PLLRDY)  == RESET)
 8004cc6:	4e17      	ldr	r6, [pc, #92]	@ (8004d24 <HAL_RCC_OscConfig+0x4b4>)
        __HAL_RCC_PLL_CONFIG(RCC_OscInitStruct->PLL.PLLSource,
 8004cc8:	4393      	bics	r3, r2
 8004cca:	6ae2      	ldr	r2, [r4, #44]	@ 0x2c
 8004ccc:	4313      	orrs	r3, r2
 8004cce:	62eb      	str	r3, [r5, #44]	@ 0x2c
 8004cd0:	6a61      	ldr	r1, [r4, #36]	@ 0x24
 8004cd2:	6aa3      	ldr	r3, [r4, #40]	@ 0x28
 8004cd4:	686a      	ldr	r2, [r5, #4]
 8004cd6:	430b      	orrs	r3, r1
 8004cd8:	4916      	ldr	r1, [pc, #88]	@ (8004d34 <HAL_RCC_OscConfig+0x4c4>)
 8004cda:	400a      	ands	r2, r1
 8004cdc:	4313      	orrs	r3, r2
 8004cde:	606b      	str	r3, [r5, #4]
        __HAL_RCC_PLL_ENABLE();
 8004ce0:	2380      	movs	r3, #128	@ 0x80
 8004ce2:	682a      	ldr	r2, [r5, #0]
 8004ce4:	045b      	lsls	r3, r3, #17
 8004ce6:	4313      	orrs	r3, r2
 8004ce8:	602b      	str	r3, [r5, #0]
        tickstart = HAL_GetTick();
 8004cea:	f7fd fbb5 	bl	8002458 <HAL_GetTick>
        while(__HAL_RCC_GET_FLAG(RCC_FLAG_PLLRDY)  == RESET)
 8004cee:	2580      	movs	r5, #128	@ 0x80
        tickstart = HAL_GetTick();
 8004cf0:	0004      	movs	r4, r0
        while(__HAL_RCC_GET_FLAG(RCC_FLAG_PLLRDY)  == RESET)
 8004cf2:	04ad      	lsls	r5, r5, #18
 8004cf4:	e005      	b.n	8004d02 <HAL_RCC_OscConfig+0x492>
          if((HAL_GetTick() - tickstart ) > PLL_TIMEOUT_VALUE)
 8004cf6:	f7fd fbaf 	bl	8002458 <HAL_GetTick>
 8004cfa:	1b00      	subs	r0, r0, r4
 8004cfc:	2802      	cmp	r0, #2
 8004cfe:	d900      	bls.n	8004d02 <HAL_RCC_OscConfig+0x492>
 8004d00:	e6fc      	b.n	8004afc <HAL_RCC_OscConfig+0x28c>
        while(__HAL_RCC_GET_FLAG(RCC_FLAG_PLLRDY)  == RESET)
 8004d02:	6833      	ldr	r3, [r6, #0]
 8004d04:	422b      	tst	r3, r5
 8004d06:	d0f6      	beq.n	8004cf6 <HAL_RCC_OscConfig+0x486>
 8004d08:	e697      	b.n	8004a3a <HAL_RCC_OscConfig+0x1ca>
      __HAL_RCC_HSE_CONFIG(RCC_OscInitStruct->HSEState);
 8004d0a:	2280      	movs	r2, #128	@ 0x80
 8004d0c:	4b05      	ldr	r3, [pc, #20]	@ (8004d24 <HAL_RCC_OscConfig+0x4b4>)
 8004d0e:	02d2      	lsls	r2, r2, #11
 8004d10:	6819      	ldr	r1, [r3, #0]
 8004d12:	430a      	orrs	r2, r1
 8004d14:	601a      	str	r2, [r3, #0]
 8004d16:	2280      	movs	r2, #128	@ 0x80
 8004d18:	6819      	ldr	r1, [r3, #0]
 8004d1a:	0252      	lsls	r2, r2, #9
 8004d1c:	430a      	orrs	r2, r1
 8004d1e:	601a      	str	r2, [r3, #0]
      if(RCC_OscInitStruct->HSEState != RCC_HSE_OFF)
 8004d20:	e5d1      	b.n	80048c6 <HAL_RCC_OscConfig+0x56>
 8004d22:	46c0      	nop			@ (mov r8, r8)
 8004d24:	40021000 	.word	0x40021000
 8004d28:	00001388 	.word	0x00001388
 8004d2c:	efffffff 	.word	0xefffffff
 8004d30:	feffffff 	.word	0xfeffffff
 8004d34:	ffc27fff 	.word	0xffc27fff

08004d38 <HAL_RCC_ClockConfig>:
  *         You can use @ref HAL_RCC_GetClockConfig() function to know which clock is
  *         currently used as system clock source.
  * @retval HAL status
  */
HAL_StatusTypeDef HAL_RCC_ClockConfig(RCC_ClkInitTypeDef  *RCC_ClkInitStruct, uint32_t FLatency)
{
 8004d38:	b5f8      	push	{r3, r4, r5, r6, r7, lr}
 8004d3a:	46ce      	mov	lr, r9
 8004d3c:	4647      	mov	r7, r8
 8004d3e:	0004      	movs	r4, r0
 8004d40:	000d      	movs	r5, r1
 8004d42:	b580      	push	{r7, lr}
  uint32_t tickstart;

  /* Check Null pointer */
  if(RCC_ClkInitStruct == NULL)
 8004d44:	2800      	cmp	r0, #0
 8004d46:	d00d      	beq.n	8004d64 <HAL_RCC_ClockConfig+0x2c>
  /* To correctly read data from FLASH memory, the number of wait states (LATENCY) 
  must be correctly programmed according to the frequency of the CPU clock 
    (HCLK) of the device. */

  /* Increasing the number of wait states because of higher CPU frequency */
  if(FLatency > __HAL_FLASH_GET_LATENCY())
 8004d48:	2301      	movs	r3, #1
 8004d4a:	4945      	ldr	r1, [pc, #276]	@ (8004e60 <HAL_RCC_ClockConfig+0x128>)
 8004d4c:	680a      	ldr	r2, [r1, #0]
 8004d4e:	401a      	ands	r2, r3
 8004d50:	42aa      	cmp	r2, r5
 8004d52:	d20c      	bcs.n	8004d6e <HAL_RCC_ClockConfig+0x36>
  {    
    /* Program the new number of wait states to the LATENCY bits in the FLASH_ACR register */
    __HAL_FLASH_SET_LATENCY(FLatency);
 8004d54:	680a      	ldr	r2, [r1, #0]
 8004d56:	439a      	bics	r2, r3
 8004d58:	432a      	orrs	r2, r5
 8004d5a:	600a      	str	r2, [r1, #0]
    
    /* Check that the new number of wait states is taken into account to access the Flash
    memory by reading the FLASH_ACR register */
    if(__HAL_FLASH_GET_LATENCY() != FLatency)
 8004d5c:	680a      	ldr	r2, [r1, #0]
 8004d5e:	4013      	ands	r3, r2
 8004d60:	42ab      	cmp	r3, r5
 8004d62:	d004      	beq.n	8004d6e <HAL_RCC_ClockConfig+0x36>
    return HAL_ERROR;
 8004d64:	2001      	movs	r0, #1

  /* Configure the source of time base considering new system clocks settings*/
  HAL_InitTick (TICK_INT_PRIORITY);
  
  return HAL_OK;
}
 8004d66:	bcc0      	pop	{r6, r7}
 8004d68:	46b9      	mov	r9, r7
 8004d6a:	46b0      	mov	r8, r6
 8004d6c:	bdf8      	pop	{r3, r4, r5, r6, r7, pc}
  if(((RCC_ClkInitStruct->ClockType) & RCC_CLOCKTYPE_HCLK) == RCC_CLOCKTYPE_HCLK)
 8004d6e:	6823      	ldr	r3, [r4, #0]
 8004d70:	079a      	lsls	r2, r3, #30
 8004d72:	d50e      	bpl.n	8004d92 <HAL_RCC_ClockConfig+0x5a>
    if(((RCC_ClkInitStruct->ClockType) & RCC_CLOCKTYPE_PCLK1) == RCC_CLOCKTYPE_PCLK1)
 8004d74:	075a      	lsls	r2, r3, #29
 8004d76:	d505      	bpl.n	8004d84 <HAL_RCC_ClockConfig+0x4c>
      MODIFY_REG(RCC->CFGR, RCC_CFGR_PPRE, RCC_HCLK_DIV16);
 8004d78:	22e0      	movs	r2, #224	@ 0xe0
 8004d7a:	493a      	ldr	r1, [pc, #232]	@ (8004e64 <HAL_RCC_ClockConfig+0x12c>)
 8004d7c:	00d2      	lsls	r2, r2, #3
 8004d7e:	6848      	ldr	r0, [r1, #4]
 8004d80:	4302      	orrs	r2, r0
 8004d82:	604a      	str	r2, [r1, #4]
    MODIFY_REG(RCC->CFGR, RCC_CFGR_HPRE, RCC_ClkInitStruct->AHBCLKDivider);
 8004d84:	20f0      	movs	r0, #240	@ 0xf0
 8004d86:	4937      	ldr	r1, [pc, #220]	@ (8004e64 <HAL_RCC_ClockConfig+0x12c>)
 8004d88:	684a      	ldr	r2, [r1, #4]
 8004d8a:	4382      	bics	r2, r0
 8004d8c:	68a0      	ldr	r0, [r4, #8]
 8004d8e:	4302      	orrs	r2, r0
 8004d90:	604a      	str	r2, [r1, #4]
  if(((RCC_ClkInitStruct->ClockType) & RCC_CLOCKTYPE_SYSCLK) == RCC_CLOCKTYPE_SYSCLK)
 8004d92:	07db      	lsls	r3, r3, #31
 8004d94:	d522      	bpl.n	8004ddc <HAL_RCC_ClockConfig+0xa4>
      if(__HAL_RCC_GET_FLAG(RCC_FLAG_HSERDY) == RESET)
 8004d96:	4b33      	ldr	r3, [pc, #204]	@ (8004e64 <HAL_RCC_ClockConfig+0x12c>)
    if(RCC_ClkInitStruct->SYSCLKSource == RCC_SYSCLKSOURCE_HSE)
 8004d98:	6862      	ldr	r2, [r4, #4]
      if(__HAL_RCC_GET_FLAG(RCC_FLAG_HSERDY) == RESET)
 8004d9a:	681b      	ldr	r3, [r3, #0]
    if(RCC_ClkInitStruct->SYSCLKSource == RCC_SYSCLKSOURCE_HSE)
 8004d9c:	2a01      	cmp	r2, #1
 8004d9e:	d059      	beq.n	8004e54 <HAL_RCC_ClockConfig+0x11c>
    else if(RCC_ClkInitStruct->SYSCLKSource == RCC_SYSCLKSOURCE_PLLCLK)
 8004da0:	2a02      	cmp	r2, #2
 8004da2:	d054      	beq.n	8004e4e <HAL_RCC_ClockConfig+0x116>
      if(__HAL_RCC_GET_FLAG(RCC_FLAG_HSIRDY) == RESET)
 8004da4:	079b      	lsls	r3, r3, #30
 8004da6:	d5dd      	bpl.n	8004d64 <HAL_RCC_ClockConfig+0x2c>
    __HAL_RCC_SYSCLK_CONFIG(RCC_ClkInitStruct->SYSCLKSource);
 8004da8:	2103      	movs	r1, #3
 8004daa:	4e2e      	ldr	r6, [pc, #184]	@ (8004e64 <HAL_RCC_ClockConfig+0x12c>)
 8004dac:	6873      	ldr	r3, [r6, #4]
 8004dae:	438b      	bics	r3, r1
 8004db0:	4313      	orrs	r3, r2
 8004db2:	6073      	str	r3, [r6, #4]
    tickstart = HAL_GetTick();
 8004db4:	f7fd fb50 	bl	8002458 <HAL_GetTick>
    while (__HAL_RCC_GET_SYSCLK_SOURCE() != (RCC_ClkInitStruct->SYSCLKSource << RCC_CFGR_SWS_Pos))
 8004db8:	230c      	movs	r3, #12
 8004dba:	4698      	mov	r8, r3
      if((HAL_GetTick() - tickstart ) > CLOCKSWITCH_TIMEOUT_VALUE)
 8004dbc:	4b2a      	ldr	r3, [pc, #168]	@ (8004e68 <HAL_RCC_ClockConfig+0x130>)
    tickstart = HAL_GetTick();
 8004dbe:	0007      	movs	r7, r0
      if((HAL_GetTick() - tickstart ) > CLOCKSWITCH_TIMEOUT_VALUE)
 8004dc0:	4699      	mov	r9, r3
    while (__HAL_RCC_GET_SYSCLK_SOURCE() != (RCC_ClkInitStruct->SYSCLKSource << RCC_CFGR_SWS_Pos))
 8004dc2:	e004      	b.n	8004dce <HAL_RCC_ClockConfig+0x96>
      if((HAL_GetTick() - tickstart ) > CLOCKSWITCH_TIMEOUT_VALUE)
 8004dc4:	f7fd fb48 	bl	8002458 <HAL_GetTick>
 8004dc8:	1bc0      	subs	r0, r0, r7
 8004dca:	4548      	cmp	r0, r9
 8004dcc:	d845      	bhi.n	8004e5a <HAL_RCC_ClockConfig+0x122>
    while (__HAL_RCC_GET_SYSCLK_SOURCE() != (RCC_ClkInitStruct->SYSCLKSource << RCC_CFGR_SWS_Pos))
 8004dce:	4643      	mov	r3, r8
 8004dd0:	6872      	ldr	r2, [r6, #4]
 8004dd2:	401a      	ands	r2, r3
 8004dd4:	6863      	ldr	r3, [r4, #4]
 8004dd6:	009b      	lsls	r3, r3, #2
 8004dd8:	429a      	cmp	r2, r3
 8004dda:	d1f3      	bne.n	8004dc4 <HAL_RCC_ClockConfig+0x8c>
  if(FLatency < __HAL_FLASH_GET_LATENCY())
 8004ddc:	2101      	movs	r1, #1
 8004dde:	4a20      	ldr	r2, [pc, #128]	@ (8004e60 <HAL_RCC_ClockConfig+0x128>)
 8004de0:	6813      	ldr	r3, [r2, #0]
 8004de2:	400b      	ands	r3, r1
 8004de4:	42ab      	cmp	r3, r5
 8004de6:	d905      	bls.n	8004df4 <HAL_RCC_ClockConfig+0xbc>
    __HAL_FLASH_SET_LATENCY(FLatency);
 8004de8:	6813      	ldr	r3, [r2, #0]
 8004dea:	438b      	bics	r3, r1
 8004dec:	6013      	str	r3, [r2, #0]
    if(__HAL_FLASH_GET_LATENCY() != FLatency)
 8004dee:	6813      	ldr	r3, [r2, #0]
 8004df0:	4219      	tst	r1, r3
 8004df2:	d1b7      	bne.n	8004d64 <HAL_RCC_ClockConfig+0x2c>
  if(((RCC_ClkInitStruct->ClockType) & RCC_CLOCKTYPE_PCLK1) == RCC_CLOCKTYPE_PCLK1)
 8004df4:	6823      	ldr	r3, [r4, #0]
 8004df6:	075b      	lsls	r3, r3, #29
 8004df8:	d506      	bpl.n	8004e08 <HAL_RCC_ClockConfig+0xd0>
    MODIFY_REG(RCC->CFGR, RCC_CFGR_PPRE, RCC_ClkInitStruct->APB1CLKDivider);
 8004dfa:	4a1a      	ldr	r2, [pc, #104]	@ (8004e64 <HAL_RCC_ClockConfig+0x12c>)
 8004dfc:	491b      	ldr	r1, [pc, #108]	@ (8004e6c <HAL_RCC_ClockConfig+0x134>)
 8004dfe:	6853      	ldr	r3, [r2, #4]
 8004e00:	400b      	ands	r3, r1
 8004e02:	68e1      	ldr	r1, [r4, #12]
 8004e04:	430b      	orrs	r3, r1
 8004e06:	6053      	str	r3, [r2, #4]
  uint32_t sysclockfreq = 0U;
  
  tmpreg = RCC->CFGR;
  
  /* Get SYSCLK source -------------------------------------------------------*/
  switch (tmpreg & RCC_CFGR_SWS)
 8004e08:	220c      	movs	r2, #12
  tmpreg = RCC->CFGR;
 8004e0a:	4916      	ldr	r1, [pc, #88]	@ (8004e64 <HAL_RCC_ClockConfig+0x12c>)
 8004e0c:	684b      	ldr	r3, [r1, #4]
  switch (tmpreg & RCC_CFGR_SWS)
 8004e0e:	401a      	ands	r2, r3
 8004e10:	2a08      	cmp	r2, #8
 8004e12:	d00e      	beq.n	8004e32 <HAL_RCC_ClockConfig+0xfa>
  {
    case RCC_SYSCLKSOURCE_STATUS_HSE:  /* HSE used as system clock */
    {
      sysclockfreq = HSE_VALUE;
 8004e14:	4816      	ldr	r0, [pc, #88]	@ (8004e70 <HAL_RCC_ClockConfig+0x138>)
  SystemCoreClock = HAL_RCC_GetSysClockFreq() >> AHBPrescTable[(RCC->CFGR & RCC_CFGR_HPRE)>> RCC_CFGR_HPRE_BITNUMBER];
 8004e16:	4b13      	ldr	r3, [pc, #76]	@ (8004e64 <HAL_RCC_ClockConfig+0x12c>)
 8004e18:	4a16      	ldr	r2, [pc, #88]	@ (8004e74 <HAL_RCC_ClockConfig+0x13c>)
 8004e1a:	685b      	ldr	r3, [r3, #4]
 8004e1c:	4916      	ldr	r1, [pc, #88]	@ (8004e78 <HAL_RCC_ClockConfig+0x140>)
 8004e1e:	061b      	lsls	r3, r3, #24
 8004e20:	0f1b      	lsrs	r3, r3, #28
 8004e22:	5cd3      	ldrb	r3, [r2, r3]
 8004e24:	40d8      	lsrs	r0, r3
 8004e26:	6008      	str	r0, [r1, #0]
  HAL_InitTick (TICK_INT_PRIORITY);
 8004e28:	2003      	movs	r0, #3
 8004e2a:	f7fd fad3 	bl	80023d4 <HAL_InitTick>
  return HAL_OK;
 8004e2e:	2000      	movs	r0, #0
 8004e30:	e799      	b.n	8004d66 <HAL_RCC_ClockConfig+0x2e>
      break;
    }
    case RCC_SYSCLKSOURCE_STATUS_PLLCLK:  /* PLL used as system clock */
    {
      pllmul = aPLLMULFactorTable[(uint32_t)(tmpreg & RCC_CFGR_PLLMUL) >> RCC_CFGR_PLLMUL_BITNUMBER];
      prediv = aPredivFactorTable[(uint32_t)(RCC->CFGR2 & RCC_CFGR2_PREDIV) >> RCC_CFGR2_PREDIV_BITNUMBER];
 8004e32:	6ac8      	ldr	r0, [r1, #44]	@ 0x2c
      pllmul = aPLLMULFactorTable[(uint32_t)(tmpreg & RCC_CFGR_PLLMUL) >> RCC_CFGR_PLLMUL_BITNUMBER];
 8004e34:	3207      	adds	r2, #7
 8004e36:	4911      	ldr	r1, [pc, #68]	@ (8004e7c <HAL_RCC_ClockConfig+0x144>)
 8004e38:	0c9b      	lsrs	r3, r3, #18
 8004e3a:	4013      	ands	r3, r2
 8004e3c:	5ccc      	ldrb	r4, [r1, r3]
      prediv = aPredivFactorTable[(uint32_t)(RCC->CFGR2 & RCC_CFGR2_PREDIV) >> RCC_CFGR2_PREDIV_BITNUMBER];
 8004e3e:	4b10      	ldr	r3, [pc, #64]	@ (8004e80 <HAL_RCC_ClockConfig+0x148>)
 8004e40:	4002      	ands	r2, r0
 8004e42:	5c99      	ldrb	r1, [r3, r2]
#endif /* RCC_CFGR_PLLSRC_HSI48_PREDIV */
      else
      {
#if  (defined(STM32F042x6) || defined(STM32F048xx) || defined(STM32F070x6) || defined(STM32F071xB) || defined(STM32F072xB) || defined(STM32F078xx) || defined(STM32F070xB) || defined(STM32F091xC) || defined(STM32F098xx) || defined(STM32F030xC))
        /* HSI used as PLL clock source : PLLCLK = HSI/PREDIV * PLLMUL */
        pllclk = (uint32_t)((uint64_t) HSI_VALUE / (uint64_t) (prediv)) * ((uint64_t) pllmul);
 8004e44:	480a      	ldr	r0, [pc, #40]	@ (8004e70 <HAL_RCC_ClockConfig+0x138>)
 8004e46:	f7fb f971 	bl	800012c <__udivsi3>
 8004e4a:	4360      	muls	r0, r4
 8004e4c:	e7e3      	b.n	8004e16 <HAL_RCC_ClockConfig+0xde>
      if(__HAL_RCC_GET_FLAG(RCC_FLAG_PLLRDY) == RESET)
 8004e4e:	019b      	lsls	r3, r3, #6
 8004e50:	d4aa      	bmi.n	8004da8 <HAL_RCC_ClockConfig+0x70>
 8004e52:	e787      	b.n	8004d64 <HAL_RCC_ClockConfig+0x2c>
      if(__HAL_RCC_GET_FLAG(RCC_FLAG_HSERDY) == RESET)
 8004e54:	039b      	lsls	r3, r3, #14
 8004e56:	d4a7      	bmi.n	8004da8 <HAL_RCC_ClockConfig+0x70>
 8004e58:	e784      	b.n	8004d64 <HAL_RCC_ClockConfig+0x2c>
        return HAL_TIMEOUT;
 8004e5a:	2003      	movs	r0, #3
 8004e5c:	e783      	b.n	8004d66 <HAL_RCC_ClockConfig+0x2e>
 8004e5e:	46c0      	nop			@ (mov r8, r8)
 8004e60:	40022000 	.word	0x40022000
 8004e64:	40021000 	.word	0x40021000
 8004e68:	00001388 	.word	0x00001388
 8004e6c:	fffff8ff 	.word	0xfffff8ff
 8004e70:	007a1200 	.word	0x007a1200
 8004e74:	08008d28 	.word	0x08008d28
 8004e78:	20000014 	.word	0x20000014
 8004e7c:	08008d48 	.word	0x08008d48
 8004e80:	08008d38 	.word	0x08008d38

08004e84 <HAL_RCCEx_PeriphCLKConfig>:
  *         the backup registers) and RCC_BDCR register are set to their reset values.
  *
  * @retval HAL status
  */
HAL_StatusTypeDef HAL_RCCEx_PeriphCLKConfig(RCC_PeriphCLKInitTypeDef  *PeriphClkInit)
{
 8004e84:	b5f0      	push	{r4, r5, r6, r7, lr}
 8004e86:	46ce      	mov	lr, r9
 8004e88:	4647      	mov	r7, r8
 8004e8a:	b580      	push	{r7, lr}

  /* Check the parameters */
  assert_param(IS_RCC_PERIPHCLOCK(PeriphClkInit->PeriphClockSelection));
  
  /*---------------------------- RTC configuration -------------------------------*/
  if(((PeriphClkInit->PeriphClockSelection) & RCC_PERIPHCLK_RTC) == (RCC_PERIPHCLK_RTC))
 8004e8c:	6803      	ldr	r3, [r0, #0]
{
 8004e8e:	0004      	movs	r4, r0
 8004e90:	b083      	sub	sp, #12
  if(((PeriphClkInit->PeriphClockSelection) & RCC_PERIPHCLK_RTC) == (RCC_PERIPHCLK_RTC))
 8004e92:	03da      	lsls	r2, r3, #15
 8004e94:	d530      	bpl.n	8004ef8 <HAL_RCCEx_PeriphCLKConfig+0x74>
    FlagStatus       pwrclkchanged = RESET;

    /* As soon as function is called to change RTC clock source, activation of the 
       power domain is done. */
    /* Requires to enable write access to Backup Domain of necessary */
    if(__HAL_RCC_PWR_IS_CLK_DISABLED())
 8004e96:	2280      	movs	r2, #128	@ 0x80
 8004e98:	4b44      	ldr	r3, [pc, #272]	@ (8004fac <HAL_RCCEx_PeriphCLKConfig+0x128>)
 8004e9a:	0552      	lsls	r2, r2, #21
 8004e9c:	69d9      	ldr	r1, [r3, #28]
    FlagStatus       pwrclkchanged = RESET;
 8004e9e:	2700      	movs	r7, #0
    if(__HAL_RCC_PWR_IS_CLK_DISABLED())
 8004ea0:	4211      	tst	r1, r2
 8004ea2:	d04b      	beq.n	8004f3c <HAL_RCCEx_PeriphCLKConfig+0xb8>
    {
    __HAL_RCC_PWR_CLK_ENABLE();
      pwrclkchanged = SET;
    }
    
    if(HAL_IS_BIT_CLR(PWR->CR, PWR_CR_DBP))
 8004ea4:	2680      	movs	r6, #128	@ 0x80
 8004ea6:	4d42      	ldr	r5, [pc, #264]	@ (8004fb0 <HAL_RCCEx_PeriphCLKConfig+0x12c>)
 8004ea8:	0076      	lsls	r6, r6, #1
 8004eaa:	682b      	ldr	r3, [r5, #0]
 8004eac:	4233      	tst	r3, r6
 8004eae:	d053      	beq.n	8004f58 <HAL_RCCEx_PeriphCLKConfig+0xd4>
        }
      }
    }
    
    /* Reset the Backup domain only if the RTC Clock source selection is modified from reset value */ 
    temp_reg = (RCC->BDCR & RCC_BDCR_RTCSEL);
 8004eb0:	4d3e      	ldr	r5, [pc, #248]	@ (8004fac <HAL_RCCEx_PeriphCLKConfig+0x128>)
 8004eb2:	23c0      	movs	r3, #192	@ 0xc0
 8004eb4:	6a2a      	ldr	r2, [r5, #32]
 8004eb6:	009b      	lsls	r3, r3, #2
 8004eb8:	0010      	movs	r0, r2
    if((temp_reg != 0x00000000U) && (temp_reg != (PeriphClkInit->RTCClockSelection & RCC_BDCR_RTCSEL)))
 8004eba:	6861      	ldr	r1, [r4, #4]
    temp_reg = (RCC->BDCR & RCC_BDCR_RTCSEL);
 8004ebc:	4018      	ands	r0, r3
    if((temp_reg != 0x00000000U) && (temp_reg != (PeriphClkInit->RTCClockSelection & RCC_BDCR_RTCSEL)))
 8004ebe:	421a      	tst	r2, r3
 8004ec0:	d011      	beq.n	8004ee6 <HAL_RCCEx_PeriphCLKConfig+0x62>
 8004ec2:	400b      	ands	r3, r1
 8004ec4:	4283      	cmp	r3, r0
 8004ec6:	d00e      	beq.n	8004ee6 <HAL_RCCEx_PeriphCLKConfig+0x62>
    {
      /* Store the content of BDCR register before the reset of Backup Domain */
      temp_reg = (RCC->BDCR & ~(RCC_BDCR_RTCSEL));
      /* RTC Clock selection can be changed only if the Backup Domain is reset */
      __HAL_RCC_BACKUPRESET_FORCE();
 8004ec8:	2080      	movs	r0, #128	@ 0x80
      temp_reg = (RCC->BDCR & ~(RCC_BDCR_RTCSEL));
 8004eca:	6a2b      	ldr	r3, [r5, #32]
      __HAL_RCC_BACKUPRESET_FORCE();
 8004ecc:	6a2e      	ldr	r6, [r5, #32]
 8004ece:	0240      	lsls	r0, r0, #9
 8004ed0:	4330      	orrs	r0, r6
 8004ed2:	6228      	str	r0, [r5, #32]
      __HAL_RCC_BACKUPRESET_RELEASE();
 8004ed4:	6a28      	ldr	r0, [r5, #32]
      temp_reg = (RCC->BDCR & ~(RCC_BDCR_RTCSEL));
 8004ed6:	4a37      	ldr	r2, [pc, #220]	@ (8004fb4 <HAL_RCCEx_PeriphCLKConfig+0x130>)
      __HAL_RCC_BACKUPRESET_RELEASE();
 8004ed8:	4e37      	ldr	r6, [pc, #220]	@ (8004fb8 <HAL_RCCEx_PeriphCLKConfig+0x134>)
      temp_reg = (RCC->BDCR & ~(RCC_BDCR_RTCSEL));
 8004eda:	401a      	ands	r2, r3
      __HAL_RCC_BACKUPRESET_RELEASE();
 8004edc:	4030      	ands	r0, r6
 8004ede:	6228      	str	r0, [r5, #32]
      /* Restore the Content of BDCR register */
      RCC->BDCR = temp_reg;
 8004ee0:	622a      	str	r2, [r5, #32]
      
      /* Wait for LSERDY if LSE was enabled */
      if (HAL_IS_BIT_SET(temp_reg, RCC_BDCR_LSEON))
 8004ee2:	07db      	lsls	r3, r3, #31
 8004ee4:	d44f      	bmi.n	8004f86 <HAL_RCCEx_PeriphCLKConfig+0x102>
            return HAL_TIMEOUT;
          }
        }
      }
    }
    __HAL_RCC_RTC_CONFIG(PeriphClkInit->RTCClockSelection);
 8004ee6:	4a31      	ldr	r2, [pc, #196]	@ (8004fac <HAL_RCCEx_PeriphCLKConfig+0x128>)
 8004ee8:	4832      	ldr	r0, [pc, #200]	@ (8004fb4 <HAL_RCCEx_PeriphCLKConfig+0x130>)
 8004eea:	6a13      	ldr	r3, [r2, #32]
 8004eec:	4003      	ands	r3, r0
 8004eee:	430b      	orrs	r3, r1
 8004ef0:	6213      	str	r3, [r2, #32]

    /* Require to disable power clock if necessary */
    if(pwrclkchanged == SET)
 8004ef2:	2f01      	cmp	r7, #1
 8004ef4:	d041      	beq.n	8004f7a <HAL_RCCEx_PeriphCLKConfig+0xf6>
      __HAL_RCC_PWR_CLK_DISABLE();
    }
  }

  /*------------------------------- USART1 Configuration ------------------------*/ 
  if(((PeriphClkInit->PeriphClockSelection) & RCC_PERIPHCLK_USART1) == RCC_PERIPHCLK_USART1)
 8004ef6:	6823      	ldr	r3, [r4, #0]
 8004ef8:	07da      	lsls	r2, r3, #31
 8004efa:	d506      	bpl.n	8004f0a <HAL_RCCEx_PeriphCLKConfig+0x86>
  {
    /* Check the parameters */
    assert_param(IS_RCC_USART1CLKSOURCE(PeriphClkInit->Usart1ClockSelection));
    
    /* Configure the USART1 clock source */
    __HAL_RCC_USART1_CONFIG(PeriphClkInit->Usart1ClockSelection);
 8004efc:	2003      	movs	r0, #3
 8004efe:	492b      	ldr	r1, [pc, #172]	@ (8004fac <HAL_RCCEx_PeriphCLKConfig+0x128>)
 8004f00:	6b0a      	ldr	r2, [r1, #48]	@ 0x30
 8004f02:	4382      	bics	r2, r0
 8004f04:	68a0      	ldr	r0, [r4, #8]
 8004f06:	4302      	orrs	r2, r0
 8004f08:	630a      	str	r2, [r1, #48]	@ 0x30
    __HAL_RCC_USART3_CONFIG(PeriphClkInit->Usart3ClockSelection);
  }
#endif /* STM32F091xC || STM32F098xx */  

  /*------------------------------ I2C1 Configuration ------------------------*/ 
  if(((PeriphClkInit->PeriphClockSelection) & RCC_PERIPHCLK_I2C1) == RCC_PERIPHCLK_I2C1)
 8004f0a:	069a      	lsls	r2, r3, #26
 8004f0c:	d506      	bpl.n	8004f1c <HAL_RCCEx_PeriphCLKConfig+0x98>
  {
    /* Check the parameters */
    assert_param(IS_RCC_I2C1CLKSOURCE(PeriphClkInit->I2c1ClockSelection));
    
    /* Configure the I2C1 clock source */
    __HAL_RCC_I2C1_CONFIG(PeriphClkInit->I2c1ClockSelection);
 8004f0e:	2010      	movs	r0, #16
 8004f10:	4926      	ldr	r1, [pc, #152]	@ (8004fac <HAL_RCCEx_PeriphCLKConfig+0x128>)
 8004f12:	6b0a      	ldr	r2, [r1, #48]	@ 0x30
 8004f14:	4382      	bics	r2, r0
 8004f16:	68e0      	ldr	r0, [r4, #12]
 8004f18:	4302      	orrs	r2, r0
 8004f1a:	630a      	str	r2, [r1, #48]	@ 0x30
  }

#if defined(STM32F042x6) || defined(STM32F048xx) || defined(STM32F072xB) || defined(STM32F078xx) || defined(STM32F070xB) || defined(STM32F070x6)
  /*------------------------------ USB Configuration ------------------------*/ 
  if(((PeriphClkInit->PeriphClockSelection) & RCC_PERIPHCLK_USB) == RCC_PERIPHCLK_USB)
 8004f1c:	039b      	lsls	r3, r3, #14
 8004f1e:	d405      	bmi.n	8004f2c <HAL_RCCEx_PeriphCLKConfig+0xa8>
#endif /* STM32F042x6 || STM32F048xx ||                */
       /* STM32F051x8 || STM32F058xx ||                */
       /* STM32F071xB || STM32F072xB || STM32F078xx || */
       /* STM32F091xC || STM32F098xx */
  
  return HAL_OK;
 8004f20:	2000      	movs	r0, #0
}
 8004f22:	b003      	add	sp, #12
 8004f24:	bcc0      	pop	{r6, r7}
 8004f26:	46b9      	mov	r9, r7
 8004f28:	46b0      	mov	r8, r6
 8004f2a:	bdf0      	pop	{r4, r5, r6, r7, pc}
    __HAL_RCC_USB_CONFIG(PeriphClkInit->UsbClockSelection);
 8004f2c:	2180      	movs	r1, #128	@ 0x80
 8004f2e:	4a1f      	ldr	r2, [pc, #124]	@ (8004fac <HAL_RCCEx_PeriphCLKConfig+0x128>)
 8004f30:	6b13      	ldr	r3, [r2, #48]	@ 0x30
 8004f32:	438b      	bics	r3, r1
 8004f34:	6921      	ldr	r1, [r4, #16]
 8004f36:	430b      	orrs	r3, r1
 8004f38:	6313      	str	r3, [r2, #48]	@ 0x30
 8004f3a:	e7f1      	b.n	8004f20 <HAL_RCCEx_PeriphCLKConfig+0x9c>
    if(HAL_IS_BIT_CLR(PWR->CR, PWR_CR_DBP))
 8004f3c:	2680      	movs	r6, #128	@ 0x80
    __HAL_RCC_PWR_CLK_ENABLE();
 8004f3e:	69d9      	ldr	r1, [r3, #28]
    if(HAL_IS_BIT_CLR(PWR->CR, PWR_CR_DBP))
 8004f40:	4d1b      	ldr	r5, [pc, #108]	@ (8004fb0 <HAL_RCCEx_PeriphCLKConfig+0x12c>)
    __HAL_RCC_PWR_CLK_ENABLE();
 8004f42:	4311      	orrs	r1, r2
 8004f44:	61d9      	str	r1, [r3, #28]
 8004f46:	69db      	ldr	r3, [r3, #28]
    if(HAL_IS_BIT_CLR(PWR->CR, PWR_CR_DBP))
 8004f48:	0076      	lsls	r6, r6, #1
    __HAL_RCC_PWR_CLK_ENABLE();
 8004f4a:	4013      	ands	r3, r2
 8004f4c:	9301      	str	r3, [sp, #4]
 8004f4e:	9b01      	ldr	r3, [sp, #4]
    if(HAL_IS_BIT_CLR(PWR->CR, PWR_CR_DBP))
 8004f50:	682b      	ldr	r3, [r5, #0]
      pwrclkchanged = SET;
 8004f52:	3701      	adds	r7, #1
    if(HAL_IS_BIT_CLR(PWR->CR, PWR_CR_DBP))
 8004f54:	4233      	tst	r3, r6
 8004f56:	d1ab      	bne.n	8004eb0 <HAL_RCCEx_PeriphCLKConfig+0x2c>
      SET_BIT(PWR->CR, PWR_CR_DBP);
 8004f58:	682b      	ldr	r3, [r5, #0]
 8004f5a:	4333      	orrs	r3, r6
 8004f5c:	602b      	str	r3, [r5, #0]
      tickstart = HAL_GetTick();
 8004f5e:	f7fd fa7b 	bl	8002458 <HAL_GetTick>
 8004f62:	4680      	mov	r8, r0
      while(HAL_IS_BIT_CLR(PWR->CR, PWR_CR_DBP))
 8004f64:	682b      	ldr	r3, [r5, #0]
 8004f66:	4233      	tst	r3, r6
 8004f68:	d1a2      	bne.n	8004eb0 <HAL_RCCEx_PeriphCLKConfig+0x2c>
        if((HAL_GetTick() - tickstart) > RCC_DBP_TIMEOUT_VALUE)
 8004f6a:	f7fd fa75 	bl	8002458 <HAL_GetTick>
 8004f6e:	4643      	mov	r3, r8
 8004f70:	1ac0      	subs	r0, r0, r3
 8004f72:	2864      	cmp	r0, #100	@ 0x64
 8004f74:	d9f6      	bls.n	8004f64 <HAL_RCCEx_PeriphCLKConfig+0xe0>
          return HAL_TIMEOUT;
 8004f76:	2003      	movs	r0, #3
 8004f78:	e7d3      	b.n	8004f22 <HAL_RCCEx_PeriphCLKConfig+0x9e>
      __HAL_RCC_PWR_CLK_DISABLE();
 8004f7a:	69d3      	ldr	r3, [r2, #28]
 8004f7c:	490f      	ldr	r1, [pc, #60]	@ (8004fbc <HAL_RCCEx_PeriphCLKConfig+0x138>)
 8004f7e:	400b      	ands	r3, r1
 8004f80:	61d3      	str	r3, [r2, #28]
  if(((PeriphClkInit->PeriphClockSelection) & RCC_PERIPHCLK_USART1) == RCC_PERIPHCLK_USART1)
 8004f82:	6823      	ldr	r3, [r4, #0]
 8004f84:	e7b8      	b.n	8004ef8 <HAL_RCCEx_PeriphCLKConfig+0x74>
        tickstart = HAL_GetTick();
 8004f86:	f7fd fa67 	bl	8002458 <HAL_GetTick>
        while(__HAL_RCC_GET_FLAG(RCC_FLAG_LSERDY) == RESET)
 8004f8a:	2302      	movs	r3, #2
 8004f8c:	4698      	mov	r8, r3
          if((HAL_GetTick() - tickstart) > RCC_LSE_TIMEOUT_VALUE)
 8004f8e:	4b0c      	ldr	r3, [pc, #48]	@ (8004fc0 <HAL_RCCEx_PeriphCLKConfig+0x13c>)
        tickstart = HAL_GetTick();
 8004f90:	0006      	movs	r6, r0
          if((HAL_GetTick() - tickstart) > RCC_LSE_TIMEOUT_VALUE)
 8004f92:	4699      	mov	r9, r3
        while(__HAL_RCC_GET_FLAG(RCC_FLAG_LSERDY) == RESET)
 8004f94:	e004      	b.n	8004fa0 <HAL_RCCEx_PeriphCLKConfig+0x11c>
          if((HAL_GetTick() - tickstart) > RCC_LSE_TIMEOUT_VALUE)
 8004f96:	f7fd fa5f 	bl	8002458 <HAL_GetTick>
 8004f9a:	1b80      	subs	r0, r0, r6
 8004f9c:	4548      	cmp	r0, r9
 8004f9e:	d8ea      	bhi.n	8004f76 <HAL_RCCEx_PeriphCLKConfig+0xf2>
        while(__HAL_RCC_GET_FLAG(RCC_FLAG_LSERDY) == RESET)
 8004fa0:	4642      	mov	r2, r8
 8004fa2:	6a2b      	ldr	r3, [r5, #32]
 8004fa4:	421a      	tst	r2, r3
 8004fa6:	d0f6      	beq.n	8004f96 <HAL_RCCEx_PeriphCLKConfig+0x112>
    __HAL_RCC_RTC_CONFIG(PeriphClkInit->RTCClockSelection);
 8004fa8:	6861      	ldr	r1, [r4, #4]
 8004faa:	e79c      	b.n	8004ee6 <HAL_RCCEx_PeriphCLKConfig+0x62>
 8004fac:	40021000 	.word	0x40021000
 8004fb0:	40007000 	.word	0x40007000
 8004fb4:	fffffcff 	.word	0xfffffcff
 8004fb8:	fffeffff 	.word	0xfffeffff
 8004fbc:	efffffff 	.word	0xefffffff
 8004fc0:	00001388 	.word	0x00001388

08004fc4 <TIM_OC1_SetConfig>:
  * @param  TIMx to select the TIM peripheral
  * @param  OC_Config The output configuration structure
  * @retval None
  */
static void TIM_OC1_SetConfig(TIM_TypeDef *TIMx, const TIM_OC_InitTypeDef *OC_Config)
{
 8004fc4:	b570      	push	{r4, r5, r6, lr}

  /* Get the TIMx CCER register value */
  tmpccer = TIMx->CCER;

  /* Disable the Channel 1: Reset the CC1E Bit */
  TIMx->CCER &= ~TIM_CCER_CC1E;
 8004fc6:	2401      	movs	r4, #1
  /* Get the TIMx CCMR1 register value */
  tmpccmrx = TIMx->CCMR1;

  /* Reset the Output Compare Mode Bits */
  tmpccmrx &= ~TIM_CCMR1_OC1M;
  tmpccmrx &= ~TIM_CCMR1_CC1S;
 8004fc8:	2573      	movs	r5, #115	@ 0x73
  tmpccer = TIMx->CCER;
 8004fca:	6a03      	ldr	r3, [r0, #32]
  TIMx->CCER &= ~TIM_CCER_CC1E;
 8004fcc:	6a02      	ldr	r2, [r0, #32]
 8004fce:	43a2      	bics	r2, r4
 8004fd0:	6202      	str	r2, [r0, #32]
  tmpcr2 =  TIMx->CR2;
 8004fd2:	6842      	ldr	r2, [r0, #4]
  tmpccmrx = TIMx->CCMR1;
 8004fd4:	6984      	ldr	r4, [r0, #24]
  tmpccmrx &= ~TIM_CCMR1_CC1S;
 8004fd6:	43ac      	bics	r4, r5
  /* Select the Output Compare Mode */
  tmpccmrx |= OC_Config->OCMode;
 8004fd8:	680d      	ldr	r5, [r1, #0]
 8004fda:	432c      	orrs	r4, r5

  /* Reset the Output Polarity level */
  tmpccer &= ~TIM_CCER_CC1P;
 8004fdc:	2502      	movs	r5, #2
 8004fde:	43ab      	bics	r3, r5
  /* Set the Output Compare Polarity */
  tmpccer |= OC_Config->OCPolarity;
 8004fe0:	688d      	ldr	r5, [r1, #8]
 8004fe2:	432b      	orrs	r3, r5

  if (IS_TIM_CCXN_INSTANCE(TIMx, TIM_CHANNEL_1))
 8004fe4:	4d0e      	ldr	r5, [pc, #56]	@ (8005020 <TIM_OC1_SetConfig+0x5c>)
 8004fe6:	42a8      	cmp	r0, r5
 8004fe8:	d008      	beq.n	8004ffc <TIM_OC1_SetConfig+0x38>
 8004fea:	4d0e      	ldr	r5, [pc, #56]	@ (8005024 <TIM_OC1_SetConfig+0x60>)
 8004fec:	42a8      	cmp	r0, r5
 8004fee:	d005      	beq.n	8004ffc <TIM_OC1_SetConfig+0x38>
 8004ff0:	4d0d      	ldr	r5, [pc, #52]	@ (8005028 <TIM_OC1_SetConfig+0x64>)
 8004ff2:	42a8      	cmp	r0, r5
 8004ff4:	d002      	beq.n	8004ffc <TIM_OC1_SetConfig+0x38>
 8004ff6:	4d0d      	ldr	r5, [pc, #52]	@ (800502c <TIM_OC1_SetConfig+0x68>)
 8004ff8:	42a8      	cmp	r0, r5
 8004ffa:	d10b      	bne.n	8005014 <TIM_OC1_SetConfig+0x50>
  {
    /* Check parameters */
    assert_param(IS_TIM_OCN_POLARITY(OC_Config->OCNPolarity));

    /* Reset the Output N Polarity level */
    tmpccer &= ~TIM_CCER_CC1NP;
 8004ffc:	2508      	movs	r5, #8
 8004ffe:	43ab      	bics	r3, r5
    /* Set the Output N Polarity */
    tmpccer |= OC_Config->OCNPolarity;
 8005000:	68cd      	ldr	r5, [r1, #12]
    tmpcr2 &= ~TIM_CR2_OIS1;
    tmpcr2 &= ~TIM_CR2_OIS1N;
    /* Set the Output Idle state */
    tmpcr2 |= OC_Config->OCIdleState;
    /* Set the Output N Idle state */
    tmpcr2 |= OC_Config->OCNIdleState;
 8005002:	698e      	ldr	r6, [r1, #24]
    tmpccer |= OC_Config->OCNPolarity;
 8005004:	432b      	orrs	r3, r5
    tmpccer &= ~TIM_CCER_CC1NE;
 8005006:	2504      	movs	r5, #4
 8005008:	43ab      	bics	r3, r5
    tmpcr2 &= ~TIM_CR2_OIS1N;
 800500a:	4d09      	ldr	r5, [pc, #36]	@ (8005030 <TIM_OC1_SetConfig+0x6c>)
 800500c:	4015      	ands	r5, r2
    tmpcr2 |= OC_Config->OCNIdleState;
 800500e:	694a      	ldr	r2, [r1, #20]
 8005010:	4332      	orrs	r2, r6
 8005012:	432a      	orrs	r2, r5
  }

  /* Write to TIMx CR2 */
  TIMx->CR2 = tmpcr2;
 8005014:	6042      	str	r2, [r0, #4]

  /* Write to TIMx CCMR1 */
  TIMx->CCMR1 = tmpccmrx;

  /* Set the Capture Compare Register value */
  TIMx->CCR1 = OC_Config->Pulse;
 8005016:	684a      	ldr	r2, [r1, #4]
  TIMx->CCMR1 = tmpccmrx;
 8005018:	6184      	str	r4, [r0, #24]
  TIMx->CCR1 = OC_Config->Pulse;
 800501a:	6342      	str	r2, [r0, #52]	@ 0x34

  /* Write to TIMx CCER */
  TIMx->CCER = tmpccer;
 800501c:	6203      	str	r3, [r0, #32]
}
 800501e:	bd70      	pop	{r4, r5, r6, pc}
 8005020:	40012c00 	.word	0x40012c00
 8005024:	40014000 	.word	0x40014000
 8005028:	40014400 	.word	0x40014400
 800502c:	40014800 	.word	0x40014800
 8005030:	fffffcff 	.word	0xfffffcff

08005034 <HAL_TIM_Base_Init>:
{
 8005034:	b570      	push	{r4, r5, r6, lr}
 8005036:	1e04      	subs	r4, r0, #0
  if (htim == NULL)
 8005038:	d100      	bne.n	800503c <HAL_TIM_Base_Init+0x8>
 800503a:	e06d      	b.n	8005118 <HAL_TIM_Base_Init+0xe4>
  if (htim->State == HAL_TIM_STATE_RESET)
 800503c:	233d      	movs	r3, #61	@ 0x3d
 800503e:	5cc3      	ldrb	r3, [r0, r3]
 8005040:	b2da      	uxtb	r2, r3
 8005042:	2b00      	cmp	r3, #0
 8005044:	d020      	beq.n	8005088 <HAL_TIM_Base_Init+0x54>
  htim->State = HAL_TIM_STATE_BUSY;
 8005046:	233d      	movs	r3, #61	@ 0x3d
 8005048:	2202      	movs	r2, #2
 800504a:	54e2      	strb	r2, [r4, r3]
  TIM_Base_SetConfig(htim->Instance, &htim->Init);
 800504c:	6823      	ldr	r3, [r4, #0]
  if (IS_TIM_COUNTER_MODE_SELECT_INSTANCE(TIMx))
 800504e:	4e33      	ldr	r6, [pc, #204]	@ (800511c <HAL_TIM_Base_Init+0xe8>)
  tmpcr1 = TIMx->CR1;
 8005050:	681a      	ldr	r2, [r3, #0]
  TIMx->PSC = Structure->Prescaler;
 8005052:	6861      	ldr	r1, [r4, #4]
  TIMx->ARR = (uint32_t)Structure->Period ;
 8005054:	68e0      	ldr	r0, [r4, #12]
  MODIFY_REG(tmpcr1, TIM_CR1_ARPE, Structure->AutoReloadPreload);
 8005056:	69a5      	ldr	r5, [r4, #24]
  if (IS_TIM_COUNTER_MODE_SELECT_INSTANCE(TIMx))
 8005058:	42b3      	cmp	r3, r6
 800505a:	d01a      	beq.n	8005092 <HAL_TIM_Base_Init+0x5e>
 800505c:	4e30      	ldr	r6, [pc, #192]	@ (8005120 <HAL_TIM_Base_Init+0xec>)
 800505e:	42b3      	cmp	r3, r6
 8005060:	d046      	beq.n	80050f0 <HAL_TIM_Base_Init+0xbc>
  if (IS_TIM_CLOCK_DIVISION_INSTANCE(TIMx))
 8005062:	4e30      	ldr	r6, [pc, #192]	@ (8005124 <HAL_TIM_Base_Init+0xf0>)
 8005064:	42b3      	cmp	r3, r6
 8005066:	d047      	beq.n	80050f8 <HAL_TIM_Base_Init+0xc4>
 8005068:	4e2f      	ldr	r6, [pc, #188]	@ (8005128 <HAL_TIM_Base_Init+0xf4>)
 800506a:	42b3      	cmp	r3, r6
 800506c:	d049      	beq.n	8005102 <HAL_TIM_Base_Init+0xce>
 800506e:	4e2f      	ldr	r6, [pc, #188]	@ (800512c <HAL_TIM_Base_Init+0xf8>)
 8005070:	42b3      	cmp	r3, r6
 8005072:	d012      	beq.n	800509a <HAL_TIM_Base_Init+0x66>
 8005074:	4e2e      	ldr	r6, [pc, #184]	@ (8005130 <HAL_TIM_Base_Init+0xfc>)
 8005076:	42b3      	cmp	r3, r6
 8005078:	d00f      	beq.n	800509a <HAL_TIM_Base_Init+0x66>
  MODIFY_REG(tmpcr1, TIM_CR1_ARPE, Structure->AutoReloadPreload);
 800507a:	2680      	movs	r6, #128	@ 0x80
 800507c:	43b2      	bics	r2, r6
 800507e:	432a      	orrs	r2, r5
  TIMx->CR1 = tmpcr1;
 8005080:	601a      	str	r2, [r3, #0]
  TIMx->ARR = (uint32_t)Structure->Period ;
 8005082:	62d8      	str	r0, [r3, #44]	@ 0x2c
  TIMx->PSC = Structure->Prescaler;
 8005084:	6299      	str	r1, [r3, #40]	@ 0x28
  if (IS_TIM_REPETITION_COUNTER_INSTANCE(TIMx))
 8005086:	e014      	b.n	80050b2 <HAL_TIM_Base_Init+0x7e>
    htim->Lock = HAL_UNLOCKED;
 8005088:	333c      	adds	r3, #60	@ 0x3c
 800508a:	54c2      	strb	r2, [r0, r3]
    HAL_TIM_Base_MspInit(htim);
 800508c:	f7fd f85a 	bl	8002144 <HAL_TIM_Base_MspInit>
 8005090:	e7d9      	b.n	8005046 <HAL_TIM_Base_Init+0x12>
    tmpcr1 &= ~(TIM_CR1_DIR | TIM_CR1_CMS);
 8005092:	2670      	movs	r6, #112	@ 0x70
 8005094:	43b2      	bics	r2, r6
    tmpcr1 |= Structure->CounterMode;
 8005096:	68a6      	ldr	r6, [r4, #8]
 8005098:	4332      	orrs	r2, r6
    tmpcr1 &= ~TIM_CR1_CKD;
 800509a:	4e26      	ldr	r6, [pc, #152]	@ (8005134 <HAL_TIM_Base_Init+0x100>)
 800509c:	4032      	ands	r2, r6
    tmpcr1 |= (uint32_t)Structure->ClockDivision;
 800509e:	6926      	ldr	r6, [r4, #16]
 80050a0:	4332      	orrs	r2, r6
  MODIFY_REG(tmpcr1, TIM_CR1_ARPE, Structure->AutoReloadPreload);
 80050a2:	2680      	movs	r6, #128	@ 0x80
 80050a4:	43b2      	bics	r2, r6
 80050a6:	432a      	orrs	r2, r5
  TIMx->CR1 = tmpcr1;
 80050a8:	601a      	str	r2, [r3, #0]
  TIMx->ARR = (uint32_t)Structure->Period ;
 80050aa:	62d8      	str	r0, [r3, #44]	@ 0x2c
  TIMx->PSC = Structure->Prescaler;
 80050ac:	6299      	str	r1, [r3, #40]	@ 0x28
    TIMx->RCR = Structure->RepetitionCounter;
 80050ae:	6962      	ldr	r2, [r4, #20]
 80050b0:	631a      	str	r2, [r3, #48]	@ 0x30
  TIMx->EGR = TIM_EGR_UG;
 80050b2:	2201      	movs	r2, #1
 80050b4:	615a      	str	r2, [r3, #20]
  if (HAL_IS_BIT_SET(TIMx->SR, TIM_FLAG_UPDATE))
 80050b6:	6919      	ldr	r1, [r3, #16]
 80050b8:	420a      	tst	r2, r1
 80050ba:	d002      	beq.n	80050c2 <HAL_TIM_Base_Init+0x8e>
    CLEAR_BIT(TIMx->SR, TIM_FLAG_UPDATE);
 80050bc:	6919      	ldr	r1, [r3, #16]
 80050be:	4391      	bics	r1, r2
 80050c0:	6119      	str	r1, [r3, #16]
  htim->DMABurstState = HAL_DMA_BURST_STATE_READY;
 80050c2:	2301      	movs	r3, #1
 80050c4:	2246      	movs	r2, #70	@ 0x46
  return HAL_OK;
 80050c6:	2000      	movs	r0, #0
  htim->DMABurstState = HAL_DMA_BURST_STATE_READY;
 80050c8:	54a3      	strb	r3, [r4, r2]
  TIM_CHANNEL_STATE_SET_ALL(htim, HAL_TIM_CHANNEL_STATE_READY);
 80050ca:	3a08      	subs	r2, #8
 80050cc:	54a3      	strb	r3, [r4, r2]
 80050ce:	3201      	adds	r2, #1
 80050d0:	54a3      	strb	r3, [r4, r2]
 80050d2:	3201      	adds	r2, #1
 80050d4:	54a3      	strb	r3, [r4, r2]
 80050d6:	3201      	adds	r2, #1
 80050d8:	54a3      	strb	r3, [r4, r2]
  TIM_CHANNEL_N_STATE_SET_ALL(htim, HAL_TIM_CHANNEL_STATE_READY);
 80050da:	3201      	adds	r2, #1
 80050dc:	54a3      	strb	r3, [r4, r2]
 80050de:	3201      	adds	r2, #1
 80050e0:	54a3      	strb	r3, [r4, r2]
 80050e2:	3201      	adds	r2, #1
 80050e4:	54a3      	strb	r3, [r4, r2]
 80050e6:	3201      	adds	r2, #1
 80050e8:	54a3      	strb	r3, [r4, r2]
  htim->State = HAL_TIM_STATE_READY;
 80050ea:	3a08      	subs	r2, #8
 80050ec:	54a3      	strb	r3, [r4, r2]
}
 80050ee:	bd70      	pop	{r4, r5, r6, pc}
    tmpcr1 &= ~(TIM_CR1_DIR | TIM_CR1_CMS);
 80050f0:	2670      	movs	r6, #112	@ 0x70
 80050f2:	43b2      	bics	r2, r6
    tmpcr1 |= Structure->CounterMode;
 80050f4:	68a6      	ldr	r6, [r4, #8]
 80050f6:	4332      	orrs	r2, r6
    tmpcr1 &= ~TIM_CR1_CKD;
 80050f8:	4e0e      	ldr	r6, [pc, #56]	@ (8005134 <HAL_TIM_Base_Init+0x100>)
 80050fa:	4032      	ands	r2, r6
    tmpcr1 |= (uint32_t)Structure->ClockDivision;
 80050fc:	6926      	ldr	r6, [r4, #16]
 80050fe:	4332      	orrs	r2, r6
 8005100:	e7bb      	b.n	800507a <HAL_TIM_Base_Init+0x46>
    tmpcr1 &= ~TIM_CR1_CKD;
 8005102:	4e0c      	ldr	r6, [pc, #48]	@ (8005134 <HAL_TIM_Base_Init+0x100>)
 8005104:	4032      	ands	r2, r6
    tmpcr1 |= (uint32_t)Structure->ClockDivision;
 8005106:	6926      	ldr	r6, [r4, #16]
 8005108:	4332      	orrs	r2, r6
  MODIFY_REG(tmpcr1, TIM_CR1_ARPE, Structure->AutoReloadPreload);
 800510a:	2680      	movs	r6, #128	@ 0x80
 800510c:	43b2      	bics	r2, r6
 800510e:	4315      	orrs	r5, r2
  TIMx->CR1 = tmpcr1;
 8005110:	601d      	str	r5, [r3, #0]
  TIMx->ARR = (uint32_t)Structure->Period ;
 8005112:	62d8      	str	r0, [r3, #44]	@ 0x2c
  TIMx->PSC = Structure->Prescaler;
 8005114:	6299      	str	r1, [r3, #40]	@ 0x28
  if (IS_TIM_REPETITION_COUNTER_INSTANCE(TIMx))
 8005116:	e7ca      	b.n	80050ae <HAL_TIM_Base_Init+0x7a>
    return HAL_ERROR;
 8005118:	2001      	movs	r0, #1
 800511a:	e7e8      	b.n	80050ee <HAL_TIM_Base_Init+0xba>
 800511c:	40012c00 	.word	0x40012c00
 8005120:	40000400 	.word	0x40000400
 8005124:	40002000 	.word	0x40002000
 8005128:	40014000 	.word	0x40014000
 800512c:	40014400 	.word	0x40014400
 8005130:	40014800 	.word	0x40014800
 8005134:	fffffcff 	.word	0xfffffcff

08005138 <HAL_TIM_Base_Start>:
  if (htim->State != HAL_TIM_STATE_READY)
 8005138:	213d      	movs	r1, #61	@ 0x3d
{
 800513a:	b510      	push	{r4, lr}
  if (htim->State != HAL_TIM_STATE_READY)
 800513c:	5c42      	ldrb	r2, [r0, r1]
{
 800513e:	0003      	movs	r3, r0
  if (htim->State != HAL_TIM_STATE_READY)
 8005140:	b2d4      	uxtb	r4, r2
    return HAL_ERROR;
 8005142:	2001      	movs	r0, #1
  if (htim->State != HAL_TIM_STATE_READY)
 8005144:	2a01      	cmp	r2, #1
 8005146:	d10f      	bne.n	8005168 <HAL_TIM_Base_Start+0x30>
  htim->State = HAL_TIM_STATE_BUSY;
 8005148:	3201      	adds	r2, #1
 800514a:	545a      	strb	r2, [r3, r1]
  if (IS_TIM_SLAVE_INSTANCE(htim->Instance))
 800514c:	681b      	ldr	r3, [r3, #0]
 800514e:	4a0c      	ldr	r2, [pc, #48]	@ (8005180 <HAL_TIM_Base_Start+0x48>)
 8005150:	4293      	cmp	r3, r2
 8005152:	d00a      	beq.n	800516a <HAL_TIM_Base_Start+0x32>
 8005154:	4a0b      	ldr	r2, [pc, #44]	@ (8005184 <HAL_TIM_Base_Start+0x4c>)
 8005156:	4293      	cmp	r3, r2
 8005158:	d007      	beq.n	800516a <HAL_TIM_Base_Start+0x32>
 800515a:	4a0b      	ldr	r2, [pc, #44]	@ (8005188 <HAL_TIM_Base_Start+0x50>)
 800515c:	4293      	cmp	r3, r2
 800515e:	d004      	beq.n	800516a <HAL_TIM_Base_Start+0x32>
    __HAL_TIM_ENABLE(htim);
 8005160:	681a      	ldr	r2, [r3, #0]
 8005162:	4322      	orrs	r2, r4
 8005164:	601a      	str	r2, [r3, #0]
  return HAL_OK;
 8005166:	2000      	movs	r0, #0
}
 8005168:	bd10      	pop	{r4, pc}
    tmpsmcr = htim->Instance->SMCR & TIM_SMCR_SMS;
 800516a:	2207      	movs	r2, #7
 800516c:	6899      	ldr	r1, [r3, #8]
 800516e:	400a      	ands	r2, r1
    if (!IS_TIM_SLAVEMODE_TRIGGER_ENABLED(tmpsmcr))
 8005170:	2a06      	cmp	r2, #6
 8005172:	d0f8      	beq.n	8005166 <HAL_TIM_Base_Start+0x2e>
      __HAL_TIM_ENABLE(htim);
 8005174:	2101      	movs	r1, #1
 8005176:	681a      	ldr	r2, [r3, #0]
  return HAL_OK;
 8005178:	2000      	movs	r0, #0
      __HAL_TIM_ENABLE(htim);
 800517a:	430a      	orrs	r2, r1
 800517c:	601a      	str	r2, [r3, #0]
 800517e:	e7f3      	b.n	8005168 <HAL_TIM_Base_Start+0x30>
 8005180:	40012c00 	.word	0x40012c00
 8005184:	40000400 	.word	0x40000400
 8005188:	40014000 	.word	0x40014000

0800518c <HAL_TIM_PWM_MspInit>:
__weak void HAL_TIM_PWM_MspInit(TIM_HandleTypeDef *htim)
 800518c:	4770      	bx	lr
 800518e:	46c0      	nop			@ (mov r8, r8)

08005190 <HAL_TIM_PWM_Init>:
{
 8005190:	b570      	push	{r4, r5, r6, lr}
 8005192:	1e04      	subs	r4, r0, #0
  if (htim == NULL)
 8005194:	d100      	bne.n	8005198 <HAL_TIM_PWM_Init+0x8>
 8005196:	e06d      	b.n	8005274 <HAL_TIM_PWM_Init+0xe4>
  if (htim->State == HAL_TIM_STATE_RESET)
 8005198:	233d      	movs	r3, #61	@ 0x3d
 800519a:	5cc3      	ldrb	r3, [r0, r3]
 800519c:	b2da      	uxtb	r2, r3
 800519e:	2b00      	cmp	r3, #0
 80051a0:	d020      	beq.n	80051e4 <HAL_TIM_PWM_Init+0x54>
  htim->State = HAL_TIM_STATE_BUSY;
 80051a2:	233d      	movs	r3, #61	@ 0x3d
 80051a4:	2202      	movs	r2, #2
 80051a6:	54e2      	strb	r2, [r4, r3]
  TIM_Base_SetConfig(htim->Instance, &htim->Init);
 80051a8:	6823      	ldr	r3, [r4, #0]
  if (IS_TIM_COUNTER_MODE_SELECT_INSTANCE(TIMx))
 80051aa:	4e33      	ldr	r6, [pc, #204]	@ (8005278 <HAL_TIM_PWM_Init+0xe8>)
  tmpcr1 = TIMx->CR1;
 80051ac:	681a      	ldr	r2, [r3, #0]
  TIMx->PSC = Structure->Prescaler;
 80051ae:	6861      	ldr	r1, [r4, #4]
  TIMx->ARR = (uint32_t)Structure->Period ;
 80051b0:	68e0      	ldr	r0, [r4, #12]
  MODIFY_REG(tmpcr1, TIM_CR1_ARPE, Structure->AutoReloadPreload);
 80051b2:	69a5      	ldr	r5, [r4, #24]
  if (IS_TIM_COUNTER_MODE_SELECT_INSTANCE(TIMx))
 80051b4:	42b3      	cmp	r3, r6
 80051b6:	d01a      	beq.n	80051ee <HAL_TIM_PWM_Init+0x5e>
 80051b8:	4e30      	ldr	r6, [pc, #192]	@ (800527c <HAL_TIM_PWM_Init+0xec>)
 80051ba:	42b3      	cmp	r3, r6
 80051bc:	d046      	beq.n	800524c <HAL_TIM_PWM_Init+0xbc>
  if (IS_TIM_CLOCK_DIVISION_INSTANCE(TIMx))
 80051be:	4e30      	ldr	r6, [pc, #192]	@ (8005280 <HAL_TIM_PWM_Init+0xf0>)
 80051c0:	42b3      	cmp	r3, r6
 80051c2:	d047      	beq.n	8005254 <HAL_TIM_PWM_Init+0xc4>
 80051c4:	4e2f      	ldr	r6, [pc, #188]	@ (8005284 <HAL_TIM_PWM_Init+0xf4>)
 80051c6:	42b3      	cmp	r3, r6
 80051c8:	d049      	beq.n	800525e <HAL_TIM_PWM_Init+0xce>
 80051ca:	4e2f      	ldr	r6, [pc, #188]	@ (8005288 <HAL_TIM_PWM_Init+0xf8>)
 80051cc:	42b3      	cmp	r3, r6
 80051ce:	d012      	beq.n	80051f6 <HAL_TIM_PWM_Init+0x66>
 80051d0:	4e2e      	ldr	r6, [pc, #184]	@ (800528c <HAL_TIM_PWM_Init+0xfc>)
 80051d2:	42b3      	cmp	r3, r6
 80051d4:	d00f      	beq.n	80051f6 <HAL_TIM_PWM_Init+0x66>
  MODIFY_REG(tmpcr1, TIM_CR1_ARPE, Structure->AutoReloadPreload);
 80051d6:	2680      	movs	r6, #128	@ 0x80
 80051d8:	43b2      	bics	r2, r6
 80051da:	432a      	orrs	r2, r5
  TIMx->CR1 = tmpcr1;
 80051dc:	601a      	str	r2, [r3, #0]
  TIMx->ARR = (uint32_t)Structure->Period ;
 80051de:	62d8      	str	r0, [r3, #44]	@ 0x2c
  TIMx->PSC = Structure->Prescaler;
 80051e0:	6299      	str	r1, [r3, #40]	@ 0x28
  if (IS_TIM_REPETITION_COUNTER_INSTANCE(TIMx))
 80051e2:	e014      	b.n	800520e <HAL_TIM_PWM_Init+0x7e>
    htim->Lock = HAL_UNLOCKED;
 80051e4:	333c      	adds	r3, #60	@ 0x3c
 80051e6:	54c2      	strb	r2, [r0, r3]
    HAL_TIM_PWM_MspInit(htim);
 80051e8:	f7ff ffd0 	bl	800518c <HAL_TIM_PWM_MspInit>
 80051ec:	e7d9      	b.n	80051a2 <HAL_TIM_PWM_Init+0x12>
    tmpcr1 &= ~(TIM_CR1_DIR | TIM_CR1_CMS);
 80051ee:	2670      	movs	r6, #112	@ 0x70
 80051f0:	43b2      	bics	r2, r6
    tmpcr1 |= Structure->CounterMode;
 80051f2:	68a6      	ldr	r6, [r4, #8]
 80051f4:	4332      	orrs	r2, r6
    tmpcr1 &= ~TIM_CR1_CKD;
 80051f6:	4e26      	ldr	r6, [pc, #152]	@ (8005290 <HAL_TIM_PWM_Init+0x100>)
 80051f8:	4032      	ands	r2, r6
    tmpcr1 |= (uint32_t)Structure->ClockDivision;
 80051fa:	6926      	ldr	r6, [r4, #16]
 80051fc:	4332      	orrs	r2, r6
  MODIFY_REG(tmpcr1, TIM_CR1_ARPE, Structure->AutoReloadPreload);
 80051fe:	2680      	movs	r6, #128	@ 0x80
 8005200:	43b2      	bics	r2, r6
 8005202:	432a      	orrs	r2, r5
  TIMx->CR1 = tmpcr1;
 8005204:	601a      	str	r2, [r3, #0]
  TIMx->ARR = (uint32_t)Structure->Period ;
 8005206:	62d8      	str	r0, [r3, #44]	@ 0x2c
  TIMx->PSC = Structure->Prescaler;
 8005208:	6299      	str	r1, [r3, #40]	@ 0x28
    TIMx->RCR = Structure->RepetitionCounter;
 800520a:	6962      	ldr	r2, [r4, #20]
 800520c:	631a      	str	r2, [r3, #48]	@ 0x30
  TIMx->EGR = TIM_EGR_UG;
 800520e:	2201      	movs	r2, #1
 8005210:	615a      	str	r2, [r3, #20]
  if (HAL_IS_BIT_SET(TIMx->SR, TIM_FLAG_UPDATE))
 8005212:	6919      	ldr	r1, [r3, #16]
 8005214:	420a      	tst	r2, r1
 8005216:	d002      	beq.n	800521e <HAL_TIM_PWM_Init+0x8e>
    CLEAR_BIT(TIMx->SR, TIM_FLAG_UPDATE);
 8005218:	6919      	ldr	r1, [r3, #16]
 800521a:	4391      	bics	r1, r2
 800521c:	6119      	str	r1, [r3, #16]
  htim->DMABurstState = HAL_DMA_BURST_STATE_READY;
 800521e:	2301      	movs	r3, #1
 8005220:	2246      	movs	r2, #70	@ 0x46
  return HAL_OK;
 8005222:	2000      	movs	r0, #0
  htim->DMABurstState = HAL_DMA_BURST_STATE_READY;
 8005224:	54a3      	strb	r3, [r4, r2]
  TIM_CHANNEL_STATE_SET_ALL(htim, HAL_TIM_CHANNEL_STATE_READY);
 8005226:	3a08      	subs	r2, #8
 8005228:	54a3      	strb	r3, [r4, r2]
 800522a:	3201      	adds	r2, #1
 800522c:	54a3      	strb	r3, [r4, r2]
 800522e:	3201      	adds	r2, #1
 8005230:	54a3      	strb	r3, [r4, r2]
 8005232:	3201      	adds	r2, #1
 8005234:	54a3      	strb	r3, [r4, r2]
  TIM_CHANNEL_N_STATE_SET_ALL(htim, HAL_TIM_CHANNEL_STATE_READY);
 8005236:	3201      	adds	r2, #1
 8005238:	54a3      	strb	r3, [r4, r2]
 800523a:	3201      	adds	r2, #1
 800523c:	54a3      	strb	r3, [r4, r2]
 800523e:	3201      	adds	r2, #1
 8005240:	54a3      	strb	r3, [r4, r2]
 8005242:	3201      	adds	r2, #1
 8005244:	54a3      	strb	r3, [r4, r2]
  htim->State = HAL_TIM_STATE_READY;
 8005246:	3a08      	subs	r2, #8
 8005248:	54a3      	strb	r3, [r4, r2]
}
 800524a:	bd70      	pop	{r4, r5, r6, pc}
    tmpcr1 &= ~(TIM_CR1_DIR | TIM_CR1_CMS);
 800524c:	2670      	movs	r6, #112	@ 0x70
 800524e:	43b2      	bics	r2, r6
    tmpcr1 |= Structure->CounterMode;
 8005250:	68a6      	ldr	r6, [r4, #8]
 8005252:	4332      	orrs	r2, r6
    tmpcr1 &= ~TIM_CR1_CKD;
 8005254:	4e0e      	ldr	r6, [pc, #56]	@ (8005290 <HAL_TIM_PWM_Init+0x100>)
 8005256:	4032      	ands	r2, r6
    tmpcr1 |= (uint32_t)Structure->ClockDivision;
 8005258:	6926      	ldr	r6, [r4, #16]
 800525a:	4332      	orrs	r2, r6
 800525c:	e7bb      	b.n	80051d6 <HAL_TIM_PWM_Init+0x46>
    tmpcr1 &= ~TIM_CR1_CKD;
 800525e:	4e0c      	ldr	r6, [pc, #48]	@ (8005290 <HAL_TIM_PWM_Init+0x100>)
 8005260:	4032      	ands	r2, r6
    tmpcr1 |= (uint32_t)Structure->ClockDivision;
 8005262:	6926      	ldr	r6, [r4, #16]
 8005264:	4332      	orrs	r2, r6
  MODIFY_REG(tmpcr1, TIM_CR1_ARPE, Structure->AutoReloadPreload);
 8005266:	2680      	movs	r6, #128	@ 0x80
 8005268:	43b2      	bics	r2, r6
 800526a:	4315      	orrs	r5, r2
  TIMx->CR1 = tmpcr1;
 800526c:	601d      	str	r5, [r3, #0]
  TIMx->ARR = (uint32_t)Structure->Period ;
 800526e:	62d8      	str	r0, [r3, #44]	@ 0x2c
  TIMx->PSC = Structure->Prescaler;
 8005270:	6299      	str	r1, [r3, #40]	@ 0x28
  if (IS_TIM_REPETITION_COUNTER_INSTANCE(TIMx))
 8005272:	e7ca      	b.n	800520a <HAL_TIM_PWM_Init+0x7a>
    return HAL_ERROR;
 8005274:	2001      	movs	r0, #1
 8005276:	e7e8      	b.n	800524a <HAL_TIM_PWM_Init+0xba>
 8005278:	40012c00 	.word	0x40012c00
 800527c:	40000400 	.word	0x40000400
 8005280:	40002000 	.word	0x40002000
 8005284:	40014000 	.word	0x40014000
 8005288:	40014400 	.word	0x40014400
 800528c:	40014800 	.word	0x40014800
 8005290:	fffffcff 	.word	0xfffffcff

08005294 <HAL_TIM_PWM_Start>:
HAL_StatusTypeDef HAL_TIM_PWM_Start(TIM_HandleTypeDef *htim, uint32_t Channel)
 8005294:	2900      	cmp	r1, #0
 8005296:	d120      	bne.n	80052da <HAL_TIM_PWM_Start+0x46>
 8005298:	233e      	movs	r3, #62	@ 0x3e
 800529a:	5cc2      	ldrb	r2, [r0, r3]
 800529c:	2a01      	cmp	r2, #1
 800529e:	d124      	bne.n	80052ea <HAL_TIM_PWM_Start+0x56>
 80052a0:	2202      	movs	r2, #2
 80052a2:	54c2      	strb	r2, [r0, r3]
 80052a4:	221f      	movs	r2, #31
 80052a6:	4011      	ands	r1, r2
 80052a8:	3a1e      	subs	r2, #30
 80052aa:	408a      	lsls	r2, r1
 80052ac:	6803      	ldr	r3, [r0, #0]
 80052ae:	6a19      	ldr	r1, [r3, #32]
 80052b0:	4391      	bics	r1, r2
 80052b2:	6219      	str	r1, [r3, #32]
 80052b4:	6a19      	ldr	r1, [r3, #32]
 80052b6:	430a      	orrs	r2, r1
 80052b8:	621a      	str	r2, [r3, #32]
 80052ba:	4a1d      	ldr	r2, [pc, #116]	@ (8005330 <HAL_TIM_PWM_Start+0x9c>)
 80052bc:	4293      	cmp	r3, r2
 80052be:	d016      	beq.n	80052ee <HAL_TIM_PWM_Start+0x5a>
 80052c0:	4a1c      	ldr	r2, [pc, #112]	@ (8005334 <HAL_TIM_PWM_Start+0xa0>)
 80052c2:	4293      	cmp	r3, r2
 80052c4:	d013      	beq.n	80052ee <HAL_TIM_PWM_Start+0x5a>
 80052c6:	4a1c      	ldr	r2, [pc, #112]	@ (8005338 <HAL_TIM_PWM_Start+0xa4>)
 80052c8:	4293      	cmp	r3, r2
 80052ca:	d025      	beq.n	8005318 <HAL_TIM_PWM_Start+0x84>
 80052cc:	4a1b      	ldr	r2, [pc, #108]	@ (800533c <HAL_TIM_PWM_Start+0xa8>)
 80052ce:	4293      	cmp	r3, r2
 80052d0:	d022      	beq.n	8005318 <HAL_TIM_PWM_Start+0x84>
 80052d2:	4a1b      	ldr	r2, [pc, #108]	@ (8005340 <HAL_TIM_PWM_Start+0xac>)
 80052d4:	4293      	cmp	r3, r2
 80052d6:	d114      	bne.n	8005302 <HAL_TIM_PWM_Start+0x6e>
 80052d8:	e00e      	b.n	80052f8 <HAL_TIM_PWM_Start+0x64>
 80052da:	2904      	cmp	r1, #4
 80052dc:	d017      	beq.n	800530e <HAL_TIM_PWM_Start+0x7a>
 80052de:	2908      	cmp	r1, #8
 80052e0:	d020      	beq.n	8005324 <HAL_TIM_PWM_Start+0x90>
 80052e2:	2341      	movs	r3, #65	@ 0x41
 80052e4:	5cc2      	ldrb	r2, [r0, r3]
 80052e6:	2a01      	cmp	r2, #1
 80052e8:	d0da      	beq.n	80052a0 <HAL_TIM_PWM_Start+0xc>
 80052ea:	2001      	movs	r0, #1
 80052ec:	e00e      	b.n	800530c <HAL_TIM_PWM_Start+0x78>
 80052ee:	2280      	movs	r2, #128	@ 0x80
 80052f0:	6c59      	ldr	r1, [r3, #68]	@ 0x44
 80052f2:	0212      	lsls	r2, r2, #8
 80052f4:	430a      	orrs	r2, r1
 80052f6:	645a      	str	r2, [r3, #68]	@ 0x44
 80052f8:	2207      	movs	r2, #7
 80052fa:	6899      	ldr	r1, [r3, #8]
 80052fc:	400a      	ands	r2, r1
 80052fe:	2a06      	cmp	r2, #6
 8005300:	d003      	beq.n	800530a <HAL_TIM_PWM_Start+0x76>
 8005302:	2101      	movs	r1, #1
 8005304:	681a      	ldr	r2, [r3, #0]
 8005306:	430a      	orrs	r2, r1
 8005308:	601a      	str	r2, [r3, #0]
 800530a:	2000      	movs	r0, #0
 800530c:	4770      	bx	lr
 800530e:	233f      	movs	r3, #63	@ 0x3f
 8005310:	5cc2      	ldrb	r2, [r0, r3]
 8005312:	2a01      	cmp	r2, #1
 8005314:	d0c4      	beq.n	80052a0 <HAL_TIM_PWM_Start+0xc>
 8005316:	e7e8      	b.n	80052ea <HAL_TIM_PWM_Start+0x56>
 8005318:	2280      	movs	r2, #128	@ 0x80
 800531a:	6c59      	ldr	r1, [r3, #68]	@ 0x44
 800531c:	0212      	lsls	r2, r2, #8
 800531e:	430a      	orrs	r2, r1
 8005320:	645a      	str	r2, [r3, #68]	@ 0x44
 8005322:	e7ee      	b.n	8005302 <HAL_TIM_PWM_Start+0x6e>
 8005324:	2340      	movs	r3, #64	@ 0x40
 8005326:	5cc2      	ldrb	r2, [r0, r3]
 8005328:	2a01      	cmp	r2, #1
 800532a:	d0b9      	beq.n	80052a0 <HAL_TIM_PWM_Start+0xc>
 800532c:	e7dd      	b.n	80052ea <HAL_TIM_PWM_Start+0x56>
 800532e:	46c0      	nop			@ (mov r8, r8)
 8005330:	40012c00 	.word	0x40012c00
 8005334:	40014000 	.word	0x40014000
 8005338:	40014400 	.word	0x40014400
 800533c:	40014800 	.word	0x40014800
 8005340:	40000400 	.word	0x40000400

08005344 <HAL_TIM_PWM_ConfigChannel>:
{
 8005344:	b5f8      	push	{r3, r4, r5, r6, r7, lr}
  __HAL_LOCK(htim);
 8005346:	233c      	movs	r3, #60	@ 0x3c
{
 8005348:	000d      	movs	r5, r1
  __HAL_LOCK(htim);
 800534a:	5cc1      	ldrb	r1, [r0, r3]
{
 800534c:	0004      	movs	r4, r0
  __HAL_LOCK(htim);
 800534e:	2901      	cmp	r1, #1
 8005350:	d100      	bne.n	8005354 <HAL_TIM_PWM_ConfigChannel+0x10>
 8005352:	e0de      	b.n	8005512 <HAL_TIM_PWM_ConfigChannel+0x1ce>
 8005354:	2101      	movs	r1, #1
 8005356:	54c1      	strb	r1, [r0, r3]
  switch (Channel)
 8005358:	2a08      	cmp	r2, #8
 800535a:	d100      	bne.n	800535e <HAL_TIM_PWM_ConfigChannel+0x1a>
 800535c:	e09a      	b.n	8005494 <HAL_TIM_PWM_ConfigChannel+0x150>
 800535e:	d823      	bhi.n	80053a8 <HAL_TIM_PWM_ConfigChannel+0x64>
 8005360:	2a00      	cmp	r2, #0
 8005362:	d100      	bne.n	8005366 <HAL_TIM_PWM_ConfigChannel+0x22>
 8005364:	e083      	b.n	800546e <HAL_TIM_PWM_ConfigChannel+0x12a>
 8005366:	2a04      	cmp	r2, #4
 8005368:	d158      	bne.n	800541c <HAL_TIM_PWM_ConfigChannel+0xd8>

  /* Get the TIMx CCER register value */
  tmpccer = TIMx->CCER;

  /* Disable the Channel 2: Reset the CC2E Bit */
  TIMx->CCER &= ~TIM_CCER_CC2E;
 800536a:	2110      	movs	r1, #16
      TIM_OC2_SetConfig(htim->Instance, sConfig);
 800536c:	6803      	ldr	r3, [r0, #0]
  /* Get the TIMx CCMR1 register value */
  tmpccmrx = TIMx->CCMR1;

  /* Reset the Output Compare mode and Capture/Compare selection Bits */
  tmpccmrx &= ~TIM_CCMR1_OC2M;
  tmpccmrx &= ~TIM_CCMR1_CC2S;
 800536e:	4e6a      	ldr	r6, [pc, #424]	@ (8005518 <HAL_TIM_PWM_ConfigChannel+0x1d4>)
  tmpccer = TIMx->CCER;
 8005370:	6a18      	ldr	r0, [r3, #32]
  TIMx->CCER &= ~TIM_CCER_CC2E;
 8005372:	6a1a      	ldr	r2, [r3, #32]
 8005374:	438a      	bics	r2, r1
 8005376:	621a      	str	r2, [r3, #32]
  tmpcr2 =  TIMx->CR2;
 8005378:	6859      	ldr	r1, [r3, #4]
  tmpccmrx = TIMx->CCMR1;
 800537a:	699a      	ldr	r2, [r3, #24]
  tmpccmrx &= ~TIM_CCMR1_CC2S;
 800537c:	4032      	ands	r2, r6

  /* Select the Output Compare Mode */
  tmpccmrx |= (OC_Config->OCMode << 8U);
 800537e:	682e      	ldr	r6, [r5, #0]
 8005380:	0236      	lsls	r6, r6, #8
 8005382:	4316      	orrs	r6, r2

  /* Reset the Output Polarity level */
  tmpccer &= ~TIM_CCER_CC2P;
 8005384:	2220      	movs	r2, #32
 8005386:	4390      	bics	r0, r2
  /* Set the Output Compare Polarity */
  tmpccer |= (OC_Config->OCPolarity << 4U);
 8005388:	68aa      	ldr	r2, [r5, #8]
 800538a:	0112      	lsls	r2, r2, #4
 800538c:	4302      	orrs	r2, r0

  if (IS_TIM_CCXN_INSTANCE(TIMx, TIM_CHANNEL_2))
 800538e:	4863      	ldr	r0, [pc, #396]	@ (800551c <HAL_TIM_PWM_ConfigChannel+0x1d8>)
 8005390:	4283      	cmp	r3, r0
 8005392:	d048      	beq.n	8005426 <HAL_TIM_PWM_ConfigChannel+0xe2>
    tmpccer |= (OC_Config->OCNPolarity << 4U);
    /* Reset the Output N State */
    tmpccer &= ~TIM_CCER_CC2NE;
  }

  if (IS_TIM_BREAK_INSTANCE(TIMx))
 8005394:	4862      	ldr	r0, [pc, #392]	@ (8005520 <HAL_TIM_PWM_ConfigChannel+0x1dc>)
 8005396:	4283      	cmp	r3, r0
 8005398:	d04d      	beq.n	8005436 <HAL_TIM_PWM_ConfigChannel+0xf2>
 800539a:	4862      	ldr	r0, [pc, #392]	@ (8005524 <HAL_TIM_PWM_ConfigChannel+0x1e0>)
 800539c:	4283      	cmp	r3, r0
 800539e:	d04a      	beq.n	8005436 <HAL_TIM_PWM_ConfigChannel+0xf2>
 80053a0:	4861      	ldr	r0, [pc, #388]	@ (8005528 <HAL_TIM_PWM_ConfigChannel+0x1e4>)
 80053a2:	4283      	cmp	r3, r0
 80053a4:	d14e      	bne.n	8005444 <HAL_TIM_PWM_ConfigChannel+0x100>
 80053a6:	e046      	b.n	8005436 <HAL_TIM_PWM_ConfigChannel+0xf2>
  switch (Channel)
 80053a8:	2a0c      	cmp	r2, #12
 80053aa:	d137      	bne.n	800541c <HAL_TIM_PWM_ConfigChannel+0xd8>
      TIM_OC4_SetConfig(htim->Instance, sConfig);
 80053ac:	6803      	ldr	r3, [r0, #0]

  /* Get the TIMx CCER register value */
  tmpccer = TIMx->CCER;

  /* Disable the Channel 4: Reset the CC4E Bit */
  TIMx->CCER &= ~TIM_CCER_CC4E;
 80053ae:	485f      	ldr	r0, [pc, #380]	@ (800552c <HAL_TIM_PWM_ConfigChannel+0x1e8>)
  tmpccer = TIMx->CCER;
 80053b0:	6a19      	ldr	r1, [r3, #32]
  TIMx->CCER &= ~TIM_CCER_CC4E;
 80053b2:	6a1a      	ldr	r2, [r3, #32]
 80053b4:	4002      	ands	r2, r0
 80053b6:	621a      	str	r2, [r3, #32]
  /* Get the TIMx CCMR2 register value */
  tmpccmrx = TIMx->CCMR2;

  /* Reset the Output Compare mode and Capture/Compare selection Bits */
  tmpccmrx &= ~TIM_CCMR2_OC4M;
  tmpccmrx &= ~TIM_CCMR2_CC4S;
 80053b8:	4857      	ldr	r0, [pc, #348]	@ (8005518 <HAL_TIM_PWM_ConfigChannel+0x1d4>)
  tmpcr2 =  TIMx->CR2;
 80053ba:	685e      	ldr	r6, [r3, #4]
  tmpccmrx = TIMx->CCMR2;
 80053bc:	69da      	ldr	r2, [r3, #28]
  tmpccmrx &= ~TIM_CCMR2_CC4S;
 80053be:	4002      	ands	r2, r0

  /* Select the Output Compare Mode */
  tmpccmrx |= (OC_Config->OCMode << 8U);
 80053c0:	6828      	ldr	r0, [r5, #0]
 80053c2:	0200      	lsls	r0, r0, #8
 80053c4:	4310      	orrs	r0, r2

  /* Reset the Output Polarity level */
  tmpccer &= ~TIM_CCER_CC4P;
 80053c6:	4a5a      	ldr	r2, [pc, #360]	@ (8005530 <HAL_TIM_PWM_ConfigChannel+0x1ec>)
 80053c8:	4011      	ands	r1, r2
  /* Set the Output Compare Polarity */
  tmpccer |= (OC_Config->OCPolarity << 12U);
 80053ca:	68aa      	ldr	r2, [r5, #8]
 80053cc:	0312      	lsls	r2, r2, #12
 80053ce:	430a      	orrs	r2, r1

  if (IS_TIM_BREAK_INSTANCE(TIMx))
 80053d0:	4952      	ldr	r1, [pc, #328]	@ (800551c <HAL_TIM_PWM_ConfigChannel+0x1d8>)
 80053d2:	428b      	cmp	r3, r1
 80053d4:	d008      	beq.n	80053e8 <HAL_TIM_PWM_ConfigChannel+0xa4>
 80053d6:	4952      	ldr	r1, [pc, #328]	@ (8005520 <HAL_TIM_PWM_ConfigChannel+0x1dc>)
 80053d8:	428b      	cmp	r3, r1
 80053da:	d005      	beq.n	80053e8 <HAL_TIM_PWM_ConfigChannel+0xa4>
 80053dc:	4951      	ldr	r1, [pc, #324]	@ (8005524 <HAL_TIM_PWM_ConfigChannel+0x1e0>)
 80053de:	428b      	cmp	r3, r1
 80053e0:	d002      	beq.n	80053e8 <HAL_TIM_PWM_ConfigChannel+0xa4>
 80053e2:	4951      	ldr	r1, [pc, #324]	@ (8005528 <HAL_TIM_PWM_ConfigChannel+0x1e4>)
 80053e4:	428b      	cmp	r3, r1
 80053e6:	d104      	bne.n	80053f2 <HAL_TIM_PWM_ConfigChannel+0xae>
  {
    /* Check parameters */
    assert_param(IS_TIM_OCIDLE_STATE(OC_Config->OCIdleState));

    /* Reset the Output Compare IDLE State */
    tmpcr2 &= ~TIM_CR2_OIS4;
 80053e8:	4952      	ldr	r1, [pc, #328]	@ (8005534 <HAL_TIM_PWM_ConfigChannel+0x1f0>)
 80053ea:	4031      	ands	r1, r6

    /* Set the Output Idle state */
    tmpcr2 |= (OC_Config->OCIdleState << 6U);
 80053ec:	696e      	ldr	r6, [r5, #20]
 80053ee:	01b6      	lsls	r6, r6, #6
 80053f0:	430e      	orrs	r6, r1

  /* Write to TIMx CCMR2 */
  TIMx->CCMR2 = tmpccmrx;

  /* Set the Capture Compare Register value */
  TIMx->CCR4 = OC_Config->Pulse;
 80053f2:	6869      	ldr	r1, [r5, #4]
  TIMx->CR2 = tmpcr2;
 80053f4:	605e      	str	r6, [r3, #4]
  TIMx->CCMR2 = tmpccmrx;
 80053f6:	61d8      	str	r0, [r3, #28]
  TIMx->CCR4 = OC_Config->Pulse;
 80053f8:	6419      	str	r1, [r3, #64]	@ 0x40

  /* Write to TIMx CCER */
  TIMx->CCER = tmpccer;
 80053fa:	621a      	str	r2, [r3, #32]
      htim->Instance->CCMR2 |= TIM_CCMR2_OC4PE;
 80053fc:	2280      	movs	r2, #128	@ 0x80
 80053fe:	69d9      	ldr	r1, [r3, #28]
 8005400:	0112      	lsls	r2, r2, #4
 8005402:	430a      	orrs	r2, r1
 8005404:	61da      	str	r2, [r3, #28]
      htim->Instance->CCMR2 &= ~TIM_CCMR2_OC4FE;
 8005406:	69da      	ldr	r2, [r3, #28]
 8005408:	494b      	ldr	r1, [pc, #300]	@ (8005538 <HAL_TIM_PWM_ConfigChannel+0x1f4>)
  HAL_StatusTypeDef status = HAL_OK;
 800540a:	2000      	movs	r0, #0
      htim->Instance->CCMR2 &= ~TIM_CCMR2_OC4FE;
 800540c:	400a      	ands	r2, r1
 800540e:	61da      	str	r2, [r3, #28]
      htim->Instance->CCMR2 |= sConfig->OCFastMode << 8U;
 8005410:	692a      	ldr	r2, [r5, #16]
 8005412:	69d9      	ldr	r1, [r3, #28]
 8005414:	0212      	lsls	r2, r2, #8
 8005416:	430a      	orrs	r2, r1
 8005418:	61da      	str	r2, [r3, #28]
      break;
 800541a:	e000      	b.n	800541e <HAL_TIM_PWM_ConfigChannel+0xda>
  switch (Channel)
 800541c:	2001      	movs	r0, #1
  __HAL_UNLOCK(htim);
 800541e:	233c      	movs	r3, #60	@ 0x3c
 8005420:	2200      	movs	r2, #0
 8005422:	54e2      	strb	r2, [r4, r3]
}
 8005424:	bdf8      	pop	{r3, r4, r5, r6, r7, pc}
    tmpccer &= ~TIM_CCER_CC2NP;
 8005426:	2080      	movs	r0, #128	@ 0x80
 8005428:	4382      	bics	r2, r0
 800542a:	0017      	movs	r7, r2
    tmpccer |= (OC_Config->OCNPolarity << 4U);
 800542c:	68ea      	ldr	r2, [r5, #12]
    tmpccer &= ~TIM_CCER_CC2NE;
 800542e:	3840      	subs	r0, #64	@ 0x40
    tmpccer |= (OC_Config->OCNPolarity << 4U);
 8005430:	0112      	lsls	r2, r2, #4
 8005432:	433a      	orrs	r2, r7
    tmpccer &= ~TIM_CCER_CC2NE;
 8005434:	4382      	bics	r2, r0
    tmpcr2 &= ~TIM_CR2_OIS2N;
 8005436:	4841      	ldr	r0, [pc, #260]	@ (800553c <HAL_TIM_PWM_ConfigChannel+0x1f8>)
    tmpcr2 |= (OC_Config->OCIdleState << 2U);
 8005438:	696f      	ldr	r7, [r5, #20]
    tmpcr2 &= ~TIM_CR2_OIS2N;
 800543a:	4008      	ands	r0, r1
    tmpcr2 |= (OC_Config->OCNIdleState << 2U);
 800543c:	69a9      	ldr	r1, [r5, #24]
 800543e:	4339      	orrs	r1, r7
 8005440:	0089      	lsls	r1, r1, #2
 8005442:	4301      	orrs	r1, r0
  TIMx->CR2 = tmpcr2;
 8005444:	6059      	str	r1, [r3, #4]
  TIMx->CCR2 = OC_Config->Pulse;
 8005446:	6869      	ldr	r1, [r5, #4]
  TIMx->CCMR1 = tmpccmrx;
 8005448:	619e      	str	r6, [r3, #24]
  TIMx->CCR2 = OC_Config->Pulse;
 800544a:	6399      	str	r1, [r3, #56]	@ 0x38
  TIMx->CCER = tmpccer;
 800544c:	621a      	str	r2, [r3, #32]
      htim->Instance->CCMR1 |= TIM_CCMR1_OC2PE;
 800544e:	2280      	movs	r2, #128	@ 0x80
 8005450:	6999      	ldr	r1, [r3, #24]
 8005452:	0112      	lsls	r2, r2, #4
 8005454:	430a      	orrs	r2, r1
 8005456:	619a      	str	r2, [r3, #24]
      htim->Instance->CCMR1 &= ~TIM_CCMR1_OC2FE;
 8005458:	699a      	ldr	r2, [r3, #24]
 800545a:	4937      	ldr	r1, [pc, #220]	@ (8005538 <HAL_TIM_PWM_ConfigChannel+0x1f4>)
  HAL_StatusTypeDef status = HAL_OK;
 800545c:	2000      	movs	r0, #0
      htim->Instance->CCMR1 &= ~TIM_CCMR1_OC2FE;
 800545e:	400a      	ands	r2, r1
 8005460:	619a      	str	r2, [r3, #24]
      htim->Instance->CCMR1 |= sConfig->OCFastMode << 8U;
 8005462:	692a      	ldr	r2, [r5, #16]
 8005464:	6999      	ldr	r1, [r3, #24]
 8005466:	0212      	lsls	r2, r2, #8
 8005468:	430a      	orrs	r2, r1
 800546a:	619a      	str	r2, [r3, #24]
      break;
 800546c:	e7d7      	b.n	800541e <HAL_TIM_PWM_ConfigChannel+0xda>
      TIM_OC1_SetConfig(htim->Instance, sConfig);
 800546e:	6806      	ldr	r6, [r0, #0]
 8005470:	0029      	movs	r1, r5
 8005472:	0030      	movs	r0, r6
 8005474:	f7ff fda6 	bl	8004fc4 <TIM_OC1_SetConfig>
      htim->Instance->CCMR1 |= TIM_CCMR1_OC1PE;
 8005478:	2208      	movs	r2, #8
 800547a:	69b3      	ldr	r3, [r6, #24]
  HAL_StatusTypeDef status = HAL_OK;
 800547c:	2000      	movs	r0, #0
      htim->Instance->CCMR1 |= TIM_CCMR1_OC1PE;
 800547e:	4313      	orrs	r3, r2
 8005480:	61b3      	str	r3, [r6, #24]
      htim->Instance->CCMR1 &= ~TIM_CCMR1_OC1FE;
 8005482:	69b3      	ldr	r3, [r6, #24]
 8005484:	3a04      	subs	r2, #4
 8005486:	4393      	bics	r3, r2
 8005488:	61b3      	str	r3, [r6, #24]
      htim->Instance->CCMR1 |= sConfig->OCFastMode;
 800548a:	69b3      	ldr	r3, [r6, #24]
 800548c:	692a      	ldr	r2, [r5, #16]
 800548e:	4313      	orrs	r3, r2
 8005490:	61b3      	str	r3, [r6, #24]
      break;
 8005492:	e7c4      	b.n	800541e <HAL_TIM_PWM_ConfigChannel+0xda>
  tmpccmrx &= ~TIM_CCMR2_CC3S;
 8005494:	2673      	movs	r6, #115	@ 0x73
      TIM_OC3_SetConfig(htim->Instance, sConfig);
 8005496:	6803      	ldr	r3, [r0, #0]
  TIMx->CCER &= ~TIM_CCER_CC3E;
 8005498:	4929      	ldr	r1, [pc, #164]	@ (8005540 <HAL_TIM_PWM_ConfigChannel+0x1fc>)
  tmpccer = TIMx->CCER;
 800549a:	6a18      	ldr	r0, [r3, #32]
  TIMx->CCER &= ~TIM_CCER_CC3E;
 800549c:	6a1a      	ldr	r2, [r3, #32]
 800549e:	400a      	ands	r2, r1
 80054a0:	621a      	str	r2, [r3, #32]
  tmpcr2 =  TIMx->CR2;
 80054a2:	6859      	ldr	r1, [r3, #4]
  tmpccmrx = TIMx->CCMR2;
 80054a4:	69da      	ldr	r2, [r3, #28]
  tmpccmrx &= ~TIM_CCMR2_CC3S;
 80054a6:	43b2      	bics	r2, r6
  tmpccmrx |= OC_Config->OCMode;
 80054a8:	682e      	ldr	r6, [r5, #0]
 80054aa:	4316      	orrs	r6, r2
  tmpccer &= ~TIM_CCER_CC3P;
 80054ac:	4a25      	ldr	r2, [pc, #148]	@ (8005544 <HAL_TIM_PWM_ConfigChannel+0x200>)
 80054ae:	4010      	ands	r0, r2
  tmpccer |= (OC_Config->OCPolarity << 8U);
 80054b0:	68aa      	ldr	r2, [r5, #8]
 80054b2:	0212      	lsls	r2, r2, #8
 80054b4:	4302      	orrs	r2, r0
  if (IS_TIM_CCXN_INSTANCE(TIMx, TIM_CHANNEL_3))
 80054b6:	4819      	ldr	r0, [pc, #100]	@ (800551c <HAL_TIM_PWM_ConfigChannel+0x1d8>)
 80054b8:	4283      	cmp	r3, r0
 80054ba:	d01b      	beq.n	80054f4 <HAL_TIM_PWM_ConfigChannel+0x1b0>
  if (IS_TIM_BREAK_INSTANCE(TIMx))
 80054bc:	4818      	ldr	r0, [pc, #96]	@ (8005520 <HAL_TIM_PWM_ConfigChannel+0x1dc>)
 80054be:	4283      	cmp	r3, r0
 80054c0:	d01f      	beq.n	8005502 <HAL_TIM_PWM_ConfigChannel+0x1be>
 80054c2:	4818      	ldr	r0, [pc, #96]	@ (8005524 <HAL_TIM_PWM_ConfigChannel+0x1e0>)
 80054c4:	4283      	cmp	r3, r0
 80054c6:	d01c      	beq.n	8005502 <HAL_TIM_PWM_ConfigChannel+0x1be>
 80054c8:	4817      	ldr	r0, [pc, #92]	@ (8005528 <HAL_TIM_PWM_ConfigChannel+0x1e4>)
 80054ca:	4283      	cmp	r3, r0
 80054cc:	d019      	beq.n	8005502 <HAL_TIM_PWM_ConfigChannel+0x1be>
  TIMx->CR2 = tmpcr2;
 80054ce:	6059      	str	r1, [r3, #4]
  TIMx->CCR3 = OC_Config->Pulse;
 80054d0:	6869      	ldr	r1, [r5, #4]
  TIMx->CCMR2 = tmpccmrx;
 80054d2:	61de      	str	r6, [r3, #28]
  TIMx->CCR3 = OC_Config->Pulse;
 80054d4:	63d9      	str	r1, [r3, #60]	@ 0x3c
      htim->Instance->CCMR2 |= TIM_CCMR2_OC3PE;
 80054d6:	2108      	movs	r1, #8
  TIMx->CCER = tmpccer;
 80054d8:	621a      	str	r2, [r3, #32]
      htim->Instance->CCMR2 |= TIM_CCMR2_OC3PE;
 80054da:	69da      	ldr	r2, [r3, #28]
  HAL_StatusTypeDef status = HAL_OK;
 80054dc:	2000      	movs	r0, #0
      htim->Instance->CCMR2 |= TIM_CCMR2_OC3PE;
 80054de:	430a      	orrs	r2, r1
 80054e0:	61da      	str	r2, [r3, #28]
      htim->Instance->CCMR2 &= ~TIM_CCMR2_OC3FE;
 80054e2:	69da      	ldr	r2, [r3, #28]
 80054e4:	3904      	subs	r1, #4
 80054e6:	438a      	bics	r2, r1
 80054e8:	61da      	str	r2, [r3, #28]
      htim->Instance->CCMR2 |= sConfig->OCFastMode;
 80054ea:	69da      	ldr	r2, [r3, #28]
 80054ec:	6929      	ldr	r1, [r5, #16]
 80054ee:	430a      	orrs	r2, r1
 80054f0:	61da      	str	r2, [r3, #28]
      break;
 80054f2:	e794      	b.n	800541e <HAL_TIM_PWM_ConfigChannel+0xda>
    tmpccer &= ~TIM_CCER_CC3NP;
 80054f4:	4814      	ldr	r0, [pc, #80]	@ (8005548 <HAL_TIM_PWM_ConfigChannel+0x204>)
 80054f6:	4010      	ands	r0, r2
    tmpccer |= (OC_Config->OCNPolarity << 8U);
 80054f8:	68ea      	ldr	r2, [r5, #12]
 80054fa:	0212      	lsls	r2, r2, #8
 80054fc:	4302      	orrs	r2, r0
    tmpccer &= ~TIM_CCER_CC3NE;
 80054fe:	480e      	ldr	r0, [pc, #56]	@ (8005538 <HAL_TIM_PWM_ConfigChannel+0x1f4>)
 8005500:	4002      	ands	r2, r0
    tmpcr2 &= ~TIM_CR2_OIS3N;
 8005502:	4812      	ldr	r0, [pc, #72]	@ (800554c <HAL_TIM_PWM_ConfigChannel+0x208>)
    tmpcr2 |= (OC_Config->OCIdleState << 4U);
 8005504:	696f      	ldr	r7, [r5, #20]
    tmpcr2 &= ~TIM_CR2_OIS3N;
 8005506:	4008      	ands	r0, r1
    tmpcr2 |= (OC_Config->OCNIdleState << 4U);
 8005508:	69a9      	ldr	r1, [r5, #24]
 800550a:	4339      	orrs	r1, r7
 800550c:	0109      	lsls	r1, r1, #4
 800550e:	4301      	orrs	r1, r0
 8005510:	e7dd      	b.n	80054ce <HAL_TIM_PWM_ConfigChannel+0x18a>
  __HAL_LOCK(htim);
 8005512:	2002      	movs	r0, #2
 8005514:	e786      	b.n	8005424 <HAL_TIM_PWM_ConfigChannel+0xe0>
 8005516:	46c0      	nop			@ (mov r8, r8)
 8005518:	ffff8cff 	.word	0xffff8cff
 800551c:	40012c00 	.word	0x40012c00
 8005520:	40014000 	.word	0x40014000
 8005524:	40014400 	.word	0x40014400
 8005528:	40014800 	.word	0x40014800
 800552c:	ffffefff 	.word	0xffffefff
 8005530:	ffffdfff 	.word	0xffffdfff
 8005534:	ffffbfff 	.word	0xffffbfff
 8005538:	fffffbff 	.word	0xfffffbff
 800553c:	fffff3ff 	.word	0xfffff3ff
 8005540:	fffffeff 	.word	0xfffffeff
 8005544:	fffffdff 	.word	0xfffffdff
 8005548:	fffff7ff 	.word	0xfffff7ff
 800554c:	ffffcfff 	.word	0xffffcfff

08005550 <HAL_TIM_ConfigClockSource>:
  __HAL_LOCK(htim);
 8005550:	233c      	movs	r3, #60	@ 0x3c
{
 8005552:	b570      	push	{r4, r5, r6, lr}
 8005554:	0002      	movs	r2, r0
  __HAL_LOCK(htim);
 8005556:	5cc0      	ldrb	r0, [r0, r3]
 8005558:	2801      	cmp	r0, #1
 800555a:	d100      	bne.n	800555e <HAL_TIM_ConfigClockSource+0xe>
 800555c:	e073      	b.n	8005646 <HAL_TIM_ConfigClockSource+0xf6>
 800555e:	2401      	movs	r4, #1
  htim->State = HAL_TIM_STATE_BUSY;
 8005560:	2002      	movs	r0, #2
  __HAL_LOCK(htim);
 8005562:	54d4      	strb	r4, [r2, r3]
  htim->State = HAL_TIM_STATE_BUSY;
 8005564:	3301      	adds	r3, #1
 8005566:	54d0      	strb	r0, [r2, r3]
  tmpsmcr = htim->Instance->SMCR;
 8005568:	6810      	ldr	r0, [r2, #0]
  tmpsmcr &= ~(TIM_SMCR_ETF | TIM_SMCR_ETPS | TIM_SMCR_ECE | TIM_SMCR_ETP);
 800556a:	4d51      	ldr	r5, [pc, #324]	@ (80056b0 <HAL_TIM_ConfigClockSource+0x160>)
  tmpsmcr = htim->Instance->SMCR;
 800556c:	6883      	ldr	r3, [r0, #8]
  tmpsmcr &= ~(TIM_SMCR_ETF | TIM_SMCR_ETPS | TIM_SMCR_ECE | TIM_SMCR_ETP);
 800556e:	402b      	ands	r3, r5
  htim->Instance->SMCR = tmpsmcr;
 8005570:	6083      	str	r3, [r0, #8]
  switch (sClockSourceConfig->ClockSource)
 8005572:	680b      	ldr	r3, [r1, #0]
 8005574:	2b60      	cmp	r3, #96	@ 0x60
 8005576:	d100      	bne.n	800557a <HAL_TIM_ConfigClockSource+0x2a>
 8005578:	e067      	b.n	800564a <HAL_TIM_ConfigClockSource+0xfa>
 800557a:	d81d      	bhi.n	80055b8 <HAL_TIM_ConfigClockSource+0x68>
 800557c:	2b40      	cmp	r3, #64	@ 0x40
 800557e:	d100      	bne.n	8005582 <HAL_TIM_ConfigClockSource+0x32>
 8005580:	e07d      	b.n	800567e <HAL_TIM_ConfigClockSource+0x12e>
 8005582:	d93f      	bls.n	8005604 <HAL_TIM_ConfigClockSource+0xb4>
 8005584:	2b50      	cmp	r3, #80	@ 0x50
 8005586:	d135      	bne.n	80055f4 <HAL_TIM_ConfigClockSource+0xa4>
                               sClockSourceConfig->ClockPolarity,
 8005588:	684d      	ldr	r5, [r1, #4]
                               sClockSourceConfig->ClockFilter);
 800558a:	68cb      	ldr	r3, [r1, #12]
{
  uint32_t tmpccmr1;
  uint32_t tmpccer;

  /* Disable the Channel 1: Reset the CC1E Bit */
  tmpccer = TIMx->CCER;
 800558c:	6a01      	ldr	r1, [r0, #32]
  TIMx->CCER &= ~TIM_CCER_CC1E;
 800558e:	6a06      	ldr	r6, [r0, #32]
  tmpccmr1 = TIMx->CCMR1;

  /* Set the filter */
  tmpccmr1 &= ~TIM_CCMR1_IC1F;
  tmpccmr1 |= (TIM_ICFilter << 4U);
 8005590:	011b      	lsls	r3, r3, #4
  TIMx->CCER &= ~TIM_CCER_CC1E;
 8005592:	43a6      	bics	r6, r4
 8005594:	6206      	str	r6, [r0, #32]
  tmpccmr1 &= ~TIM_CCMR1_IC1F;
 8005596:	26f0      	movs	r6, #240	@ 0xf0
  tmpccmr1 = TIMx->CCMR1;
 8005598:	6984      	ldr	r4, [r0, #24]
  tmpccmr1 &= ~TIM_CCMR1_IC1F;
 800559a:	43b4      	bics	r4, r6
  tmpccmr1 |= (TIM_ICFilter << 4U);
 800559c:	4323      	orrs	r3, r4

  /* Select the Polarity and set the CC1E Bit */
  tmpccer &= ~(TIM_CCER_CC1P | TIM_CCER_CC1NP);
 800559e:	240a      	movs	r4, #10
 80055a0:	43a1      	bics	r1, r4
  tmpccer |= TIM_ICPolarity;
 80055a2:	4329      	orrs	r1, r5

  /* Write to TIMx CCMR1 and CCER registers */
  TIMx->CCMR1 = tmpccmr1;
 80055a4:	6183      	str	r3, [r0, #24]
  TIMx->CCER = tmpccer;
 80055a6:	6201      	str	r1, [r0, #32]
  uint32_t tmpsmcr;

  /* Get the TIMx SMCR register value */
  tmpsmcr = TIMx->SMCR;
  /* Reset the TS Bits */
  tmpsmcr &= ~TIM_SMCR_TS;
 80055a8:	2170      	movs	r1, #112	@ 0x70
  tmpsmcr = TIMx->SMCR;
 80055aa:	6883      	ldr	r3, [r0, #8]
  tmpsmcr &= ~TIM_SMCR_TS;
 80055ac:	438b      	bics	r3, r1
  /* Set the Input Trigger source and the slave mode*/
  tmpsmcr |= (InputTriggerSource | TIM_SLAVEMODE_EXTERNAL1);
 80055ae:	3919      	subs	r1, #25
 80055b0:	430b      	orrs	r3, r1
  /* Write to TIMx SMCR */
  TIMx->SMCR = tmpsmcr;
 80055b2:	6083      	str	r3, [r0, #8]
  HAL_StatusTypeDef status = HAL_OK;
 80055b4:	2000      	movs	r0, #0
 80055b6:	e01e      	b.n	80055f6 <HAL_TIM_ConfigClockSource+0xa6>
  switch (sClockSourceConfig->ClockSource)
 80055b8:	2480      	movs	r4, #128	@ 0x80
 80055ba:	0164      	lsls	r4, r4, #5
 80055bc:	42a3      	cmp	r3, r4
 80055be:	d0f9      	beq.n	80055b4 <HAL_TIM_ConfigClockSource+0x64>
 80055c0:	2480      	movs	r4, #128	@ 0x80
 80055c2:	01a4      	lsls	r4, r4, #6
 80055c4:	42a3      	cmp	r3, r4
 80055c6:	d12b      	bne.n	8005620 <HAL_TIM_ConfigClockSource+0xd0>
void TIM_ETR_SetConfig(TIM_TypeDef *TIMx, uint32_t TIM_ExtTRGPrescaler,
                       uint32_t TIM_ExtTRGPolarity, uint32_t ExtTRGFilter)
{
  uint32_t tmpsmcr;

  tmpsmcr = TIMx->SMCR;
 80055c8:	6884      	ldr	r4, [r0, #8]

  /* Reset the ETR Bits */
  tmpsmcr &= ~(TIM_SMCR_ETF | TIM_SMCR_ETPS | TIM_SMCR_ECE | TIM_SMCR_ETP);
 80055ca:	4b3a      	ldr	r3, [pc, #232]	@ (80056b4 <HAL_TIM_ConfigClockSource+0x164>)

  /* Set the Prescaler, the Filter value and the Polarity */
  tmpsmcr |= (uint32_t)(TIM_ExtTRGPrescaler | (TIM_ExtTRGPolarity | (ExtTRGFilter << 8U)));
 80055cc:	684d      	ldr	r5, [r1, #4]
  tmpsmcr &= ~(TIM_SMCR_ETF | TIM_SMCR_ETPS | TIM_SMCR_ECE | TIM_SMCR_ETP);
 80055ce:	401c      	ands	r4, r3
  tmpsmcr |= (uint32_t)(TIM_ExtTRGPrescaler | (TIM_ExtTRGPolarity | (ExtTRGFilter << 8U)));
 80055d0:	688b      	ldr	r3, [r1, #8]
 80055d2:	68c9      	ldr	r1, [r1, #12]
 80055d4:	432b      	orrs	r3, r5
 80055d6:	0209      	lsls	r1, r1, #8
 80055d8:	430b      	orrs	r3, r1
 80055da:	4323      	orrs	r3, r4

  /* Write to TIMx SMCR */
  TIMx->SMCR = tmpsmcr;
 80055dc:	6083      	str	r3, [r0, #8]
      htim->Instance->SMCR |= TIM_SMCR_ECE;
 80055de:	2380      	movs	r3, #128	@ 0x80
 80055e0:	6881      	ldr	r1, [r0, #8]
 80055e2:	01db      	lsls	r3, r3, #7
 80055e4:	430b      	orrs	r3, r1
 80055e6:	6083      	str	r3, [r0, #8]
  HAL_StatusTypeDef status = HAL_OK;
 80055e8:	2000      	movs	r0, #0
 80055ea:	e004      	b.n	80055f6 <HAL_TIM_ConfigClockSource+0xa6>
  switch (sClockSourceConfig->ClockSource)
 80055ec:	2110      	movs	r1, #16
 80055ee:	001c      	movs	r4, r3
 80055f0:	438c      	bics	r4, r1
 80055f2:	d00c      	beq.n	800560e <HAL_TIM_ConfigClockSource+0xbe>
      status = HAL_ERROR;
 80055f4:	2001      	movs	r0, #1
  htim->State = HAL_TIM_STATE_READY;
 80055f6:	233d      	movs	r3, #61	@ 0x3d
 80055f8:	2101      	movs	r1, #1
 80055fa:	54d1      	strb	r1, [r2, r3]
  __HAL_UNLOCK(htim);
 80055fc:	2100      	movs	r1, #0
 80055fe:	3b01      	subs	r3, #1
 8005600:	54d1      	strb	r1, [r2, r3]
}
 8005602:	bd70      	pop	{r4, r5, r6, pc}
  switch (sClockSourceConfig->ClockSource)
 8005604:	2b20      	cmp	r3, #32
 8005606:	d002      	beq.n	800560e <HAL_TIM_ConfigClockSource+0xbe>
 8005608:	d9f0      	bls.n	80055ec <HAL_TIM_ConfigClockSource+0x9c>
 800560a:	2b30      	cmp	r3, #48	@ 0x30
 800560c:	d1f2      	bne.n	80055f4 <HAL_TIM_ConfigClockSource+0xa4>
  tmpsmcr &= ~TIM_SMCR_TS;
 800560e:	2470      	movs	r4, #112	@ 0x70
  tmpsmcr = TIMx->SMCR;
 8005610:	6881      	ldr	r1, [r0, #8]
  tmpsmcr &= ~TIM_SMCR_TS;
 8005612:	43a1      	bics	r1, r4
  tmpsmcr |= (InputTriggerSource | TIM_SLAVEMODE_EXTERNAL1);
 8005614:	430b      	orrs	r3, r1
 8005616:	2107      	movs	r1, #7
 8005618:	430b      	orrs	r3, r1
  TIMx->SMCR = tmpsmcr;
 800561a:	6083      	str	r3, [r0, #8]
  HAL_StatusTypeDef status = HAL_OK;
 800561c:	2000      	movs	r0, #0
 800561e:	e7ea      	b.n	80055f6 <HAL_TIM_ConfigClockSource+0xa6>
  switch (sClockSourceConfig->ClockSource)
 8005620:	2b70      	cmp	r3, #112	@ 0x70
 8005622:	d1e7      	bne.n	80055f4 <HAL_TIM_ConfigClockSource+0xa4>
  tmpsmcr = TIMx->SMCR;
 8005624:	6884      	ldr	r4, [r0, #8]
  tmpsmcr &= ~(TIM_SMCR_ETF | TIM_SMCR_ETPS | TIM_SMCR_ECE | TIM_SMCR_ETP);
 8005626:	4b23      	ldr	r3, [pc, #140]	@ (80056b4 <HAL_TIM_ConfigClockSource+0x164>)
  tmpsmcr |= (uint32_t)(TIM_ExtTRGPrescaler | (TIM_ExtTRGPolarity | (ExtTRGFilter << 8U)));
 8005628:	684d      	ldr	r5, [r1, #4]
  tmpsmcr &= ~(TIM_SMCR_ETF | TIM_SMCR_ETPS | TIM_SMCR_ECE | TIM_SMCR_ETP);
 800562a:	401c      	ands	r4, r3
  tmpsmcr |= (uint32_t)(TIM_ExtTRGPrescaler | (TIM_ExtTRGPolarity | (ExtTRGFilter << 8U)));
 800562c:	688b      	ldr	r3, [r1, #8]
 800562e:	68c9      	ldr	r1, [r1, #12]
 8005630:	432b      	orrs	r3, r5
 8005632:	0209      	lsls	r1, r1, #8
 8005634:	430b      	orrs	r3, r1
      tmpsmcr |= (TIM_SLAVEMODE_EXTERNAL1 | TIM_CLOCKSOURCE_ETRMODE1);
 8005636:	2177      	movs	r1, #119	@ 0x77
  tmpsmcr |= (uint32_t)(TIM_ExtTRGPrescaler | (TIM_ExtTRGPolarity | (ExtTRGFilter << 8U)));
 8005638:	4323      	orrs	r3, r4
  TIMx->SMCR = tmpsmcr;
 800563a:	6083      	str	r3, [r0, #8]
      tmpsmcr = htim->Instance->SMCR;
 800563c:	6883      	ldr	r3, [r0, #8]
      tmpsmcr |= (TIM_SLAVEMODE_EXTERNAL1 | TIM_CLOCKSOURCE_ETRMODE1);
 800563e:	430b      	orrs	r3, r1
      htim->Instance->SMCR = tmpsmcr;
 8005640:	6083      	str	r3, [r0, #8]
  HAL_StatusTypeDef status = HAL_OK;
 8005642:	2000      	movs	r0, #0
 8005644:	e7d7      	b.n	80055f6 <HAL_TIM_ConfigClockSource+0xa6>
  __HAL_LOCK(htim);
 8005646:	2002      	movs	r0, #2
 8005648:	e7db      	b.n	8005602 <HAL_TIM_ConfigClockSource+0xb2>
  TIMx->CCER &= ~TIM_CCER_CC2E;
 800564a:	2610      	movs	r6, #16
  tmpccer = TIMx->CCER;
 800564c:	6a04      	ldr	r4, [r0, #32]
  TIMx->CCER &= ~TIM_CCER_CC2E;
 800564e:	6a05      	ldr	r5, [r0, #32]
                               sClockSourceConfig->ClockPolarity,
 8005650:	684b      	ldr	r3, [r1, #4]
  TIMx->CCER &= ~TIM_CCER_CC2E;
 8005652:	43b5      	bics	r5, r6
                               sClockSourceConfig->ClockFilter);
 8005654:	68c9      	ldr	r1, [r1, #12]
  TIMx->CCER &= ~TIM_CCER_CC2E;
 8005656:	6205      	str	r5, [r0, #32]
  tmpccmr1 = TIMx->CCMR1;
 8005658:	6985      	ldr	r5, [r0, #24]
  tmpccmr1 &= ~TIM_CCMR1_IC2F;
 800565a:	4e17      	ldr	r6, [pc, #92]	@ (80056b8 <HAL_TIM_ConfigClockSource+0x168>)
  tmpccmr1 |= (TIM_ICFilter << 12U);
 800565c:	0309      	lsls	r1, r1, #12
  tmpccmr1 &= ~TIM_CCMR1_IC2F;
 800565e:	4035      	ands	r5, r6
  tmpccmr1 |= (TIM_ICFilter << 12U);
 8005660:	4329      	orrs	r1, r5
  tmpccer &= ~(TIM_CCER_CC2P | TIM_CCER_CC2NP);
 8005662:	25a0      	movs	r5, #160	@ 0xa0
  TIMx->CCMR1 = tmpccmr1 ;
 8005664:	6181      	str	r1, [r0, #24]
  tmpsmcr &= ~TIM_SMCR_TS;
 8005666:	2170      	movs	r1, #112	@ 0x70
  tmpccer &= ~(TIM_CCER_CC2P | TIM_CCER_CC2NP);
 8005668:	43ac      	bics	r4, r5
  tmpccer |= (TIM_ICPolarity << 4U);
 800566a:	011b      	lsls	r3, r3, #4
 800566c:	4323      	orrs	r3, r4
  TIMx->CCER = tmpccer;
 800566e:	6203      	str	r3, [r0, #32]
  tmpsmcr = TIMx->SMCR;
 8005670:	6883      	ldr	r3, [r0, #8]
  tmpsmcr &= ~TIM_SMCR_TS;
 8005672:	438b      	bics	r3, r1
  tmpsmcr |= (InputTriggerSource | TIM_SLAVEMODE_EXTERNAL1);
 8005674:	3909      	subs	r1, #9
 8005676:	430b      	orrs	r3, r1
  TIMx->SMCR = tmpsmcr;
 8005678:	6083      	str	r3, [r0, #8]
  HAL_StatusTypeDef status = HAL_OK;
 800567a:	2000      	movs	r0, #0
 800567c:	e7bb      	b.n	80055f6 <HAL_TIM_ConfigClockSource+0xa6>
                               sClockSourceConfig->ClockPolarity,
 800567e:	684d      	ldr	r5, [r1, #4]
                               sClockSourceConfig->ClockFilter);
 8005680:	68cb      	ldr	r3, [r1, #12]
  tmpccer = TIMx->CCER;
 8005682:	6a01      	ldr	r1, [r0, #32]
  TIMx->CCER &= ~TIM_CCER_CC1E;
 8005684:	6a06      	ldr	r6, [r0, #32]
  tmpccmr1 |= (TIM_ICFilter << 4U);
 8005686:	011b      	lsls	r3, r3, #4
  TIMx->CCER &= ~TIM_CCER_CC1E;
 8005688:	43a6      	bics	r6, r4
 800568a:	6206      	str	r6, [r0, #32]
  tmpccmr1 &= ~TIM_CCMR1_IC1F;
 800568c:	26f0      	movs	r6, #240	@ 0xf0
  tmpccmr1 = TIMx->CCMR1;
 800568e:	6984      	ldr	r4, [r0, #24]
  tmpccmr1 &= ~TIM_CCMR1_IC1F;
 8005690:	43b4      	bics	r4, r6
  tmpccmr1 |= (TIM_ICFilter << 4U);
 8005692:	4323      	orrs	r3, r4
  tmpccer &= ~(TIM_CCER_CC1P | TIM_CCER_CC1NP);
 8005694:	240a      	movs	r4, #10
 8005696:	43a1      	bics	r1, r4
  tmpccer |= TIM_ICPolarity;
 8005698:	4329      	orrs	r1, r5
  TIMx->CCMR1 = tmpccmr1;
 800569a:	6183      	str	r3, [r0, #24]
  TIMx->CCER = tmpccer;
 800569c:	6201      	str	r1, [r0, #32]
  tmpsmcr &= ~TIM_SMCR_TS;
 800569e:	2170      	movs	r1, #112	@ 0x70
  tmpsmcr = TIMx->SMCR;
 80056a0:	6883      	ldr	r3, [r0, #8]
  tmpsmcr &= ~TIM_SMCR_TS;
 80056a2:	438b      	bics	r3, r1
  tmpsmcr |= (InputTriggerSource | TIM_SLAVEMODE_EXTERNAL1);
 80056a4:	3929      	subs	r1, #41	@ 0x29
 80056a6:	430b      	orrs	r3, r1
  TIMx->SMCR = tmpsmcr;
 80056a8:	6083      	str	r3, [r0, #8]
  HAL_StatusTypeDef status = HAL_OK;
 80056aa:	2000      	movs	r0, #0
 80056ac:	e7a3      	b.n	80055f6 <HAL_TIM_ConfigClockSource+0xa6>
 80056ae:	46c0      	nop			@ (mov r8, r8)
 80056b0:	ffff0088 	.word	0xffff0088
 80056b4:	ffff00ff 	.word	0xffff00ff
 80056b8:	ffff0fff 	.word	0xffff0fff

080056bc <HAL_TIMEx_PWMN_Start>:
  *            @arg TIM_CHANNEL_1: TIM Channel 1 selected
  *            @arg TIM_CHANNEL_2: TIM Channel 2 selected
  *            @arg TIM_CHANNEL_3: TIM Channel 3 selected
  * @retval HAL status
  */
HAL_StatusTypeDef HAL_TIMEx_PWMN_Start(TIM_HandleTypeDef *htim, uint32_t Channel)
 80056bc:	2900      	cmp	r1, #0
 80056be:	d124      	bne.n	800570a <HAL_TIMEx_PWMN_Start+0x4e>
 80056c0:	2342      	movs	r3, #66	@ 0x42
 80056c2:	5cc2      	ldrb	r2, [r0, r3]
 80056c4:	2a01      	cmp	r2, #1
 80056c6:	d128      	bne.n	800571a <HAL_TIMEx_PWMN_Start+0x5e>
 80056c8:	2202      	movs	r2, #2
 80056ca:	54c2      	strb	r2, [r0, r3]
 80056cc:	220f      	movs	r2, #15
 80056ce:	4011      	ands	r1, r2
 80056d0:	3a0b      	subs	r2, #11
 80056d2:	408a      	lsls	r2, r1
 80056d4:	6803      	ldr	r3, [r0, #0]
 80056d6:	6a19      	ldr	r1, [r3, #32]
 80056d8:	4391      	bics	r1, r2
 80056da:	6219      	str	r1, [r3, #32]
 80056dc:	6a19      	ldr	r1, [r3, #32]
 80056de:	430a      	orrs	r2, r1
 80056e0:	621a      	str	r2, [r3, #32]
 80056e2:	2280      	movs	r2, #128	@ 0x80
 80056e4:	6c59      	ldr	r1, [r3, #68]	@ 0x44
 80056e6:	0212      	lsls	r2, r2, #8
 80056e8:	430a      	orrs	r2, r1
 80056ea:	645a      	str	r2, [r3, #68]	@ 0x44
 80056ec:	4a14      	ldr	r2, [pc, #80]	@ (8005740 <HAL_TIMEx_PWMN_Start+0x84>)
 80056ee:	4293      	cmp	r3, r2
 80056f0:	d015      	beq.n	800571e <HAL_TIMEx_PWMN_Start+0x62>
 80056f2:	4a14      	ldr	r2, [pc, #80]	@ (8005744 <HAL_TIMEx_PWMN_Start+0x88>)
 80056f4:	4293      	cmp	r3, r2
 80056f6:	d012      	beq.n	800571e <HAL_TIMEx_PWMN_Start+0x62>
 80056f8:	4a13      	ldr	r2, [pc, #76]	@ (8005748 <HAL_TIMEx_PWMN_Start+0x8c>)
 80056fa:	4293      	cmp	r3, r2
 80056fc:	d00f      	beq.n	800571e <HAL_TIMEx_PWMN_Start+0x62>
 80056fe:	2101      	movs	r1, #1
 8005700:	681a      	ldr	r2, [r3, #0]
 8005702:	430a      	orrs	r2, r1
 8005704:	601a      	str	r2, [r3, #0]
 8005706:	2000      	movs	r0, #0
 8005708:	4770      	bx	lr
 800570a:	2904      	cmp	r1, #4
 800570c:	d00d      	beq.n	800572a <HAL_TIMEx_PWMN_Start+0x6e>
 800570e:	2908      	cmp	r1, #8
 8005710:	d010      	beq.n	8005734 <HAL_TIMEx_PWMN_Start+0x78>
 8005712:	2345      	movs	r3, #69	@ 0x45
 8005714:	5cc2      	ldrb	r2, [r0, r3]
 8005716:	2a01      	cmp	r2, #1
 8005718:	d0d6      	beq.n	80056c8 <HAL_TIMEx_PWMN_Start+0xc>
 800571a:	2001      	movs	r0, #1
 800571c:	e7f4      	b.n	8005708 <HAL_TIMEx_PWMN_Start+0x4c>
 800571e:	2207      	movs	r2, #7
 8005720:	6899      	ldr	r1, [r3, #8]
 8005722:	400a      	ands	r2, r1
 8005724:	2a06      	cmp	r2, #6
 8005726:	d1ea      	bne.n	80056fe <HAL_TIMEx_PWMN_Start+0x42>
 8005728:	e7ed      	b.n	8005706 <HAL_TIMEx_PWMN_Start+0x4a>
 800572a:	2343      	movs	r3, #67	@ 0x43
 800572c:	5cc2      	ldrb	r2, [r0, r3]
 800572e:	2a01      	cmp	r2, #1
 8005730:	d0ca      	beq.n	80056c8 <HAL_TIMEx_PWMN_Start+0xc>
 8005732:	e7f2      	b.n	800571a <HAL_TIMEx_PWMN_Start+0x5e>
 8005734:	2344      	movs	r3, #68	@ 0x44
 8005736:	5cc2      	ldrb	r2, [r0, r3]
 8005738:	2a01      	cmp	r2, #1
 800573a:	d0c5      	beq.n	80056c8 <HAL_TIMEx_PWMN_Start+0xc>
 800573c:	e7ed      	b.n	800571a <HAL_TIMEx_PWMN_Start+0x5e>
 800573e:	46c0      	nop			@ (mov r8, r8)
 8005740:	40012c00 	.word	0x40012c00
 8005744:	40000400 	.word	0x40000400
 8005748:	40014000 	.word	0x40014000

0800574c <HAL_TIMEx_PWMN_Stop>:
  *            @arg TIM_CHANNEL_1: TIM Channel 1 selected
  *            @arg TIM_CHANNEL_2: TIM Channel 2 selected
  *            @arg TIM_CHANNEL_3: TIM Channel 3 selected
  * @retval HAL status
  */
HAL_StatusTypeDef HAL_TIMEx_PWMN_Stop(TIM_HandleTypeDef *htim, uint32_t Channel)
 800574c:	b530      	push	{r4, r5, lr}
 800574e:	250f      	movs	r5, #15
 8005750:	2404      	movs	r4, #4
 8005752:	400d      	ands	r5, r1
 8005754:	40ac      	lsls	r4, r5
 8005756:	6803      	ldr	r3, [r0, #0]
 8005758:	6a1a      	ldr	r2, [r3, #32]
 800575a:	43a2      	bics	r2, r4
 800575c:	621a      	str	r2, [r3, #32]
 800575e:	6a1a      	ldr	r2, [r3, #32]
 8005760:	621a      	str	r2, [r3, #32]
 8005762:	6a1c      	ldr	r4, [r3, #32]
 8005764:	4a17      	ldr	r2, [pc, #92]	@ (80057c4 <HAL_TIMEx_PWMN_Stop+0x78>)
 8005766:	4214      	tst	r4, r2
 8005768:	d103      	bne.n	8005772 <HAL_TIMEx_PWMN_Stop+0x26>
 800576a:	6a1c      	ldr	r4, [r3, #32]
 800576c:	4a16      	ldr	r2, [pc, #88]	@ (80057c8 <HAL_TIMEx_PWMN_Stop+0x7c>)
 800576e:	4214      	tst	r4, r2
 8005770:	d01b      	beq.n	80057aa <HAL_TIMEx_PWMN_Stop+0x5e>
 8005772:	6a1c      	ldr	r4, [r3, #32]
 8005774:	4a13      	ldr	r2, [pc, #76]	@ (80057c4 <HAL_TIMEx_PWMN_Stop+0x78>)
 8005776:	4214      	tst	r4, r2
 8005778:	d103      	bne.n	8005782 <HAL_TIMEx_PWMN_Stop+0x36>
 800577a:	6a1c      	ldr	r4, [r3, #32]
 800577c:	4a12      	ldr	r2, [pc, #72]	@ (80057c8 <HAL_TIMEx_PWMN_Stop+0x7c>)
 800577e:	4214      	tst	r4, r2
 8005780:	d00e      	beq.n	80057a0 <HAL_TIMEx_PWMN_Stop+0x54>
 8005782:	2900      	cmp	r1, #0
 8005784:	d104      	bne.n	8005790 <HAL_TIMEx_PWMN_Stop+0x44>
 8005786:	2342      	movs	r3, #66	@ 0x42
 8005788:	2201      	movs	r2, #1
 800578a:	54c2      	strb	r2, [r0, r3]
 800578c:	2000      	movs	r0, #0
 800578e:	bd30      	pop	{r4, r5, pc}
 8005790:	2904      	cmp	r1, #4
 8005792:	d00f      	beq.n	80057b4 <HAL_TIMEx_PWMN_Stop+0x68>
 8005794:	2908      	cmp	r1, #8
 8005796:	d011      	beq.n	80057bc <HAL_TIMEx_PWMN_Stop+0x70>
 8005798:	2345      	movs	r3, #69	@ 0x45
 800579a:	2201      	movs	r2, #1
 800579c:	54c2      	strb	r2, [r0, r3]
 800579e:	e7f5      	b.n	800578c <HAL_TIMEx_PWMN_Stop+0x40>
 80057a0:	2401      	movs	r4, #1
 80057a2:	681a      	ldr	r2, [r3, #0]
 80057a4:	43a2      	bics	r2, r4
 80057a6:	601a      	str	r2, [r3, #0]
 80057a8:	e7eb      	b.n	8005782 <HAL_TIMEx_PWMN_Stop+0x36>
 80057aa:	6c5a      	ldr	r2, [r3, #68]	@ 0x44
 80057ac:	4c07      	ldr	r4, [pc, #28]	@ (80057cc <HAL_TIMEx_PWMN_Stop+0x80>)
 80057ae:	4022      	ands	r2, r4
 80057b0:	645a      	str	r2, [r3, #68]	@ 0x44
 80057b2:	e7de      	b.n	8005772 <HAL_TIMEx_PWMN_Stop+0x26>
 80057b4:	2343      	movs	r3, #67	@ 0x43
 80057b6:	2201      	movs	r2, #1
 80057b8:	54c2      	strb	r2, [r0, r3]
 80057ba:	e7e7      	b.n	800578c <HAL_TIMEx_PWMN_Stop+0x40>
 80057bc:	2344      	movs	r3, #68	@ 0x44
 80057be:	2201      	movs	r2, #1
 80057c0:	54c2      	strb	r2, [r0, r3]
 80057c2:	e7e3      	b.n	800578c <HAL_TIMEx_PWMN_Stop+0x40>
 80057c4:	00001111 	.word	0x00001111
 80057c8:	00000444 	.word	0x00000444
 80057cc:	ffff7fff 	.word	0xffff7fff

080057d0 <HAL_TIMEx_MasterConfigSynchronization>:
  assert_param(IS_TIM_MASTER_INSTANCE(htim->Instance));
  assert_param(IS_TIM_TRGO_SOURCE(sMasterConfig->MasterOutputTrigger));
  assert_param(IS_TIM_MSM_STATE(sMasterConfig->MasterSlaveMode));

  /* Check input state */
  __HAL_LOCK(htim);
 80057d0:	233c      	movs	r3, #60	@ 0x3c
{
 80057d2:	b530      	push	{r4, r5, lr}
  __HAL_LOCK(htim);
 80057d4:	5cc3      	ldrb	r3, [r0, r3]
 80057d6:	2b01      	cmp	r3, #1
 80057d8:	d020      	beq.n	800581c <HAL_TIMEx_MasterConfigSynchronization+0x4c>

  /* Change the handler state */
  htim->State = HAL_TIM_STATE_BUSY;
 80057da:	233d      	movs	r3, #61	@ 0x3d
 80057dc:	2202      	movs	r2, #2

  /* Get the TIMx SMCR register value */
  tmpsmcr = htim->Instance->SMCR;

  /* Reset the MMS Bits */
  tmpcr2 &= ~TIM_CR2_MMS;
 80057de:	2570      	movs	r5, #112	@ 0x70
  htim->State = HAL_TIM_STATE_BUSY;
 80057e0:	54c2      	strb	r2, [r0, r3]
  tmpcr2 = htim->Instance->CR2;
 80057e2:	6803      	ldr	r3, [r0, #0]
 80057e4:	685a      	ldr	r2, [r3, #4]
  tmpsmcr = htim->Instance->SMCR;
 80057e6:	689c      	ldr	r4, [r3, #8]
  tmpcr2 &= ~TIM_CR2_MMS;
 80057e8:	43aa      	bics	r2, r5
  /* Select the TRGO source */
  tmpcr2 |=  sMasterConfig->MasterOutputTrigger;
 80057ea:	680d      	ldr	r5, [r1, #0]
 80057ec:	432a      	orrs	r2, r5

  /* Update TIMx CR2 */
  htim->Instance->CR2 = tmpcr2;
 80057ee:	605a      	str	r2, [r3, #4]

  if (IS_TIM_SLAVE_INSTANCE(htim->Instance))
 80057f0:	4a0b      	ldr	r2, [pc, #44]	@ (8005820 <HAL_TIMEx_MasterConfigSynchronization+0x50>)
 80057f2:	4293      	cmp	r3, r2
 80057f4:	d005      	beq.n	8005802 <HAL_TIMEx_MasterConfigSynchronization+0x32>
 80057f6:	4a0b      	ldr	r2, [pc, #44]	@ (8005824 <HAL_TIMEx_MasterConfigSynchronization+0x54>)
 80057f8:	4293      	cmp	r3, r2
 80057fa:	d002      	beq.n	8005802 <HAL_TIMEx_MasterConfigSynchronization+0x32>
 80057fc:	4a0a      	ldr	r2, [pc, #40]	@ (8005828 <HAL_TIMEx_MasterConfigSynchronization+0x58>)
 80057fe:	4293      	cmp	r3, r2
 8005800:	d104      	bne.n	800580c <HAL_TIMEx_MasterConfigSynchronization+0x3c>
  {
    /* Reset the MSM Bit */
    tmpsmcr &= ~TIM_SMCR_MSM;
 8005802:	2280      	movs	r2, #128	@ 0x80
 8005804:	4394      	bics	r4, r2
    /* Set master mode */
    tmpsmcr |= sMasterConfig->MasterSlaveMode;
 8005806:	684a      	ldr	r2, [r1, #4]
 8005808:	4314      	orrs	r4, r2

    /* Update TIMx SMCR */
    htim->Instance->SMCR = tmpsmcr;
 800580a:	609c      	str	r4, [r3, #8]
  }

  /* Change the htim state */
  htim->State = HAL_TIM_STATE_READY;
 800580c:	233d      	movs	r3, #61	@ 0x3d
 800580e:	2201      	movs	r2, #1
 8005810:	54c2      	strb	r2, [r0, r3]

  __HAL_UNLOCK(htim);
 8005812:	2200      	movs	r2, #0
 8005814:	3b01      	subs	r3, #1
 8005816:	54c2      	strb	r2, [r0, r3]

  return HAL_OK;
 8005818:	2000      	movs	r0, #0
}
 800581a:	bd30      	pop	{r4, r5, pc}
  __HAL_LOCK(htim);
 800581c:	2002      	movs	r0, #2
 800581e:	e7fc      	b.n	800581a <HAL_TIMEx_MasterConfigSynchronization+0x4a>
 8005820:	40012c00 	.word	0x40012c00
 8005824:	40000400 	.word	0x40000400
 8005828:	40014000 	.word	0x40014000

0800582c <HAL_TIMEx_ConfigBreakDeadTime>:
  assert_param(IS_TIM_BREAK_STATE(sBreakDeadTimeConfig->BreakState));
  assert_param(IS_TIM_BREAK_POLARITY(sBreakDeadTimeConfig->BreakPolarity));
  assert_param(IS_TIM_AUTOMATIC_OUTPUT_STATE(sBreakDeadTimeConfig->AutomaticOutput));

  /* Check input state */
  __HAL_LOCK(htim);
 800582c:	223c      	movs	r2, #60	@ 0x3c
{
 800582e:	b510      	push	{r4, lr}
  __HAL_LOCK(htim);
 8005830:	5c83      	ldrb	r3, [r0, r2]
 8005832:	2b01      	cmp	r3, #1
 8005834:	d01e      	beq.n	8005874 <HAL_TIMEx_ConfigBreakDeadTime+0x48>
  /* Set the Lock level, the Break enable Bit and the Polarity, the OSSR State,
     the OSSI State, the dead time value and the Automatic Output Enable Bit */

  /* Set the BDTR bits */
  MODIFY_REG(tmpbdtr, TIM_BDTR_DTG, sBreakDeadTimeConfig->DeadTime);
  MODIFY_REG(tmpbdtr, TIM_BDTR_LOCK, sBreakDeadTimeConfig->LockLevel);
 8005836:	68cb      	ldr	r3, [r1, #12]
 8005838:	4c0f      	ldr	r4, [pc, #60]	@ (8005878 <HAL_TIMEx_ConfigBreakDeadTime+0x4c>)
 800583a:	4023      	ands	r3, r4
 800583c:	688c      	ldr	r4, [r1, #8]
 800583e:	4323      	orrs	r3, r4
  MODIFY_REG(tmpbdtr, TIM_BDTR_OSSI, sBreakDeadTimeConfig->OffStateIDLEMode);
 8005840:	4c0e      	ldr	r4, [pc, #56]	@ (800587c <HAL_TIMEx_ConfigBreakDeadTime+0x50>)
 8005842:	4023      	ands	r3, r4
 8005844:	684c      	ldr	r4, [r1, #4]
 8005846:	4323      	orrs	r3, r4
  MODIFY_REG(tmpbdtr, TIM_BDTR_OSSR, sBreakDeadTimeConfig->OffStateRunMode);
 8005848:	4c0d      	ldr	r4, [pc, #52]	@ (8005880 <HAL_TIMEx_ConfigBreakDeadTime+0x54>)
 800584a:	4023      	ands	r3, r4
 800584c:	680c      	ldr	r4, [r1, #0]
 800584e:	4323      	orrs	r3, r4
  MODIFY_REG(tmpbdtr, TIM_BDTR_BKE, sBreakDeadTimeConfig->BreakState);
 8005850:	4c0c      	ldr	r4, [pc, #48]	@ (8005884 <HAL_TIMEx_ConfigBreakDeadTime+0x58>)
 8005852:	4023      	ands	r3, r4
 8005854:	690c      	ldr	r4, [r1, #16]
 8005856:	4323      	orrs	r3, r4
  MODIFY_REG(tmpbdtr, TIM_BDTR_BKP, sBreakDeadTimeConfig->BreakPolarity);
 8005858:	4c0b      	ldr	r4, [pc, #44]	@ (8005888 <HAL_TIMEx_ConfigBreakDeadTime+0x5c>)
 800585a:	4023      	ands	r3, r4
 800585c:	694c      	ldr	r4, [r1, #20]
  MODIFY_REG(tmpbdtr, TIM_BDTR_AOE, sBreakDeadTimeConfig->AutomaticOutput);
 800585e:	69c9      	ldr	r1, [r1, #28]
  MODIFY_REG(tmpbdtr, TIM_BDTR_BKP, sBreakDeadTimeConfig->BreakPolarity);
 8005860:	4323      	orrs	r3, r4
  MODIFY_REG(tmpbdtr, TIM_BDTR_AOE, sBreakDeadTimeConfig->AutomaticOutput);
 8005862:	4c0a      	ldr	r4, [pc, #40]	@ (800588c <HAL_TIMEx_ConfigBreakDeadTime+0x60>)
 8005864:	4023      	ands	r3, r4
 8005866:	430b      	orrs	r3, r1


  /* Set TIMx_BDTR */
  htim->Instance->BDTR = tmpbdtr;
 8005868:	6801      	ldr	r1, [r0, #0]
 800586a:	644b      	str	r3, [r1, #68]	@ 0x44

  __HAL_UNLOCK(htim);
 800586c:	2300      	movs	r3, #0
 800586e:	5483      	strb	r3, [r0, r2]

  return HAL_OK;
 8005870:	2000      	movs	r0, #0
}
 8005872:	bd10      	pop	{r4, pc}
  __HAL_LOCK(htim);
 8005874:	2002      	movs	r0, #2
 8005876:	e7fc      	b.n	8005872 <HAL_TIMEx_ConfigBreakDeadTime+0x46>
 8005878:	fffffcff 	.word	0xfffffcff
 800587c:	fffffbff 	.word	0xfffffbff
 8005880:	fffff7ff 	.word	0xfffff7ff
 8005884:	ffffefff 	.word	0xffffefff
 8005888:	ffffdfff 	.word	0xffffdfff
 800588c:	ffffbfff 	.word	0xffffbfff

08005890 <USB_EnableGlobalInt>:
HAL_StatusTypeDef USB_EnableGlobalInt(USB_TypeDef *USBx)
{
  uint32_t winterruptmask;

  /* Clear pending interrupts */
  USBx->ISTR = 0U;
 8005890:	2344      	movs	r3, #68	@ 0x44
 8005892:	2200      	movs	r2, #0
 8005894:	52c2      	strh	r2, [r0, r3]
                   USB_CNTR_SUSPM | USB_CNTR_ERRM |
                   USB_CNTR_SOFM | USB_CNTR_ESOFM |
                   USB_CNTR_RESETM | USB_CNTR_L1REQM;

  /* Set interrupt mask */
  USBx->CNTR = (uint16_t)winterruptmask;
 8005896:	4a02      	ldr	r2, [pc, #8]	@ (80058a0 <USB_EnableGlobalInt+0x10>)
 8005898:	3b04      	subs	r3, #4
 800589a:	52c2      	strh	r2, [r0, r3]

  return HAL_OK;
}
 800589c:	2000      	movs	r0, #0
 800589e:	4770      	bx	lr
 80058a0:	ffffbf80 	.word	0xffffbf80

080058a4 <USB_DisableGlobalInt>:
                   USB_CNTR_SUSPM | USB_CNTR_ERRM |
                   USB_CNTR_SOFM | USB_CNTR_ESOFM |
                   USB_CNTR_RESETM | USB_CNTR_L1REQM;

  /* Clear interrupt mask */
  USBx->CNTR &= (uint16_t)(~winterruptmask);
 80058a4:	2240      	movs	r2, #64	@ 0x40
 80058a6:	5a83      	ldrh	r3, [r0, r2]
 80058a8:	4902      	ldr	r1, [pc, #8]	@ (80058b4 <USB_DisableGlobalInt+0x10>)
 80058aa:	400b      	ands	r3, r1
 80058ac:	5283      	strh	r3, [r0, r2]

  return HAL_OK;
}
 80058ae:	2000      	movs	r0, #0
 80058b0:	4770      	bx	lr
 80058b2:	46c0      	nop			@ (mov r8, r8)
 80058b4:	0000407f 	.word	0x0000407f

080058b8 <USB_DevInit>:
  /* Prevent unused argument(s) compilation warning */
  UNUSED(cfg);

  /* Init Device */
  /* CNTR_FRES = 1 */
  USBx->CNTR = (uint16_t)USB_CNTR_FRES;
 80058b8:	2240      	movs	r2, #64	@ 0x40
 80058ba:	2301      	movs	r3, #1
 80058bc:	5283      	strh	r3, [r0, r2]

  /* CNTR_FRES = 0 */
  USBx->CNTR = 0U;
 80058be:	2300      	movs	r3, #0
 80058c0:	5283      	strh	r3, [r0, r2]

  /* Clear pending interrupts */
  USBx->ISTR = 0U;
 80058c2:	3204      	adds	r2, #4
 80058c4:	5283      	strh	r3, [r0, r2]

  /*Set Btable Address*/
  USBx->BTABLE = BTABLE_ADDRESS;
 80058c6:	320c      	adds	r2, #12
 80058c8:	5283      	strh	r3, [r0, r2]

  return HAL_OK;
}
 80058ca:	2000      	movs	r0, #0
{
 80058cc:	b082      	sub	sp, #8
}
 80058ce:	b002      	add	sp, #8
 80058d0:	4770      	bx	lr
 80058d2:	46c0      	nop			@ (mov r8, r8)

080058d4 <USB_ActivateEndpoint>:
  * @param  USBx Selected device
  * @param  ep pointer to endpoint structure
  * @retval HAL status
  */
HAL_StatusTypeDef USB_ActivateEndpoint(USB_TypeDef *USBx, USB_EPTypeDef *ep)
{
 80058d4:	b5f0      	push	{r4, r5, r6, r7, lr}
 80058d6:	46ce      	mov	lr, r9
 80058d8:	4647      	mov	r7, r8
 80058da:	b580      	push	{r7, lr}
  HAL_StatusTypeDef ret = HAL_OK;
  uint16_t wEpRegVal;

  wEpRegVal = PCD_GET_ENDPOINT(USBx, ep->num) & USB_EP_T_MASK;
 80058dc:	780d      	ldrb	r5, [r1, #0]
{
 80058de:	0004      	movs	r4, r0
  wEpRegVal = PCD_GET_ENDPOINT(USBx, ep->num) & USB_EP_T_MASK;
 80058e0:	00ab      	lsls	r3, r5, #2
 80058e2:	18c3      	adds	r3, r0, r3
 80058e4:	881a      	ldrh	r2, [r3, #0]
 80058e6:	489d      	ldr	r0, [pc, #628]	@ (8005b5c <USB_ActivateEndpoint+0x288>)

  /* initialize Endpoint */
  switch (ep->type)
 80058e8:	78ce      	ldrb	r6, [r1, #3]
  wEpRegVal = PCD_GET_ENDPOINT(USBx, ep->num) & USB_EP_T_MASK;
 80058ea:	4002      	ands	r2, r0
  switch (ep->type)
 80058ec:	2e02      	cmp	r6, #2
 80058ee:	d100      	bne.n	80058f2 <USB_ActivateEndpoint+0x1e>
 80058f0:	e110      	b.n	8005b14 <USB_ActivateEndpoint+0x240>
 80058f2:	d856      	bhi.n	80059a2 <USB_ActivateEndpoint+0xce>
 80058f4:	2e00      	cmp	r6, #0
 80058f6:	d100      	bne.n	80058fa <USB_ActivateEndpoint+0x26>
 80058f8:	e0ed      	b.n	8005ad6 <USB_ActivateEndpoint+0x202>
    case EP_TYPE_INTR:
      wEpRegVal |= USB_EP_INTERRUPT;
      break;

    case EP_TYPE_ISOC:
      wEpRegVal |= USB_EP_ISOCHRONOUS;
 80058fa:	2080      	movs	r0, #128	@ 0x80
 80058fc:	00c0      	lsls	r0, r0, #3
 80058fe:	4302      	orrs	r2, r0
    default:
      ret = HAL_ERROR;
      break;
  }

  PCD_SET_ENDPOINT(USBx, ep->num, (wEpRegVal | USB_EP_CTR_RX | USB_EP_CTR_TX));
 8005900:	4897      	ldr	r0, [pc, #604]	@ (8005b60 <USB_ActivateEndpoint+0x28c>)

  PCD_SET_EP_ADDRESS(USBx, ep->num, ep->num);
 8005902:	4f98      	ldr	r7, [pc, #608]	@ (8005b64 <USB_ActivateEndpoint+0x290>)
  PCD_SET_ENDPOINT(USBx, ep->num, (wEpRegVal | USB_EP_CTR_RX | USB_EP_CTR_TX));
 8005904:	4302      	orrs	r2, r0
 8005906:	b292      	uxth	r2, r2
 8005908:	801a      	strh	r2, [r3, #0]
  PCD_SET_EP_ADDRESS(USBx, ep->num, ep->num);
 800590a:	881a      	ldrh	r2, [r3, #0]
 800590c:	403a      	ands	r2, r7
 800590e:	432a      	orrs	r2, r5
 8005910:	4310      	orrs	r0, r2
 8005912:	b280      	uxth	r0, r0
 8005914:	8018      	strh	r0, [r3, #0]

  if (ep->doublebuffer == 0U)
 8005916:	7b0a      	ldrb	r2, [r1, #12]
 8005918:	2000      	movs	r0, #0
 800591a:	2a00      	cmp	r2, #0
 800591c:	d047      	beq.n	80059ae <USB_ActivateEndpoint+0xda>
      PCD_SET_BULK_EP_DBUF(USBx, ep->num);
    }
    else
    {
      /* Set the ISOC endpoint in double buffer mode */
      PCD_CLEAR_EP_KIND(USBx, ep->num);
 800591e:	881a      	ldrh	r2, [r3, #0]
 8005920:	4f91      	ldr	r7, [pc, #580]	@ (8005b68 <USB_ActivateEndpoint+0x294>)
 8005922:	403a      	ands	r2, r7
 8005924:	4f91      	ldr	r7, [pc, #580]	@ (8005b6c <USB_ActivateEndpoint+0x298>)
 8005926:	433a      	orrs	r2, r7
 8005928:	801a      	strh	r2, [r3, #0]
    }

    /* Set buffer address for double buffered mode */
    PCD_SET_EP_DBUF_ADDR(USBx, ep->num, ep->pmaaddr0, ep->pmaaddr1);
 800592a:	2780      	movs	r7, #128	@ 0x80
 800592c:	2250      	movs	r2, #80	@ 0x50
 800592e:	00ff      	lsls	r7, r7, #3
 8005930:	46b8      	mov	r8, r7
 8005932:	4694      	mov	ip, r2
 8005934:	890f      	ldrh	r7, [r1, #8]
 8005936:	5aa2      	ldrh	r2, [r4, r2]
 8005938:	00ed      	lsls	r5, r5, #3
 800593a:	1965      	adds	r5, r4, r5
 800593c:	1952      	adds	r2, r2, r5
 800593e:	087f      	lsrs	r7, r7, #1
 8005940:	4442      	add	r2, r8
 8005942:	007f      	lsls	r7, r7, #1
 8005944:	8017      	strh	r7, [r2, #0]
 8005946:	4662      	mov	r2, ip
 8005948:	5aa2      	ldrh	r2, [r4, r2]
 800594a:	4c89      	ldr	r4, [pc, #548]	@ (8005b70 <USB_ActivateEndpoint+0x29c>)
 800594c:	1952      	adds	r2, r2, r5
 800594e:	46a4      	mov	ip, r4
 8005950:	894c      	ldrh	r4, [r1, #10]
 8005952:	4462      	add	r2, ip
 8005954:	0864      	lsrs	r4, r4, #1
 8005956:	0064      	lsls	r4, r4, #1
 8005958:	8014      	strh	r4, [r2, #0]

    if (ep->is_in == 0U)
 800595a:	784a      	ldrb	r2, [r1, #1]
 800595c:	2a00      	cmp	r2, #0
 800595e:	d15f      	bne.n	8005a20 <USB_ActivateEndpoint+0x14c>
    {
      /* Clear the data toggle bits for the endpoint IN/OUT */
      PCD_CLEAR_RX_DTOG(USBx, ep->num);
 8005960:	881a      	ldrh	r2, [r3, #0]
 8005962:	0452      	lsls	r2, r2, #17
 8005964:	d505      	bpl.n	8005972 <USB_ActivateEndpoint+0x9e>
 8005966:	881a      	ldrh	r2, [r3, #0]
 8005968:	497e      	ldr	r1, [pc, #504]	@ (8005b64 <USB_ActivateEndpoint+0x290>)
 800596a:	400a      	ands	r2, r1
 800596c:	4981      	ldr	r1, [pc, #516]	@ (8005b74 <USB_ActivateEndpoint+0x2a0>)
 800596e:	430a      	orrs	r2, r1
 8005970:	801a      	strh	r2, [r3, #0]
      PCD_CLEAR_TX_DTOG(USBx, ep->num);
 8005972:	881a      	ldrh	r2, [r3, #0]
 8005974:	0652      	lsls	r2, r2, #25
 8005976:	d500      	bpl.n	800597a <USB_ActivateEndpoint+0xa6>
 8005978:	e0b1      	b.n	8005ade <USB_ActivateEndpoint+0x20a>

      PCD_SET_EP_RX_STATUS(USBx, ep->num, USB_EP_RX_VALID);
 800597a:	8819      	ldrh	r1, [r3, #0]
 800597c:	4a7e      	ldr	r2, [pc, #504]	@ (8005b78 <USB_ActivateEndpoint+0x2a4>)
      PCD_SET_EP_TX_STATUS(USBx, ep->num, USB_EP_TX_DIS);
 800597e:	4c7f      	ldr	r4, [pc, #508]	@ (8005b7c <USB_ActivateEndpoint+0x2a8>)
      PCD_SET_EP_RX_STATUS(USBx, ep->num, USB_EP_RX_VALID);
 8005980:	4011      	ands	r1, r2
 8005982:	22c0      	movs	r2, #192	@ 0xc0
 8005984:	0192      	lsls	r2, r2, #6
 8005986:	404a      	eors	r2, r1
 8005988:	4975      	ldr	r1, [pc, #468]	@ (8005b60 <USB_ActivateEndpoint+0x28c>)
 800598a:	430a      	orrs	r2, r1
 800598c:	b292      	uxth	r2, r2
 800598e:	801a      	strh	r2, [r3, #0]
      PCD_SET_EP_TX_STATUS(USBx, ep->num, USB_EP_TX_DIS);
 8005990:	881a      	ldrh	r2, [r3, #0]
 8005992:	4022      	ands	r2, r4
 8005994:	4311      	orrs	r1, r2
 8005996:	b289      	uxth	r1, r1
 8005998:	8019      	strh	r1, [r3, #0]
    }
  }
#endif /* (USE_USB_DOUBLE_BUFFER == 1U) */

  return ret;
}
 800599a:	bcc0      	pop	{r6, r7}
 800599c:	46b9      	mov	r9, r7
 800599e:	46b0      	mov	r8, r6
 80059a0:	bdf0      	pop	{r4, r5, r6, r7, pc}
  switch (ep->type)
 80059a2:	2e03      	cmp	r6, #3
 80059a4:	d12c      	bne.n	8005a00 <USB_ActivateEndpoint+0x12c>
      wEpRegVal |= USB_EP_INTERRUPT;
 80059a6:	20c0      	movs	r0, #192	@ 0xc0
 80059a8:	00c0      	lsls	r0, r0, #3
 80059aa:	4302      	orrs	r2, r0
      break;
 80059ac:	e7a8      	b.n	8005900 <USB_ActivateEndpoint+0x2c>
  if (ep->doublebuffer == 0U)
 80059ae:	2000      	movs	r0, #0
      PCD_SET_EP_TX_ADDRESS(USBx, ep->num, ep->pmaadress);
 80059b0:	88ca      	ldrh	r2, [r1, #6]
 80059b2:	00ef      	lsls	r7, r5, #3
 80059b4:	0852      	lsrs	r2, r2, #1
 80059b6:	0052      	lsls	r2, r2, #1
 80059b8:	4691      	mov	r9, r2
    if (ep->is_in != 0U)
 80059ba:	784a      	ldrb	r2, [r1, #1]
 80059bc:	19e7      	adds	r7, r4, r7
 80059be:	2a00      	cmp	r2, #0
 80059c0:	d052      	beq.n	8005a68 <USB_ActivateEndpoint+0x194>
      PCD_SET_EP_TX_ADDRESS(USBx, ep->num, ep->pmaadress);
 80059c2:	2280      	movs	r2, #128	@ 0x80
 80059c4:	2150      	movs	r1, #80	@ 0x50
 80059c6:	00d2      	lsls	r2, r2, #3
 80059c8:	4694      	mov	ip, r2
 80059ca:	464a      	mov	r2, r9
 80059cc:	5a61      	ldrh	r1, [r4, r1]
 80059ce:	19c9      	adds	r1, r1, r7
 80059d0:	4461      	add	r1, ip
 80059d2:	800a      	strh	r2, [r1, #0]
      PCD_CLEAR_TX_DTOG(USBx, ep->num);
 80059d4:	881a      	ldrh	r2, [r3, #0]
 80059d6:	0652      	lsls	r2, r2, #25
 80059d8:	d505      	bpl.n	80059e6 <USB_ActivateEndpoint+0x112>
 80059da:	881a      	ldrh	r2, [r3, #0]
 80059dc:	4961      	ldr	r1, [pc, #388]	@ (8005b64 <USB_ActivateEndpoint+0x290>)
 80059de:	400a      	ands	r2, r1
 80059e0:	4967      	ldr	r1, [pc, #412]	@ (8005b80 <USB_ActivateEndpoint+0x2ac>)
 80059e2:	430a      	orrs	r2, r1
 80059e4:	801a      	strh	r2, [r3, #0]
      if (ep->type != EP_TYPE_ISOC)
 80059e6:	2e01      	cmp	r6, #1
 80059e8:	d100      	bne.n	80059ec <USB_ActivateEndpoint+0x118>
 80059ea:	e08c      	b.n	8005b06 <USB_ActivateEndpoint+0x232>
        PCD_SET_EP_TX_STATUS(USBx, ep->num, USB_EP_TX_NAK);
 80059ec:	8819      	ldrh	r1, [r3, #0]
 80059ee:	4a63      	ldr	r2, [pc, #396]	@ (8005b7c <USB_ActivateEndpoint+0x2a8>)
 80059f0:	4011      	ands	r1, r2
 80059f2:	2220      	movs	r2, #32
 80059f4:	4051      	eors	r1, r2
 80059f6:	4a5a      	ldr	r2, [pc, #360]	@ (8005b60 <USB_ActivateEndpoint+0x28c>)
 80059f8:	430a      	orrs	r2, r1
 80059fa:	b292      	uxth	r2, r2
 80059fc:	801a      	strh	r2, [r3, #0]
 80059fe:	e7cc      	b.n	800599a <USB_ActivateEndpoint+0xc6>
  PCD_SET_ENDPOINT(USBx, ep->num, (wEpRegVal | USB_EP_CTR_RX | USB_EP_CTR_TX));
 8005a00:	4857      	ldr	r0, [pc, #348]	@ (8005b60 <USB_ActivateEndpoint+0x28c>)
  PCD_SET_EP_ADDRESS(USBx, ep->num, ep->num);
 8005a02:	4f58      	ldr	r7, [pc, #352]	@ (8005b64 <USB_ActivateEndpoint+0x290>)
  PCD_SET_ENDPOINT(USBx, ep->num, (wEpRegVal | USB_EP_CTR_RX | USB_EP_CTR_TX));
 8005a04:	4302      	orrs	r2, r0
 8005a06:	b292      	uxth	r2, r2
 8005a08:	801a      	strh	r2, [r3, #0]
  PCD_SET_EP_ADDRESS(USBx, ep->num, ep->num);
 8005a0a:	881a      	ldrh	r2, [r3, #0]
 8005a0c:	403a      	ands	r2, r7
 8005a0e:	432a      	orrs	r2, r5
 8005a10:	4310      	orrs	r0, r2
 8005a12:	b280      	uxth	r0, r0
 8005a14:	8018      	strh	r0, [r3, #0]
  if (ep->doublebuffer == 0U)
 8005a16:	7b0a      	ldrb	r2, [r1, #12]
 8005a18:	2001      	movs	r0, #1
 8005a1a:	2a00      	cmp	r2, #0
 8005a1c:	d0c8      	beq.n	80059b0 <USB_ActivateEndpoint+0xdc>
 8005a1e:	e77e      	b.n	800591e <USB_ActivateEndpoint+0x4a>
      PCD_CLEAR_RX_DTOG(USBx, ep->num);
 8005a20:	881a      	ldrh	r2, [r3, #0]
 8005a22:	0452      	lsls	r2, r2, #17
 8005a24:	d505      	bpl.n	8005a32 <USB_ActivateEndpoint+0x15e>
 8005a26:	881a      	ldrh	r2, [r3, #0]
 8005a28:	494e      	ldr	r1, [pc, #312]	@ (8005b64 <USB_ActivateEndpoint+0x290>)
 8005a2a:	400a      	ands	r2, r1
 8005a2c:	4951      	ldr	r1, [pc, #324]	@ (8005b74 <USB_ActivateEndpoint+0x2a0>)
 8005a2e:	430a      	orrs	r2, r1
 8005a30:	801a      	strh	r2, [r3, #0]
      PCD_CLEAR_TX_DTOG(USBx, ep->num);
 8005a32:	881a      	ldrh	r2, [r3, #0]
 8005a34:	0652      	lsls	r2, r2, #25
 8005a36:	d505      	bpl.n	8005a44 <USB_ActivateEndpoint+0x170>
 8005a38:	881a      	ldrh	r2, [r3, #0]
 8005a3a:	494a      	ldr	r1, [pc, #296]	@ (8005b64 <USB_ActivateEndpoint+0x290>)
 8005a3c:	400a      	ands	r2, r1
 8005a3e:	4950      	ldr	r1, [pc, #320]	@ (8005b80 <USB_ActivateEndpoint+0x2ac>)
 8005a40:	430a      	orrs	r2, r1
 8005a42:	801a      	strh	r2, [r3, #0]
      if (ep->type != EP_TYPE_ISOC)
 8005a44:	2e01      	cmp	r6, #1
 8005a46:	d057      	beq.n	8005af8 <USB_ActivateEndpoint+0x224>
        PCD_SET_EP_TX_STATUS(USBx, ep->num, USB_EP_TX_NAK);
 8005a48:	8819      	ldrh	r1, [r3, #0]
 8005a4a:	4a4c      	ldr	r2, [pc, #304]	@ (8005b7c <USB_ActivateEndpoint+0x2a8>)
 8005a4c:	4011      	ands	r1, r2
 8005a4e:	2220      	movs	r2, #32
 8005a50:	4051      	eors	r1, r2
 8005a52:	4a43      	ldr	r2, [pc, #268]	@ (8005b60 <USB_ActivateEndpoint+0x28c>)
 8005a54:	430a      	orrs	r2, r1
 8005a56:	b292      	uxth	r2, r2
 8005a58:	801a      	strh	r2, [r3, #0]
      PCD_SET_EP_RX_STATUS(USBx, ep->num, USB_EP_RX_DIS);
 8005a5a:	881a      	ldrh	r2, [r3, #0]
 8005a5c:	4946      	ldr	r1, [pc, #280]	@ (8005b78 <USB_ActivateEndpoint+0x2a4>)
 8005a5e:	400a      	ands	r2, r1
 8005a60:	4942      	ldr	r1, [pc, #264]	@ (8005b6c <USB_ActivateEndpoint+0x298>)
 8005a62:	430a      	orrs	r2, r1
 8005a64:	801a      	strh	r2, [r3, #0]
  return ret;
 8005a66:	e798      	b.n	800599a <USB_ActivateEndpoint+0xc6>
      PCD_SET_EP_RX_ADDRESS(USBx, ep->num, ep->pmaadress);
 8005a68:	2250      	movs	r2, #80	@ 0x50
 8005a6a:	5aa6      	ldrh	r6, [r4, r2]
 8005a6c:	4694      	mov	ip, r2
 8005a6e:	4a40      	ldr	r2, [pc, #256]	@ (8005b70 <USB_ActivateEndpoint+0x29c>)
 8005a70:	19f6      	adds	r6, r6, r7
 8005a72:	4690      	mov	r8, r2
 8005a74:	464a      	mov	r2, r9
 8005a76:	4446      	add	r6, r8
 8005a78:	8032      	strh	r2, [r6, #0]
      PCD_SET_EP_RX_CNT(USBx, ep->num, ep->maxpacket);
 8005a7a:	4662      	mov	r2, ip
 8005a7c:	5aa2      	ldrh	r2, [r4, r2]
 8005a7e:	4c41      	ldr	r4, [pc, #260]	@ (8005b84 <USB_ActivateEndpoint+0x2b0>)
 8005a80:	19d2      	adds	r2, r2, r7
 8005a82:	46a4      	mov	ip, r4
 8005a84:	4462      	add	r2, ip
 8005a86:	8814      	ldrh	r4, [r2, #0]
 8005a88:	6909      	ldr	r1, [r1, #16]
 8005a8a:	05a4      	lsls	r4, r4, #22
 8005a8c:	0da4      	lsrs	r4, r4, #22
 8005a8e:	8014      	strh	r4, [r2, #0]
 8005a90:	2900      	cmp	r1, #0
 8005a92:	d02b      	beq.n	8005aec <USB_ActivateEndpoint+0x218>
 8005a94:	293e      	cmp	r1, #62	@ 0x3e
 8005a96:	d853      	bhi.n	8005b40 <USB_ActivateEndpoint+0x26c>
 8005a98:	2601      	movs	r6, #1
 8005a9a:	084c      	lsrs	r4, r1, #1
 8005a9c:	4031      	ands	r1, r6
 8005a9e:	1864      	adds	r4, r4, r1
 8005aa0:	8811      	ldrh	r1, [r2, #0]
 8005aa2:	02a4      	lsls	r4, r4, #10
 8005aa4:	4321      	orrs	r1, r4
 8005aa6:	b289      	uxth	r1, r1
 8005aa8:	8011      	strh	r1, [r2, #0]
      PCD_CLEAR_RX_DTOG(USBx, ep->num);
 8005aaa:	881a      	ldrh	r2, [r3, #0]
 8005aac:	0452      	lsls	r2, r2, #17
 8005aae:	d505      	bpl.n	8005abc <USB_ActivateEndpoint+0x1e8>
 8005ab0:	881a      	ldrh	r2, [r3, #0]
 8005ab2:	492c      	ldr	r1, [pc, #176]	@ (8005b64 <USB_ActivateEndpoint+0x290>)
 8005ab4:	400a      	ands	r2, r1
 8005ab6:	492f      	ldr	r1, [pc, #188]	@ (8005b74 <USB_ActivateEndpoint+0x2a0>)
 8005ab8:	430a      	orrs	r2, r1
 8005aba:	801a      	strh	r2, [r3, #0]
        PCD_SET_EP_RX_STATUS(USBx, ep->num, USB_EP_RX_VALID);
 8005abc:	4a2e      	ldr	r2, [pc, #184]	@ (8005b78 <USB_ActivateEndpoint+0x2a4>)
 8005abe:	8819      	ldrh	r1, [r3, #0]
 8005ac0:	4011      	ands	r1, r2
 8005ac2:	22c0      	movs	r2, #192	@ 0xc0
      if (ep->num == 0U)
 8005ac4:	2d00      	cmp	r5, #0
 8005ac6:	d000      	beq.n	8005aca <USB_ActivateEndpoint+0x1f6>
        PCD_SET_EP_RX_STATUS(USBx, ep->num, USB_EP_RX_NAK);
 8005ac8:	2280      	movs	r2, #128	@ 0x80
 8005aca:	0192      	lsls	r2, r2, #6
 8005acc:	404a      	eors	r2, r1
 8005ace:	4927      	ldr	r1, [pc, #156]	@ (8005b6c <USB_ActivateEndpoint+0x298>)
 8005ad0:	430a      	orrs	r2, r1
 8005ad2:	801a      	strh	r2, [r3, #0]
 8005ad4:	e761      	b.n	800599a <USB_ActivateEndpoint+0xc6>
      wEpRegVal |= USB_EP_CONTROL;
 8005ad6:	2080      	movs	r0, #128	@ 0x80
 8005ad8:	0080      	lsls	r0, r0, #2
 8005ada:	4302      	orrs	r2, r0
      break;
 8005adc:	e710      	b.n	8005900 <USB_ActivateEndpoint+0x2c>
      PCD_CLEAR_TX_DTOG(USBx, ep->num);
 8005ade:	881a      	ldrh	r2, [r3, #0]
 8005ae0:	4920      	ldr	r1, [pc, #128]	@ (8005b64 <USB_ActivateEndpoint+0x290>)
 8005ae2:	400a      	ands	r2, r1
 8005ae4:	4926      	ldr	r1, [pc, #152]	@ (8005b80 <USB_ActivateEndpoint+0x2ac>)
 8005ae6:	430a      	orrs	r2, r1
 8005ae8:	801a      	strh	r2, [r3, #0]
 8005aea:	e746      	b.n	800597a <USB_ActivateEndpoint+0xa6>
      PCD_SET_EP_RX_CNT(USBx, ep->num, ep->maxpacket);
 8005aec:	2480      	movs	r4, #128	@ 0x80
 8005aee:	8811      	ldrh	r1, [r2, #0]
 8005af0:	0224      	lsls	r4, r4, #8
 8005af2:	4321      	orrs	r1, r4
 8005af4:	8011      	strh	r1, [r2, #0]
 8005af6:	e7d8      	b.n	8005aaa <USB_ActivateEndpoint+0x1d6>
        PCD_SET_EP_TX_STATUS(USBx, ep->num, USB_EP_TX_DIS);
 8005af8:	881a      	ldrh	r2, [r3, #0]
 8005afa:	4920      	ldr	r1, [pc, #128]	@ (8005b7c <USB_ActivateEndpoint+0x2a8>)
 8005afc:	400a      	ands	r2, r1
 8005afe:	491b      	ldr	r1, [pc, #108]	@ (8005b6c <USB_ActivateEndpoint+0x298>)
 8005b00:	430a      	orrs	r2, r1
 8005b02:	801a      	strh	r2, [r3, #0]
 8005b04:	e7a9      	b.n	8005a5a <USB_ActivateEndpoint+0x186>
        PCD_SET_EP_TX_STATUS(USBx, ep->num, USB_EP_TX_DIS);
 8005b06:	881a      	ldrh	r2, [r3, #0]
 8005b08:	491c      	ldr	r1, [pc, #112]	@ (8005b7c <USB_ActivateEndpoint+0x2a8>)
 8005b0a:	400a      	ands	r2, r1
 8005b0c:	4917      	ldr	r1, [pc, #92]	@ (8005b6c <USB_ActivateEndpoint+0x298>)
 8005b0e:	430a      	orrs	r2, r1
 8005b10:	801a      	strh	r2, [r3, #0]
 8005b12:	e742      	b.n	800599a <USB_ActivateEndpoint+0xc6>
  PCD_SET_ENDPOINT(USBx, ep->num, (wEpRegVal | USB_EP_CTR_RX | USB_EP_CTR_TX));
 8005b14:	4812      	ldr	r0, [pc, #72]	@ (8005b60 <USB_ActivateEndpoint+0x28c>)
  PCD_SET_EP_ADDRESS(USBx, ep->num, ep->num);
 8005b16:	4f13      	ldr	r7, [pc, #76]	@ (8005b64 <USB_ActivateEndpoint+0x290>)
  PCD_SET_ENDPOINT(USBx, ep->num, (wEpRegVal | USB_EP_CTR_RX | USB_EP_CTR_TX));
 8005b18:	4302      	orrs	r2, r0
 8005b1a:	b292      	uxth	r2, r2
 8005b1c:	801a      	strh	r2, [r3, #0]
  PCD_SET_EP_ADDRESS(USBx, ep->num, ep->num);
 8005b1e:	881a      	ldrh	r2, [r3, #0]
 8005b20:	403a      	ands	r2, r7
 8005b22:	432a      	orrs	r2, r5
 8005b24:	4310      	orrs	r0, r2
 8005b26:	b280      	uxth	r0, r0
 8005b28:	8018      	strh	r0, [r3, #0]
  if (ep->doublebuffer == 0U)
 8005b2a:	7b0a      	ldrb	r2, [r1, #12]
 8005b2c:	2a00      	cmp	r2, #0
 8005b2e:	d100      	bne.n	8005b32 <USB_ActivateEndpoint+0x25e>
 8005b30:	e73d      	b.n	80059ae <USB_ActivateEndpoint+0xda>
      PCD_SET_BULK_EP_DBUF(USBx, ep->num);
 8005b32:	881a      	ldrh	r2, [r3, #0]
 8005b34:	4814      	ldr	r0, [pc, #80]	@ (8005b88 <USB_ActivateEndpoint+0x2b4>)
 8005b36:	403a      	ands	r2, r7
 8005b38:	4302      	orrs	r2, r0
 8005b3a:	801a      	strh	r2, [r3, #0]
  HAL_StatusTypeDef ret = HAL_OK;
 8005b3c:	2000      	movs	r0, #0
 8005b3e:	e6f4      	b.n	800592a <USB_ActivateEndpoint+0x56>
      PCD_SET_EP_RX_CNT(USBx, ep->num, ep->maxpacket);
 8005b40:	261f      	movs	r6, #31
 8005b42:	094c      	lsrs	r4, r1, #5
 8005b44:	4031      	ands	r1, r6
 8005b46:	424e      	negs	r6, r1
 8005b48:	4171      	adcs	r1, r6
 8005b4a:	1a64      	subs	r4, r4, r1
 8005b4c:	8811      	ldrh	r1, [r2, #0]
 8005b4e:	02a4      	lsls	r4, r4, #10
 8005b50:	430c      	orrs	r4, r1
 8005b52:	490e      	ldr	r1, [pc, #56]	@ (8005b8c <USB_ActivateEndpoint+0x2b8>)
 8005b54:	4321      	orrs	r1, r4
 8005b56:	b289      	uxth	r1, r1
 8005b58:	8011      	strh	r1, [r2, #0]
 8005b5a:	e7a6      	b.n	8005aaa <USB_ActivateEndpoint+0x1d6>
 8005b5c:	ffff898f 	.word	0xffff898f
 8005b60:	ffff8080 	.word	0xffff8080
 8005b64:	ffff8f8f 	.word	0xffff8f8f
 8005b68:	ffff8e8f 	.word	0xffff8e8f
 8005b6c:	00008080 	.word	0x00008080
 8005b70:	00000404 	.word	0x00000404
 8005b74:	0000c080 	.word	0x0000c080
 8005b78:	ffffbf8f 	.word	0xffffbf8f
 8005b7c:	ffff8fbf 	.word	0xffff8fbf
 8005b80:	000080c0 	.word	0x000080c0
 8005b84:	00000406 	.word	0x00000406
 8005b88:	00008180 	.word	0x00008180
 8005b8c:	ffff8000 	.word	0xffff8000

08005b90 <USB_DeactivateEndpoint>:
{
  if (ep->doublebuffer == 0U)
  {
    if (ep->is_in != 0U)
    {
      PCD_CLEAR_TX_DTOG(USBx, ep->num);
 8005b90:	780b      	ldrb	r3, [r1, #0]
    if (ep->is_in != 0U)
 8005b92:	784a      	ldrb	r2, [r1, #1]
      PCD_CLEAR_TX_DTOG(USBx, ep->num);
 8005b94:	009b      	lsls	r3, r3, #2
 8005b96:	18c0      	adds	r0, r0, r3
  if (ep->doublebuffer == 0U)
 8005b98:	7b0b      	ldrb	r3, [r1, #12]
 8005b9a:	2b00      	cmp	r3, #0
 8005b9c:	d10d      	bne.n	8005bba <USB_DeactivateEndpoint+0x2a>
      PCD_CLEAR_TX_DTOG(USBx, ep->num);
 8005b9e:	8803      	ldrh	r3, [r0, #0]
    if (ep->is_in != 0U)
 8005ba0:	2a00      	cmp	r2, #0
 8005ba2:	d057      	beq.n	8005c54 <USB_DeactivateEndpoint+0xc4>
      PCD_CLEAR_TX_DTOG(USBx, ep->num);
 8005ba4:	065b      	lsls	r3, r3, #25
 8005ba6:	d500      	bpl.n	8005baa <USB_DeactivateEndpoint+0x1a>
 8005ba8:	e063      	b.n	8005c72 <USB_DeactivateEndpoint+0xe2>

      /* Configure DISABLE status for the Endpoint */
      PCD_SET_EP_TX_STATUS(USBx, ep->num, USB_EP_TX_DIS);
 8005baa:	8803      	ldrh	r3, [r0, #0]
 8005bac:	4a34      	ldr	r2, [pc, #208]	@ (8005c80 <USB_DeactivateEndpoint+0xf0>)
 8005bae:	4013      	ands	r3, r2
 8005bb0:	4a34      	ldr	r2, [pc, #208]	@ (8005c84 <USB_DeactivateEndpoint+0xf4>)
 8005bb2:	4313      	orrs	r3, r2
 8005bb4:	8003      	strh	r3, [r0, #0]
    }
  }
#endif /* (USE_USB_DOUBLE_BUFFER == 1U) */

  return HAL_OK;
}
 8005bb6:	2000      	movs	r0, #0
 8005bb8:	4770      	bx	lr
      PCD_CLEAR_RX_DTOG(USBx, ep->num);
 8005bba:	8803      	ldrh	r3, [r0, #0]
    if (ep->is_in == 0U)
 8005bbc:	2a00      	cmp	r2, #0
 8005bbe:	d124      	bne.n	8005c0a <USB_DeactivateEndpoint+0x7a>
      PCD_CLEAR_RX_DTOG(USBx, ep->num);
 8005bc0:	045b      	lsls	r3, r3, #17
 8005bc2:	d505      	bpl.n	8005bd0 <USB_DeactivateEndpoint+0x40>
 8005bc4:	8803      	ldrh	r3, [r0, #0]
 8005bc6:	4a30      	ldr	r2, [pc, #192]	@ (8005c88 <USB_DeactivateEndpoint+0xf8>)
 8005bc8:	4013      	ands	r3, r2
 8005bca:	4a30      	ldr	r2, [pc, #192]	@ (8005c8c <USB_DeactivateEndpoint+0xfc>)
 8005bcc:	4313      	orrs	r3, r2
 8005bce:	8003      	strh	r3, [r0, #0]
      PCD_CLEAR_TX_DTOG(USBx, ep->num);
 8005bd0:	8803      	ldrh	r3, [r0, #0]
 8005bd2:	065b      	lsls	r3, r3, #25
 8005bd4:	d505      	bpl.n	8005be2 <USB_DeactivateEndpoint+0x52>
 8005bd6:	8803      	ldrh	r3, [r0, #0]
 8005bd8:	4a2b      	ldr	r2, [pc, #172]	@ (8005c88 <USB_DeactivateEndpoint+0xf8>)
 8005bda:	4013      	ands	r3, r2
 8005bdc:	4a2c      	ldr	r2, [pc, #176]	@ (8005c90 <USB_DeactivateEndpoint+0x100>)
 8005bde:	4313      	orrs	r3, r2
 8005be0:	8003      	strh	r3, [r0, #0]
      PCD_TX_DTOG(USBx, ep->num);
 8005be2:	8803      	ldrh	r3, [r0, #0]
 8005be4:	4a28      	ldr	r2, [pc, #160]	@ (8005c88 <USB_DeactivateEndpoint+0xf8>)
      PCD_SET_EP_TX_STATUS(USBx, ep->num, USB_EP_TX_DIS);
 8005be6:	4926      	ldr	r1, [pc, #152]	@ (8005c80 <USB_DeactivateEndpoint+0xf0>)
      PCD_TX_DTOG(USBx, ep->num);
 8005be8:	4013      	ands	r3, r2
 8005bea:	4a29      	ldr	r2, [pc, #164]	@ (8005c90 <USB_DeactivateEndpoint+0x100>)
 8005bec:	4313      	orrs	r3, r2
 8005bee:	8003      	strh	r3, [r0, #0]
      PCD_SET_EP_RX_STATUS(USBx, ep->num, USB_EP_RX_DIS);
 8005bf0:	8803      	ldrh	r3, [r0, #0]
 8005bf2:	4a28      	ldr	r2, [pc, #160]	@ (8005c94 <USB_DeactivateEndpoint+0x104>)
 8005bf4:	4013      	ands	r3, r2
 8005bf6:	4a28      	ldr	r2, [pc, #160]	@ (8005c98 <USB_DeactivateEndpoint+0x108>)
 8005bf8:	4313      	orrs	r3, r2
 8005bfa:	b29b      	uxth	r3, r3
 8005bfc:	8003      	strh	r3, [r0, #0]
      PCD_SET_EP_TX_STATUS(USBx, ep->num, USB_EP_TX_DIS);
 8005bfe:	8803      	ldrh	r3, [r0, #0]
 8005c00:	400b      	ands	r3, r1
 8005c02:	431a      	orrs	r2, r3
 8005c04:	b292      	uxth	r2, r2
 8005c06:	8002      	strh	r2, [r0, #0]
 8005c08:	e7d5      	b.n	8005bb6 <USB_DeactivateEndpoint+0x26>
      PCD_CLEAR_RX_DTOG(USBx, ep->num);
 8005c0a:	045b      	lsls	r3, r3, #17
 8005c0c:	d505      	bpl.n	8005c1a <USB_DeactivateEndpoint+0x8a>
 8005c0e:	8803      	ldrh	r3, [r0, #0]
 8005c10:	4a1d      	ldr	r2, [pc, #116]	@ (8005c88 <USB_DeactivateEndpoint+0xf8>)
 8005c12:	4013      	ands	r3, r2
 8005c14:	4a1d      	ldr	r2, [pc, #116]	@ (8005c8c <USB_DeactivateEndpoint+0xfc>)
 8005c16:	4313      	orrs	r3, r2
 8005c18:	8003      	strh	r3, [r0, #0]
      PCD_CLEAR_TX_DTOG(USBx, ep->num);
 8005c1a:	8803      	ldrh	r3, [r0, #0]
 8005c1c:	065b      	lsls	r3, r3, #25
 8005c1e:	d505      	bpl.n	8005c2c <USB_DeactivateEndpoint+0x9c>
 8005c20:	8803      	ldrh	r3, [r0, #0]
 8005c22:	4a19      	ldr	r2, [pc, #100]	@ (8005c88 <USB_DeactivateEndpoint+0xf8>)
 8005c24:	4013      	ands	r3, r2
 8005c26:	4a1a      	ldr	r2, [pc, #104]	@ (8005c90 <USB_DeactivateEndpoint+0x100>)
 8005c28:	4313      	orrs	r3, r2
 8005c2a:	8003      	strh	r3, [r0, #0]
      PCD_RX_DTOG(USBx, ep->num);
 8005c2c:	8803      	ldrh	r3, [r0, #0]
 8005c2e:	4a16      	ldr	r2, [pc, #88]	@ (8005c88 <USB_DeactivateEndpoint+0xf8>)
      PCD_SET_EP_RX_STATUS(USBx, ep->num, USB_EP_RX_DIS);
 8005c30:	4918      	ldr	r1, [pc, #96]	@ (8005c94 <USB_DeactivateEndpoint+0x104>)
      PCD_RX_DTOG(USBx, ep->num);
 8005c32:	4013      	ands	r3, r2
 8005c34:	4a15      	ldr	r2, [pc, #84]	@ (8005c8c <USB_DeactivateEndpoint+0xfc>)
 8005c36:	4313      	orrs	r3, r2
 8005c38:	8003      	strh	r3, [r0, #0]
      PCD_SET_EP_TX_STATUS(USBx, ep->num, USB_EP_TX_DIS);
 8005c3a:	8803      	ldrh	r3, [r0, #0]
 8005c3c:	4a10      	ldr	r2, [pc, #64]	@ (8005c80 <USB_DeactivateEndpoint+0xf0>)
 8005c3e:	4013      	ands	r3, r2
 8005c40:	4a15      	ldr	r2, [pc, #84]	@ (8005c98 <USB_DeactivateEndpoint+0x108>)
 8005c42:	4313      	orrs	r3, r2
 8005c44:	b29b      	uxth	r3, r3
 8005c46:	8003      	strh	r3, [r0, #0]
      PCD_SET_EP_RX_STATUS(USBx, ep->num, USB_EP_RX_DIS);
 8005c48:	8803      	ldrh	r3, [r0, #0]
 8005c4a:	400b      	ands	r3, r1
 8005c4c:	431a      	orrs	r2, r3
 8005c4e:	b292      	uxth	r2, r2
 8005c50:	8002      	strh	r2, [r0, #0]
 8005c52:	e7b0      	b.n	8005bb6 <USB_DeactivateEndpoint+0x26>
      PCD_CLEAR_RX_DTOG(USBx, ep->num);
 8005c54:	045b      	lsls	r3, r3, #17
 8005c56:	d505      	bpl.n	8005c64 <USB_DeactivateEndpoint+0xd4>
 8005c58:	8803      	ldrh	r3, [r0, #0]
 8005c5a:	4a0b      	ldr	r2, [pc, #44]	@ (8005c88 <USB_DeactivateEndpoint+0xf8>)
 8005c5c:	4013      	ands	r3, r2
 8005c5e:	4a0b      	ldr	r2, [pc, #44]	@ (8005c8c <USB_DeactivateEndpoint+0xfc>)
 8005c60:	4313      	orrs	r3, r2
 8005c62:	8003      	strh	r3, [r0, #0]
      PCD_SET_EP_RX_STATUS(USBx, ep->num, USB_EP_RX_DIS);
 8005c64:	8803      	ldrh	r3, [r0, #0]
 8005c66:	4a0b      	ldr	r2, [pc, #44]	@ (8005c94 <USB_DeactivateEndpoint+0x104>)
 8005c68:	4013      	ands	r3, r2
 8005c6a:	4a06      	ldr	r2, [pc, #24]	@ (8005c84 <USB_DeactivateEndpoint+0xf4>)
 8005c6c:	4313      	orrs	r3, r2
 8005c6e:	8003      	strh	r3, [r0, #0]
 8005c70:	e7a1      	b.n	8005bb6 <USB_DeactivateEndpoint+0x26>
      PCD_CLEAR_TX_DTOG(USBx, ep->num);
 8005c72:	8803      	ldrh	r3, [r0, #0]
 8005c74:	4a04      	ldr	r2, [pc, #16]	@ (8005c88 <USB_DeactivateEndpoint+0xf8>)
 8005c76:	4013      	ands	r3, r2
 8005c78:	4a05      	ldr	r2, [pc, #20]	@ (8005c90 <USB_DeactivateEndpoint+0x100>)
 8005c7a:	4313      	orrs	r3, r2
 8005c7c:	8003      	strh	r3, [r0, #0]
 8005c7e:	e794      	b.n	8005baa <USB_DeactivateEndpoint+0x1a>
 8005c80:	ffff8fbf 	.word	0xffff8fbf
 8005c84:	00008080 	.word	0x00008080
 8005c88:	ffff8f8f 	.word	0xffff8f8f
 8005c8c:	0000c080 	.word	0x0000c080
 8005c90:	000080c0 	.word	0x000080c0
 8005c94:	ffffbf8f 	.word	0xffffbf8f
 8005c98:	ffff8080 	.word	0xffff8080

08005c9c <USB_EPStartXfer>:
  * @param  USBx Selected device
  * @param  ep pointer to endpoint structure
  * @retval HAL status
  */
HAL_StatusTypeDef USB_EPStartXfer(USB_TypeDef *USBx, USB_EPTypeDef *ep)
{
 8005c9c:	b5f0      	push	{r4, r5, r6, r7, lr}
 8005c9e:	4645      	mov	r5, r8
 8005ca0:	46de      	mov	lr, fp
 8005ca2:	4657      	mov	r7, sl
 8005ca4:	464e      	mov	r6, r9
 8005ca6:	b5e0      	push	{r5, r6, r7, lr}
  uint16_t pmabuffer;
  uint16_t wEPVal;
#endif /* (USE_USB_DOUBLE_BUFFER == 1U) */

  /* IN endpoint */
  if (ep->is_in == 1U)
 8005ca8:	784b      	ldrb	r3, [r1, #1]
{
 8005caa:	0002      	movs	r2, r0
    {
      len = ep->xfer_len;
    }

    /* configure and validate Tx endpoint */
    if (ep->doublebuffer == 0U)
 8005cac:	7b0d      	ldrb	r5, [r1, #12]
{
 8005cae:	b087      	sub	sp, #28
  if (ep->is_in == 1U)
 8005cb0:	2b01      	cmp	r3, #1
 8005cb2:	d100      	bne.n	8005cb6 <USB_EPStartXfer+0x1a>
 8005cb4:	e072      	b.n	8005d9c <USB_EPStartXfer+0x100>

    PCD_SET_EP_TX_STATUS(USBx, ep->num, USB_EP_TX_VALID);
  }
  else /* OUT endpoint */
  {
    if (ep->doublebuffer == 0U)
 8005cb6:	2d00      	cmp	r5, #0
 8005cb8:	d04c      	beq.n	8005d54 <USB_EPStartXfer+0xb8>
#if (USE_USB_DOUBLE_BUFFER == 1U)
    else
    {
      /* First Transfer Coming From HAL_PCD_EP_Receive & From ISR */
      /* Set the Double buffer counter */
      if (ep->type == EP_TYPE_BULK)
 8005cba:	78cc      	ldrb	r4, [r1, #3]
 8005cbc:	2c02      	cmp	r4, #2
 8005cbe:	d100      	bne.n	8005cc2 <USB_EPStartXfer+0x26>
 8005cc0:	e0e7      	b.n	8005e92 <USB_EPStartXfer+0x1f6>
        }
        PCD_SET_EP_DBUF_CNT(USBx, ep->num, ep->is_in, len);
      }
      else
      {
        return HAL_ERROR;
 8005cc2:	2001      	movs	r0, #1
      else if (ep->type == EP_TYPE_ISOC)
 8005cc4:	2c01      	cmp	r4, #1
 8005cc6:	d13e      	bne.n	8005d46 <USB_EPStartXfer+0xaa>
        if (ep->xfer_len > ep->maxpacket)
 8005cc8:	698d      	ldr	r5, [r1, #24]
 8005cca:	6908      	ldr	r0, [r1, #16]
          ep->xfer_len = 0U;
 8005ccc:	2400      	movs	r4, #0
        if (ep->xfer_len > ep->maxpacket)
 8005cce:	4285      	cmp	r5, r0
 8005cd0:	d901      	bls.n	8005cd6 <USB_EPStartXfer+0x3a>
          ep->xfer_len -= len;
 8005cd2:	1a2c      	subs	r4, r5, r0
 8005cd4:	0005      	movs	r5, r0
 8005cd6:	618c      	str	r4, [r1, #24]
        PCD_SET_EP_DBUF_CNT(USBx, ep->num, ep->is_in, len);
 8005cd8:	2b00      	cmp	r3, #0
 8005cda:	d127      	bne.n	8005d2c <USB_EPStartXfer+0x90>
 8005cdc:	2650      	movs	r6, #80	@ 0x50
 8005cde:	4b95      	ldr	r3, [pc, #596]	@ (8005f34 <USB_EPStartXfer+0x298>)
 8005ce0:	5b90      	ldrh	r0, [r2, r6]
 8005ce2:	780c      	ldrb	r4, [r1, #0]
 8005ce4:	18d3      	adds	r3, r2, r3
 8005ce6:	181b      	adds	r3, r3, r0
 8005ce8:	00e4      	lsls	r4, r4, #3
 8005cea:	191b      	adds	r3, r3, r4
 8005cec:	8818      	ldrh	r0, [r3, #0]
 8005cee:	0580      	lsls	r0, r0, #22
 8005cf0:	0d80      	lsrs	r0, r0, #22
 8005cf2:	8018      	strh	r0, [r3, #0]
 8005cf4:	4890      	ldr	r0, [pc, #576]	@ (8005f38 <USB_EPStartXfer+0x29c>)
 8005cf6:	4680      	mov	r8, r0
 8005cf8:	4490      	add	r8, r2
 8005cfa:	2d00      	cmp	r5, #0
 8005cfc:	d100      	bne.n	8005d00 <USB_EPStartXfer+0x64>
 8005cfe:	e207      	b.n	8006110 <USB_EPStartXfer+0x474>
 8005d00:	2d3e      	cmp	r5, #62	@ 0x3e
 8005d02:	d900      	bls.n	8005d06 <USB_EPStartXfer+0x6a>
 8005d04:	e295      	b.n	8006232 <USB_EPStartXfer+0x596>
 8005d06:	2001      	movs	r0, #1
 8005d08:	086f      	lsrs	r7, r5, #1
 8005d0a:	4005      	ands	r5, r0
 8005d0c:	197f      	adds	r7, r7, r5
 8005d0e:	02bf      	lsls	r7, r7, #10
 8005d10:	881d      	ldrh	r5, [r3, #0]
 8005d12:	b2bf      	uxth	r7, r7
 8005d14:	433d      	orrs	r5, r7
 8005d16:	801d      	strh	r5, [r3, #0]
 8005d18:	5b93      	ldrh	r3, [r2, r6]
 8005d1a:	4443      	add	r3, r8
 8005d1c:	191b      	adds	r3, r3, r4
 8005d1e:	8818      	ldrh	r0, [r3, #0]
 8005d20:	0580      	lsls	r0, r0, #22
 8005d22:	0d80      	lsrs	r0, r0, #22
 8005d24:	8018      	strh	r0, [r3, #0]
 8005d26:	8818      	ldrh	r0, [r3, #0]
 8005d28:	4307      	orrs	r7, r0
 8005d2a:	801f      	strh	r7, [r3, #0]
            PCD_FREE_USER_BUFFER(USBx, ep->num, 0U);
 8005d2c:	780b      	ldrb	r3, [r1, #0]
      }
    }
#endif /* (USE_USB_DOUBLE_BUFFER == 1U) */

    PCD_SET_EP_RX_STATUS(USBx, ep->num, USB_EP_RX_VALID);
 8005d2e:	009b      	lsls	r3, r3, #2
 8005d30:	18d2      	adds	r2, r2, r3
 8005d32:	8811      	ldrh	r1, [r2, #0]
 8005d34:	4b81      	ldr	r3, [pc, #516]	@ (8005f3c <USB_EPStartXfer+0x2a0>)
  }

  return HAL_OK;
 8005d36:	2000      	movs	r0, #0
    PCD_SET_EP_RX_STATUS(USBx, ep->num, USB_EP_RX_VALID);
 8005d38:	4019      	ands	r1, r3
 8005d3a:	23c0      	movs	r3, #192	@ 0xc0
 8005d3c:	019b      	lsls	r3, r3, #6
 8005d3e:	404b      	eors	r3, r1
 8005d40:	497f      	ldr	r1, [pc, #508]	@ (8005f40 <USB_EPStartXfer+0x2a4>)
 8005d42:	430b      	orrs	r3, r1
 8005d44:	8013      	strh	r3, [r2, #0]
}
 8005d46:	b007      	add	sp, #28
 8005d48:	bcf0      	pop	{r4, r5, r6, r7}
 8005d4a:	46bb      	mov	fp, r7
 8005d4c:	46b2      	mov	sl, r6
 8005d4e:	46a9      	mov	r9, r5
 8005d50:	46a0      	mov	r8, r4
 8005d52:	bdf0      	pop	{r4, r5, r6, r7, pc}
      if (ep->xfer_len > ep->maxpacket)
 8005d54:	698c      	ldr	r4, [r1, #24]
 8005d56:	690b      	ldr	r3, [r1, #16]
        ep->xfer_len = 0U;
 8005d58:	2000      	movs	r0, #0
      if (ep->xfer_len > ep->maxpacket)
 8005d5a:	429c      	cmp	r4, r3
 8005d5c:	d901      	bls.n	8005d62 <USB_EPStartXfer+0xc6>
        ep->xfer_len -= len;
 8005d5e:	1ae0      	subs	r0, r4, r3
 8005d60:	001c      	movs	r4, r3
      PCD_SET_EP_RX_CNT(USBx, ep->num, len);
 8005d62:	2350      	movs	r3, #80	@ 0x50
 8005d64:	6188      	str	r0, [r1, #24]
 8005d66:	5ad5      	ldrh	r5, [r2, r3]
 8005d68:	4b73      	ldr	r3, [pc, #460]	@ (8005f38 <USB_EPStartXfer+0x29c>)
 8005d6a:	7808      	ldrb	r0, [r1, #0]
 8005d6c:	18d3      	adds	r3, r2, r3
 8005d6e:	195b      	adds	r3, r3, r5
 8005d70:	00c0      	lsls	r0, r0, #3
 8005d72:	18c0      	adds	r0, r0, r3
 8005d74:	8803      	ldrh	r3, [r0, #0]
 8005d76:	059b      	lsls	r3, r3, #22
 8005d78:	0d9b      	lsrs	r3, r3, #22
 8005d7a:	8003      	strh	r3, [r0, #0]
 8005d7c:	2c00      	cmp	r4, #0
 8005d7e:	d100      	bne.n	8005d82 <USB_EPStartXfer+0xe6>
 8005d80:	e081      	b.n	8005e86 <USB_EPStartXfer+0x1ea>
 8005d82:	2c3e      	cmp	r4, #62	@ 0x3e
 8005d84:	d900      	bls.n	8005d88 <USB_EPStartXfer+0xec>
 8005d86:	e0c6      	b.n	8005f16 <USB_EPStartXfer+0x27a>
 8005d88:	2301      	movs	r3, #1
 8005d8a:	0865      	lsrs	r5, r4, #1
 8005d8c:	4023      	ands	r3, r4
 8005d8e:	18ed      	adds	r5, r5, r3
 8005d90:	8803      	ldrh	r3, [r0, #0]
 8005d92:	02ad      	lsls	r5, r5, #10
 8005d94:	432b      	orrs	r3, r5
 8005d96:	b29b      	uxth	r3, r3
 8005d98:	8003      	strh	r3, [r0, #0]
 8005d9a:	e7c7      	b.n	8005d2c <USB_EPStartXfer+0x90>
    if (ep->xfer_len > ep->maxpacket)
 8005d9c:	690c      	ldr	r4, [r1, #16]
 8005d9e:	6988      	ldr	r0, [r1, #24]
 8005da0:	42a0      	cmp	r0, r4
 8005da2:	d868      	bhi.n	8005e76 <USB_EPStartXfer+0x1da>
    if (ep->doublebuffer == 0U)
 8005da4:	2680      	movs	r6, #128	@ 0x80
 8005da6:	00f6      	lsls	r6, r6, #3
      USB_WritePMA(USBx, ep->xfer_buff, ep->pmaadress, (uint16_t)len);
 8005da8:	694b      	ldr	r3, [r1, #20]
 8005daa:	1997      	adds	r7, r2, r6
    if (ep->doublebuffer == 0U)
 8005dac:	2d00      	cmp	r5, #0
 8005dae:	d12f      	bne.n	8005e10 <USB_EPStartXfer+0x174>
  * @param   wNBytes no. of bytes to be copied.
  * @retval None
  */
void USB_WritePMA(USB_TypeDef const *USBx, uint8_t *pbUsrBuf, uint16_t wPMABufAddr, uint16_t wNBytes)
{
  uint32_t n = ((uint32_t)wNBytes + 1U) >> 1;
 8005db0:	0404      	lsls	r4, r0, #16
      USB_WritePMA(USBx, ep->xfer_buff, ep->pmaadress, (uint16_t)len);
 8005db2:	b286      	uxth	r6, r0
  uint32_t n = ((uint32_t)wNBytes + 1U) >> 1;
 8005db4:	0c24      	lsrs	r4, r4, #16
  uint32_t count;
  uint16_t WrVal;
  __IO uint16_t *pdwVal;
  uint8_t *pBuf = pbUsrBuf;

  pdwVal = (__IO uint16_t *)(BaseAddr + 0x400U + ((uint32_t)wPMABufAddr * PMA_ACCESS));
 8005db6:	88c8      	ldrh	r0, [r1, #6]
  uint32_t n = ((uint32_t)wNBytes + 1U) >> 1;
 8005db8:	3401      	adds	r4, #1
 8005dba:	0864      	lsrs	r4, r4, #1
  pdwVal = (__IO uint16_t *)(BaseAddr + 0x400U + ((uint32_t)wPMABufAddr * PMA_ACCESS));
 8005dbc:	19c0      	adds	r0, r0, r7

  for (count = n; count != 0U; count--)
 8005dbe:	2c00      	cmp	r4, #0
 8005dc0:	d00f      	beq.n	8005de2 <USB_EPStartXfer+0x146>
 8005dc2:	0064      	lsls	r4, r4, #1
 8005dc4:	1ac5      	subs	r5, r0, r3
 8005dc6:	191c      	adds	r4, r3, r4
 8005dc8:	4694      	mov	ip, r2
 8005dca:	002a      	movs	r2, r5
 8005dcc:	0025      	movs	r5, r4
 8005dce:	7858      	ldrb	r0, [r3, #1]
 8005dd0:	781c      	ldrb	r4, [r3, #0]
 8005dd2:	0200      	lsls	r0, r0, #8
 8005dd4:	189f      	adds	r7, r3, r2
  {
    WrVal = pBuf[0];
    WrVal |= (uint16_t)pBuf[1] << 8;
 8005dd6:	4320      	orrs	r0, r4
#if PMA_ACCESS > 1U
    pdwVal++;
#endif /* PMA_ACCESS */

    pBuf++;
    pBuf++;
 8005dd8:	3302      	adds	r3, #2
    *pdwVal = (WrVal & 0xFFFFU);
 8005dda:	8038      	strh	r0, [r7, #0]
  for (count = n; count != 0U; count--)
 8005ddc:	42ab      	cmp	r3, r5
 8005dde:	d1f6      	bne.n	8005dce <USB_EPStartXfer+0x132>
 8005de0:	4662      	mov	r2, ip
      PCD_SET_EP_TX_CNT(USBx, ep->num, len);
 8005de2:	2350      	movs	r3, #80	@ 0x50
 8005de4:	4853      	ldr	r0, [pc, #332]	@ (8005f34 <USB_EPStartXfer+0x298>)
 8005de6:	5ad4      	ldrh	r4, [r2, r3]
 8005de8:	780b      	ldrb	r3, [r1, #0]
 8005dea:	1810      	adds	r0, r2, r0
 8005dec:	00db      	lsls	r3, r3, #3
 8005dee:	1900      	adds	r0, r0, r4
 8005df0:	181b      	adds	r3, r3, r0
 8005df2:	801e      	strh	r6, [r3, #0]
    PCD_SET_EP_TX_STATUS(USBx, ep->num, USB_EP_TX_VALID);
 8005df4:	780b      	ldrb	r3, [r1, #0]
  return HAL_OK;
 8005df6:	2000      	movs	r0, #0
    PCD_SET_EP_TX_STATUS(USBx, ep->num, USB_EP_TX_VALID);
 8005df8:	009b      	lsls	r3, r3, #2
 8005dfa:	18d3      	adds	r3, r2, r3
 8005dfc:	8819      	ldrh	r1, [r3, #0]
 8005dfe:	4a51      	ldr	r2, [pc, #324]	@ (8005f44 <USB_EPStartXfer+0x2a8>)
 8005e00:	4011      	ands	r1, r2
 8005e02:	2230      	movs	r2, #48	@ 0x30
 8005e04:	4051      	eors	r1, r2
 8005e06:	4a50      	ldr	r2, [pc, #320]	@ (8005f48 <USB_EPStartXfer+0x2ac>)
 8005e08:	430a      	orrs	r2, r1
 8005e0a:	b292      	uxth	r2, r2
 8005e0c:	801a      	strh	r2, [r3, #0]
 8005e0e:	e79a      	b.n	8005d46 <USB_EPStartXfer+0xaa>
        if (ep->xfer_len_db > ep->maxpacket)
 8005e10:	6a0d      	ldr	r5, [r1, #32]
 8005e12:	46ab      	mov	fp, r5
          PCD_SET_BULK_EP_DBUF(USBx, ep->num);
 8005e14:	780d      	ldrb	r5, [r1, #0]
 8005e16:	00ae      	lsls	r6, r5, #2
 8005e18:	46b4      	mov	ip, r6
            PCD_SET_EP_DBUF1_CNT(USBx, ep->num, ep->is_in, len);
 8005e1a:	00ed      	lsls	r5, r5, #3
 8005e1c:	9501      	str	r5, [sp, #4]
      if (ep->type == EP_TYPE_BULK)
 8005e1e:	78ce      	ldrb	r6, [r1, #3]
          PCD_SET_BULK_EP_DBUF(USBx, ep->num);
 8005e20:	4494      	add	ip, r2
      if (ep->type == EP_TYPE_BULK)
 8005e22:	2e02      	cmp	r6, #2
 8005e24:	d100      	bne.n	8005e28 <USB_EPStartXfer+0x18c>
 8005e26:	e099      	b.n	8005f5c <USB_EPStartXfer+0x2c0>
        ep->xfer_len_db -= len;
 8005e28:	465c      	mov	r4, fp
 8005e2a:	1a26      	subs	r6, r4, r0
        if ((PCD_GET_ENDPOINT(USBx, ep->num) & USB_EP_DTOG_TX) != 0U)
 8005e2c:	4664      	mov	r4, ip
        ep->xfer_len_db -= len;
 8005e2e:	620e      	str	r6, [r1, #32]
      USB_WritePMA(USBx, ep->xfer_buff, ep->pmaadress, (uint16_t)len);
 8005e30:	b286      	uxth	r6, r0
  uint32_t n = ((uint32_t)wNBytes + 1U) >> 1;
 8005e32:	0400      	lsls	r0, r0, #16
 8005e34:	0c00      	lsrs	r0, r0, #16
        if ((PCD_GET_ENDPOINT(USBx, ep->num) & USB_EP_DTOG_TX) != 0U)
 8005e36:	8824      	ldrh	r4, [r4, #0]
  uint32_t n = ((uint32_t)wNBytes + 1U) >> 1;
 8005e38:	3001      	adds	r0, #1
 8005e3a:	0840      	lsrs	r0, r0, #1
        if ((PCD_GET_ENDPOINT(USBx, ep->num) & USB_EP_DTOG_TX) != 0U)
 8005e3c:	0664      	lsls	r4, r4, #25
 8005e3e:	d400      	bmi.n	8005e42 <USB_EPStartXfer+0x1a6>
 8005e40:	e112      	b.n	8006068 <USB_EPStartXfer+0x3cc>
          PCD_SET_EP_DBUF1_CNT(USBx, ep->num, ep->is_in, len);
 8005e42:	2450      	movs	r4, #80	@ 0x50
 8005e44:	5b14      	ldrh	r4, [r2, r4]
 8005e46:	46a4      	mov	ip, r4
 8005e48:	4c3b      	ldr	r4, [pc, #236]	@ (8005f38 <USB_EPStartXfer+0x29c>)
 8005e4a:	1914      	adds	r4, r2, r4
 8005e4c:	4464      	add	r4, ip
 8005e4e:	46ac      	mov	ip, r5
 8005e50:	4464      	add	r4, ip
 8005e52:	8026      	strh	r6, [r4, #0]
  pdwVal = (__IO uint16_t *)(BaseAddr + 0x400U + ((uint32_t)wPMABufAddr * PMA_ACCESS));
 8005e54:	894d      	ldrh	r5, [r1, #10]
 8005e56:	19ef      	adds	r7, r5, r7
  for (count = n; count != 0U; count--)
 8005e58:	2800      	cmp	r0, #0
 8005e5a:	d0cb      	beq.n	8005df4 <USB_EPStartXfer+0x158>
 8005e5c:	0044      	lsls	r4, r0, #1
 8005e5e:	191c      	adds	r4, r3, r4
 8005e60:	1aff      	subs	r7, r7, r3
 8005e62:	7858      	ldrb	r0, [r3, #1]
 8005e64:	781e      	ldrb	r6, [r3, #0]
 8005e66:	0200      	lsls	r0, r0, #8
 8005e68:	19dd      	adds	r5, r3, r7
    WrVal |= (uint16_t)pBuf[1] << 8;
 8005e6a:	4330      	orrs	r0, r6
    pBuf++;
 8005e6c:	3302      	adds	r3, #2
    *pdwVal = (WrVal & 0xFFFFU);
 8005e6e:	8028      	strh	r0, [r5, #0]
  for (count = n; count != 0U; count--)
 8005e70:	42a3      	cmp	r3, r4
 8005e72:	d1f6      	bne.n	8005e62 <USB_EPStartXfer+0x1c6>
 8005e74:	e7be      	b.n	8005df4 <USB_EPStartXfer+0x158>
 8005e76:	2680      	movs	r6, #128	@ 0x80
 8005e78:	00f6      	lsls	r6, r6, #3
 8005e7a:	0020      	movs	r0, r4
      USB_WritePMA(USBx, ep->xfer_buff, ep->pmaadress, (uint16_t)len);
 8005e7c:	694b      	ldr	r3, [r1, #20]
 8005e7e:	1997      	adds	r7, r2, r6
    if (ep->doublebuffer == 0U)
 8005e80:	2d00      	cmp	r5, #0
 8005e82:	d1c5      	bne.n	8005e10 <USB_EPStartXfer+0x174>
 8005e84:	e794      	b.n	8005db0 <USB_EPStartXfer+0x114>
      PCD_SET_EP_RX_CNT(USBx, ep->num, len);
 8005e86:	2480      	movs	r4, #128	@ 0x80
 8005e88:	8803      	ldrh	r3, [r0, #0]
 8005e8a:	0224      	lsls	r4, r4, #8
 8005e8c:	4323      	orrs	r3, r4
 8005e8e:	8003      	strh	r3, [r0, #0]
 8005e90:	e74c      	b.n	8005d2c <USB_EPStartXfer+0x90>
        PCD_SET_EP_DBUF_CNT(USBx, ep->num, ep->is_in, ep->maxpacket);
 8005e92:	2b00      	cmp	r3, #0
 8005e94:	d129      	bne.n	8005eea <USB_EPStartXfer+0x24e>
 8005e96:	2650      	movs	r6, #80	@ 0x50
 8005e98:	4b26      	ldr	r3, [pc, #152]	@ (8005f34 <USB_EPStartXfer+0x298>)
 8005e9a:	5b80      	ldrh	r0, [r0, r6]
 8005e9c:	780c      	ldrb	r4, [r1, #0]
 8005e9e:	18d3      	adds	r3, r2, r3
 8005ea0:	181b      	adds	r3, r3, r0
 8005ea2:	00e4      	lsls	r4, r4, #3
 8005ea4:	191b      	adds	r3, r3, r4
 8005ea6:	8818      	ldrh	r0, [r3, #0]
 8005ea8:	690d      	ldr	r5, [r1, #16]
 8005eaa:	0580      	lsls	r0, r0, #22
 8005eac:	0d80      	lsrs	r0, r0, #22
 8005eae:	8018      	strh	r0, [r3, #0]
 8005eb0:	4821      	ldr	r0, [pc, #132]	@ (8005f38 <USB_EPStartXfer+0x29c>)
 8005eb2:	1810      	adds	r0, r2, r0
 8005eb4:	2d00      	cmp	r5, #0
 8005eb6:	d100      	bne.n	8005eba <USB_EPStartXfer+0x21e>
 8005eb8:	e119      	b.n	80060ee <USB_EPStartXfer+0x452>
 8005eba:	2d3e      	cmp	r5, #62	@ 0x3e
 8005ebc:	d900      	bls.n	8005ec0 <USB_EPStartXfer+0x224>
 8005ebe:	e195      	b.n	80061ec <USB_EPStartXfer+0x550>
 8005ec0:	086f      	lsrs	r7, r5, #1
 8005ec2:	46b8      	mov	r8, r7
 8005ec4:	2701      	movs	r7, #1
 8005ec6:	403d      	ands	r5, r7
 8005ec8:	44a8      	add	r8, r5
 8005eca:	4647      	mov	r7, r8
 8005ecc:	881d      	ldrh	r5, [r3, #0]
 8005ece:	02bf      	lsls	r7, r7, #10
 8005ed0:	b2bf      	uxth	r7, r7
 8005ed2:	433d      	orrs	r5, r7
 8005ed4:	801d      	strh	r5, [r3, #0]
 8005ed6:	5b93      	ldrh	r3, [r2, r6]
 8005ed8:	18c3      	adds	r3, r0, r3
 8005eda:	191b      	adds	r3, r3, r4
 8005edc:	8818      	ldrh	r0, [r3, #0]
 8005ede:	0580      	lsls	r0, r0, #22
 8005ee0:	0d80      	lsrs	r0, r0, #22
 8005ee2:	8018      	strh	r0, [r3, #0]
 8005ee4:	8818      	ldrh	r0, [r3, #0]
 8005ee6:	4307      	orrs	r7, r0
 8005ee8:	801f      	strh	r7, [r3, #0]
        if (ep->xfer_count != 0U)
 8005eea:	69cb      	ldr	r3, [r1, #28]
 8005eec:	2b00      	cmp	r3, #0
 8005eee:	d100      	bne.n	8005ef2 <USB_EPStartXfer+0x256>
 8005ef0:	e71c      	b.n	8005d2c <USB_EPStartXfer+0x90>
          wEPVal = PCD_GET_ENDPOINT(USBx, ep->num);
 8005ef2:	780b      	ldrb	r3, [r1, #0]
 8005ef4:	4d15      	ldr	r5, [pc, #84]	@ (8005f4c <USB_EPStartXfer+0x2b0>)
 8005ef6:	0098      	lsls	r0, r3, #2
 8005ef8:	1810      	adds	r0, r2, r0
 8005efa:	8804      	ldrh	r4, [r0, #0]
          if ((((wEPVal & USB_EP_DTOG_RX) != 0U) && ((wEPVal & USB_EP_DTOG_TX) != 0U)) ||
 8005efc:	402c      	ands	r4, r5
 8005efe:	42ac      	cmp	r4, r5
 8005f00:	d002      	beq.n	8005f08 <USB_EPStartXfer+0x26c>
 8005f02:	2c00      	cmp	r4, #0
 8005f04:	d000      	beq.n	8005f08 <USB_EPStartXfer+0x26c>
 8005f06:	e712      	b.n	8005d2e <USB_EPStartXfer+0x92>
            PCD_FREE_USER_BUFFER(USBx, ep->num, 0U);
 8005f08:	8803      	ldrh	r3, [r0, #0]
 8005f0a:	4c11      	ldr	r4, [pc, #68]	@ (8005f50 <USB_EPStartXfer+0x2b4>)
 8005f0c:	4023      	ands	r3, r4
 8005f0e:	4c11      	ldr	r4, [pc, #68]	@ (8005f54 <USB_EPStartXfer+0x2b8>)
 8005f10:	4323      	orrs	r3, r4
 8005f12:	8003      	strh	r3, [r0, #0]
 8005f14:	e70a      	b.n	8005d2c <USB_EPStartXfer+0x90>
      PCD_SET_EP_RX_CNT(USBx, ep->num, len);
 8005f16:	251f      	movs	r5, #31
 8005f18:	0963      	lsrs	r3, r4, #5
 8005f1a:	402c      	ands	r4, r5
 8005f1c:	4265      	negs	r5, r4
 8005f1e:	416c      	adcs	r4, r5
 8005f20:	1b1b      	subs	r3, r3, r4
 8005f22:	8804      	ldrh	r4, [r0, #0]
 8005f24:	029b      	lsls	r3, r3, #10
 8005f26:	431c      	orrs	r4, r3
 8005f28:	4b0b      	ldr	r3, [pc, #44]	@ (8005f58 <USB_EPStartXfer+0x2bc>)
 8005f2a:	4323      	orrs	r3, r4
 8005f2c:	b29b      	uxth	r3, r3
 8005f2e:	8003      	strh	r3, [r0, #0]
 8005f30:	e6fc      	b.n	8005d2c <USB_EPStartXfer+0x90>
 8005f32:	46c0      	nop			@ (mov r8, r8)
 8005f34:	00000402 	.word	0x00000402
 8005f38:	00000406 	.word	0x00000406
 8005f3c:	ffffbf8f 	.word	0xffffbf8f
 8005f40:	00008080 	.word	0x00008080
 8005f44:	ffff8fbf 	.word	0xffff8fbf
 8005f48:	ffff8080 	.word	0xffff8080
 8005f4c:	00004040 	.word	0x00004040
 8005f50:	ffff8f8f 	.word	0xffff8f8f
 8005f54:	000080c0 	.word	0x000080c0
 8005f58:	ffff8000 	.word	0xffff8000
        if (ep->xfer_len_db > ep->maxpacket)
 8005f5c:	4ec4      	ldr	r6, [pc, #784]	@ (8006270 <USB_EPStartXfer+0x5d4>)
 8005f5e:	46b1      	mov	r9, r6
 8005f60:	4491      	add	r9, r2
 8005f62:	455c      	cmp	r4, fp
 8005f64:	d300      	bcc.n	8005f68 <USB_EPStartXfer+0x2cc>
 8005f66:	e09a      	b.n	800609e <USB_EPStartXfer+0x402>
          PCD_SET_BULK_EP_DBUF(USBx, ep->num);
 8005f68:	4665      	mov	r5, ip
 8005f6a:	882d      	ldrh	r5, [r5, #0]
 8005f6c:	46a8      	mov	r8, r5
 8005f6e:	4646      	mov	r6, r8
 8005f70:	4dc0      	ldr	r5, [pc, #768]	@ (8006274 <USB_EPStartXfer+0x5d8>)
 8005f72:	402e      	ands	r6, r5
 8005f74:	4dc0      	ldr	r5, [pc, #768]	@ (8006278 <USB_EPStartXfer+0x5dc>)
 8005f76:	432e      	orrs	r6, r5
 8005f78:	4665      	mov	r5, ip
 8005f7a:	802e      	strh	r6, [r5, #0]
          ep->xfer_len_db -= len;
 8005f7c:	465d      	mov	r5, fp
 8005f7e:	1a2d      	subs	r5, r5, r0
 8005f80:	46ab      	mov	fp, r5
 8005f82:	620d      	str	r5, [r1, #32]
          if ((PCD_GET_ENDPOINT(USBx, ep->num) & USB_EP_DTOG_TX) != 0U)
 8005f84:	4665      	mov	r5, ip
 8005f86:	882e      	ldrh	r6, [r5, #0]
  uint32_t n = ((uint32_t)wNBytes + 1U) >> 1;
 8005f88:	0405      	lsls	r5, r0, #16
 8005f8a:	0c2d      	lsrs	r5, r5, #16
 8005f8c:	46ac      	mov	ip, r5
 8005f8e:	2501      	movs	r5, #1
 8005f90:	46a8      	mov	r8, r5
 8005f92:	44c4      	add	ip, r8
 8005f94:	4665      	mov	r5, ip
 8005f96:	086d      	lsrs	r5, r5, #1
 8005f98:	46aa      	mov	sl, r5
 8005f9a:	4db8      	ldr	r5, [pc, #736]	@ (800627c <USB_EPStartXfer+0x5e0>)
          if ((PCD_GET_ENDPOINT(USBx, ep->num) & USB_EP_DTOG_TX) != 0U)
 8005f9c:	9603      	str	r6, [sp, #12]
 8005f9e:	46ac      	mov	ip, r5
 8005fa0:	4494      	add	ip, r2
 8005fa2:	4665      	mov	r5, ip
      USB_WritePMA(USBx, ep->xfer_buff, ep->pmaadress, (uint16_t)len);
 8005fa4:	b286      	uxth	r6, r0
 8005fa6:	9602      	str	r6, [sp, #8]
          if ((PCD_GET_ENDPOINT(USBx, ep->num) & USB_EP_DTOG_TX) != 0U)
 8005fa8:	9e03      	ldr	r6, [sp, #12]
 8005faa:	9504      	str	r5, [sp, #16]
 8005fac:	0676      	lsls	r6, r6, #25
 8005fae:	d400      	bmi.n	8005fb2 <USB_EPStartXfer+0x316>
 8005fb0:	e0bf      	b.n	8006132 <USB_EPStartXfer+0x496>
            PCD_SET_EP_DBUF1_CNT(USBx, ep->num, ep->is_in, len);
 8005fb2:	2650      	movs	r6, #80	@ 0x50
 8005fb4:	9d01      	ldr	r5, [sp, #4]
 8005fb6:	5b96      	ldrh	r6, [r2, r6]
 8005fb8:	4466      	add	r6, ip
 8005fba:	46ac      	mov	ip, r5
 8005fbc:	b285      	uxth	r5, r0
 8005fbe:	4466      	add	r6, ip
 8005fc0:	8035      	strh	r5, [r6, #0]
  pdwVal = (__IO uint16_t *)(BaseAddr + 0x400U + ((uint32_t)wPMABufAddr * PMA_ACCESS));
 8005fc2:	894e      	ldrh	r6, [r1, #10]
  for (count = n; count != 0U; count--)
 8005fc4:	4655      	mov	r5, sl
  pdwVal = (__IO uint16_t *)(BaseAddr + 0x400U + ((uint32_t)wPMABufAddr * PMA_ACCESS));
 8005fc6:	46b4      	mov	ip, r6
 8005fc8:	44bc      	add	ip, r7
  for (count = n; count != 0U; count--)
 8005fca:	2d00      	cmp	r5, #0
 8005fcc:	d022      	beq.n	8006014 <USB_EPStartXfer+0x378>
 8005fce:	006e      	lsls	r6, r5, #1
 8005fd0:	4665      	mov	r5, ip
 8005fd2:	46b0      	mov	r8, r6
 8005fd4:	1aed      	subs	r5, r5, r3
 8005fd6:	46ac      	mov	ip, r5
 8005fd8:	9005      	str	r0, [sp, #20]
 8005fda:	0010      	movs	r0, r2
 8005fdc:	4498      	add	r8, r3
 8005fde:	9403      	str	r4, [sp, #12]
 8005fe0:	465c      	mov	r4, fp
 8005fe2:	4642      	mov	r2, r8
 8005fe4:	468b      	mov	fp, r1
  uint8_t *pBuf = pbUsrBuf;
 8005fe6:	001e      	movs	r6, r3
 8005fe8:	4661      	mov	r1, ip
 8005fea:	4680      	mov	r8, r0
 8005fec:	469c      	mov	ip, r3
 8005fee:	9d01      	ldr	r5, [sp, #4]
 8005ff0:	9404      	str	r4, [sp, #16]
 8005ff2:	7870      	ldrb	r0, [r6, #1]
 8005ff4:	7833      	ldrb	r3, [r6, #0]
 8005ff6:	0200      	lsls	r0, r0, #8
 8005ff8:	1874      	adds	r4, r6, r1
    WrVal |= (uint16_t)pBuf[1] << 8;
 8005ffa:	4318      	orrs	r0, r3
    pBuf++;
 8005ffc:	3602      	adds	r6, #2
    *pdwVal = (WrVal & 0xFFFFU);
 8005ffe:	8020      	strh	r0, [r4, #0]
  for (count = n; count != 0U; count--)
 8006000:	4296      	cmp	r6, r2
 8006002:	d1f6      	bne.n	8005ff2 <USB_EPStartXfer+0x356>
 8006004:	9501      	str	r5, [sp, #4]
 8006006:	9d04      	ldr	r5, [sp, #16]
 8006008:	4659      	mov	r1, fp
 800600a:	4663      	mov	r3, ip
 800600c:	4642      	mov	r2, r8
 800600e:	46ab      	mov	fp, r5
 8006010:	9c03      	ldr	r4, [sp, #12]
 8006012:	9805      	ldr	r0, [sp, #20]
              ep->xfer_len_db -= len;
 8006014:	465d      	mov	r5, fp
            ep->xfer_buff += len;
 8006016:	181b      	adds	r3, r3, r0
 8006018:	614b      	str	r3, [r1, #20]
              ep->xfer_len_db -= len;
 800601a:	1a28      	subs	r0, r5, r0
            if (ep->xfer_len_db > ep->maxpacket)
 800601c:	455c      	cmp	r4, fp
 800601e:	d307      	bcc.n	8006030 <USB_EPStartXfer+0x394>
            PCD_SET_EP_DBUF0_CNT(USBx, ep->num, ep->is_in, len);
 8006020:	b2a8      	uxth	r0, r5
 8006022:	9002      	str	r0, [sp, #8]
  uint32_t n = ((uint32_t)wNBytes + 1U) >> 1;
 8006024:	0428      	lsls	r0, r5, #16
 8006026:	0c00      	lsrs	r0, r0, #16
 8006028:	3001      	adds	r0, #1
 800602a:	0840      	lsrs	r0, r0, #1
 800602c:	4682      	mov	sl, r0
              ep->xfer_len_db = 0U;
 800602e:	2000      	movs	r0, #0
 8006030:	6208      	str	r0, [r1, #32]
            PCD_SET_EP_DBUF0_CNT(USBx, ep->num, ep->is_in, len);
 8006032:	2050      	movs	r0, #80	@ 0x50
 8006034:	9c01      	ldr	r4, [sp, #4]
 8006036:	5a10      	ldrh	r0, [r2, r0]
 8006038:	46a4      	mov	ip, r4
 800603a:	4448      	add	r0, r9
 800603c:	9c02      	ldr	r4, [sp, #8]
 800603e:	4460      	add	r0, ip
 8006040:	8004      	strh	r4, [r0, #0]
  for (count = n; count != 0U; count--)
 8006042:	4650      	mov	r0, sl
  pdwVal = (__IO uint16_t *)(BaseAddr + 0x400U + ((uint32_t)wPMABufAddr * PMA_ACCESS));
 8006044:	890e      	ldrh	r6, [r1, #8]
 8006046:	19f6      	adds	r6, r6, r7
  for (count = n; count != 0U; count--)
 8006048:	2800      	cmp	r0, #0
 800604a:	d100      	bne.n	800604e <USB_EPStartXfer+0x3b2>
 800604c:	e6d2      	b.n	8005df4 <USB_EPStartXfer+0x158>
 800604e:	0047      	lsls	r7, r0, #1
 8006050:	19df      	adds	r7, r3, r7
 8006052:	1af6      	subs	r6, r6, r3
 8006054:	7858      	ldrb	r0, [r3, #1]
 8006056:	781d      	ldrb	r5, [r3, #0]
 8006058:	0200      	lsls	r0, r0, #8
 800605a:	199c      	adds	r4, r3, r6
    WrVal |= (uint16_t)pBuf[1] << 8;
 800605c:	4328      	orrs	r0, r5
    pBuf++;
 800605e:	3302      	adds	r3, #2
    *pdwVal = (WrVal & 0xFFFFU);
 8006060:	8020      	strh	r0, [r4, #0]
  for (count = n; count != 0U; count--)
 8006062:	42bb      	cmp	r3, r7
 8006064:	d1f6      	bne.n	8006054 <USB_EPStartXfer+0x3b8>
 8006066:	e6c5      	b.n	8005df4 <USB_EPStartXfer+0x158>
          PCD_SET_EP_DBUF0_CNT(USBx, ep->num, ep->is_in, len);
 8006068:	2450      	movs	r4, #80	@ 0x50
 800606a:	5b14      	ldrh	r4, [r2, r4]
 800606c:	46a4      	mov	ip, r4
 800606e:	4c80      	ldr	r4, [pc, #512]	@ (8006270 <USB_EPStartXfer+0x5d4>)
 8006070:	1914      	adds	r4, r2, r4
 8006072:	4464      	add	r4, ip
 8006074:	46ac      	mov	ip, r5
 8006076:	4464      	add	r4, ip
 8006078:	8026      	strh	r6, [r4, #0]
  pdwVal = (__IO uint16_t *)(BaseAddr + 0x400U + ((uint32_t)wPMABufAddr * PMA_ACCESS));
 800607a:	890d      	ldrh	r5, [r1, #8]
 800607c:	19ef      	adds	r7, r5, r7
  for (count = n; count != 0U; count--)
 800607e:	2800      	cmp	r0, #0
 8006080:	d100      	bne.n	8006084 <USB_EPStartXfer+0x3e8>
 8006082:	e6b7      	b.n	8005df4 <USB_EPStartXfer+0x158>
 8006084:	0044      	lsls	r4, r0, #1
 8006086:	191c      	adds	r4, r3, r4
 8006088:	1aff      	subs	r7, r7, r3
 800608a:	7858      	ldrb	r0, [r3, #1]
 800608c:	781e      	ldrb	r6, [r3, #0]
 800608e:	0200      	lsls	r0, r0, #8
 8006090:	19dd      	adds	r5, r3, r7
    WrVal |= (uint16_t)pBuf[1] << 8;
 8006092:	4330      	orrs	r0, r6
    pBuf++;
 8006094:	3302      	adds	r3, #2
    *pdwVal = (WrVal & 0xFFFFU);
 8006096:	8028      	strh	r0, [r5, #0]
  for (count = n; count != 0U; count--)
 8006098:	42a3      	cmp	r3, r4
 800609a:	d1f6      	bne.n	800608a <USB_EPStartXfer+0x3ee>
 800609c:	e6aa      	b.n	8005df4 <USB_EPStartXfer+0x158>
          PCD_CLEAR_BULK_EP_DBUF(USBx, ep->num);
 800609e:	4660      	mov	r0, ip
 80060a0:	4c77      	ldr	r4, [pc, #476]	@ (8006280 <USB_EPStartXfer+0x5e4>)
 80060a2:	8800      	ldrh	r0, [r0, #0]
 80060a4:	4020      	ands	r0, r4
 80060a6:	4c77      	ldr	r4, [pc, #476]	@ (8006284 <USB_EPStartXfer+0x5e8>)
 80060a8:	4320      	orrs	r0, r4
 80060aa:	4664      	mov	r4, ip
 80060ac:	8020      	strh	r0, [r4, #0]
          PCD_SET_EP_TX_CNT(USBx, ep->num, len);
 80060ae:	2050      	movs	r0, #80	@ 0x50
 80060b0:	9c01      	ldr	r4, [sp, #4]
 80060b2:	5a10      	ldrh	r0, [r2, r0]
 80060b4:	46a4      	mov	ip, r4
 80060b6:	465c      	mov	r4, fp
 80060b8:	4448      	add	r0, r9
 80060ba:	4460      	add	r0, ip
 80060bc:	b2a4      	uxth	r4, r4
 80060be:	8004      	strh	r4, [r0, #0]
  uint32_t n = ((uint32_t)wNBytes + 1U) >> 1;
 80060c0:	4658      	mov	r0, fp
 80060c2:	0404      	lsls	r4, r0, #16
 80060c4:	0c24      	lsrs	r4, r4, #16
  pdwVal = (__IO uint16_t *)(BaseAddr + 0x400U + ((uint32_t)wPMABufAddr * PMA_ACCESS));
 80060c6:	8908      	ldrh	r0, [r1, #8]
  uint32_t n = ((uint32_t)wNBytes + 1U) >> 1;
 80060c8:	3401      	adds	r4, #1
 80060ca:	0864      	lsrs	r4, r4, #1
  pdwVal = (__IO uint16_t *)(BaseAddr + 0x400U + ((uint32_t)wPMABufAddr * PMA_ACCESS));
 80060cc:	19c7      	adds	r7, r0, r7
  for (count = n; count != 0U; count--)
 80060ce:	2c00      	cmp	r4, #0
 80060d0:	d100      	bne.n	80060d4 <USB_EPStartXfer+0x438>
 80060d2:	e68f      	b.n	8005df4 <USB_EPStartXfer+0x158>
 80060d4:	0064      	lsls	r4, r4, #1
 80060d6:	191c      	adds	r4, r3, r4
 80060d8:	1aff      	subs	r7, r7, r3
 80060da:	7858      	ldrb	r0, [r3, #1]
 80060dc:	781e      	ldrb	r6, [r3, #0]
 80060de:	0200      	lsls	r0, r0, #8
 80060e0:	19dd      	adds	r5, r3, r7
    WrVal |= (uint16_t)pBuf[1] << 8;
 80060e2:	4330      	orrs	r0, r6
    pBuf++;
 80060e4:	3302      	adds	r3, #2
    *pdwVal = (WrVal & 0xFFFFU);
 80060e6:	8028      	strh	r0, [r5, #0]
  for (count = n; count != 0U; count--)
 80060e8:	42a3      	cmp	r3, r4
 80060ea:	d1f6      	bne.n	80060da <USB_EPStartXfer+0x43e>
 80060ec:	e682      	b.n	8005df4 <USB_EPStartXfer+0x158>
        PCD_SET_EP_DBUF_CNT(USBx, ep->num, ep->is_in, ep->maxpacket);
 80060ee:	881f      	ldrh	r7, [r3, #0]
 80060f0:	4d65      	ldr	r5, [pc, #404]	@ (8006288 <USB_EPStartXfer+0x5ec>)
 80060f2:	432f      	orrs	r7, r5
 80060f4:	b2bf      	uxth	r7, r7
 80060f6:	801f      	strh	r7, [r3, #0]
 80060f8:	5b93      	ldrh	r3, [r2, r6]
 80060fa:	18c3      	adds	r3, r0, r3
 80060fc:	191b      	adds	r3, r3, r4
 80060fe:	8818      	ldrh	r0, [r3, #0]
 8006100:	0580      	lsls	r0, r0, #22
 8006102:	0d80      	lsrs	r0, r0, #22
 8006104:	8018      	strh	r0, [r3, #0]
 8006106:	8818      	ldrh	r0, [r3, #0]
 8006108:	4305      	orrs	r5, r0
 800610a:	b2ad      	uxth	r5, r5
 800610c:	801d      	strh	r5, [r3, #0]
 800610e:	e6ec      	b.n	8005eea <USB_EPStartXfer+0x24e>
        PCD_SET_EP_DBUF_CNT(USBx, ep->num, ep->is_in, len);
 8006110:	881f      	ldrh	r7, [r3, #0]
 8006112:	4d5d      	ldr	r5, [pc, #372]	@ (8006288 <USB_EPStartXfer+0x5ec>)
 8006114:	432f      	orrs	r7, r5
 8006116:	b2bf      	uxth	r7, r7
 8006118:	801f      	strh	r7, [r3, #0]
 800611a:	5b93      	ldrh	r3, [r2, r6]
 800611c:	4443      	add	r3, r8
 800611e:	191b      	adds	r3, r3, r4
 8006120:	8818      	ldrh	r0, [r3, #0]
 8006122:	0580      	lsls	r0, r0, #22
 8006124:	0d80      	lsrs	r0, r0, #22
 8006126:	8018      	strh	r0, [r3, #0]
 8006128:	8818      	ldrh	r0, [r3, #0]
 800612a:	4305      	orrs	r5, r0
 800612c:	b2ad      	uxth	r5, r5
 800612e:	801d      	strh	r5, [r3, #0]
 8006130:	e5fc      	b.n	8005d2c <USB_EPStartXfer+0x90>
            PCD_SET_EP_DBUF0_CNT(USBx, ep->num, ep->is_in, len);
 8006132:	2650      	movs	r6, #80	@ 0x50
 8006134:	9d01      	ldr	r5, [sp, #4]
 8006136:	5b96      	ldrh	r6, [r2, r6]
 8006138:	46ac      	mov	ip, r5
 800613a:	444e      	add	r6, r9
 800613c:	4466      	add	r6, ip
 800613e:	b285      	uxth	r5, r0
 8006140:	8035      	strh	r5, [r6, #0]
  pdwVal = (__IO uint16_t *)(BaseAddr + 0x400U + ((uint32_t)wPMABufAddr * PMA_ACCESS));
 8006142:	890e      	ldrh	r6, [r1, #8]
  for (count = n; count != 0U; count--)
 8006144:	4655      	mov	r5, sl
  pdwVal = (__IO uint16_t *)(BaseAddr + 0x400U + ((uint32_t)wPMABufAddr * PMA_ACCESS));
 8006146:	46b4      	mov	ip, r6
 8006148:	44bc      	add	ip, r7
  for (count = n; count != 0U; count--)
 800614a:	2d00      	cmp	r5, #0
 800614c:	d022      	beq.n	8006194 <USB_EPStartXfer+0x4f8>
 800614e:	006e      	lsls	r6, r5, #1
 8006150:	4665      	mov	r5, ip
 8006152:	46b0      	mov	r8, r6
 8006154:	1aed      	subs	r5, r5, r3
 8006156:	46ac      	mov	ip, r5
 8006158:	4498      	add	r8, r3
  uint8_t *pBuf = pbUsrBuf;
 800615a:	001e      	movs	r6, r3
 800615c:	9403      	str	r4, [sp, #12]
 800615e:	465c      	mov	r4, fp
 8006160:	468b      	mov	fp, r1
 8006162:	4641      	mov	r1, r8
 8006164:	4698      	mov	r8, r3
 8006166:	4663      	mov	r3, ip
 8006168:	4691      	mov	r9, r2
 800616a:	4684      	mov	ip, r0
 800616c:	0018      	movs	r0, r3
 800616e:	9d01      	ldr	r5, [sp, #4]
 8006170:	9405      	str	r4, [sp, #20]
 8006172:	7874      	ldrb	r4, [r6, #1]
 8006174:	7832      	ldrb	r2, [r6, #0]
 8006176:	0224      	lsls	r4, r4, #8
 8006178:	1833      	adds	r3, r6, r0
    WrVal |= (uint16_t)pBuf[1] << 8;
 800617a:	4314      	orrs	r4, r2
    pBuf++;
 800617c:	3602      	adds	r6, #2
    *pdwVal = (WrVal & 0xFFFFU);
 800617e:	801c      	strh	r4, [r3, #0]
  for (count = n; count != 0U; count--)
 8006180:	428e      	cmp	r6, r1
 8006182:	d1f6      	bne.n	8006172 <USB_EPStartXfer+0x4d6>
 8006184:	9501      	str	r5, [sp, #4]
 8006186:	9d05      	ldr	r5, [sp, #20]
 8006188:	4659      	mov	r1, fp
 800618a:	4660      	mov	r0, ip
 800618c:	4643      	mov	r3, r8
 800618e:	464a      	mov	r2, r9
 8006190:	46ab      	mov	fp, r5
 8006192:	9c03      	ldr	r4, [sp, #12]
              ep->xfer_len_db -= len;
 8006194:	465d      	mov	r5, fp
            ep->xfer_buff += len;
 8006196:	181b      	adds	r3, r3, r0
 8006198:	614b      	str	r3, [r1, #20]
              ep->xfer_len_db -= len;
 800619a:	1a28      	subs	r0, r5, r0
            if (ep->xfer_len_db > ep->maxpacket)
 800619c:	455c      	cmp	r4, fp
 800619e:	d307      	bcc.n	80061b0 <USB_EPStartXfer+0x514>
            PCD_SET_EP_DBUF0_CNT(USBx, ep->num, ep->is_in, len);
 80061a0:	b2a8      	uxth	r0, r5
 80061a2:	9002      	str	r0, [sp, #8]
  uint32_t n = ((uint32_t)wNBytes + 1U) >> 1;
 80061a4:	0428      	lsls	r0, r5, #16
 80061a6:	0c00      	lsrs	r0, r0, #16
 80061a8:	3001      	adds	r0, #1
 80061aa:	0840      	lsrs	r0, r0, #1
 80061ac:	4682      	mov	sl, r0
              ep->xfer_len_db = 0U;
 80061ae:	2000      	movs	r0, #0
 80061b0:	6208      	str	r0, [r1, #32]
            PCD_SET_EP_DBUF1_CNT(USBx, ep->num, ep->is_in, len);
 80061b2:	9c04      	ldr	r4, [sp, #16]
 80061b4:	2050      	movs	r0, #80	@ 0x50
 80061b6:	46a4      	mov	ip, r4
 80061b8:	5a10      	ldrh	r0, [r2, r0]
 80061ba:	9c01      	ldr	r4, [sp, #4]
 80061bc:	4460      	add	r0, ip
 80061be:	46a4      	mov	ip, r4
 80061c0:	9c02      	ldr	r4, [sp, #8]
 80061c2:	4460      	add	r0, ip
 80061c4:	8004      	strh	r4, [r0, #0]
  pdwVal = (__IO uint16_t *)(BaseAddr + 0x400U + ((uint32_t)wPMABufAddr * PMA_ACCESS));
 80061c6:	8948      	ldrh	r0, [r1, #10]
 80061c8:	19c7      	adds	r7, r0, r7
  for (count = n; count != 0U; count--)
 80061ca:	4650      	mov	r0, sl
 80061cc:	2800      	cmp	r0, #0
 80061ce:	d100      	bne.n	80061d2 <USB_EPStartXfer+0x536>
 80061d0:	e610      	b.n	8005df4 <USB_EPStartXfer+0x158>
 80061d2:	0044      	lsls	r4, r0, #1
 80061d4:	191c      	adds	r4, r3, r4
 80061d6:	1aff      	subs	r7, r7, r3
 80061d8:	7858      	ldrb	r0, [r3, #1]
 80061da:	781e      	ldrb	r6, [r3, #0]
 80061dc:	0200      	lsls	r0, r0, #8
 80061de:	19dd      	adds	r5, r3, r7
    WrVal |= (uint16_t)pBuf[1] << 8;
 80061e0:	4330      	orrs	r0, r6
    pBuf++;
 80061e2:	3302      	adds	r3, #2
    *pdwVal = (WrVal & 0xFFFFU);
 80061e4:	8028      	strh	r0, [r5, #0]
  for (count = n; count != 0U; count--)
 80061e6:	42a3      	cmp	r3, r4
 80061e8:	d1f6      	bne.n	80061d8 <USB_EPStartXfer+0x53c>
 80061ea:	e603      	b.n	8005df4 <USB_EPStartXfer+0x158>
        PCD_SET_EP_DBUF_CNT(USBx, ep->num, ep->is_in, ep->maxpacket);
 80061ec:	096f      	lsrs	r7, r5, #5
 80061ee:	46bc      	mov	ip, r7
 80061f0:	271f      	movs	r7, #31
 80061f2:	403d      	ands	r5, r7
 80061f4:	426f      	negs	r7, r5
 80061f6:	417d      	adcs	r5, r7
 80061f8:	4667      	mov	r7, ip
 80061fa:	1b7d      	subs	r5, r7, r5
 80061fc:	02ad      	lsls	r5, r5, #10
 80061fe:	881f      	ldrh	r7, [r3, #0]
 8006200:	b2ad      	uxth	r5, r5
 8006202:	432f      	orrs	r7, r5
 8006204:	46b8      	mov	r8, r7
 8006206:	46a9      	mov	r9, r5
 8006208:	4645      	mov	r5, r8
 800620a:	4f1f      	ldr	r7, [pc, #124]	@ (8006288 <USB_EPStartXfer+0x5ec>)
 800620c:	433d      	orrs	r5, r7
 800620e:	46bc      	mov	ip, r7
 8006210:	b2af      	uxth	r7, r5
 8006212:	464d      	mov	r5, r9
 8006214:	801f      	strh	r7, [r3, #0]
 8006216:	5b93      	ldrh	r3, [r2, r6]
 8006218:	18c0      	adds	r0, r0, r3
 800621a:	1900      	adds	r0, r0, r4
 800621c:	8803      	ldrh	r3, [r0, #0]
 800621e:	059b      	lsls	r3, r3, #22
 8006220:	0d9b      	lsrs	r3, r3, #22
 8006222:	8003      	strh	r3, [r0, #0]
 8006224:	8803      	ldrh	r3, [r0, #0]
 8006226:	431d      	orrs	r5, r3
 8006228:	4663      	mov	r3, ip
 800622a:	431d      	orrs	r5, r3
 800622c:	b2ab      	uxth	r3, r5
 800622e:	8003      	strh	r3, [r0, #0]
 8006230:	e65b      	b.n	8005eea <USB_EPStartXfer+0x24e>
        PCD_SET_EP_DBUF_CNT(USBx, ep->num, ep->is_in, len);
 8006232:	201f      	movs	r0, #31
 8006234:	096f      	lsrs	r7, r5, #5
 8006236:	4005      	ands	r5, r0
 8006238:	0028      	movs	r0, r5
 800623a:	4245      	negs	r5, r0
 800623c:	4145      	adcs	r5, r0
 800623e:	4812      	ldr	r0, [pc, #72]	@ (8006288 <USB_EPStartXfer+0x5ec>)
 8006240:	1b7f      	subs	r7, r7, r5
 8006242:	4684      	mov	ip, r0
 8006244:	881d      	ldrh	r5, [r3, #0]
 8006246:	02bf      	lsls	r7, r7, #10
 8006248:	b2bf      	uxth	r7, r7
 800624a:	433d      	orrs	r5, r7
 800624c:	4305      	orrs	r5, r0
 800624e:	b2ad      	uxth	r5, r5
 8006250:	801d      	strh	r5, [r3, #0]
 8006252:	5b93      	ldrh	r3, [r2, r6]
 8006254:	4443      	add	r3, r8
 8006256:	1918      	adds	r0, r3, r4
 8006258:	8803      	ldrh	r3, [r0, #0]
 800625a:	059b      	lsls	r3, r3, #22
 800625c:	0d9b      	lsrs	r3, r3, #22
 800625e:	8003      	strh	r3, [r0, #0]
 8006260:	8803      	ldrh	r3, [r0, #0]
 8006262:	431f      	orrs	r7, r3
 8006264:	4663      	mov	r3, ip
 8006266:	431f      	orrs	r7, r3
 8006268:	b2bb      	uxth	r3, r7
 800626a:	8003      	strh	r3, [r0, #0]
 800626c:	e55e      	b.n	8005d2c <USB_EPStartXfer+0x90>
 800626e:	46c0      	nop			@ (mov r8, r8)
 8006270:	00000402 	.word	0x00000402
 8006274:	ffff8f8f 	.word	0xffff8f8f
 8006278:	00008180 	.word	0x00008180
 800627c:	00000406 	.word	0x00000406
 8006280:	ffff8e8f 	.word	0xffff8e8f
 8006284:	00008080 	.word	0x00008080
 8006288:	ffff8000 	.word	0xffff8000

0800628c <USB_EPSetStall>:
    PCD_SET_EP_TX_STATUS(USBx, ep->num, USB_EP_TX_STALL);
 800628c:	780b      	ldrb	r3, [r1, #0]
 800628e:	009b      	lsls	r3, r3, #2
 8006290:	18c0      	adds	r0, r0, r3
  if (ep->is_in != 0U)
 8006292:	784b      	ldrb	r3, [r1, #1]
    PCD_SET_EP_TX_STATUS(USBx, ep->num, USB_EP_TX_STALL);
 8006294:	8802      	ldrh	r2, [r0, #0]
  if (ep->is_in != 0U)
 8006296:	2b00      	cmp	r3, #0
 8006298:	d009      	beq.n	80062ae <USB_EPSetStall+0x22>
    PCD_SET_EP_TX_STATUS(USBx, ep->num, USB_EP_TX_STALL);
 800629a:	4b09      	ldr	r3, [pc, #36]	@ (80062c0 <USB_EPSetStall+0x34>)
 800629c:	401a      	ands	r2, r3
 800629e:	2310      	movs	r3, #16
 80062a0:	405a      	eors	r2, r3
 80062a2:	4b08      	ldr	r3, [pc, #32]	@ (80062c4 <USB_EPSetStall+0x38>)
 80062a4:	4313      	orrs	r3, r2
 80062a6:	b29b      	uxth	r3, r3
 80062a8:	8003      	strh	r3, [r0, #0]
}
 80062aa:	2000      	movs	r0, #0
 80062ac:	4770      	bx	lr
    PCD_SET_EP_RX_STATUS(USBx, ep->num, USB_EP_RX_STALL);
 80062ae:	4b06      	ldr	r3, [pc, #24]	@ (80062c8 <USB_EPSetStall+0x3c>)
 80062b0:	401a      	ands	r2, r3
 80062b2:	2380      	movs	r3, #128	@ 0x80
 80062b4:	015b      	lsls	r3, r3, #5
 80062b6:	4053      	eors	r3, r2
 80062b8:	4a04      	ldr	r2, [pc, #16]	@ (80062cc <USB_EPSetStall+0x40>)
 80062ba:	4313      	orrs	r3, r2
 80062bc:	8003      	strh	r3, [r0, #0]
 80062be:	e7f4      	b.n	80062aa <USB_EPSetStall+0x1e>
 80062c0:	ffff8fbf 	.word	0xffff8fbf
 80062c4:	ffff8080 	.word	0xffff8080
 80062c8:	ffffbf8f 	.word	0xffffbf8f
 80062cc:	00008080 	.word	0x00008080

080062d0 <USB_EPClearStall>:
  if (ep->doublebuffer == 0U)
 80062d0:	7b0b      	ldrb	r3, [r1, #12]
 80062d2:	2b00      	cmp	r3, #0
 80062d4:	d11a      	bne.n	800630c <USB_EPClearStall+0x3c>
      PCD_CLEAR_TX_DTOG(USBx, ep->num);
 80062d6:	780b      	ldrb	r3, [r1, #0]
 80062d8:	009b      	lsls	r3, r3, #2
 80062da:	18c0      	adds	r0, r0, r3
    if (ep->is_in != 0U)
 80062dc:	784b      	ldrb	r3, [r1, #1]
 80062de:	2b00      	cmp	r3, #0
 80062e0:	d016      	beq.n	8006310 <USB_EPClearStall+0x40>
      PCD_CLEAR_TX_DTOG(USBx, ep->num);
 80062e2:	8803      	ldrh	r3, [r0, #0]
 80062e4:	065b      	lsls	r3, r3, #25
 80062e6:	d505      	bpl.n	80062f4 <USB_EPClearStall+0x24>
 80062e8:	8803      	ldrh	r3, [r0, #0]
 80062ea:	4a13      	ldr	r2, [pc, #76]	@ (8006338 <USB_EPClearStall+0x68>)
 80062ec:	4013      	ands	r3, r2
 80062ee:	4a13      	ldr	r2, [pc, #76]	@ (800633c <USB_EPClearStall+0x6c>)
 80062f0:	4313      	orrs	r3, r2
 80062f2:	8003      	strh	r3, [r0, #0]
      if (ep->type != EP_TYPE_ISOC)
 80062f4:	78cb      	ldrb	r3, [r1, #3]
 80062f6:	2b01      	cmp	r3, #1
 80062f8:	d008      	beq.n	800630c <USB_EPClearStall+0x3c>
        PCD_SET_EP_TX_STATUS(USBx, ep->num, USB_EP_TX_NAK);
 80062fa:	8802      	ldrh	r2, [r0, #0]
 80062fc:	4b10      	ldr	r3, [pc, #64]	@ (8006340 <USB_EPClearStall+0x70>)
 80062fe:	401a      	ands	r2, r3
 8006300:	2320      	movs	r3, #32
 8006302:	405a      	eors	r2, r3
 8006304:	4b0f      	ldr	r3, [pc, #60]	@ (8006344 <USB_EPClearStall+0x74>)
 8006306:	4313      	orrs	r3, r2
 8006308:	b29b      	uxth	r3, r3
 800630a:	8003      	strh	r3, [r0, #0]
}
 800630c:	2000      	movs	r0, #0
 800630e:	4770      	bx	lr
      PCD_CLEAR_RX_DTOG(USBx, ep->num);
 8006310:	8803      	ldrh	r3, [r0, #0]
 8006312:	045b      	lsls	r3, r3, #17
 8006314:	d505      	bpl.n	8006322 <USB_EPClearStall+0x52>
 8006316:	8803      	ldrh	r3, [r0, #0]
 8006318:	4a07      	ldr	r2, [pc, #28]	@ (8006338 <USB_EPClearStall+0x68>)
 800631a:	4013      	ands	r3, r2
 800631c:	4a0a      	ldr	r2, [pc, #40]	@ (8006348 <USB_EPClearStall+0x78>)
 800631e:	4313      	orrs	r3, r2
 8006320:	8003      	strh	r3, [r0, #0]
      PCD_SET_EP_RX_STATUS(USBx, ep->num, USB_EP_RX_VALID);
 8006322:	8802      	ldrh	r2, [r0, #0]
 8006324:	4b09      	ldr	r3, [pc, #36]	@ (800634c <USB_EPClearStall+0x7c>)
 8006326:	401a      	ands	r2, r3
 8006328:	23c0      	movs	r3, #192	@ 0xc0
 800632a:	019b      	lsls	r3, r3, #6
 800632c:	4053      	eors	r3, r2
 800632e:	4a08      	ldr	r2, [pc, #32]	@ (8006350 <USB_EPClearStall+0x80>)
 8006330:	4313      	orrs	r3, r2
 8006332:	8003      	strh	r3, [r0, #0]
 8006334:	e7ea      	b.n	800630c <USB_EPClearStall+0x3c>
 8006336:	46c0      	nop			@ (mov r8, r8)
 8006338:	ffff8f8f 	.word	0xffff8f8f
 800633c:	000080c0 	.word	0x000080c0
 8006340:	ffff8fbf 	.word	0xffff8fbf
 8006344:	ffff8080 	.word	0xffff8080
 8006348:	0000c080 	.word	0x0000c080
 800634c:	ffffbf8f 	.word	0xffffbf8f
 8006350:	00008080 	.word	0x00008080

08006354 <USB_SetDevAddress>:
  if (address == 0U)
 8006354:	2900      	cmp	r1, #0
 8006356:	d102      	bne.n	800635e <USB_SetDevAddress+0xa>
    USBx->DADDR = (uint16_t)USB_DADDR_EF;
 8006358:	234c      	movs	r3, #76	@ 0x4c
 800635a:	2280      	movs	r2, #128	@ 0x80
 800635c:	52c2      	strh	r2, [r0, r3]
}
 800635e:	2000      	movs	r0, #0
 8006360:	4770      	bx	lr
 8006362:	46c0      	nop			@ (mov r8, r8)

08006364 <USB_DevConnect>:
  USBx->BCDR |= (uint16_t)USB_BCDR_DPPU;
 8006364:	2258      	movs	r2, #88	@ 0x58
 8006366:	2180      	movs	r1, #128	@ 0x80
 8006368:	5a83      	ldrh	r3, [r0, r2]
 800636a:	0209      	lsls	r1, r1, #8
 800636c:	430b      	orrs	r3, r1
 800636e:	5283      	strh	r3, [r0, r2]
}
 8006370:	2000      	movs	r0, #0
 8006372:	4770      	bx	lr

08006374 <USB_ReadInterrupts>:
  tmpreg = USBx->ISTR;
 8006374:	2344      	movs	r3, #68	@ 0x44
 8006376:	5ac0      	ldrh	r0, [r0, r3]
 8006378:	b280      	uxth	r0, r0
}
 800637a:	4770      	bx	lr

0800637c <USB_WritePMA>:
{
 800637c:	b530      	push	{r4, r5, lr}
  pdwVal = (__IO uint16_t *)(BaseAddr + 0x400U + ((uint32_t)wPMABufAddr * PMA_ACCESS));
 800637e:	2480      	movs	r4, #128	@ 0x80
 8006380:	00e4      	lsls	r4, r4, #3
 8006382:	46a4      	mov	ip, r4
  uint32_t n = ((uint32_t)wNBytes + 1U) >> 1;
 8006384:	3301      	adds	r3, #1
  pdwVal = (__IO uint16_t *)(BaseAddr + 0x400U + ((uint32_t)wPMABufAddr * PMA_ACCESS));
 8006386:	4462      	add	r2, ip
  uint32_t n = ((uint32_t)wNBytes + 1U) >> 1;
 8006388:	085b      	lsrs	r3, r3, #1
  pdwVal = (__IO uint16_t *)(BaseAddr + 0x400U + ((uint32_t)wPMABufAddr * PMA_ACCESS));
 800638a:	1880      	adds	r0, r0, r2
  for (count = n; count != 0U; count--)
 800638c:	2b00      	cmp	r3, #0
 800638e:	d00b      	beq.n	80063a8 <USB_WritePMA+0x2c>
 8006390:	005a      	lsls	r2, r3, #1
 8006392:	188a      	adds	r2, r1, r2
 8006394:	1a45      	subs	r5, r0, r1
 8006396:	784b      	ldrb	r3, [r1, #1]
 8006398:	780c      	ldrb	r4, [r1, #0]
 800639a:	021b      	lsls	r3, r3, #8
 800639c:	1948      	adds	r0, r1, r5
    WrVal |= (uint16_t)pBuf[1] << 8;
 800639e:	4323      	orrs	r3, r4
    pBuf++;
 80063a0:	3102      	adds	r1, #2
    *pdwVal = (WrVal & 0xFFFFU);
 80063a2:	8003      	strh	r3, [r0, #0]
  for (count = n; count != 0U; count--)
 80063a4:	428a      	cmp	r2, r1
 80063a6:	d1f6      	bne.n	8006396 <USB_WritePMA+0x1a>
  }
}
 80063a8:	bd30      	pop	{r4, r5, pc}
 80063aa:	46c0      	nop			@ (mov r8, r8)

080063ac <USB_ReadPMA>:
  * @param   wPMABufAddr address into PMA.
  * @param   wNBytes no. of bytes to be copied.
  * @retval None
  */
void USB_ReadPMA(USB_TypeDef const *USBx, uint8_t *pbUsrBuf, uint16_t wPMABufAddr, uint16_t wNBytes)
{
 80063ac:	b5f0      	push	{r4, r5, r6, r7, lr}
  uint32_t count;
  uint32_t RdVal;
  __IO uint16_t *pdwVal;
  uint8_t *pBuf = pbUsrBuf;

  pdwVal = (__IO uint16_t *)(BaseAddr + 0x400U + ((uint32_t)wPMABufAddr * PMA_ACCESS));
 80063ae:	2480      	movs	r4, #128	@ 0x80
 80063b0:	00e4      	lsls	r4, r4, #3
 80063b2:	46a4      	mov	ip, r4
 80063b4:	4462      	add	r2, ip
 80063b6:	1880      	adds	r0, r0, r2
 80063b8:	0002      	movs	r2, r0
  uint32_t n = (uint32_t)wNBytes >> 1;
 80063ba:	085f      	lsrs	r7, r3, #1

  for (count = n; count != 0U; count--)
 80063bc:	d00f      	beq.n	80063de <USB_ReadPMA+0x32>
  uint8_t *pBuf = pbUsrBuf;
 80063be:	000c      	movs	r4, r1
  for (count = n; count != 0U; count--)
 80063c0:	003d      	movs	r5, r7
 80063c2:	1a46      	subs	r6, r0, r1
 80063c4:	19a2      	adds	r2, r4, r6
  {
    RdVal = *(__IO uint16_t *)pdwVal;
 80063c6:	8812      	ldrh	r2, [r2, #0]
  for (count = n; count != 0U; count--)
 80063c8:	3d01      	subs	r5, #1
    RdVal = *(__IO uint16_t *)pdwVal;
 80063ca:	b292      	uxth	r2, r2
    pdwVal++;
    *pBuf = (uint8_t)((RdVal >> 0) & 0xFFU);
 80063cc:	7022      	strb	r2, [r4, #0]
    pBuf++;
    *pBuf = (uint8_t)((RdVal >> 8) & 0xFFU);
 80063ce:	0a12      	lsrs	r2, r2, #8
 80063d0:	7062      	strb	r2, [r4, #1]
    pBuf++;
 80063d2:	3402      	adds	r4, #2
  for (count = n; count != 0U; count--)
 80063d4:	2d00      	cmp	r5, #0
 80063d6:	d1f5      	bne.n	80063c4 <USB_ReadPMA+0x18>
 80063d8:	007f      	lsls	r7, r7, #1
    pdwVal++;
 80063da:	19c2      	adds	r2, r0, r7
    pBuf++;
 80063dc:	19c9      	adds	r1, r1, r7
#if PMA_ACCESS > 1U
    pdwVal++;
#endif /* PMA_ACCESS */
  }

  if ((wNBytes % 2U) != 0U)
 80063de:	07db      	lsls	r3, r3, #31
 80063e0:	d501      	bpl.n	80063e6 <USB_ReadPMA+0x3a>
  {
    RdVal = *pdwVal;
 80063e2:	8813      	ldrh	r3, [r2, #0]
    *pBuf = (uint8_t)((RdVal >> 0) & 0xFFU);
 80063e4:	700b      	strb	r3, [r1, #0]
  }
}
 80063e6:	bdf0      	pop	{r4, r5, r6, r7, pc}

080063e8 <USBD_CDC_EP0_RxReady>:
  */
static uint8_t  USBD_CDC_EP0_RxReady(USBD_HandleTypeDef *pdev)
{
  USBD_CDC_HandleTypeDef   *hcdc = (USBD_CDC_HandleTypeDef *) pdev->pClassData;

  if ((pdev->pUserData != NULL) && (hcdc->CmdOpCode != 0xFFU))
 80063e8:	23af      	movs	r3, #175	@ 0xaf
 80063ea:	009b      	lsls	r3, r3, #2
 80063ec:	58c3      	ldr	r3, [r0, r3]
{
 80063ee:	b570      	push	{r4, r5, r6, lr}
  if ((pdev->pUserData != NULL) && (hcdc->CmdOpCode != 0xFFU))
 80063f0:	2b00      	cmp	r3, #0
 80063f2:	d00e      	beq.n	8006412 <USBD_CDC_EP0_RxReady+0x2a>
  USBD_CDC_HandleTypeDef   *hcdc = (USBD_CDC_HandleTypeDef *) pdev->pClassData;
 80063f4:	22ae      	movs	r2, #174	@ 0xae
  if ((pdev->pUserData != NULL) && (hcdc->CmdOpCode != 0xFFU))
 80063f6:	2580      	movs	r5, #128	@ 0x80
  USBD_CDC_HandleTypeDef   *hcdc = (USBD_CDC_HandleTypeDef *) pdev->pClassData;
 80063f8:	0092      	lsls	r2, r2, #2
 80063fa:	5884      	ldr	r4, [r0, r2]
  if ((pdev->pUserData != NULL) && (hcdc->CmdOpCode != 0xFFU))
 80063fc:	00ad      	lsls	r5, r5, #2
 80063fe:	5d60      	ldrb	r0, [r4, r5]
 8006400:	28ff      	cmp	r0, #255	@ 0xff
 8006402:	d006      	beq.n	8006412 <USBD_CDC_EP0_RxReady+0x2a>
  {
    ((USBD_CDC_ItfTypeDef *)pdev->pUserData)->Control(hcdc->CmdOpCode,
 8006404:	4a04      	ldr	r2, [pc, #16]	@ (8006418 <USBD_CDC_EP0_RxReady+0x30>)
 8006406:	689b      	ldr	r3, [r3, #8]
 8006408:	0021      	movs	r1, r4
 800640a:	5ca2      	ldrb	r2, [r4, r2]
 800640c:	4798      	blx	r3
                                                      (uint8_t *)(void *)hcdc->data,
                                                      (uint16_t)hcdc->CmdLength);
    hcdc->CmdOpCode = 0xFFU;
 800640e:	23ff      	movs	r3, #255	@ 0xff
 8006410:	5563      	strb	r3, [r4, r5]

  }
  return USBD_OK;
}
 8006412:	2000      	movs	r0, #0
 8006414:	bd70      	pop	{r4, r5, r6, pc}
 8006416:	46c0      	nop			@ (mov r8, r8)
 8006418:	00000201 	.word	0x00000201

0800641c <USBD_CDC_GetFSCfgDesc>:
  * @param  length : pointer data length
  * @retval pointer to descriptor buffer
  */
static uint8_t  *USBD_CDC_GetFSCfgDesc(uint16_t *length)
{
  *length = sizeof(USBD_CDC_CfgFSDesc);
 800641c:	2343      	movs	r3, #67	@ 0x43
 800641e:	8003      	strh	r3, [r0, #0]
  return USBD_CDC_CfgFSDesc;
 8006420:	4800      	ldr	r0, [pc, #0]	@ (8006424 <USBD_CDC_GetFSCfgDesc+0x8>)
}
 8006422:	4770      	bx	lr
 8006424:	20000064 	.word	0x20000064

08006428 <USBD_CDC_GetHSCfgDesc>:
  * @param  length : pointer data length
  * @retval pointer to descriptor buffer
  */
static uint8_t  *USBD_CDC_GetHSCfgDesc(uint16_t *length)
{
  *length = sizeof(USBD_CDC_CfgHSDesc);
 8006428:	2343      	movs	r3, #67	@ 0x43
 800642a:	8003      	strh	r3, [r0, #0]
  return USBD_CDC_CfgHSDesc;
 800642c:	4800      	ldr	r0, [pc, #0]	@ (8006430 <USBD_CDC_GetHSCfgDesc+0x8>)
}
 800642e:	4770      	bx	lr
 8006430:	200000a8 	.word	0x200000a8

08006434 <USBD_CDC_GetOtherSpeedCfgDesc>:
  * @param  length : pointer data length
  * @retval pointer to descriptor buffer
  */
static uint8_t  *USBD_CDC_GetOtherSpeedCfgDesc(uint16_t *length)
{
  *length = sizeof(USBD_CDC_OtherSpeedCfgDesc);
 8006434:	2343      	movs	r3, #67	@ 0x43
 8006436:	8003      	strh	r3, [r0, #0]
  return USBD_CDC_OtherSpeedCfgDesc;
 8006438:	4800      	ldr	r0, [pc, #0]	@ (800643c <USBD_CDC_GetOtherSpeedCfgDesc+0x8>)
}
 800643a:	4770      	bx	lr
 800643c:	20000020 	.word	0x20000020

08006440 <USBD_CDC_GetDeviceQualifierDescriptor>:
* @param  length : pointer data length
* @retval pointer to descriptor buffer
*/
uint8_t  *USBD_CDC_GetDeviceQualifierDescriptor(uint16_t *length)
{
  *length = sizeof(USBD_CDC_DeviceQualifierDesc);
 8006440:	230a      	movs	r3, #10
 8006442:	8003      	strh	r3, [r0, #0]
  return USBD_CDC_DeviceQualifierDesc;
 8006444:	4800      	ldr	r0, [pc, #0]	@ (8006448 <USBD_CDC_GetDeviceQualifierDescriptor+0x8>)
}
 8006446:	4770      	bx	lr
 8006448:	20000124 	.word	0x20000124

0800644c <USBD_CDC_DataOut>:
{
 800644c:	b570      	push	{r4, r5, r6, lr}
  USBD_CDC_HandleTypeDef   *hcdc = (USBD_CDC_HandleTypeDef *) pdev->pClassData;
 800644e:	26ae      	movs	r6, #174	@ 0xae
 8006450:	00b6      	lsls	r6, r6, #2
{
 8006452:	0004      	movs	r4, r0
  USBD_CDC_HandleTypeDef   *hcdc = (USBD_CDC_HandleTypeDef *) pdev->pClassData;
 8006454:	5985      	ldr	r5, [r0, r6]
  hcdc->RxLength = USBD_LL_GetRxDataSize(pdev, epnum);
 8006456:	f001 f8a9 	bl	80075ac <USBD_LL_GetRxDataSize>
 800645a:	2383      	movs	r3, #131	@ 0x83
 800645c:	009b      	lsls	r3, r3, #2
 800645e:	50e8      	str	r0, [r5, r3]
  if (pdev->pClassData != NULL)
 8006460:	59a3      	ldr	r3, [r4, r6]
 8006462:	2b00      	cmp	r3, #0
 8006464:	d00a      	beq.n	800647c <USBD_CDC_DataOut+0x30>
    ((USBD_CDC_ItfTypeDef *)pdev->pUserData)->Receive(hcdc->RxBuffer, &hcdc->RxLength);
 8006466:	2383      	movs	r3, #131	@ 0x83
 8006468:	009b      	lsls	r3, r3, #2
 800646a:	18e9      	adds	r1, r5, r3
 800646c:	3b08      	subs	r3, #8
 800646e:	58e8      	ldr	r0, [r5, r3]
 8006470:	33b8      	adds	r3, #184	@ 0xb8
 8006472:	58e3      	ldr	r3, [r4, r3]
 8006474:	68db      	ldr	r3, [r3, #12]
 8006476:	4798      	blx	r3
    return USBD_OK;
 8006478:	2000      	movs	r0, #0
}
 800647a:	bd70      	pop	{r4, r5, r6, pc}
    return USBD_FAIL;
 800647c:	2002      	movs	r0, #2
 800647e:	e7fc      	b.n	800647a <USBD_CDC_DataOut+0x2e>

08006480 <USBD_CDC_DataIn>:
{
 8006480:	b5f8      	push	{r3, r4, r5, r6, r7, lr}
  USBD_CDC_HandleTypeDef *hcdc = (USBD_CDC_HandleTypeDef *)pdev->pClassData;
 8006482:	23ae      	movs	r3, #174	@ 0xae
 8006484:	009b      	lsls	r3, r3, #2
 8006486:	58c7      	ldr	r7, [r0, r3]
{
 8006488:	0004      	movs	r4, r0
 800648a:	000d      	movs	r5, r1
  if (pdev->pClassData != NULL)
 800648c:	2f00      	cmp	r7, #0
 800648e:	d01d      	beq.n	80064cc <USBD_CDC_DataIn+0x4c>
  PCD_HandleTypeDef *hpcd = pdev->pData;
 8006490:	3308      	adds	r3, #8
 8006492:	58c2      	ldr	r2, [r0, r3]
    if ((pdev->ep_in[epnum].total_length > 0U) && ((pdev->ep_in[epnum].total_length % hpcd->IN_ep[epnum].maxpacket) == 0U))
 8006494:	008b      	lsls	r3, r1, #2
 8006496:	185b      	adds	r3, r3, r1
 8006498:	009e      	lsls	r6, r3, #2
 800649a:	1986      	adds	r6, r0, r6
 800649c:	69f0      	ldr	r0, [r6, #28]
 800649e:	2800      	cmp	r0, #0
 80064a0:	d006      	beq.n	80064b0 <USBD_CDC_DataIn+0x30>
 80064a2:	00db      	lsls	r3, r3, #3
 80064a4:	18d2      	adds	r2, r2, r3
 80064a6:	6a11      	ldr	r1, [r2, #32]
 80064a8:	f7f9 fec6 	bl	8000238 <__aeabi_uidivmod>
 80064ac:	2900      	cmp	r1, #0
 80064ae:	d005      	beq.n	80064bc <USBD_CDC_DataIn+0x3c>
      hcdc->TxState = 0U;
 80064b0:	2385      	movs	r3, #133	@ 0x85
 80064b2:	2200      	movs	r2, #0
 80064b4:	009b      	lsls	r3, r3, #2
 80064b6:	50fa      	str	r2, [r7, r3]
    return USBD_OK;
 80064b8:	2000      	movs	r0, #0
}
 80064ba:	bdf8      	pop	{r3, r4, r5, r6, r7, pc}
      pdev->ep_in[epnum].total_length = 0U;
 80064bc:	61f1      	str	r1, [r6, #28]
      USBD_LL_Transmit(pdev, epnum, NULL, 0U);
 80064be:	2300      	movs	r3, #0
 80064c0:	2200      	movs	r2, #0
 80064c2:	0029      	movs	r1, r5
 80064c4:	0020      	movs	r0, r4
 80064c6:	f001 f855 	bl	8007574 <USBD_LL_Transmit>
 80064ca:	e7f5      	b.n	80064b8 <USBD_CDC_DataIn+0x38>
    return USBD_FAIL;
 80064cc:	2002      	movs	r0, #2
 80064ce:	e7f4      	b.n	80064ba <USBD_CDC_DataIn+0x3a>

080064d0 <USBD_CDC_Setup>:
{
 80064d0:	b5f0      	push	{r4, r5, r6, r7, lr}
  USBD_CDC_HandleTypeDef   *hcdc = (USBD_CDC_HandleTypeDef *) pdev->pClassData;
 80064d2:	23ae      	movs	r3, #174	@ 0xae
{
 80064d4:	b083      	sub	sp, #12
  uint16_t status_info = 0U;
 80064d6:	466a      	mov	r2, sp
  USBD_CDC_HandleTypeDef   *hcdc = (USBD_CDC_HandleTypeDef *) pdev->pClassData;
 80064d8:	009b      	lsls	r3, r3, #2
 80064da:	58c6      	ldr	r6, [r0, r3]
  uint8_t ifalt = 0U;
 80064dc:	466b      	mov	r3, sp
{
 80064de:	0005      	movs	r5, r0
  uint16_t status_info = 0U;
 80064e0:	1d90      	adds	r0, r2, #6
 80064e2:	2260      	movs	r2, #96	@ 0x60
{
 80064e4:	000c      	movs	r4, r1
  uint8_t ifalt = 0U;
 80064e6:	1d59      	adds	r1, r3, #5
 80064e8:	2300      	movs	r3, #0
 80064ea:	0017      	movs	r7, r2
 80064ec:	700b      	strb	r3, [r1, #0]
  uint16_t status_info = 0U;
 80064ee:	8003      	strh	r3, [r0, #0]
  switch (req->bmRequest & USB_REQ_TYPE_MASK)
 80064f0:	7823      	ldrb	r3, [r4, #0]
 80064f2:	401f      	ands	r7, r3
 80064f4:	421a      	tst	r2, r3
 80064f6:	d015      	beq.n	8006524 <USBD_CDC_Setup+0x54>
 80064f8:	2f20      	cmp	r7, #32
 80064fa:	d11a      	bne.n	8006532 <USBD_CDC_Setup+0x62>
      if (req->wLength)
 80064fc:	88e2      	ldrh	r2, [r4, #6]
          ((USBD_CDC_ItfTypeDef *)pdev->pUserData)->Control(req->bRequest,
 80064fe:	7860      	ldrb	r0, [r4, #1]
      if (req->wLength)
 8006500:	2a00      	cmp	r2, #0
 8006502:	d01d      	beq.n	8006540 <USBD_CDC_Setup+0x70>
        if (req->bmRequest & 0x80U)
 8006504:	b25b      	sxtb	r3, r3
 8006506:	2b00      	cmp	r3, #0
 8006508:	da41      	bge.n	800658e <USBD_CDC_Setup+0xbe>
          ((USBD_CDC_ItfTypeDef *)pdev->pUserData)->Control(req->bRequest,
 800650a:	23af      	movs	r3, #175	@ 0xaf
 800650c:	009b      	lsls	r3, r3, #2
 800650e:	58eb      	ldr	r3, [r5, r3]
 8006510:	0031      	movs	r1, r6
 8006512:	689b      	ldr	r3, [r3, #8]
 8006514:	4798      	blx	r3
          USBD_CtlSendData(pdev, (uint8_t *)(void *)hcdc->data, req->wLength);
 8006516:	0031      	movs	r1, r6
 8006518:	0028      	movs	r0, r5
 800651a:	88e2      	ldrh	r2, [r4, #6]
 800651c:	f000 fd26 	bl	8006f6c <USBD_CtlSendData>
  uint8_t ret = USBD_OK;
 8006520:	2000      	movs	r0, #0
 8006522:	e00b      	b.n	800653c <USBD_CDC_Setup+0x6c>
      switch (req->bRequest)
 8006524:	7863      	ldrb	r3, [r4, #1]
 8006526:	2b0a      	cmp	r3, #10
 8006528:	d026      	beq.n	8006578 <USBD_CDC_Setup+0xa8>
 800652a:	2b0b      	cmp	r3, #11
 800652c:	d01d      	beq.n	800656a <USBD_CDC_Setup+0x9a>
 800652e:	2b00      	cmp	r3, #0
 8006530:	d00f      	beq.n	8006552 <USBD_CDC_Setup+0x82>
          USBD_CtlError(pdev, req);
 8006532:	0028      	movs	r0, r5
 8006534:	0021      	movs	r1, r4
 8006536:	f000 fce7 	bl	8006f08 <USBD_CtlError>
            ret = USBD_FAIL;
 800653a:	2002      	movs	r0, #2
}
 800653c:	b003      	add	sp, #12
 800653e:	bdf0      	pop	{r4, r5, r6, r7, pc}
        ((USBD_CDC_ItfTypeDef *)pdev->pUserData)->Control(req->bRequest,
 8006540:	23af      	movs	r3, #175	@ 0xaf
 8006542:	009b      	lsls	r3, r3, #2
 8006544:	58eb      	ldr	r3, [r5, r3]
 8006546:	2200      	movs	r2, #0
 8006548:	0021      	movs	r1, r4
 800654a:	689b      	ldr	r3, [r3, #8]
 800654c:	4798      	blx	r3
  uint8_t ret = USBD_OK;
 800654e:	2000      	movs	r0, #0
 8006550:	e7f4      	b.n	800653c <USBD_CDC_Setup+0x6c>
          if (pdev->dev_state == USBD_STATE_CONFIGURED)
 8006552:	23a7      	movs	r3, #167	@ 0xa7
 8006554:	009b      	lsls	r3, r3, #2
 8006556:	5ceb      	ldrb	r3, [r5, r3]
 8006558:	2b03      	cmp	r3, #3
 800655a:	d1ea      	bne.n	8006532 <USBD_CDC_Setup+0x62>
            USBD_CtlSendData(pdev, (uint8_t *)(void *)&status_info, 2U);
 800655c:	0001      	movs	r1, r0
 800655e:	2202      	movs	r2, #2
 8006560:	0028      	movs	r0, r5
 8006562:	f000 fd03 	bl	8006f6c <USBD_CtlSendData>
  uint8_t ret = USBD_OK;
 8006566:	2000      	movs	r0, #0
 8006568:	e7e8      	b.n	800653c <USBD_CDC_Setup+0x6c>
          if (pdev->dev_state != USBD_STATE_CONFIGURED)
 800656a:	23a7      	movs	r3, #167	@ 0xa7
 800656c:	009b      	lsls	r3, r3, #2
 800656e:	5ceb      	ldrb	r3, [r5, r3]
 8006570:	2b03      	cmp	r3, #3
 8006572:	d1de      	bne.n	8006532 <USBD_CDC_Setup+0x62>
  uint8_t ret = USBD_OK;
 8006574:	2000      	movs	r0, #0
 8006576:	e7e1      	b.n	800653c <USBD_CDC_Setup+0x6c>
          if (pdev->dev_state == USBD_STATE_CONFIGURED)
 8006578:	23a7      	movs	r3, #167	@ 0xa7
 800657a:	009b      	lsls	r3, r3, #2
 800657c:	5ceb      	ldrb	r3, [r5, r3]
 800657e:	2b03      	cmp	r3, #3
 8006580:	d1d7      	bne.n	8006532 <USBD_CDC_Setup+0x62>
            USBD_CtlSendData(pdev, &ifalt, 1U);
 8006582:	2201      	movs	r2, #1
 8006584:	0028      	movs	r0, r5
 8006586:	f000 fcf1 	bl	8006f6c <USBD_CtlSendData>
  uint8_t ret = USBD_OK;
 800658a:	2000      	movs	r0, #0
 800658c:	e7d6      	b.n	800653c <USBD_CDC_Setup+0x6c>
          hcdc->CmdOpCode = req->bRequest;
 800658e:	2380      	movs	r3, #128	@ 0x80
 8006590:	009b      	lsls	r3, r3, #2
 8006592:	54f0      	strb	r0, [r6, r3]
          hcdc->CmdLength = (uint8_t)req->wLength;
 8006594:	4b03      	ldr	r3, [pc, #12]	@ (80065a4 <USBD_CDC_Setup+0xd4>)
          USBD_CtlPrepareRx(pdev, (uint8_t *)(void *)hcdc->data, req->wLength);
 8006596:	0031      	movs	r1, r6
 8006598:	0028      	movs	r0, r5
          hcdc->CmdLength = (uint8_t)req->wLength;
 800659a:	54f2      	strb	r2, [r6, r3]
          USBD_CtlPrepareRx(pdev, (uint8_t *)(void *)hcdc->data, req->wLength);
 800659c:	f000 fcfc 	bl	8006f98 <USBD_CtlPrepareRx>
  uint8_t ret = USBD_OK;
 80065a0:	2000      	movs	r0, #0
 80065a2:	e7cb      	b.n	800653c <USBD_CDC_Setup+0x6c>
 80065a4:	00000201 	.word	0x00000201

080065a8 <USBD_CDC_DeInit>:
{
 80065a8:	b570      	push	{r4, r5, r6, lr}
 80065aa:	0004      	movs	r4, r0
  pdev->ep_in[CDC_IN_EP & 0xFU].is_used = 0U;
 80065ac:	2600      	movs	r6, #0
  USBD_LL_CloseEP(pdev, CDC_IN_EP);
 80065ae:	2181      	movs	r1, #129	@ 0x81
 80065b0:	f000 ff92 	bl	80074d8 <USBD_LL_CloseEP>
  USBD_LL_CloseEP(pdev, CDC_OUT_EP);
 80065b4:	2101      	movs	r1, #1
 80065b6:	0020      	movs	r0, r4
  pdev->ep_in[CDC_IN_EP & 0xFU].is_used = 0U;
 80065b8:	62e6      	str	r6, [r4, #44]	@ 0x2c
  USBD_LL_CloseEP(pdev, CDC_OUT_EP);
 80065ba:	f000 ff8d 	bl	80074d8 <USBD_LL_CloseEP>
  pdev->ep_out[CDC_OUT_EP & 0xFU].is_used = 0U;
 80065be:	23b6      	movs	r3, #182	@ 0xb6
  if (pdev->pClassData != NULL)
 80065c0:	25ae      	movs	r5, #174	@ 0xae
  pdev->ep_out[CDC_OUT_EP & 0xFU].is_used = 0U;
 80065c2:	005b      	lsls	r3, r3, #1
 80065c4:	50e6      	str	r6, [r4, r3]
  USBD_LL_CloseEP(pdev, CDC_CMD_EP);
 80065c6:	2182      	movs	r1, #130	@ 0x82
 80065c8:	0020      	movs	r0, r4
  if (pdev->pClassData != NULL)
 80065ca:	00ad      	lsls	r5, r5, #2
  USBD_LL_CloseEP(pdev, CDC_CMD_EP);
 80065cc:	f000 ff84 	bl	80074d8 <USBD_LL_CloseEP>
  if (pdev->pClassData != NULL)
 80065d0:	5963      	ldr	r3, [r4, r5]
  pdev->ep_in[CDC_CMD_EP & 0xFU].is_used = 0U;
 80065d2:	6426      	str	r6, [r4, #64]	@ 0x40
  if (pdev->pClassData != NULL)
 80065d4:	2b00      	cmp	r3, #0
 80065d6:	d008      	beq.n	80065ea <USBD_CDC_DeInit+0x42>
    ((USBD_CDC_ItfTypeDef *)pdev->pUserData)->DeInit();
 80065d8:	23af      	movs	r3, #175	@ 0xaf
 80065da:	009b      	lsls	r3, r3, #2
 80065dc:	58e3      	ldr	r3, [r4, r3]
 80065de:	685b      	ldr	r3, [r3, #4]
 80065e0:	4798      	blx	r3
    USBD_free(pdev->pClassData);
 80065e2:	5960      	ldr	r0, [r4, r5]
 80065e4:	f000 ffee 	bl	80075c4 <USBD_static_free>
    pdev->pClassData = NULL;
 80065e8:	5166      	str	r6, [r4, r5]
}
 80065ea:	2000      	movs	r0, #0
 80065ec:	bd70      	pop	{r4, r5, r6, pc}
 80065ee:	46c0      	nop			@ (mov r8, r8)

080065f0 <USBD_CDC_Init>:
{
 80065f0:	b570      	push	{r4, r5, r6, lr}
  if (pdev->dev_speed == USBD_SPEED_HIGH)
 80065f2:	7c03      	ldrb	r3, [r0, #16]
{
 80065f4:	0004      	movs	r4, r0
  if (pdev->dev_speed == USBD_SPEED_HIGH)
 80065f6:	2b00      	cmp	r3, #0
 80065f8:	d13a      	bne.n	8006670 <USBD_CDC_Init+0x80>
    USBD_LL_OpenEP(pdev, CDC_IN_EP, USBD_EP_TYPE_BULK,
 80065fa:	2380      	movs	r3, #128	@ 0x80
 80065fc:	2202      	movs	r2, #2
 80065fe:	2181      	movs	r1, #129	@ 0x81
 8006600:	009b      	lsls	r3, r3, #2
 8006602:	f000 ff59 	bl	80074b8 <USBD_LL_OpenEP>
    pdev->ep_in[CDC_IN_EP & 0xFU].is_used = 1U;
 8006606:	2301      	movs	r3, #1
 8006608:	62e3      	str	r3, [r4, #44]	@ 0x2c
    USBD_LL_OpenEP(pdev, CDC_OUT_EP, USBD_EP_TYPE_BULK,
 800660a:	2380      	movs	r3, #128	@ 0x80
 800660c:	2202      	movs	r2, #2
 800660e:	2101      	movs	r1, #1
 8006610:	0020      	movs	r0, r4
 8006612:	009b      	lsls	r3, r3, #2
 8006614:	f000 ff50 	bl	80074b8 <USBD_LL_OpenEP>
    pdev->ep_out[CDC_OUT_EP & 0xFU].is_used = 1U;
 8006618:	23b6      	movs	r3, #182	@ 0xb6
 800661a:	2501      	movs	r5, #1
 800661c:	005b      	lsls	r3, r3, #1
 800661e:	50e5      	str	r5, [r4, r3]
  USBD_LL_OpenEP(pdev, CDC_CMD_EP, USBD_EP_TYPE_INTR, CDC_CMD_PACKET_SIZE);
 8006620:	3b65      	subs	r3, #101	@ 0x65
 8006622:	3bff      	subs	r3, #255	@ 0xff
 8006624:	2203      	movs	r2, #3
 8006626:	2182      	movs	r1, #130	@ 0x82
 8006628:	0020      	movs	r0, r4
 800662a:	f000 ff45 	bl	80074b8 <USBD_LL_OpenEP>
  pdev->pClassData = USBD_malloc(sizeof(USBD_CDC_HandleTypeDef));
 800662e:	2087      	movs	r0, #135	@ 0x87
  pdev->ep_in[CDC_CMD_EP & 0xFU].is_used = 1U;
 8006630:	6425      	str	r5, [r4, #64]	@ 0x40
  pdev->pClassData = USBD_malloc(sizeof(USBD_CDC_HandleTypeDef));
 8006632:	0080      	lsls	r0, r0, #2
 8006634:	f000 ffc2 	bl	80075bc <USBD_static_malloc>
 8006638:	23ae      	movs	r3, #174	@ 0xae
 800663a:	009b      	lsls	r3, r3, #2
 800663c:	1e05      	subs	r5, r0, #0
 800663e:	50e0      	str	r0, [r4, r3]
  if (pdev->pClassData == NULL)
 8006640:	d02e      	beq.n	80066a0 <USBD_CDC_Init+0xb0>
    ((USBD_CDC_ItfTypeDef *)pdev->pUserData)->Init();
 8006642:	3304      	adds	r3, #4
 8006644:	58e3      	ldr	r3, [r4, r3]
 8006646:	681b      	ldr	r3, [r3, #0]
 8006648:	4798      	blx	r3
    hcdc->TxState = 0U;
 800664a:	2285      	movs	r2, #133	@ 0x85
 800664c:	2300      	movs	r3, #0
 800664e:	0092      	lsls	r2, r2, #2
 8006650:	50ab      	str	r3, [r5, r2]
    hcdc->RxState = 0U;
 8006652:	3204      	adds	r2, #4
 8006654:	50ab      	str	r3, [r5, r2]
    if (pdev->dev_speed == USBD_SPEED_HIGH)
 8006656:	7c23      	ldrb	r3, [r4, #16]
 8006658:	2b00      	cmp	r3, #0
 800665a:	d117      	bne.n	800668c <USBD_CDC_Init+0x9c>
      USBD_LL_PrepareReceive(pdev, CDC_OUT_EP, hcdc->RxBuffer,
 800665c:	2381      	movs	r3, #129	@ 0x81
 800665e:	009b      	lsls	r3, r3, #2
 8006660:	58ea      	ldr	r2, [r5, r3]
 8006662:	2101      	movs	r1, #1
 8006664:	0020      	movs	r0, r4
 8006666:	3b04      	subs	r3, #4
 8006668:	f000 ff92 	bl	8007590 <USBD_LL_PrepareReceive>
  uint8_t ret = 0U;
 800666c:	2000      	movs	r0, #0
}
 800666e:	bd70      	pop	{r4, r5, r6, pc}
    USBD_LL_OpenEP(pdev, CDC_IN_EP, USBD_EP_TYPE_BULK,
 8006670:	2340      	movs	r3, #64	@ 0x40
 8006672:	2202      	movs	r2, #2
 8006674:	2181      	movs	r1, #129	@ 0x81
 8006676:	f000 ff1f 	bl	80074b8 <USBD_LL_OpenEP>
    pdev->ep_in[CDC_IN_EP & 0xFU].is_used = 1U;
 800667a:	2301      	movs	r3, #1
    USBD_LL_OpenEP(pdev, CDC_OUT_EP, USBD_EP_TYPE_BULK,
 800667c:	2202      	movs	r2, #2
    pdev->ep_in[CDC_IN_EP & 0xFU].is_used = 1U;
 800667e:	62e3      	str	r3, [r4, #44]	@ 0x2c
    USBD_LL_OpenEP(pdev, CDC_OUT_EP, USBD_EP_TYPE_BULK,
 8006680:	2101      	movs	r1, #1
 8006682:	0020      	movs	r0, r4
 8006684:	333f      	adds	r3, #63	@ 0x3f
 8006686:	f000 ff17 	bl	80074b8 <USBD_LL_OpenEP>
    pdev->ep_out[CDC_OUT_EP & 0xFU].is_used = 1U;
 800668a:	e7c5      	b.n	8006618 <USBD_CDC_Init+0x28>
      USBD_LL_PrepareReceive(pdev, CDC_OUT_EP, hcdc->RxBuffer,
 800668c:	2381      	movs	r3, #129	@ 0x81
 800668e:	009b      	lsls	r3, r3, #2
 8006690:	58ea      	ldr	r2, [r5, r3]
 8006692:	3bc5      	subs	r3, #197	@ 0xc5
 8006694:	2101      	movs	r1, #1
 8006696:	0020      	movs	r0, r4
 8006698:	3bff      	subs	r3, #255	@ 0xff
 800669a:	f000 ff79 	bl	8007590 <USBD_LL_PrepareReceive>
 800669e:	e7e5      	b.n	800666c <USBD_CDC_Init+0x7c>
    ret = 1U;
 80066a0:	2001      	movs	r0, #1
 80066a2:	e7e4      	b.n	800666e <USBD_CDC_Init+0x7e>

080066a4 <USBD_CDC_RegisterInterface>:
uint8_t  USBD_CDC_RegisterInterface(USBD_HandleTypeDef   *pdev,
                                    USBD_CDC_ItfTypeDef *fops)
{
  uint8_t  ret = USBD_FAIL;

  if (fops != NULL)
 80066a4:	2900      	cmp	r1, #0
 80066a6:	d004      	beq.n	80066b2 <USBD_CDC_RegisterInterface+0xe>
  {
    pdev->pUserData = fops;
 80066a8:	23af      	movs	r3, #175	@ 0xaf
 80066aa:	009b      	lsls	r3, r3, #2
 80066ac:	50c1      	str	r1, [r0, r3]
    ret = USBD_OK;
 80066ae:	2000      	movs	r0, #0
  }

  return ret;
}
 80066b0:	4770      	bx	lr
  uint8_t  ret = USBD_FAIL;
 80066b2:	2002      	movs	r0, #2
 80066b4:	e7fc      	b.n	80066b0 <USBD_CDC_RegisterInterface+0xc>
 80066b6:	46c0      	nop			@ (mov r8, r8)

080066b8 <USBD_CDC_SetTxBuffer>:
  */
uint8_t  USBD_CDC_SetTxBuffer(USBD_HandleTypeDef   *pdev,
                              uint8_t  *pbuff,
                              uint16_t length)
{
  USBD_CDC_HandleTypeDef   *hcdc = (USBD_CDC_HandleTypeDef *) pdev->pClassData;
 80066b8:	23ae      	movs	r3, #174	@ 0xae
 80066ba:	009b      	lsls	r3, r3, #2
 80066bc:	58c3      	ldr	r3, [r0, r3]

  hcdc->TxBuffer = pbuff;
 80066be:	2082      	movs	r0, #130	@ 0x82
 80066c0:	0080      	lsls	r0, r0, #2
 80066c2:	5019      	str	r1, [r3, r0]
  hcdc->TxLength = length;
 80066c4:	2184      	movs	r1, #132	@ 0x84
 80066c6:	0089      	lsls	r1, r1, #2

  return USBD_OK;
}
 80066c8:	2000      	movs	r0, #0
  hcdc->TxLength = length;
 80066ca:	505a      	str	r2, [r3, r1]
}
 80066cc:	4770      	bx	lr
 80066ce:	46c0      	nop			@ (mov r8, r8)

080066d0 <USBD_CDC_SetRxBuffer>:
uint8_t  USBD_CDC_SetRxBuffer(USBD_HandleTypeDef   *pdev,
                              uint8_t  *pbuff)
{
  USBD_CDC_HandleTypeDef   *hcdc = (USBD_CDC_HandleTypeDef *) pdev->pClassData;

  hcdc->RxBuffer = pbuff;
 80066d0:	23ae      	movs	r3, #174	@ 0xae
 80066d2:	009b      	lsls	r3, r3, #2
 80066d4:	58c2      	ldr	r2, [r0, r3]
 80066d6:	3bb4      	subs	r3, #180	@ 0xb4

  return USBD_OK;
}
 80066d8:	2000      	movs	r0, #0
  hcdc->RxBuffer = pbuff;
 80066da:	50d1      	str	r1, [r2, r3]
}
 80066dc:	4770      	bx	lr
 80066de:	46c0      	nop			@ (mov r8, r8)

080066e0 <USBD_CDC_TransmitPacket>:
  * @param  pdev: device instance
  * @retval status
  */
uint8_t  USBD_CDC_TransmitPacket(USBD_HandleTypeDef *pdev)
{
  USBD_CDC_HandleTypeDef   *hcdc = (USBD_CDC_HandleTypeDef *) pdev->pClassData;
 80066e0:	23ae      	movs	r3, #174	@ 0xae
 80066e2:	009b      	lsls	r3, r3, #2
 80066e4:	58c2      	ldr	r2, [r0, r3]
{
 80066e6:	b510      	push	{r4, lr}
 80066e8:	0004      	movs	r4, r0

  if (pdev->pClassData != NULL)
 80066ea:	2a00      	cmp	r2, #0
 80066ec:	d014      	beq.n	8006718 <USBD_CDC_TransmitPacket+0x38>
  {
    if (hcdc->TxState == 0U)
 80066ee:	3ba4      	subs	r3, #164	@ 0xa4
 80066f0:	58d1      	ldr	r1, [r2, r3]

      return USBD_OK;
    }
    else
    {
      return USBD_BUSY;
 80066f2:	2001      	movs	r0, #1
    if (hcdc->TxState == 0U)
 80066f4:	2900      	cmp	r1, #0
 80066f6:	d000      	beq.n	80066fa <USBD_CDC_TransmitPacket+0x1a>
  }
  else
  {
    return USBD_FAIL;
  }
}
 80066f8:	bd10      	pop	{r4, pc}
      USBD_LL_Transmit(pdev, CDC_IN_EP, hcdc->TxBuffer,
 80066fa:	2182      	movs	r1, #130	@ 0x82
      hcdc->TxState = 1U;
 80066fc:	50d0      	str	r0, [r2, r3]
      pdev->ep_in[CDC_IN_EP & 0xFU].total_length = hcdc->TxLength;
 80066fe:	3b04      	subs	r3, #4
 8006700:	58d3      	ldr	r3, [r2, r3]
      USBD_LL_Transmit(pdev, CDC_IN_EP, hcdc->TxBuffer,
 8006702:	0089      	lsls	r1, r1, #2
 8006704:	5852      	ldr	r2, [r2, r1]
 8006706:	3988      	subs	r1, #136	@ 0x88
      pdev->ep_in[CDC_IN_EP & 0xFU].total_length = hcdc->TxLength;
 8006708:	6323      	str	r3, [r4, #48]	@ 0x30
      USBD_LL_Transmit(pdev, CDC_IN_EP, hcdc->TxBuffer,
 800670a:	0020      	movs	r0, r4
 800670c:	b29b      	uxth	r3, r3
 800670e:	39ff      	subs	r1, #255	@ 0xff
 8006710:	f000 ff30 	bl	8007574 <USBD_LL_Transmit>
      return USBD_OK;
 8006714:	2000      	movs	r0, #0
 8006716:	e7ef      	b.n	80066f8 <USBD_CDC_TransmitPacket+0x18>
    return USBD_FAIL;
 8006718:	2002      	movs	r0, #2
 800671a:	e7ed      	b.n	80066f8 <USBD_CDC_TransmitPacket+0x18>

0800671c <USBD_CDC_ReceivePacket>:
  * @param  pdev: device instance
  * @retval status
  */
uint8_t  USBD_CDC_ReceivePacket(USBD_HandleTypeDef *pdev)
{
  USBD_CDC_HandleTypeDef   *hcdc = (USBD_CDC_HandleTypeDef *) pdev->pClassData;
 800671c:	23ae      	movs	r3, #174	@ 0xae
 800671e:	009b      	lsls	r3, r3, #2
 8006720:	58c3      	ldr	r3, [r0, r3]
{
 8006722:	b510      	push	{r4, lr}

  /* Suspend or Resume USB Out process */
  if (pdev->pClassData != NULL)
 8006724:	2b00      	cmp	r3, #0
 8006726:	d011      	beq.n	800674c <USBD_CDC_ReceivePacket+0x30>
  {
    if (pdev->dev_speed == USBD_SPEED_HIGH)
    {
      /* Prepare Out endpoint to receive next packet */
      USBD_LL_PrepareReceive(pdev,
 8006728:	2281      	movs	r2, #129	@ 0x81
 800672a:	0092      	lsls	r2, r2, #2
 800672c:	589a      	ldr	r2, [r3, r2]
    if (pdev->dev_speed == USBD_SPEED_HIGH)
 800672e:	7c03      	ldrb	r3, [r0, #16]
 8006730:	2b00      	cmp	r3, #0
 8006732:	d106      	bne.n	8006742 <USBD_CDC_ReceivePacket+0x26>
      USBD_LL_PrepareReceive(pdev,
 8006734:	2380      	movs	r3, #128	@ 0x80
 8006736:	2101      	movs	r1, #1
 8006738:	009b      	lsls	r3, r3, #2
 800673a:	f000 ff29 	bl	8007590 <USBD_LL_PrepareReceive>
      USBD_LL_PrepareReceive(pdev,
                             CDC_OUT_EP,
                             hcdc->RxBuffer,
                             CDC_DATA_FS_OUT_PACKET_SIZE);
    }
    return USBD_OK;
 800673e:	2000      	movs	r0, #0
  }
  else
  {
    return USBD_FAIL;
  }
}
 8006740:	bd10      	pop	{r4, pc}
      USBD_LL_PrepareReceive(pdev,
 8006742:	2340      	movs	r3, #64	@ 0x40
 8006744:	2101      	movs	r1, #1
 8006746:	f000 ff23 	bl	8007590 <USBD_LL_PrepareReceive>
 800674a:	e7f8      	b.n	800673e <USBD_CDC_ReceivePacket+0x22>
    return USBD_FAIL;
 800674c:	2002      	movs	r0, #2
 800674e:	e7f7      	b.n	8006740 <USBD_CDC_ReceivePacket+0x24>

08006750 <USBD_Init>:
* @param  id: Low level core index
* @retval None
*/
USBD_StatusTypeDef USBD_Init(USBD_HandleTypeDef *pdev,
                             USBD_DescriptorsTypeDef *pdesc, uint8_t id)
{
 8006750:	b510      	push	{r4, lr}
  /* Check whether the USB Host handle is valid */
  if (pdev == NULL)
 8006752:	2800      	cmp	r0, #0
 8006754:	d014      	beq.n	8006780 <USBD_Init+0x30>
#endif
    return USBD_FAIL;
  }

  /* Unlink previous class*/
  if (pdev->pClass != NULL)
 8006756:	23ad      	movs	r3, #173	@ 0xad
 8006758:	009b      	lsls	r3, r3, #2
 800675a:	58c4      	ldr	r4, [r0, r3]
 800675c:	2c00      	cmp	r4, #0
 800675e:	d001      	beq.n	8006764 <USBD_Init+0x14>
  {
    pdev->pClass = NULL;
 8006760:	2400      	movs	r4, #0
 8006762:	50c4      	str	r4, [r0, r3]
  }

  /* Assign USBD Descriptors */
  if (pdesc != NULL)
 8006764:	2900      	cmp	r1, #0
 8006766:	d002      	beq.n	800676e <USBD_Init+0x1e>
  {
    pdev->pDesc = pdesc;
 8006768:	23ac      	movs	r3, #172	@ 0xac
 800676a:	009b      	lsls	r3, r3, #2
 800676c:	50c1      	str	r1, [r0, r3]
  }

  /* Set Device initial State */
  pdev->dev_state = USBD_STATE_DEFAULT;
 800676e:	23a7      	movs	r3, #167	@ 0xa7
 8006770:	2101      	movs	r1, #1
 8006772:	009b      	lsls	r3, r3, #2
 8006774:	54c1      	strb	r1, [r0, r3]
  pdev->id = id;
 8006776:	7002      	strb	r2, [r0, #0]
  /* Initialize low level driver */
  USBD_LL_Init(pdev);
 8006778:	f000 fe4e 	bl	8007418 <USBD_LL_Init>

  return USBD_OK;
 800677c:	2000      	movs	r0, #0
}
 800677e:	bd10      	pop	{r4, pc}
    return USBD_FAIL;
 8006780:	2002      	movs	r0, #2
 8006782:	e7fc      	b.n	800677e <USBD_Init+0x2e>

08006784 <USBD_RegisterClass>:
  * @retval USBD Status
  */
USBD_StatusTypeDef  USBD_RegisterClass(USBD_HandleTypeDef *pdev, USBD_ClassTypeDef *pclass)
{
  USBD_StatusTypeDef status = USBD_OK;
  if (pclass != NULL)
 8006784:	2900      	cmp	r1, #0
 8006786:	d004      	beq.n	8006792 <USBD_RegisterClass+0xe>
  {
    /* link the class to the USB Device handle */
    pdev->pClass = pclass;
 8006788:	23ad      	movs	r3, #173	@ 0xad
 800678a:	009b      	lsls	r3, r3, #2
 800678c:	50c1      	str	r1, [r0, r3]
    status = USBD_OK;
 800678e:	2000      	movs	r0, #0
#endif
    status = USBD_FAIL;
  }

  return status;
}
 8006790:	4770      	bx	lr
    status = USBD_FAIL;
 8006792:	2002      	movs	r0, #2
 8006794:	e7fc      	b.n	8006790 <USBD_RegisterClass+0xc>
 8006796:	46c0      	nop			@ (mov r8, r8)

08006798 <USBD_Start>:
  *         Start the USB Device Core.
  * @param  pdev: Device Handle
  * @retval USBD Status
  */
USBD_StatusTypeDef  USBD_Start(USBD_HandleTypeDef *pdev)
{
 8006798:	b510      	push	{r4, lr}
  /* Start the low level driver  */
  USBD_LL_Start(pdev);
 800679a:	f000 fe7f 	bl	800749c <USBD_LL_Start>

  return USBD_OK;
}
 800679e:	2000      	movs	r0, #0
 80067a0:	bd10      	pop	{r4, pc}
 80067a2:	46c0      	nop			@ (mov r8, r8)

080067a4 <USBD_SetClassConfig>:

USBD_StatusTypeDef USBD_SetClassConfig(USBD_HandleTypeDef  *pdev, uint8_t cfgidx)
{
  USBD_StatusTypeDef ret = USBD_FAIL;

  if (pdev->pClass != NULL)
 80067a4:	23ad      	movs	r3, #173	@ 0xad
 80067a6:	009b      	lsls	r3, r3, #2
 80067a8:	58c3      	ldr	r3, [r0, r3]
{
 80067aa:	b510      	push	{r4, lr}
  if (pdev->pClass != NULL)
 80067ac:	2b00      	cmp	r3, #0
 80067ae:	d005      	beq.n	80067bc <USBD_SetClassConfig+0x18>
  {
    /* Set configuration  and Start the Class*/
    if (pdev->pClass->Init(pdev, cfgidx) == 0U)
 80067b0:	681b      	ldr	r3, [r3, #0]
 80067b2:	4798      	blx	r3
 80067b4:	1e43      	subs	r3, r0, #1
 80067b6:	4198      	sbcs	r0, r3
 80067b8:	0040      	lsls	r0, r0, #1
      ret = USBD_OK;
    }
  }

  return ret;
}
 80067ba:	bd10      	pop	{r4, pc}
  USBD_StatusTypeDef ret = USBD_FAIL;
 80067bc:	2002      	movs	r0, #2
 80067be:	e7fc      	b.n	80067ba <USBD_SetClassConfig+0x16>

080067c0 <USBD_ClrClassConfig>:
* @retval status: USBD_StatusTypeDef
*/
USBD_StatusTypeDef USBD_ClrClassConfig(USBD_HandleTypeDef  *pdev, uint8_t cfgidx)
{
  /* Clear configuration  and De-initialize the Class process*/
  pdev->pClass->DeInit(pdev, cfgidx);
 80067c0:	23ad      	movs	r3, #173	@ 0xad
{
 80067c2:	b510      	push	{r4, lr}
  pdev->pClass->DeInit(pdev, cfgidx);
 80067c4:	009b      	lsls	r3, r3, #2
 80067c6:	58c3      	ldr	r3, [r0, r3]
 80067c8:	685b      	ldr	r3, [r3, #4]
 80067ca:	4798      	blx	r3

  return USBD_OK;
}
 80067cc:	2000      	movs	r0, #0
 80067ce:	bd10      	pop	{r4, pc}

080067d0 <USBD_LL_SetupStage>:
* @param  pdev: device instance
* @retval status
*/
USBD_StatusTypeDef USBD_LL_SetupStage(USBD_HandleTypeDef *pdev, uint8_t *psetup)
{
  USBD_ParseSetupRequest(&pdev->request, psetup);
 80067d0:	23aa      	movs	r3, #170	@ 0xaa
 80067d2:	009b      	lsls	r3, r3, #2
{
 80067d4:	b570      	push	{r4, r5, r6, lr}
  USBD_ParseSetupRequest(&pdev->request, psetup);
 80067d6:	18c5      	adds	r5, r0, r3
{
 80067d8:	0004      	movs	r4, r0
  USBD_ParseSetupRequest(&pdev->request, psetup);
 80067da:	0028      	movs	r0, r5
 80067dc:	f000 fb80 	bl	8006ee0 <USBD_ParseSetupRequest>

  pdev->ep0_state = USBD_EP0_SETUP;
 80067e0:	23a5      	movs	r3, #165	@ 0xa5
 80067e2:	2201      	movs	r2, #1
 80067e4:	009b      	lsls	r3, r3, #2
 80067e6:	50e2      	str	r2, [r4, r3]

  pdev->ep0_data_len = pdev->request.wLength;
 80067e8:	4b11      	ldr	r3, [pc, #68]	@ (8006830 <USBD_LL_SetupStage+0x60>)
 80067ea:	5ae2      	ldrh	r2, [r4, r3]
 80067ec:	3b16      	subs	r3, #22
 80067ee:	50e2      	str	r2, [r4, r3]

  switch (pdev->request.bmRequest & 0x1FU)
 80067f0:	3310      	adds	r3, #16
 80067f2:	5ce1      	ldrb	r1, [r4, r3]
 80067f4:	231f      	movs	r3, #31
 80067f6:	400b      	ands	r3, r1
 80067f8:	2b01      	cmp	r3, #1
 80067fa:	d00a      	beq.n	8006812 <USBD_LL_SetupStage+0x42>
 80067fc:	2b02      	cmp	r3, #2
 80067fe:	d012      	beq.n	8006826 <USBD_LL_SetupStage+0x56>
 8006800:	2b00      	cmp	r3, #0
 8006802:	d00b      	beq.n	800681c <USBD_LL_SetupStage+0x4c>
    case USB_REQ_RECIPIENT_ENDPOINT:
      USBD_StdEPReq(pdev, &pdev->request);
      break;

    default:
      USBD_LL_StallEP(pdev, (pdev->request.bmRequest & 0x80U));
 8006804:	237f      	movs	r3, #127	@ 0x7f
 8006806:	0020      	movs	r0, r4
 8006808:	4399      	bics	r1, r3
 800680a:	f000 fe73 	bl	80074f4 <USBD_LL_StallEP>
      break;
  }

  return USBD_OK;
}
 800680e:	2000      	movs	r0, #0
 8006810:	bd70      	pop	{r4, r5, r6, pc}
      USBD_StdItfReq(pdev, &pdev->request);
 8006812:	0029      	movs	r1, r5
 8006814:	0020      	movs	r0, r4
 8006816:	f000 fa8f 	bl	8006d38 <USBD_StdItfReq>
      break;
 800681a:	e7f8      	b.n	800680e <USBD_LL_SetupStage+0x3e>
      USBD_StdDevReq(pdev, &pdev->request);
 800681c:	0029      	movs	r1, r5
 800681e:	0020      	movs	r0, r4
 8006820:	f000 f916 	bl	8006a50 <USBD_StdDevReq>
      break;
 8006824:	e7f3      	b.n	800680e <USBD_LL_SetupStage+0x3e>
      USBD_StdEPReq(pdev, &pdev->request);
 8006826:	0029      	movs	r1, r5
 8006828:	0020      	movs	r0, r4
 800682a:	f000 fab3 	bl	8006d94 <USBD_StdEPReq>
      break;
 800682e:	e7ee      	b.n	800680e <USBD_LL_SetupStage+0x3e>
 8006830:	000002ae 	.word	0x000002ae

08006834 <USBD_LL_DataOutStage>:
* @param  epnum: endpoint index
* @retval status
*/
USBD_StatusTypeDef USBD_LL_DataOutStage(USBD_HandleTypeDef *pdev,
                                        uint8_t epnum, uint8_t *pdata)
{
 8006834:	b510      	push	{r4, lr}
 8006836:	0013      	movs	r3, r2
 8006838:	0004      	movs	r4, r0
  USBD_EndpointTypeDef *pep;

  if (epnum == 0U)
 800683a:	2900      	cmp	r1, #0
 800683c:	d108      	bne.n	8006850 <USBD_LL_DataOutStage+0x1c>
  {
    pep = &pdev->ep_out[0];

    if (pdev->ep0_state == USBD_EP0_DATA_OUT)
 800683e:	20a5      	movs	r0, #165	@ 0xa5
 8006840:	0080      	lsls	r0, r0, #2
 8006842:	5822      	ldr	r2, [r4, r0]
 8006844:	2a03      	cmp	r2, #3
 8006846:	d013      	beq.n	8006870 <USBD_LL_DataOutStage+0x3c>
        USBD_CtlSendStatus(pdev);
      }
    }
    else
    {
      if (pdev->ep0_state == USBD_EP0_STATUS_OUT)
 8006848:	2a05      	cmp	r2, #5
 800684a:	d023      	beq.n	8006894 <USBD_LL_DataOutStage+0x60>
  {
    /* should never be in this condition */
    return USBD_FAIL;
  }

  return USBD_OK;
 800684c:	2000      	movs	r0, #0
 800684e:	e00e      	b.n	800686e <USBD_LL_DataOutStage+0x3a>
  else if ((pdev->pClass->DataOut != NULL) &&
 8006850:	23ad      	movs	r3, #173	@ 0xad
 8006852:	009b      	lsls	r3, r3, #2
 8006854:	58c3      	ldr	r3, [r0, r3]
 8006856:	699b      	ldr	r3, [r3, #24]
 8006858:	2b00      	cmp	r3, #0
 800685a:	d007      	beq.n	800686c <USBD_LL_DataOutStage+0x38>
           (pdev->dev_state == USBD_STATE_CONFIGURED))
 800685c:	22a7      	movs	r2, #167	@ 0xa7
 800685e:	0092      	lsls	r2, r2, #2
  else if ((pdev->pClass->DataOut != NULL) &&
 8006860:	5c82      	ldrb	r2, [r0, r2]
 8006862:	2a03      	cmp	r2, #3
 8006864:	d102      	bne.n	800686c <USBD_LL_DataOutStage+0x38>
    pdev->pClass->DataOut(pdev, epnum);
 8006866:	4798      	blx	r3
  return USBD_OK;
 8006868:	2000      	movs	r0, #0
 800686a:	e000      	b.n	800686e <USBD_LL_DataOutStage+0x3a>
    return USBD_FAIL;
 800686c:	2002      	movs	r0, #2
}
 800686e:	bd10      	pop	{r4, pc}
      if (pep->rem_length > pep->maxpacket)
 8006870:	0020      	movs	r0, r4
 8006872:	3055      	adds	r0, #85	@ 0x55
 8006874:	30ff      	adds	r0, #255	@ 0xff
 8006876:	68c1      	ldr	r1, [r0, #12]
 8006878:	6902      	ldr	r2, [r0, #16]
 800687a:	4291      	cmp	r1, r2
 800687c:	d911      	bls.n	80068a2 <USBD_LL_DataOutStage+0x6e>
        pep->rem_length -= pep->maxpacket;
 800687e:	1a89      	subs	r1, r1, r2
 8006880:	60c1      	str	r1, [r0, #12]
        USBD_CtlContinueRx(pdev, pdata,
 8006882:	428a      	cmp	r2, r1
 8006884:	d81d      	bhi.n	80068c2 <USBD_LL_DataOutStage+0x8e>
 8006886:	b292      	uxth	r2, r2
 8006888:	0019      	movs	r1, r3
 800688a:	0020      	movs	r0, r4
 800688c:	f000 fb96 	bl	8006fbc <USBD_CtlContinueRx>
  return USBD_OK;
 8006890:	2000      	movs	r0, #0
 8006892:	e7ec      	b.n	800686e <USBD_LL_DataOutStage+0x3a>
        pdev->ep0_state = USBD_EP0_IDLE;
 8006894:	5021      	str	r1, [r4, r0]
        USBD_LL_StallEP(pdev, 0U);
 8006896:	2100      	movs	r1, #0
 8006898:	0020      	movs	r0, r4
 800689a:	f000 fe2b 	bl	80074f4 <USBD_LL_StallEP>
  return USBD_OK;
 800689e:	2000      	movs	r0, #0
 80068a0:	e7e5      	b.n	800686e <USBD_LL_DataOutStage+0x3a>
        if ((pdev->pClass->EP0_RxReady != NULL) &&
 80068a2:	23ad      	movs	r3, #173	@ 0xad
 80068a4:	009b      	lsls	r3, r3, #2
 80068a6:	58e3      	ldr	r3, [r4, r3]
 80068a8:	691b      	ldr	r3, [r3, #16]
 80068aa:	2b00      	cmp	r3, #0
 80068ac:	d004      	beq.n	80068b8 <USBD_LL_DataOutStage+0x84>
            (pdev->dev_state == USBD_STATE_CONFIGURED))
 80068ae:	22a7      	movs	r2, #167	@ 0xa7
 80068b0:	0092      	lsls	r2, r2, #2
        if ((pdev->pClass->EP0_RxReady != NULL) &&
 80068b2:	5ca2      	ldrb	r2, [r4, r2]
 80068b4:	2a03      	cmp	r2, #3
 80068b6:	d006      	beq.n	80068c6 <USBD_LL_DataOutStage+0x92>
        USBD_CtlSendStatus(pdev);
 80068b8:	0020      	movs	r0, r4
 80068ba:	f000 fb87 	bl	8006fcc <USBD_CtlSendStatus>
  return USBD_OK;
 80068be:	2000      	movs	r0, #0
 80068c0:	e7d5      	b.n	800686e <USBD_LL_DataOutStage+0x3a>
        USBD_CtlContinueRx(pdev, pdata,
 80068c2:	b28a      	uxth	r2, r1
 80068c4:	e7e0      	b.n	8006888 <USBD_LL_DataOutStage+0x54>
          pdev->pClass->EP0_RxReady(pdev);
 80068c6:	0020      	movs	r0, r4
 80068c8:	4798      	blx	r3
 80068ca:	e7f5      	b.n	80068b8 <USBD_LL_DataOutStage+0x84>

080068cc <USBD_LL_DataInStage>:
* @param  epnum: endpoint index
* @retval status
*/
USBD_StatusTypeDef USBD_LL_DataInStage(USBD_HandleTypeDef *pdev,
                                       uint8_t epnum, uint8_t *pdata)
{
 80068cc:	b5f8      	push	{r3, r4, r5, r6, r7, lr}
 80068ce:	0004      	movs	r4, r0
 80068d0:	0013      	movs	r3, r2
  USBD_EndpointTypeDef *pep;

  if (epnum == 0U)
 80068d2:	2900      	cmp	r1, #0
 80068d4:	d111      	bne.n	80068fa <USBD_LL_DataInStage+0x2e>
  {
    pep = &pdev->ep_in[0];

    if (pdev->ep0_state == USBD_EP0_DATA_IN)
 80068d6:	22a5      	movs	r2, #165	@ 0xa5
 80068d8:	0092      	lsls	r2, r2, #2
 80068da:	5882      	ldr	r2, [r0, r2]
 80068dc:	2a02      	cmp	r2, #2
 80068de:	d01e      	beq.n	800691e <USBD_LL_DataInStage+0x52>
        }
      }
    }
    else
    {
      if ((pdev->ep0_state == USBD_EP0_STATUS_IN) ||
 80068e0:	2304      	movs	r3, #4
 80068e2:	439a      	bics	r2, r3
 80068e4:	d102      	bne.n	80068ec <USBD_LL_DataInStage+0x20>
          (pdev->ep0_state == USBD_EP0_IDLE))
      {
        USBD_LL_StallEP(pdev, 0x80U);
 80068e6:	2180      	movs	r1, #128	@ 0x80
 80068e8:	f000 fe04 	bl	80074f4 <USBD_LL_StallEP>
      }
    }

    if (pdev->dev_test_mode == 1U)
 80068ec:	23a8      	movs	r3, #168	@ 0xa8
 80068ee:	009b      	lsls	r3, r3, #2
 80068f0:	5ce2      	ldrb	r2, [r4, r3]
 80068f2:	2a01      	cmp	r2, #1
 80068f4:	d010      	beq.n	8006918 <USBD_LL_DataInStage+0x4c>
  {
    /* should never be in this condition */
    return USBD_FAIL;
  }

  return USBD_OK;
 80068f6:	2000      	movs	r0, #0
}
 80068f8:	bdf8      	pop	{r3, r4, r5, r6, r7, pc}
  else if ((pdev->pClass->DataIn != NULL) &&
 80068fa:	23ad      	movs	r3, #173	@ 0xad
 80068fc:	009b      	lsls	r3, r3, #2
 80068fe:	58c3      	ldr	r3, [r0, r3]
 8006900:	695b      	ldr	r3, [r3, #20]
 8006902:	2b00      	cmp	r3, #0
 8006904:	d006      	beq.n	8006914 <USBD_LL_DataInStage+0x48>
           (pdev->dev_state == USBD_STATE_CONFIGURED))
 8006906:	22a7      	movs	r2, #167	@ 0xa7
 8006908:	0092      	lsls	r2, r2, #2
  else if ((pdev->pClass->DataIn != NULL) &&
 800690a:	5c82      	ldrb	r2, [r0, r2]
 800690c:	2a03      	cmp	r2, #3
 800690e:	d101      	bne.n	8006914 <USBD_LL_DataInStage+0x48>
    pdev->pClass->DataIn(pdev, epnum);
 8006910:	4798      	blx	r3
 8006912:	e7f0      	b.n	80068f6 <USBD_LL_DataInStage+0x2a>
    return USBD_FAIL;
 8006914:	2002      	movs	r0, #2
 8006916:	e7ef      	b.n	80068f8 <USBD_LL_DataInStage+0x2c>
      pdev->dev_test_mode = 0U;
 8006918:	2200      	movs	r2, #0
 800691a:	54e2      	strb	r2, [r4, r3]
 800691c:	e7eb      	b.n	80068f6 <USBD_LL_DataInStage+0x2a>
      if (pep->rem_length > pep->maxpacket)
 800691e:	6a02      	ldr	r2, [r0, #32]
 8006920:	6a45      	ldr	r5, [r0, #36]	@ 0x24
 8006922:	42aa      	cmp	r2, r5
 8006924:	d827      	bhi.n	8006976 <USBD_LL_DataInStage+0xaa>
        if ((pep->total_length % pep->maxpacket == 0U) &&
 8006926:	69c7      	ldr	r7, [r0, #28]
 8006928:	0029      	movs	r1, r5
 800692a:	0038      	movs	r0, r7
 800692c:	f7f9 fc84 	bl	8000238 <__aeabi_uidivmod>
 8006930:	1e0e      	subs	r6, r1, #0
 8006932:	d10d      	bne.n	8006950 <USBD_LL_DataInStage+0x84>
 8006934:	42bd      	cmp	r5, r7
 8006936:	d80b      	bhi.n	8006950 <USBD_LL_DataInStage+0x84>
            (pep->total_length < pdev->ep0_data_len))
 8006938:	25a6      	movs	r5, #166	@ 0xa6
 800693a:	00ad      	lsls	r5, r5, #2
            (pep->total_length >= pep->maxpacket) &&
 800693c:	5963      	ldr	r3, [r4, r5]
 800693e:	429f      	cmp	r7, r3
 8006940:	d206      	bcs.n	8006950 <USBD_LL_DataInStage+0x84>
          USBD_CtlContinueSendData(pdev, NULL, 0U);
 8006942:	2200      	movs	r2, #0
 8006944:	2100      	movs	r1, #0
 8006946:	0020      	movs	r0, r4
 8006948:	f000 fb1e 	bl	8006f88 <USBD_CtlContinueSendData>
          pdev->ep0_data_len = 0U;
 800694c:	5166      	str	r6, [r4, r5]
 800694e:	e018      	b.n	8006982 <USBD_LL_DataInStage+0xb6>
          if ((pdev->pClass->EP0_TxSent != NULL) &&
 8006950:	23ad      	movs	r3, #173	@ 0xad
 8006952:	009b      	lsls	r3, r3, #2
 8006954:	58e3      	ldr	r3, [r4, r3]
 8006956:	68db      	ldr	r3, [r3, #12]
 8006958:	2b00      	cmp	r3, #0
 800695a:	d004      	beq.n	8006966 <USBD_LL_DataInStage+0x9a>
              (pdev->dev_state == USBD_STATE_CONFIGURED))
 800695c:	22a7      	movs	r2, #167	@ 0xa7
 800695e:	0092      	lsls	r2, r2, #2
          if ((pdev->pClass->EP0_TxSent != NULL) &&
 8006960:	5ca2      	ldrb	r2, [r4, r2]
 8006962:	2a03      	cmp	r2, #3
 8006964:	d014      	beq.n	8006990 <USBD_LL_DataInStage+0xc4>
          USBD_LL_StallEP(pdev, 0x80U);
 8006966:	2180      	movs	r1, #128	@ 0x80
 8006968:	0020      	movs	r0, r4
 800696a:	f000 fdc3 	bl	80074f4 <USBD_LL_StallEP>
          USBD_CtlReceiveStatus(pdev);
 800696e:	0020      	movs	r0, r4
 8006970:	f000 fb38 	bl	8006fe4 <USBD_CtlReceiveStatus>
 8006974:	e7ba      	b.n	80068ec <USBD_LL_DataInStage+0x20>
        pep->rem_length -= pep->maxpacket;
 8006976:	1b52      	subs	r2, r2, r5
 8006978:	6202      	str	r2, [r0, #32]
        USBD_CtlContinueSendData(pdev, pdata, (uint16_t)pep->rem_length);
 800697a:	0019      	movs	r1, r3
 800697c:	b292      	uxth	r2, r2
 800697e:	f000 fb03 	bl	8006f88 <USBD_CtlContinueSendData>
          USBD_LL_PrepareReceive(pdev, 0U, NULL, 0U);
 8006982:	2300      	movs	r3, #0
 8006984:	2200      	movs	r2, #0
 8006986:	2100      	movs	r1, #0
 8006988:	0020      	movs	r0, r4
 800698a:	f000 fe01 	bl	8007590 <USBD_LL_PrepareReceive>
 800698e:	e7ad      	b.n	80068ec <USBD_LL_DataInStage+0x20>
            pdev->pClass->EP0_TxSent(pdev);
 8006990:	0020      	movs	r0, r4
 8006992:	4798      	blx	r3
 8006994:	e7e7      	b.n	8006966 <USBD_LL_DataInStage+0x9a>
 8006996:	46c0      	nop			@ (mov r8, r8)

08006998 <USBD_LL_Reset>:
* @param  pdev: device instance
* @retval status
*/

USBD_StatusTypeDef USBD_LL_Reset(USBD_HandleTypeDef *pdev)
{
 8006998:	b570      	push	{r4, r5, r6, lr}
  /* Open EP0 OUT */
  USBD_LL_OpenEP(pdev, 0x00U, USBD_EP_TYPE_CTRL, USB_MAX_EP0_SIZE);
 800699a:	2340      	movs	r3, #64	@ 0x40
 800699c:	2200      	movs	r2, #0
 800699e:	2100      	movs	r1, #0
{
 80069a0:	0004      	movs	r4, r0
  USBD_LL_OpenEP(pdev, 0x00U, USBD_EP_TYPE_CTRL, USB_MAX_EP0_SIZE);
 80069a2:	f000 fd89 	bl	80074b8 <USBD_LL_OpenEP>
  pdev->ep_out[0x00U & 0xFU].is_used = 1U;
 80069a6:	23ac      	movs	r3, #172	@ 0xac
 80069a8:	2501      	movs	r5, #1

  pdev->ep_out[0].maxpacket = USB_MAX_EP0_SIZE;
 80069aa:	2640      	movs	r6, #64	@ 0x40
  pdev->ep_out[0x00U & 0xFU].is_used = 1U;
 80069ac:	005b      	lsls	r3, r3, #1
 80069ae:	50e5      	str	r5, [r4, r3]
  pdev->ep_out[0].maxpacket = USB_MAX_EP0_SIZE;
 80069b0:	330c      	adds	r3, #12
 80069b2:	50e6      	str	r6, [r4, r3]

  /* Open EP0 IN */
  USBD_LL_OpenEP(pdev, 0x80U, USBD_EP_TYPE_CTRL, USB_MAX_EP0_SIZE);
 80069b4:	3b25      	subs	r3, #37	@ 0x25
 80069b6:	2200      	movs	r2, #0
 80069b8:	3bff      	subs	r3, #255	@ 0xff
 80069ba:	2180      	movs	r1, #128	@ 0x80
 80069bc:	0020      	movs	r0, r4
 80069be:	f000 fd7b 	bl	80074b8 <USBD_LL_OpenEP>
  pdev->ep_in[0x80U & 0xFU].is_used = 1U;

  pdev->ep_in[0].maxpacket = USB_MAX_EP0_SIZE;

  /* Upon Reset call user call back */
  pdev->dev_state = USBD_STATE_DEFAULT;
 80069c2:	23a7      	movs	r3, #167	@ 0xa7
  pdev->ep0_state = USBD_EP0_IDLE;
 80069c4:	22a5      	movs	r2, #165	@ 0xa5
  pdev->dev_state = USBD_STATE_DEFAULT;
 80069c6:	009b      	lsls	r3, r3, #2
  pdev->ep_in[0x80U & 0xFU].is_used = 1U;
 80069c8:	61a5      	str	r5, [r4, #24]
  pdev->ep_in[0].maxpacket = USB_MAX_EP0_SIZE;
 80069ca:	6266      	str	r6, [r4, #36]	@ 0x24
  pdev->dev_state = USBD_STATE_DEFAULT;
 80069cc:	54e5      	strb	r5, [r4, r3]
  pdev->ep0_state = USBD_EP0_IDLE;
 80069ce:	2300      	movs	r3, #0
 80069d0:	0092      	lsls	r2, r2, #2
 80069d2:	50a3      	str	r3, [r4, r2]
  pdev->dev_config = 0U;
  pdev->dev_remote_wakeup = 0U;
 80069d4:	3210      	adds	r2, #16
  pdev->dev_config = 0U;
 80069d6:	6063      	str	r3, [r4, #4]
  pdev->dev_remote_wakeup = 0U;
 80069d8:	50a3      	str	r3, [r4, r2]

  if (pdev->pClassData)
 80069da:	23ae      	movs	r3, #174	@ 0xae
 80069dc:	009b      	lsls	r3, r3, #2
 80069de:	58e3      	ldr	r3, [r4, r3]
 80069e0:	2b00      	cmp	r3, #0
 80069e2:	d006      	beq.n	80069f2 <USBD_LL_Reset+0x5a>
  {
    pdev->pClass->DeInit(pdev, (uint8_t)pdev->dev_config);
 80069e4:	23ad      	movs	r3, #173	@ 0xad
 80069e6:	009b      	lsls	r3, r3, #2
 80069e8:	58e3      	ldr	r3, [r4, r3]
 80069ea:	2100      	movs	r1, #0
 80069ec:	0020      	movs	r0, r4
 80069ee:	685b      	ldr	r3, [r3, #4]
 80069f0:	4798      	blx	r3
  }

  return USBD_OK;
}
 80069f2:	2000      	movs	r0, #0
 80069f4:	bd70      	pop	{r4, r5, r6, pc}
 80069f6:	46c0      	nop			@ (mov r8, r8)

080069f8 <USBD_LL_SetSpeed>:
* @retval status
*/
USBD_StatusTypeDef USBD_LL_SetSpeed(USBD_HandleTypeDef *pdev,
                                    USBD_SpeedTypeDef speed)
{
  pdev->dev_speed = speed;
 80069f8:	7401      	strb	r1, [r0, #16]

  return USBD_OK;
}
 80069fa:	2000      	movs	r0, #0
 80069fc:	4770      	bx	lr
 80069fe:	46c0      	nop			@ (mov r8, r8)

08006a00 <USBD_LL_Suspend>:
* @retval status
*/

USBD_StatusTypeDef USBD_LL_Suspend(USBD_HandleTypeDef *pdev)
{
  pdev->dev_old_state =  pdev->dev_state;
 8006a00:	23a7      	movs	r3, #167	@ 0xa7
 8006a02:	009b      	lsls	r3, r3, #2
 8006a04:	5cc1      	ldrb	r1, [r0, r3]
 8006a06:	4a03      	ldr	r2, [pc, #12]	@ (8006a14 <USBD_LL_Suspend+0x14>)
 8006a08:	5481      	strb	r1, [r0, r2]
  pdev->dev_state  = USBD_STATE_SUSPENDED;
 8006a0a:	2204      	movs	r2, #4
 8006a0c:	54c2      	strb	r2, [r0, r3]

  return USBD_OK;
}
 8006a0e:	2000      	movs	r0, #0
 8006a10:	4770      	bx	lr
 8006a12:	46c0      	nop			@ (mov r8, r8)
 8006a14:	0000029d 	.word	0x0000029d

08006a18 <USBD_LL_Resume>:
* @retval status
*/

USBD_StatusTypeDef USBD_LL_Resume(USBD_HandleTypeDef *pdev)
{
  if (pdev->dev_state == USBD_STATE_SUSPENDED)
 8006a18:	23a7      	movs	r3, #167	@ 0xa7
 8006a1a:	009b      	lsls	r3, r3, #2
 8006a1c:	5cc2      	ldrb	r2, [r0, r3]
 8006a1e:	2a04      	cmp	r2, #4
 8006a20:	d102      	bne.n	8006a28 <USBD_LL_Resume+0x10>
  {
    pdev->dev_state = pdev->dev_old_state;
 8006a22:	4a02      	ldr	r2, [pc, #8]	@ (8006a2c <USBD_LL_Resume+0x14>)
 8006a24:	5c82      	ldrb	r2, [r0, r2]
 8006a26:	54c2      	strb	r2, [r0, r3]
  }

  return USBD_OK;
}
 8006a28:	2000      	movs	r0, #0
 8006a2a:	4770      	bx	lr
 8006a2c:	0000029d 	.word	0x0000029d

08006a30 <USBD_LL_SOF>:
* @retval status
*/

USBD_StatusTypeDef USBD_LL_SOF(USBD_HandleTypeDef *pdev)
{
  if (pdev->dev_state == USBD_STATE_CONFIGURED)
 8006a30:	23a7      	movs	r3, #167	@ 0xa7
{
 8006a32:	b510      	push	{r4, lr}
  if (pdev->dev_state == USBD_STATE_CONFIGURED)
 8006a34:	009b      	lsls	r3, r3, #2
 8006a36:	5cc3      	ldrb	r3, [r0, r3]
 8006a38:	2b03      	cmp	r3, #3
 8006a3a:	d001      	beq.n	8006a40 <USBD_LL_SOF+0x10>
      pdev->pClass->SOF(pdev);
    }
  }

  return USBD_OK;
}
 8006a3c:	2000      	movs	r0, #0
 8006a3e:	bd10      	pop	{r4, pc}
    if (pdev->pClass->SOF != NULL)
 8006a40:	23ad      	movs	r3, #173	@ 0xad
 8006a42:	009b      	lsls	r3, r3, #2
 8006a44:	58c3      	ldr	r3, [r0, r3]
 8006a46:	69db      	ldr	r3, [r3, #28]
 8006a48:	2b00      	cmp	r3, #0
 8006a4a:	d0f7      	beq.n	8006a3c <USBD_LL_SOF+0xc>
      pdev->pClass->SOF(pdev);
 8006a4c:	4798      	blx	r3
 8006a4e:	e7f5      	b.n	8006a3c <USBD_LL_SOF+0xc>

08006a50 <USBD_StdDevReq>:
* @param  req: usb request
* @retval status
*/
USBD_StatusTypeDef  USBD_StdDevReq(USBD_HandleTypeDef *pdev,
                                   USBD_SetupReqTypedef *req)
{
 8006a50:	2360      	movs	r3, #96	@ 0x60
 8006a52:	780a      	ldrb	r2, [r1, #0]
 8006a54:	b570      	push	{r4, r5, r6, lr}
 8006a56:	4013      	ands	r3, r2
 8006a58:	000d      	movs	r5, r1
  USBD_StatusTypeDef ret = USBD_OK;

  switch (req->bmRequest & USB_REQ_TYPE_MASK)
 8006a5a:	0019      	movs	r1, r3
 8006a5c:	22c0      	movs	r2, #192	@ 0xc0
 8006a5e:	3920      	subs	r1, #32
{
 8006a60:	0004      	movs	r4, r0
 8006a62:	b082      	sub	sp, #8
  switch (req->bmRequest & USB_REQ_TYPE_MASK)
 8006a64:	4211      	tst	r1, r2
 8006a66:	d00c      	beq.n	8006a82 <USBD_StdDevReq+0x32>
 8006a68:	2b00      	cmp	r3, #0
 8006a6a:	d011      	beq.n	8006a90 <USBD_StdDevReq+0x40>
*/

void USBD_CtlError(USBD_HandleTypeDef *pdev,
                   USBD_SetupReqTypedef *req)
{
  USBD_LL_StallEP(pdev, 0x80U);
 8006a6c:	2180      	movs	r1, #128	@ 0x80
 8006a6e:	0020      	movs	r0, r4
 8006a70:	f000 fd40 	bl	80074f4 <USBD_LL_StallEP>
  USBD_LL_StallEP(pdev, 0U);
 8006a74:	2100      	movs	r1, #0
 8006a76:	0020      	movs	r0, r4
 8006a78:	f000 fd3c 	bl	80074f4 <USBD_LL_StallEP>
}
 8006a7c:	2000      	movs	r0, #0
 8006a7e:	b002      	add	sp, #8
 8006a80:	bd70      	pop	{r4, r5, r6, pc}
      pdev->pClass->Setup(pdev, req);
 8006a82:	23ad      	movs	r3, #173	@ 0xad
 8006a84:	009b      	lsls	r3, r3, #2
 8006a86:	58c3      	ldr	r3, [r0, r3]
 8006a88:	0029      	movs	r1, r5
 8006a8a:	689b      	ldr	r3, [r3, #8]
 8006a8c:	4798      	blx	r3
      break;
 8006a8e:	e7f5      	b.n	8006a7c <USBD_StdDevReq+0x2c>
      switch (req->bRequest)
 8006a90:	786b      	ldrb	r3, [r5, #1]
 8006a92:	2b09      	cmp	r3, #9
 8006a94:	d8ea      	bhi.n	8006a6c <USBD_StdDevReq+0x1c>
 8006a96:	4aa3      	ldr	r2, [pc, #652]	@ (8006d24 <USBD_StdDevReq+0x2d4>)
 8006a98:	009b      	lsls	r3, r3, #2
 8006a9a:	58d3      	ldr	r3, [r2, r3]
 8006a9c:	469f      	mov	pc, r3
  cfgidx = (uint8_t)(req->wValue);
 8006a9e:	78ab      	ldrb	r3, [r5, #2]
 8006aa0:	4da1      	ldr	r5, [pc, #644]	@ (8006d28 <USBD_StdDevReq+0x2d8>)
 8006aa2:	702b      	strb	r3, [r5, #0]
  if (cfgidx > USBD_MAX_NUM_CONFIGURATION)
 8006aa4:	2b01      	cmp	r3, #1
 8006aa6:	d8e1      	bhi.n	8006a6c <USBD_StdDevReq+0x1c>
    switch (pdev->dev_state)
 8006aa8:	21a7      	movs	r1, #167	@ 0xa7
 8006aaa:	0089      	lsls	r1, r1, #2
 8006aac:	5c42      	ldrb	r2, [r0, r1]
 8006aae:	2a02      	cmp	r2, #2
 8006ab0:	d100      	bne.n	8006ab4 <USBD_StdDevReq+0x64>
 8006ab2:	e119      	b.n	8006ce8 <USBD_StdDevReq+0x298>
 8006ab4:	2a03      	cmp	r2, #3
 8006ab6:	d100      	bne.n	8006aba <USBD_StdDevReq+0x6a>
 8006ab8:	e104      	b.n	8006cc4 <USBD_StdDevReq+0x274>
  USBD_LL_StallEP(pdev, 0x80U);
 8006aba:	2180      	movs	r1, #128	@ 0x80
 8006abc:	f000 fd1a 	bl	80074f4 <USBD_LL_StallEP>
  USBD_LL_StallEP(pdev, 0U);
 8006ac0:	2100      	movs	r1, #0
 8006ac2:	0020      	movs	r0, r4
 8006ac4:	f000 fd16 	bl	80074f4 <USBD_LL_StallEP>
        USBD_ClrClassConfig(pdev, cfgidx);
 8006ac8:	0020      	movs	r0, r4
 8006aca:	7829      	ldrb	r1, [r5, #0]
 8006acc:	f7ff fe78 	bl	80067c0 <USBD_ClrClassConfig>
        break;
 8006ad0:	e7d4      	b.n	8006a7c <USBD_StdDevReq+0x2c>
  switch (pdev->dev_state)
 8006ad2:	23a7      	movs	r3, #167	@ 0xa7
 8006ad4:	009b      	lsls	r3, r3, #2
 8006ad6:	5cc3      	ldrb	r3, [r0, r3]
 8006ad8:	3b01      	subs	r3, #1
 8006ada:	2b02      	cmp	r3, #2
 8006adc:	d8c6      	bhi.n	8006a6c <USBD_StdDevReq+0x1c>
      if (req->wLength != 0x2U)
 8006ade:	88eb      	ldrh	r3, [r5, #6]
 8006ae0:	2b02      	cmp	r3, #2
 8006ae2:	d1c3      	bne.n	8006a6c <USBD_StdDevReq+0x1c>
      if (pdev->dev_remote_wakeup)
 8006ae4:	23a9      	movs	r3, #169	@ 0xa9
 8006ae6:	009b      	lsls	r3, r3, #2
 8006ae8:	58c3      	ldr	r3, [r0, r3]
      USBD_CtlSendData(pdev, (uint8_t *)(void *)&pdev->dev_config_status, 2U);
 8006aea:	0001      	movs	r1, r0
        pdev->dev_config_status |= USB_CONFIG_REMOTE_WAKEUP;
 8006aec:	425a      	negs	r2, r3
 8006aee:	4153      	adcs	r3, r2
 8006af0:	2201      	movs	r2, #1
 8006af2:	425b      	negs	r3, r3
 8006af4:	4393      	bics	r3, r2
 8006af6:	3303      	adds	r3, #3
 8006af8:	60c3      	str	r3, [r0, #12]
      USBD_CtlSendData(pdev, (uint8_t *)(void *)&pdev->dev_config_status, 2U);
 8006afa:	310c      	adds	r1, #12
 8006afc:	3201      	adds	r2, #1
 8006afe:	f000 fa35 	bl	8006f6c <USBD_CtlSendData>
      break;
 8006b02:	e7bb      	b.n	8006a7c <USBD_StdDevReq+0x2c>
  switch (pdev->dev_state)
 8006b04:	23a7      	movs	r3, #167	@ 0xa7
 8006b06:	009b      	lsls	r3, r3, #2
 8006b08:	5cc3      	ldrb	r3, [r0, r3]
 8006b0a:	3b01      	subs	r3, #1
 8006b0c:	2b02      	cmp	r3, #2
 8006b0e:	d8ad      	bhi.n	8006a6c <USBD_StdDevReq+0x1c>
      if (req->wValue == USB_FEATURE_REMOTE_WAKEUP)
 8006b10:	886b      	ldrh	r3, [r5, #2]
 8006b12:	2b01      	cmp	r3, #1
 8006b14:	d1b2      	bne.n	8006a7c <USBD_StdDevReq+0x2c>
        pdev->dev_remote_wakeup = 0U;
 8006b16:	23a9      	movs	r3, #169	@ 0xa9
 8006b18:	2200      	movs	r2, #0
 8006b1a:	009b      	lsls	r3, r3, #2
 8006b1c:	50c2      	str	r2, [r0, r3]
        USBD_CtlSendStatus(pdev);
 8006b1e:	0020      	movs	r0, r4
 8006b20:	f000 fa54 	bl	8006fcc <USBD_CtlSendStatus>
 8006b24:	e7aa      	b.n	8006a7c <USBD_StdDevReq+0x2c>
  if (req->wValue == USB_FEATURE_REMOTE_WAKEUP)
 8006b26:	886b      	ldrh	r3, [r5, #2]
 8006b28:	2b01      	cmp	r3, #1
 8006b2a:	d1a7      	bne.n	8006a7c <USBD_StdDevReq+0x2c>
    pdev->dev_remote_wakeup = 1U;
 8006b2c:	22a9      	movs	r2, #169	@ 0xa9
 8006b2e:	0092      	lsls	r2, r2, #2
 8006b30:	5083      	str	r3, [r0, r2]
    USBD_CtlSendStatus(pdev);
 8006b32:	f000 fa4b 	bl	8006fcc <USBD_CtlSendStatus>
 8006b36:	e7a1      	b.n	8006a7c <USBD_StdDevReq+0x2c>
  if ((req->wIndex == 0U) && (req->wLength == 0U) && (req->wValue < 128U))
 8006b38:	88ab      	ldrh	r3, [r5, #4]
 8006b3a:	2b00      	cmp	r3, #0
 8006b3c:	d000      	beq.n	8006b40 <USBD_StdDevReq+0xf0>
 8006b3e:	e795      	b.n	8006a6c <USBD_StdDevReq+0x1c>
 8006b40:	88eb      	ldrh	r3, [r5, #6]
 8006b42:	2b00      	cmp	r3, #0
 8006b44:	d000      	beq.n	8006b48 <USBD_StdDevReq+0xf8>
 8006b46:	e791      	b.n	8006a6c <USBD_StdDevReq+0x1c>
 8006b48:	886d      	ldrh	r5, [r5, #2]
 8006b4a:	2d7f      	cmp	r5, #127	@ 0x7f
 8006b4c:	d900      	bls.n	8006b50 <USBD_StdDevReq+0x100>
 8006b4e:	e78d      	b.n	8006a6c <USBD_StdDevReq+0x1c>
    if (pdev->dev_state == USBD_STATE_CONFIGURED)
 8006b50:	26a7      	movs	r6, #167	@ 0xa7
 8006b52:	00b6      	lsls	r6, r6, #2
 8006b54:	5d83      	ldrb	r3, [r0, r6]
 8006b56:	2b03      	cmp	r3, #3
 8006b58:	d100      	bne.n	8006b5c <USBD_StdDevReq+0x10c>
 8006b5a:	e787      	b.n	8006a6c <USBD_StdDevReq+0x1c>
      pdev->dev_address = dev_addr;
 8006b5c:	4b73      	ldr	r3, [pc, #460]	@ (8006d2c <USBD_StdDevReq+0x2dc>)
    dev_addr = (uint8_t)(req->wValue) & 0x7FU;
 8006b5e:	b2e9      	uxtb	r1, r5
      pdev->dev_address = dev_addr;
 8006b60:	54c1      	strb	r1, [r0, r3]
      USBD_LL_SetUSBAddress(pdev, dev_addr);
 8006b62:	f000 fcf9 	bl	8007558 <USBD_LL_SetUSBAddress>
      USBD_CtlSendStatus(pdev);
 8006b66:	0020      	movs	r0, r4
 8006b68:	f000 fa30 	bl	8006fcc <USBD_CtlSendStatus>
      if (dev_addr != 0U)
 8006b6c:	2d00      	cmp	r5, #0
 8006b6e:	d100      	bne.n	8006b72 <USBD_StdDevReq+0x122>
 8006b70:	e0d4      	b.n	8006d1c <USBD_StdDevReq+0x2cc>
        pdev->dev_state = USBD_STATE_ADDRESSED;
 8006b72:	2302      	movs	r3, #2
 8006b74:	55a3      	strb	r3, [r4, r6]
 8006b76:	e781      	b.n	8006a7c <USBD_StdDevReq+0x2c>
  uint16_t len = 0U;
 8006b78:	2300      	movs	r3, #0
 8006b7a:	466a      	mov	r2, sp
 8006b7c:	80d3      	strh	r3, [r2, #6]
  switch (req->wValue >> 8)
 8006b7e:	886a      	ldrh	r2, [r5, #2]
 8006b80:	0a13      	lsrs	r3, r2, #8
 8006b82:	2b07      	cmp	r3, #7
 8006b84:	d900      	bls.n	8006b88 <USBD_StdDevReq+0x138>
 8006b86:	e771      	b.n	8006a6c <USBD_StdDevReq+0x1c>
 8006b88:	4969      	ldr	r1, [pc, #420]	@ (8006d30 <USBD_StdDevReq+0x2e0>)
 8006b8a:	009b      	lsls	r3, r3, #2
 8006b8c:	58cb      	ldr	r3, [r1, r3]
 8006b8e:	469f      	mov	pc, r3
  if (req->wLength != 1U)
 8006b90:	88eb      	ldrh	r3, [r5, #6]
 8006b92:	2b01      	cmp	r3, #1
 8006b94:	d000      	beq.n	8006b98 <USBD_StdDevReq+0x148>
 8006b96:	e769      	b.n	8006a6c <USBD_StdDevReq+0x1c>
    switch (pdev->dev_state)
 8006b98:	23a7      	movs	r3, #167	@ 0xa7
 8006b9a:	009b      	lsls	r3, r3, #2
 8006b9c:	5cc3      	ldrb	r3, [r0, r3]
 8006b9e:	2b02      	cmp	r3, #2
 8006ba0:	d900      	bls.n	8006ba4 <USBD_StdDevReq+0x154>
 8006ba2:	e087      	b.n	8006cb4 <USBD_StdDevReq+0x264>
 8006ba4:	2b00      	cmp	r3, #0
 8006ba6:	d100      	bne.n	8006baa <USBD_StdDevReq+0x15a>
 8006ba8:	e760      	b.n	8006a6c <USBD_StdDevReq+0x1c>
        pdev->dev_default_config = 0U;
 8006baa:	2300      	movs	r3, #0
        USBD_CtlSendData(pdev, (uint8_t *)(void *)&pdev->dev_default_config, 1U);
 8006bac:	0001      	movs	r1, r0
 8006bae:	2201      	movs	r2, #1
        pdev->dev_default_config = 0U;
 8006bb0:	6083      	str	r3, [r0, #8]
        USBD_CtlSendData(pdev, (uint8_t *)(void *)&pdev->dev_default_config, 1U);
 8006bb2:	3108      	adds	r1, #8
 8006bb4:	f000 f9da 	bl	8006f6c <USBD_CtlSendData>
        break;
 8006bb8:	e760      	b.n	8006a7c <USBD_StdDevReq+0x2c>
      if (pdev->dev_speed == USBD_SPEED_HIGH)
 8006bba:	7c03      	ldrb	r3, [r0, #16]
 8006bbc:	2b00      	cmp	r3, #0
 8006bbe:	d000      	beq.n	8006bc2 <USBD_StdDevReq+0x172>
 8006bc0:	e754      	b.n	8006a6c <USBD_StdDevReq+0x1c>
        pbuf = pdev->pClass->GetOtherSpeedConfigDescriptor(&len);
 8006bc2:	23ad      	movs	r3, #173	@ 0xad
 8006bc4:	466a      	mov	r2, sp
 8006bc6:	009b      	lsls	r3, r3, #2
 8006bc8:	58c3      	ldr	r3, [r0, r3]
 8006bca:	1d90      	adds	r0, r2, #6
 8006bcc:	6b1b      	ldr	r3, [r3, #48]	@ 0x30
 8006bce:	4798      	blx	r3
        pbuf[1] = USB_DESC_TYPE_OTHER_SPEED_CONFIGURATION;
 8006bd0:	2307      	movs	r3, #7
 8006bd2:	7043      	strb	r3, [r0, #1]
    if ((len != 0U) && (req->wLength != 0U))
 8006bd4:	466b      	mov	r3, sp
 8006bd6:	88da      	ldrh	r2, [r3, #6]
 8006bd8:	88eb      	ldrh	r3, [r5, #6]
 8006bda:	2a00      	cmp	r2, #0
 8006bdc:	d00d      	beq.n	8006bfa <USBD_StdDevReq+0x1aa>
 8006bde:	2b00      	cmp	r3, #0
 8006be0:	d09d      	beq.n	8006b1e <USBD_StdDevReq+0xce>
      len = MIN(len, req->wLength);
 8006be2:	1c11      	adds	r1, r2, #0
 8006be4:	429a      	cmp	r2, r3
 8006be6:	d900      	bls.n	8006bea <USBD_StdDevReq+0x19a>
 8006be8:	1c19      	adds	r1, r3, #0
 8006bea:	466b      	mov	r3, sp
 8006bec:	b28a      	uxth	r2, r1
 8006bee:	80d9      	strh	r1, [r3, #6]
      (void)USBD_CtlSendData(pdev, pbuf, len);
 8006bf0:	0001      	movs	r1, r0
 8006bf2:	0020      	movs	r0, r4
 8006bf4:	f000 f9ba 	bl	8006f6c <USBD_CtlSendData>
 8006bf8:	88eb      	ldrh	r3, [r5, #6]
    if (req->wLength == 0U)
 8006bfa:	2b00      	cmp	r3, #0
 8006bfc:	d000      	beq.n	8006c00 <USBD_StdDevReq+0x1b0>
 8006bfe:	e73d      	b.n	8006a7c <USBD_StdDevReq+0x2c>
 8006c00:	e78d      	b.n	8006b1e <USBD_StdDevReq+0xce>
      if (pdev->dev_speed == USBD_SPEED_HIGH)
 8006c02:	7c03      	ldrb	r3, [r0, #16]
 8006c04:	2b00      	cmp	r3, #0
 8006c06:	d000      	beq.n	8006c0a <USBD_StdDevReq+0x1ba>
 8006c08:	e730      	b.n	8006a6c <USBD_StdDevReq+0x1c>
        pbuf = pdev->pClass->GetDeviceQualifierDescriptor(&len);
 8006c0a:	23ad      	movs	r3, #173	@ 0xad
 8006c0c:	466a      	mov	r2, sp
 8006c0e:	009b      	lsls	r3, r3, #2
 8006c10:	58c3      	ldr	r3, [r0, r3]
 8006c12:	1d90      	adds	r0, r2, #6
 8006c14:	6b5b      	ldr	r3, [r3, #52]	@ 0x34
 8006c16:	4798      	blx	r3
  if (err != 0U)
 8006c18:	e7dc      	b.n	8006bd4 <USBD_StdDevReq+0x184>
      switch ((uint8_t)(req->wValue))
 8006c1a:	b2d2      	uxtb	r2, r2
 8006c1c:	2a05      	cmp	r2, #5
 8006c1e:	d900      	bls.n	8006c22 <USBD_StdDevReq+0x1d2>
 8006c20:	e724      	b.n	8006a6c <USBD_StdDevReq+0x1c>
 8006c22:	4b44      	ldr	r3, [pc, #272]	@ (8006d34 <USBD_StdDevReq+0x2e4>)
 8006c24:	0092      	lsls	r2, r2, #2
 8006c26:	589b      	ldr	r3, [r3, r2]
 8006c28:	469f      	mov	pc, r3
      pdev->pClass->Setup(pdev, req);
 8006c2a:	23ad      	movs	r3, #173	@ 0xad
      if (pdev->dev_speed == USBD_SPEED_HIGH)
 8006c2c:	7c02      	ldrb	r2, [r0, #16]
      pdev->pClass->Setup(pdev, req);
 8006c2e:	009b      	lsls	r3, r3, #2
 8006c30:	58c3      	ldr	r3, [r0, r3]
      if (pdev->dev_speed == USBD_SPEED_HIGH)
 8006c32:	2a00      	cmp	r2, #0
 8006c34:	d166      	bne.n	8006d04 <USBD_StdDevReq+0x2b4>
        pbuf = pdev->pClass->GetHSConfigDescriptor(&len);
 8006c36:	6a9b      	ldr	r3, [r3, #40]	@ 0x28
        pbuf = pdev->pClass->GetFSConfigDescriptor(&len);
 8006c38:	466a      	mov	r2, sp
 8006c3a:	1d90      	adds	r0, r2, #6
 8006c3c:	4798      	blx	r3
        pbuf[1] = USB_DESC_TYPE_CONFIGURATION;
 8006c3e:	2302      	movs	r3, #2
 8006c40:	7043      	strb	r3, [r0, #1]
  if (err != 0U)
 8006c42:	e7c7      	b.n	8006bd4 <USBD_StdDevReq+0x184>
      pbuf = pdev->pDesc->GetDeviceDescriptor(pdev->dev_speed, &len);
 8006c44:	23ac      	movs	r3, #172	@ 0xac
 8006c46:	466a      	mov	r2, sp
 8006c48:	009b      	lsls	r3, r3, #2
 8006c4a:	58e3      	ldr	r3, [r4, r3]
 8006c4c:	1d91      	adds	r1, r2, #6
 8006c4e:	681b      	ldr	r3, [r3, #0]
 8006c50:	7c00      	ldrb	r0, [r0, #16]
 8006c52:	4798      	blx	r3
  if (err != 0U)
 8006c54:	e7be      	b.n	8006bd4 <USBD_StdDevReq+0x184>
          if (pdev->pDesc->GetConfigurationStrDescriptor != NULL)
 8006c56:	23ac      	movs	r3, #172	@ 0xac
 8006c58:	009b      	lsls	r3, r3, #2
 8006c5a:	58c3      	ldr	r3, [r0, r3]
 8006c5c:	695b      	ldr	r3, [r3, #20]
 8006c5e:	2b00      	cmp	r3, #0
 8006c60:	d100      	bne.n	8006c64 <USBD_StdDevReq+0x214>
 8006c62:	e703      	b.n	8006a6c <USBD_StdDevReq+0x1c>
            pbuf = pdev->pDesc->GetInterfaceStrDescriptor(pdev->dev_speed, &len);
 8006c64:	466a      	mov	r2, sp
 8006c66:	7c20      	ldrb	r0, [r4, #16]
 8006c68:	1d91      	adds	r1, r2, #6
 8006c6a:	4798      	blx	r3
  if (err != 0U)
 8006c6c:	e7b2      	b.n	8006bd4 <USBD_StdDevReq+0x184>
          if (pdev->pDesc->GetSerialStrDescriptor != NULL)
 8006c6e:	23ac      	movs	r3, #172	@ 0xac
 8006c70:	009b      	lsls	r3, r3, #2
 8006c72:	58c3      	ldr	r3, [r0, r3]
 8006c74:	691b      	ldr	r3, [r3, #16]
 8006c76:	2b00      	cmp	r3, #0
 8006c78:	d1f4      	bne.n	8006c64 <USBD_StdDevReq+0x214>
 8006c7a:	e6f7      	b.n	8006a6c <USBD_StdDevReq+0x1c>
          if (pdev->pDesc->GetProductStrDescriptor != NULL)
 8006c7c:	23ac      	movs	r3, #172	@ 0xac
 8006c7e:	009b      	lsls	r3, r3, #2
 8006c80:	58c3      	ldr	r3, [r0, r3]
 8006c82:	68db      	ldr	r3, [r3, #12]
 8006c84:	2b00      	cmp	r3, #0
 8006c86:	d1ed      	bne.n	8006c64 <USBD_StdDevReq+0x214>
 8006c88:	e6f0      	b.n	8006a6c <USBD_StdDevReq+0x1c>
          if (pdev->pDesc->GetManufacturerStrDescriptor != NULL)
 8006c8a:	23ac      	movs	r3, #172	@ 0xac
 8006c8c:	009b      	lsls	r3, r3, #2
 8006c8e:	58c3      	ldr	r3, [r0, r3]
 8006c90:	689b      	ldr	r3, [r3, #8]
 8006c92:	2b00      	cmp	r3, #0
 8006c94:	d1e6      	bne.n	8006c64 <USBD_StdDevReq+0x214>
 8006c96:	e6e9      	b.n	8006a6c <USBD_StdDevReq+0x1c>
          if (pdev->pDesc->GetLangIDStrDescriptor != NULL)
 8006c98:	23ac      	movs	r3, #172	@ 0xac
 8006c9a:	009b      	lsls	r3, r3, #2
 8006c9c:	58c3      	ldr	r3, [r0, r3]
 8006c9e:	685b      	ldr	r3, [r3, #4]
 8006ca0:	2b00      	cmp	r3, #0
 8006ca2:	d1df      	bne.n	8006c64 <USBD_StdDevReq+0x214>
 8006ca4:	e6e2      	b.n	8006a6c <USBD_StdDevReq+0x1c>
          if (pdev->pDesc->GetInterfaceStrDescriptor != NULL)
 8006ca6:	23ac      	movs	r3, #172	@ 0xac
 8006ca8:	009b      	lsls	r3, r3, #2
 8006caa:	58c3      	ldr	r3, [r0, r3]
 8006cac:	699b      	ldr	r3, [r3, #24]
 8006cae:	2b00      	cmp	r3, #0
 8006cb0:	d1d8      	bne.n	8006c64 <USBD_StdDevReq+0x214>
 8006cb2:	e6db      	b.n	8006a6c <USBD_StdDevReq+0x1c>
    switch (pdev->dev_state)
 8006cb4:	2b03      	cmp	r3, #3
 8006cb6:	d000      	beq.n	8006cba <USBD_StdDevReq+0x26a>
 8006cb8:	e6d8      	b.n	8006a6c <USBD_StdDevReq+0x1c>
        USBD_CtlSendData(pdev, (uint8_t *)(void *)&pdev->dev_config, 1U);
 8006cba:	2201      	movs	r2, #1
 8006cbc:	1d01      	adds	r1, r0, #4
 8006cbe:	f000 f955 	bl	8006f6c <USBD_CtlSendData>
        break;
 8006cc2:	e6db      	b.n	8006a7c <USBD_StdDevReq+0x2c>
        if (cfgidx == 0U)
 8006cc4:	2b00      	cmp	r3, #0
 8006cc6:	d01f      	beq.n	8006d08 <USBD_StdDevReq+0x2b8>
        else if (cfgidx != pdev->dev_config)
 8006cc8:	6841      	ldr	r1, [r0, #4]
 8006cca:	2901      	cmp	r1, #1
 8006ccc:	d100      	bne.n	8006cd0 <USBD_StdDevReq+0x280>
 8006cce:	e726      	b.n	8006b1e <USBD_StdDevReq+0xce>
          USBD_ClrClassConfig(pdev, (uint8_t)pdev->dev_config);
 8006cd0:	b2c9      	uxtb	r1, r1
 8006cd2:	f7ff fd75 	bl	80067c0 <USBD_ClrClassConfig>
          pdev->dev_config = cfgidx;
 8006cd6:	7829      	ldrb	r1, [r5, #0]
          if (USBD_SetClassConfig(pdev, cfgidx) == USBD_FAIL)
 8006cd8:	0020      	movs	r0, r4
          pdev->dev_config = cfgidx;
 8006cda:	6061      	str	r1, [r4, #4]
          if (USBD_SetClassConfig(pdev, cfgidx) == USBD_FAIL)
 8006cdc:	f7ff fd62 	bl	80067a4 <USBD_SetClassConfig>
 8006ce0:	2802      	cmp	r0, #2
 8006ce2:	d000      	beq.n	8006ce6 <USBD_StdDevReq+0x296>
 8006ce4:	e71b      	b.n	8006b1e <USBD_StdDevReq+0xce>
 8006ce6:	e6c1      	b.n	8006a6c <USBD_StdDevReq+0x1c>
        if (cfgidx)
 8006ce8:	2b00      	cmp	r3, #0
 8006cea:	d100      	bne.n	8006cee <USBD_StdDevReq+0x29e>
 8006cec:	e717      	b.n	8006b1e <USBD_StdDevReq+0xce>
          pdev->dev_config = cfgidx;
 8006cee:	2301      	movs	r3, #1
 8006cf0:	6043      	str	r3, [r0, #4]
          pdev->dev_state = USBD_STATE_CONFIGURED;
 8006cf2:	3302      	adds	r3, #2
 8006cf4:	5443      	strb	r3, [r0, r1]
          if (USBD_SetClassConfig(pdev, cfgidx) == USBD_FAIL)
 8006cf6:	2101      	movs	r1, #1
 8006cf8:	f7ff fd54 	bl	80067a4 <USBD_SetClassConfig>
 8006cfc:	2802      	cmp	r0, #2
 8006cfe:	d000      	beq.n	8006d02 <USBD_StdDevReq+0x2b2>
 8006d00:	e70d      	b.n	8006b1e <USBD_StdDevReq+0xce>
 8006d02:	e6b3      	b.n	8006a6c <USBD_StdDevReq+0x1c>
        pbuf = pdev->pClass->GetFSConfigDescriptor(&len);
 8006d04:	6adb      	ldr	r3, [r3, #44]	@ 0x2c
 8006d06:	e797      	b.n	8006c38 <USBD_StdDevReq+0x1e8>
          pdev->dev_state = USBD_STATE_ADDRESSED;
 8006d08:	2202      	movs	r2, #2
 8006d0a:	5442      	strb	r2, [r0, r1]
          USBD_ClrClassConfig(pdev, cfgidx);
 8006d0c:	2100      	movs	r1, #0
          pdev->dev_config = cfgidx;
 8006d0e:	6043      	str	r3, [r0, #4]
          USBD_ClrClassConfig(pdev, cfgidx);
 8006d10:	f7ff fd56 	bl	80067c0 <USBD_ClrClassConfig>
          USBD_CtlSendStatus(pdev);
 8006d14:	0020      	movs	r0, r4
 8006d16:	f000 f959 	bl	8006fcc <USBD_CtlSendStatus>
 8006d1a:	e6af      	b.n	8006a7c <USBD_StdDevReq+0x2c>
        pdev->dev_state = USBD_STATE_DEFAULT;
 8006d1c:	2301      	movs	r3, #1
 8006d1e:	55a3      	strb	r3, [r4, r6]
 8006d20:	e6ac      	b.n	8006a7c <USBD_StdDevReq+0x2c>
 8006d22:	46c0      	nop			@ (mov r8, r8)
 8006d24:	08008d58 	.word	0x08008d58
 8006d28:	20000444 	.word	0x20000444
 8006d2c:	0000029e 	.word	0x0000029e
 8006d30:	08008d80 	.word	0x08008d80
 8006d34:	08008da0 	.word	0x08008da0

08006d38 <USBD_StdItfReq>:
{
 8006d38:	2360      	movs	r3, #96	@ 0x60
  switch (req->bmRequest & USB_REQ_TYPE_MASK)
 8006d3a:	780a      	ldrb	r2, [r1, #0]
{
 8006d3c:	b570      	push	{r4, r5, r6, lr}
 8006d3e:	4013      	ands	r3, r2
 8006d40:	0004      	movs	r4, r0
 8006d42:	000d      	movs	r5, r1
  switch (req->bmRequest & USB_REQ_TYPE_MASK)
 8006d44:	0652      	lsls	r2, r2, #25
 8006d46:	d50b      	bpl.n	8006d60 <USBD_StdItfReq+0x28>
 8006d48:	2b40      	cmp	r3, #64	@ 0x40
 8006d4a:	d009      	beq.n	8006d60 <USBD_StdItfReq+0x28>
  USBD_LL_StallEP(pdev, 0x80U);
 8006d4c:	2180      	movs	r1, #128	@ 0x80
 8006d4e:	0020      	movs	r0, r4
 8006d50:	f000 fbd0 	bl	80074f4 <USBD_LL_StallEP>
  USBD_LL_StallEP(pdev, 0U);
 8006d54:	2100      	movs	r1, #0
 8006d56:	0020      	movs	r0, r4
 8006d58:	f000 fbcc 	bl	80074f4 <USBD_LL_StallEP>
}
 8006d5c:	2000      	movs	r0, #0
 8006d5e:	bd70      	pop	{r4, r5, r6, pc}
      switch (pdev->dev_state)
 8006d60:	23a7      	movs	r3, #167	@ 0xa7
 8006d62:	009b      	lsls	r3, r3, #2
 8006d64:	5ce3      	ldrb	r3, [r4, r3]
 8006d66:	3b01      	subs	r3, #1
 8006d68:	2b02      	cmp	r3, #2
 8006d6a:	d8ef      	bhi.n	8006d4c <USBD_StdItfReq+0x14>
          if (LOBYTE(req->wIndex) <= USBD_MAX_NUM_INTERFACES)
 8006d6c:	792b      	ldrb	r3, [r5, #4]
 8006d6e:	2b01      	cmp	r3, #1
 8006d70:	d8ec      	bhi.n	8006d4c <USBD_StdItfReq+0x14>
            ret = (USBD_StatusTypeDef)pdev->pClass->Setup(pdev, req);
 8006d72:	23ad      	movs	r3, #173	@ 0xad
 8006d74:	009b      	lsls	r3, r3, #2
 8006d76:	58e3      	ldr	r3, [r4, r3]
 8006d78:	0029      	movs	r1, r5
 8006d7a:	689b      	ldr	r3, [r3, #8]
 8006d7c:	0020      	movs	r0, r4
 8006d7e:	4798      	blx	r3
            if ((req->wLength == 0U) && (ret == USBD_OK))
 8006d80:	88eb      	ldrh	r3, [r5, #6]
 8006d82:	2b00      	cmp	r3, #0
 8006d84:	d1ea      	bne.n	8006d5c <USBD_StdItfReq+0x24>
 8006d86:	2800      	cmp	r0, #0
 8006d88:	d1e8      	bne.n	8006d5c <USBD_StdItfReq+0x24>
              USBD_CtlSendStatus(pdev);
 8006d8a:	0020      	movs	r0, r4
 8006d8c:	f000 f91e 	bl	8006fcc <USBD_CtlSendStatus>
 8006d90:	e7e4      	b.n	8006d5c <USBD_StdItfReq+0x24>
 8006d92:	46c0      	nop			@ (mov r8, r8)

08006d94 <USBD_StdEPReq>:
{
 8006d94:	2360      	movs	r3, #96	@ 0x60
 8006d96:	780a      	ldrb	r2, [r1, #0]
 8006d98:	b570      	push	{r4, r5, r6, lr}
 8006d9a:	4013      	ands	r3, r2
  switch (req->bmRequest & USB_REQ_TYPE_MASK)
 8006d9c:	001c      	movs	r4, r3
 8006d9e:	22c0      	movs	r2, #192	@ 0xc0
 8006da0:	3c20      	subs	r4, #32
{
 8006da2:	0005      	movs	r5, r0
  ep_addr  = LOBYTE(req->wIndex);
 8006da4:	8888      	ldrh	r0, [r1, #4]
  switch (req->bmRequest & USB_REQ_TYPE_MASK)
 8006da6:	4214      	tst	r4, r2
 8006da8:	d00b      	beq.n	8006dc2 <USBD_StdEPReq+0x2e>
 8006daa:	2b00      	cmp	r3, #0
 8006dac:	d010      	beq.n	8006dd0 <USBD_StdEPReq+0x3c>
  USBD_LL_StallEP(pdev, 0x80U);
 8006dae:	2180      	movs	r1, #128	@ 0x80
 8006db0:	0028      	movs	r0, r5
 8006db2:	f000 fb9f 	bl	80074f4 <USBD_LL_StallEP>
  USBD_LL_StallEP(pdev, 0U);
 8006db6:	2100      	movs	r1, #0
 8006db8:	0028      	movs	r0, r5
 8006dba:	f000 fb9b 	bl	80074f4 <USBD_LL_StallEP>
}
 8006dbe:	2000      	movs	r0, #0
 8006dc0:	bd70      	pop	{r4, r5, r6, pc}
      pdev->pClass->Setup(pdev, req);
 8006dc2:	23ad      	movs	r3, #173	@ 0xad
 8006dc4:	009b      	lsls	r3, r3, #2
 8006dc6:	58eb      	ldr	r3, [r5, r3]
 8006dc8:	0028      	movs	r0, r5
 8006dca:	689b      	ldr	r3, [r3, #8]
 8006dcc:	4798      	blx	r3
      break;
 8006dce:	e7f6      	b.n	8006dbe <USBD_StdEPReq+0x2a>
      switch (req->bRequest)
 8006dd0:	784b      	ldrb	r3, [r1, #1]
  ep_addr  = LOBYTE(req->wIndex);
 8006dd2:	b2c2      	uxtb	r2, r0
      switch (req->bRequest)
 8006dd4:	2b01      	cmp	r3, #1
 8006dd6:	d043      	beq.n	8006e60 <USBD_StdEPReq+0xcc>
 8006dd8:	2b03      	cmp	r3, #3
 8006dda:	d02d      	beq.n	8006e38 <USBD_StdEPReq+0xa4>
 8006ddc:	2b00      	cmp	r3, #0
 8006dde:	d1e6      	bne.n	8006dae <USBD_StdEPReq+0x1a>
          switch (pdev->dev_state)
 8006de0:	23a7      	movs	r3, #167	@ 0xa7
 8006de2:	009b      	lsls	r3, r3, #2
 8006de4:	5ceb      	ldrb	r3, [r5, r3]
 8006de6:	2b02      	cmp	r3, #2
 8006de8:	d056      	beq.n	8006e98 <USBD_StdEPReq+0x104>
 8006dea:	2b03      	cmp	r3, #3
 8006dec:	d1df      	bne.n	8006dae <USBD_StdEPReq+0x1a>
                if (pdev->ep_in[ep_addr & 0xFU].is_used == 0U)
 8006dee:	210f      	movs	r1, #15
 8006df0:	4011      	ands	r1, r2
 8006df2:	008b      	lsls	r3, r1, #2
 8006df4:	185b      	adds	r3, r3, r1
 8006df6:	009b      	lsls	r3, r3, #2
 8006df8:	18eb      	adds	r3, r5, r3
              if ((ep_addr & 0x80U) == 0x80U)
 8006dfa:	0600      	lsls	r0, r0, #24
 8006dfc:	d45d      	bmi.n	8006eba <USBD_StdEPReq+0x126>
                if (pdev->ep_out[ep_addr & 0xFU].is_used == 0U)
 8006dfe:	3359      	adds	r3, #89	@ 0x59
 8006e00:	33ff      	adds	r3, #255	@ 0xff
 8006e02:	681b      	ldr	r3, [r3, #0]
 8006e04:	2b00      	cmp	r3, #0
 8006e06:	d0d2      	beq.n	8006dae <USBD_StdEPReq+0x1a>
              pep = ((ep_addr & 0x80U) == 0x80U) ? &pdev->ep_in[ep_addr & 0x7FU] : \
 8006e08:	237f      	movs	r3, #127	@ 0x7f
 8006e0a:	4013      	ands	r3, r2
 8006e0c:	009c      	lsls	r4, r3, #2
 8006e0e:	18e4      	adds	r4, r4, r3
 8006e10:	00a4      	lsls	r4, r4, #2
 8006e12:	3455      	adds	r4, #85	@ 0x55
 8006e14:	34ff      	adds	r4, #255	@ 0xff
 8006e16:	192c      	adds	r4, r5, r4
              if ((ep_addr == 0x00U) || (ep_addr == 0x80U))
 8006e18:	2b00      	cmp	r3, #0
 8006e1a:	d05a      	beq.n	8006ed2 <USBD_StdEPReq+0x13e>
              else if (USBD_LL_IsStallEP(pdev, ep_addr))
 8006e1c:	0011      	movs	r1, r2
 8006e1e:	0028      	movs	r0, r5
 8006e20:	f000 fb84 	bl	800752c <USBD_LL_IsStallEP>
 8006e24:	2800      	cmp	r0, #0
 8006e26:	d054      	beq.n	8006ed2 <USBD_StdEPReq+0x13e>
 8006e28:	2301      	movs	r3, #1
              USBD_CtlSendData(pdev, (uint8_t *)(void *)&pep->status, 2U);
 8006e2a:	2202      	movs	r2, #2
 8006e2c:	0021      	movs	r1, r4
 8006e2e:	0028      	movs	r0, r5
                pep->status = 0x0000U;
 8006e30:	6023      	str	r3, [r4, #0]
              USBD_CtlSendData(pdev, (uint8_t *)(void *)&pep->status, 2U);
 8006e32:	f000 f89b 	bl	8006f6c <USBD_CtlSendData>
              break;
 8006e36:	e7c2      	b.n	8006dbe <USBD_StdEPReq+0x2a>
          switch (pdev->dev_state)
 8006e38:	23a7      	movs	r3, #167	@ 0xa7
 8006e3a:	009b      	lsls	r3, r3, #2
 8006e3c:	5ceb      	ldrb	r3, [r5, r3]
 8006e3e:	2b02      	cmp	r3, #2
 8006e40:	d01e      	beq.n	8006e80 <USBD_StdEPReq+0xec>
 8006e42:	2b03      	cmp	r3, #3
 8006e44:	d1b3      	bne.n	8006dae <USBD_StdEPReq+0x1a>
              if (req->wValue == USB_FEATURE_EP_HALT)
 8006e46:	884b      	ldrh	r3, [r1, #2]
 8006e48:	2b00      	cmp	r3, #0
 8006e4a:	d115      	bne.n	8006e78 <USBD_StdEPReq+0xe4>
                if ((ep_addr != 0x00U) &&
 8006e4c:	0653      	lsls	r3, r2, #25
 8006e4e:	d013      	beq.n	8006e78 <USBD_StdEPReq+0xe4>
                    (ep_addr != 0x80U) && (req->wLength == 0x00U))
 8006e50:	88cb      	ldrh	r3, [r1, #6]
 8006e52:	2b00      	cmp	r3, #0
 8006e54:	d110      	bne.n	8006e78 <USBD_StdEPReq+0xe4>
                  USBD_LL_StallEP(pdev, ep_addr);
 8006e56:	0011      	movs	r1, r2
 8006e58:	0028      	movs	r0, r5
 8006e5a:	f000 fb4b 	bl	80074f4 <USBD_LL_StallEP>
 8006e5e:	e00b      	b.n	8006e78 <USBD_StdEPReq+0xe4>
          switch (pdev->dev_state)
 8006e60:	23a7      	movs	r3, #167	@ 0xa7
 8006e62:	009b      	lsls	r3, r3, #2
 8006e64:	5ceb      	ldrb	r3, [r5, r3]
 8006e66:	2b02      	cmp	r3, #2
 8006e68:	d00a      	beq.n	8006e80 <USBD_StdEPReq+0xec>
 8006e6a:	2b03      	cmp	r3, #3
 8006e6c:	d19f      	bne.n	8006dae <USBD_StdEPReq+0x1a>
              if (req->wValue == USB_FEATURE_EP_HALT)
 8006e6e:	884b      	ldrh	r3, [r1, #2]
 8006e70:	2b00      	cmp	r3, #0
 8006e72:	d1a4      	bne.n	8006dbe <USBD_StdEPReq+0x2a>
                if ((ep_addr & 0x7FU) != 0x00U)
 8006e74:	0653      	lsls	r3, r2, #25
 8006e76:	d12e      	bne.n	8006ed6 <USBD_StdEPReq+0x142>
              USBD_CtlSendStatus(pdev);
 8006e78:	0028      	movs	r0, r5
 8006e7a:	f000 f8a7 	bl	8006fcc <USBD_CtlSendStatus>
              break;
 8006e7e:	e79e      	b.n	8006dbe <USBD_StdEPReq+0x2a>
              if ((ep_addr != 0x00U) && (ep_addr != 0x80U))
 8006e80:	0653      	lsls	r3, r2, #25
 8006e82:	d100      	bne.n	8006e86 <USBD_StdEPReq+0xf2>
 8006e84:	e793      	b.n	8006dae <USBD_StdEPReq+0x1a>
                USBD_LL_StallEP(pdev, ep_addr);
 8006e86:	0011      	movs	r1, r2
 8006e88:	0028      	movs	r0, r5
 8006e8a:	f000 fb33 	bl	80074f4 <USBD_LL_StallEP>
                USBD_LL_StallEP(pdev, 0x80U);
 8006e8e:	2180      	movs	r1, #128	@ 0x80
 8006e90:	0028      	movs	r0, r5
 8006e92:	f000 fb2f 	bl	80074f4 <USBD_LL_StallEP>
 8006e96:	e792      	b.n	8006dbe <USBD_StdEPReq+0x2a>
              if ((ep_addr != 0x00U) && (ep_addr != 0x80U))
 8006e98:	0652      	lsls	r2, r2, #25
 8006e9a:	d000      	beq.n	8006e9e <USBD_StdEPReq+0x10a>
 8006e9c:	e787      	b.n	8006dae <USBD_StdEPReq+0x1a>
              pep = ((ep_addr & 0x80U) == 0x80U) ? &pdev->ep_in[ep_addr & 0x7FU] : \
 8006e9e:	0029      	movs	r1, r5
 8006ea0:	3155      	adds	r1, #85	@ 0x55
 8006ea2:	31ff      	adds	r1, #255	@ 0xff
 8006ea4:	0600      	lsls	r0, r0, #24
 8006ea6:	d501      	bpl.n	8006eac <USBD_StdEPReq+0x118>
 8006ea8:	3941      	subs	r1, #65	@ 0x41
 8006eaa:	39ff      	subs	r1, #255	@ 0xff
              pep->status = 0x0000U;
 8006eac:	2300      	movs	r3, #0
              USBD_CtlSendData(pdev, (uint8_t *)(void *)&pep->status, 2U);
 8006eae:	2202      	movs	r2, #2
 8006eb0:	0028      	movs	r0, r5
              pep->status = 0x0000U;
 8006eb2:	600b      	str	r3, [r1, #0]
              USBD_CtlSendData(pdev, (uint8_t *)(void *)&pep->status, 2U);
 8006eb4:	f000 f85a 	bl	8006f6c <USBD_CtlSendData>
              break;
 8006eb8:	e781      	b.n	8006dbe <USBD_StdEPReq+0x2a>
                if (pdev->ep_in[ep_addr & 0xFU].is_used == 0U)
 8006eba:	699b      	ldr	r3, [r3, #24]
 8006ebc:	2b00      	cmp	r3, #0
 8006ebe:	d100      	bne.n	8006ec2 <USBD_StdEPReq+0x12e>
 8006ec0:	e775      	b.n	8006dae <USBD_StdEPReq+0x1a>
              pep = ((ep_addr & 0x80U) == 0x80U) ? &pdev->ep_in[ep_addr & 0x7FU] : \
 8006ec2:	237f      	movs	r3, #127	@ 0x7f
 8006ec4:	4013      	ands	r3, r2
 8006ec6:	1c59      	adds	r1, r3, #1
 8006ec8:	008c      	lsls	r4, r1, #2
 8006eca:	1864      	adds	r4, r4, r1
 8006ecc:	00a4      	lsls	r4, r4, #2
 8006ece:	192c      	adds	r4, r5, r4
 8006ed0:	e7a2      	b.n	8006e18 <USBD_StdEPReq+0x84>
{
 8006ed2:	2300      	movs	r3, #0
 8006ed4:	e7a9      	b.n	8006e2a <USBD_StdEPReq+0x96>
                  USBD_LL_ClearStallEP(pdev, ep_addr);
 8006ed6:	0011      	movs	r1, r2
 8006ed8:	0028      	movs	r0, r5
 8006eda:	f000 fb19 	bl	8007510 <USBD_LL_ClearStallEP>
 8006ede:	e7cb      	b.n	8006e78 <USBD_StdEPReq+0xe4>

08006ee0 <USBD_ParseSetupRequest>:
  req->bmRequest = *(uint8_t *)(pdata);
 8006ee0:	780b      	ldrb	r3, [r1, #0]
 8006ee2:	7003      	strb	r3, [r0, #0]
  req->bRequest = *(uint8_t *)(pdata + 1U);
 8006ee4:	784b      	ldrb	r3, [r1, #1]
 8006ee6:	7043      	strb	r3, [r0, #1]
  req->wValue = SWAPBYTE(pdata + 2U);
 8006ee8:	78cb      	ldrb	r3, [r1, #3]
 8006eea:	788a      	ldrb	r2, [r1, #2]
 8006eec:	021b      	lsls	r3, r3, #8
 8006eee:	4313      	orrs	r3, r2
 8006ef0:	8043      	strh	r3, [r0, #2]
  req->wIndex = SWAPBYTE(pdata + 4U);
 8006ef2:	794b      	ldrb	r3, [r1, #5]
 8006ef4:	790a      	ldrb	r2, [r1, #4]
 8006ef6:	021b      	lsls	r3, r3, #8
 8006ef8:	4313      	orrs	r3, r2
 8006efa:	8083      	strh	r3, [r0, #4]
  req->wLength = SWAPBYTE(pdata + 6U);
 8006efc:	79cb      	ldrb	r3, [r1, #7]
 8006efe:	798a      	ldrb	r2, [r1, #6]
 8006f00:	021b      	lsls	r3, r3, #8
 8006f02:	4313      	orrs	r3, r2
 8006f04:	80c3      	strh	r3, [r0, #6]
}
 8006f06:	4770      	bx	lr

08006f08 <USBD_CtlError>:
{
 8006f08:	b510      	push	{r4, lr}
 8006f0a:	0004      	movs	r4, r0
  USBD_LL_StallEP(pdev, 0x80U);
 8006f0c:	2180      	movs	r1, #128	@ 0x80
 8006f0e:	f000 faf1 	bl	80074f4 <USBD_LL_StallEP>
  USBD_LL_StallEP(pdev, 0U);
 8006f12:	2100      	movs	r1, #0
 8006f14:	0020      	movs	r0, r4
 8006f16:	f000 faed 	bl	80074f4 <USBD_LL_StallEP>
}
 8006f1a:	bd10      	pop	{r4, pc}

08006f1c <USBD_GetString>:
  * @param  unicode : Formatted string buffer (unicode)
  * @param  len : descriptor length
  * @retval None
  */
void USBD_GetString(uint8_t *desc, uint8_t *unicode, uint16_t *len)
{
 8006f1c:	b570      	push	{r4, r5, r6, lr}
 8006f1e:	0004      	movs	r4, r0
 8006f20:	000d      	movs	r5, r1
 8006f22:	0016      	movs	r6, r2
  uint8_t idx = 0U;

  if (desc != NULL)
 8006f24:	2800      	cmp	r0, #0
 8006f26:	d01d      	beq.n	8006f64 <USBD_GetString+0x48>
  */
static uint8_t USBD_GetLen(uint8_t *buf)
{
  uint8_t  len = 0U;

  while (*buf != '\0')
 8006f28:	7803      	ldrb	r3, [r0, #0]
 8006f2a:	2b00      	cmp	r3, #0
 8006f2c:	d01b      	beq.n	8006f66 <USBD_GetString+0x4a>
 8006f2e:	3001      	adds	r0, #1
 8006f30:	f7f9 f8ea 	bl	8000108 <strlen>
    *len = (uint16_t)USBD_GetLen(desc) * 2U + 2U;
 8006f34:	3001      	adds	r0, #1
 8006f36:	b2c3      	uxtb	r3, r0
 8006f38:	3301      	adds	r3, #1
 8006f3a:	005b      	lsls	r3, r3, #1
 8006f3c:	b2da      	uxtb	r2, r3
 8006f3e:	8033      	strh	r3, [r6, #0]
    unicode[idx++] = USB_DESC_TYPE_STRING;
 8006f40:	2303      	movs	r3, #3
    unicode[idx++] = *(uint8_t *)(void *)len;
 8006f42:	702a      	strb	r2, [r5, #0]
    unicode[idx++] = USB_DESC_TYPE_STRING;
 8006f44:	706b      	strb	r3, [r5, #1]
    while (*desc != '\0')
 8006f46:	7820      	ldrb	r0, [r4, #0]
 8006f48:	2800      	cmp	r0, #0
 8006f4a:	d00b      	beq.n	8006f64 <USBD_GetString+0x48>
      unicode[idx++] =  0U;
 8006f4c:	2100      	movs	r1, #0
    unicode[idx++] = USB_DESC_TYPE_STRING;
 8006f4e:	3b01      	subs	r3, #1
      unicode[idx++] = *desc++;
 8006f50:	1c5a      	adds	r2, r3, #1
 8006f52:	b2d2      	uxtb	r2, r2
 8006f54:	54e8      	strb	r0, [r5, r3]
 8006f56:	3401      	adds	r4, #1
      unicode[idx++] =  0U;
 8006f58:	54a9      	strb	r1, [r5, r2]
    while (*desc != '\0')
 8006f5a:	7820      	ldrb	r0, [r4, #0]
      unicode[idx++] =  0U;
 8006f5c:	3302      	adds	r3, #2
 8006f5e:	b2db      	uxtb	r3, r3
    while (*desc != '\0')
 8006f60:	2800      	cmp	r0, #0
 8006f62:	d1f5      	bne.n	8006f50 <USBD_GetString+0x34>
}
 8006f64:	bd70      	pop	{r4, r5, r6, pc}
  while (*buf != '\0')
 8006f66:	2202      	movs	r2, #2
 8006f68:	2302      	movs	r3, #2
 8006f6a:	e7e8      	b.n	8006f3e <USBD_GetString+0x22>

08006f6c <USBD_CtlSendData>:
* @param  len: length of data to be sent
* @retval status
*/
USBD_StatusTypeDef USBD_CtlSendData(USBD_HandleTypeDef *pdev,
                                    uint8_t *pbuf, uint16_t len)
{
 8006f6c:	0013      	movs	r3, r2
  /* Set EP0 State */
  pdev->ep0_state = USBD_EP0_DATA_IN;
 8006f6e:	22a5      	movs	r2, #165	@ 0xa5
{
 8006f70:	b510      	push	{r4, lr}
  pdev->ep0_state = USBD_EP0_DATA_IN;
 8006f72:	2402      	movs	r4, #2
 8006f74:	0092      	lsls	r2, r2, #2
 8006f76:	5084      	str	r4, [r0, r2]
  pdev->ep_in[0].total_length = len;
  pdev->ep_in[0].rem_length   = len;

  /* Start the transfer */
  USBD_LL_Transmit(pdev, 0x00U, pbuf, len);
 8006f78:	000a      	movs	r2, r1
  pdev->ep_in[0].total_length = len;
 8006f7a:	61c3      	str	r3, [r0, #28]
  USBD_LL_Transmit(pdev, 0x00U, pbuf, len);
 8006f7c:	2100      	movs	r1, #0
  pdev->ep_in[0].rem_length   = len;
 8006f7e:	6203      	str	r3, [r0, #32]
  USBD_LL_Transmit(pdev, 0x00U, pbuf, len);
 8006f80:	f000 faf8 	bl	8007574 <USBD_LL_Transmit>

  return USBD_OK;
}
 8006f84:	2000      	movs	r0, #0
 8006f86:	bd10      	pop	{r4, pc}

08006f88 <USBD_CtlContinueSendData>:
* @param  len: length of data to be sent
* @retval status
*/
USBD_StatusTypeDef USBD_CtlContinueSendData(USBD_HandleTypeDef *pdev,
                                            uint8_t *pbuf, uint16_t len)
{
 8006f88:	b510      	push	{r4, lr}
 8006f8a:	0013      	movs	r3, r2
  /* Start the next transfer */
  USBD_LL_Transmit(pdev, 0x00U, pbuf, len);
 8006f8c:	000a      	movs	r2, r1
 8006f8e:	2100      	movs	r1, #0
 8006f90:	f000 faf0 	bl	8007574 <USBD_LL_Transmit>

  return USBD_OK;
}
 8006f94:	2000      	movs	r0, #0
 8006f96:	bd10      	pop	{r4, pc}

08006f98 <USBD_CtlPrepareRx>:
* @param  len: length of data to be received
* @retval status
*/
USBD_StatusTypeDef USBD_CtlPrepareRx(USBD_HandleTypeDef *pdev,
                                     uint8_t *pbuf, uint16_t len)
{
 8006f98:	0013      	movs	r3, r2
  /* Set EP0 State */
  pdev->ep0_state = USBD_EP0_DATA_OUT;
 8006f9a:	22a5      	movs	r2, #165	@ 0xa5
{
 8006f9c:	b510      	push	{r4, lr}
  pdev->ep0_state = USBD_EP0_DATA_OUT;
 8006f9e:	2403      	movs	r4, #3
 8006fa0:	0092      	lsls	r2, r2, #2
 8006fa2:	5084      	str	r4, [r0, r2]
  pdev->ep_out[0].total_length = len;
 8006fa4:	3a39      	subs	r2, #57	@ 0x39
 8006fa6:	3aff      	subs	r2, #255	@ 0xff
 8006fa8:	5083      	str	r3, [r0, r2]
  pdev->ep_out[0].rem_length   = len;
 8006faa:	3204      	adds	r2, #4
 8006fac:	5083      	str	r3, [r0, r2]

  /* Start the transfer */
  USBD_LL_PrepareReceive(pdev, 0U, pbuf, len);
 8006fae:	000a      	movs	r2, r1
 8006fb0:	2100      	movs	r1, #0
 8006fb2:	f000 faed 	bl	8007590 <USBD_LL_PrepareReceive>

  return USBD_OK;
}
 8006fb6:	2000      	movs	r0, #0
 8006fb8:	bd10      	pop	{r4, pc}
 8006fba:	46c0      	nop			@ (mov r8, r8)

08006fbc <USBD_CtlContinueRx>:
* @param  len: length of data to be received
* @retval status
*/
USBD_StatusTypeDef USBD_CtlContinueRx(USBD_HandleTypeDef *pdev,
                                      uint8_t *pbuf, uint16_t len)
{
 8006fbc:	b510      	push	{r4, lr}
 8006fbe:	0013      	movs	r3, r2
  USBD_LL_PrepareReceive(pdev, 0U, pbuf, len);
 8006fc0:	000a      	movs	r2, r1
 8006fc2:	2100      	movs	r1, #0
 8006fc4:	f000 fae4 	bl	8007590 <USBD_LL_PrepareReceive>

  return USBD_OK;
}
 8006fc8:	2000      	movs	r0, #0
 8006fca:	bd10      	pop	{r4, pc}

08006fcc <USBD_CtlSendStatus>:
* @retval status
*/
USBD_StatusTypeDef USBD_CtlSendStatus(USBD_HandleTypeDef *pdev)
{
  /* Set EP0 State */
  pdev->ep0_state = USBD_EP0_STATUS_IN;
 8006fcc:	23a5      	movs	r3, #165	@ 0xa5
 8006fce:	2204      	movs	r2, #4
{
 8006fd0:	b510      	push	{r4, lr}
  pdev->ep0_state = USBD_EP0_STATUS_IN;
 8006fd2:	009b      	lsls	r3, r3, #2
 8006fd4:	50c2      	str	r2, [r0, r3]

  /* Start the transfer */
  USBD_LL_Transmit(pdev, 0x00U, NULL, 0U);
 8006fd6:	2100      	movs	r1, #0
 8006fd8:	2300      	movs	r3, #0
 8006fda:	2200      	movs	r2, #0
 8006fdc:	f000 faca 	bl	8007574 <USBD_LL_Transmit>

  return USBD_OK;
}
 8006fe0:	2000      	movs	r0, #0
 8006fe2:	bd10      	pop	{r4, pc}

08006fe4 <USBD_CtlReceiveStatus>:
* @retval status
*/
USBD_StatusTypeDef USBD_CtlReceiveStatus(USBD_HandleTypeDef *pdev)
{
  /* Set EP0 State */
  pdev->ep0_state = USBD_EP0_STATUS_OUT;
 8006fe4:	23a5      	movs	r3, #165	@ 0xa5
 8006fe6:	2205      	movs	r2, #5
{
 8006fe8:	b510      	push	{r4, lr}
  pdev->ep0_state = USBD_EP0_STATUS_OUT;
 8006fea:	009b      	lsls	r3, r3, #2
 8006fec:	50c2      	str	r2, [r0, r3]

  /* Start the transfer */
  USBD_LL_PrepareReceive(pdev, 0U, NULL, 0U);
 8006fee:	2100      	movs	r1, #0
 8006ff0:	2300      	movs	r3, #0
 8006ff2:	2200      	movs	r2, #0
 8006ff4:	f000 facc 	bl	8007590 <USBD_LL_PrepareReceive>

  return USBD_OK;
}
 8006ff8:	2000      	movs	r0, #0
 8006ffa:	bd10      	pop	{r4, pc}

08006ffc <MX_USB_DEVICE_Init>:
/**
  * Init USB device Library, add supported class and start the library
  * @retval None
  */
void MX_USB_DEVICE_Init(void)
{
 8006ffc:	b510      	push	{r4, lr}
  /* USER CODE BEGIN USB_DEVICE_Init_PreTreatment */

  /* USER CODE END USB_DEVICE_Init_PreTreatment */

  /* Init Device Library, add supported class and start the library. */
  if (USBD_Init(&hUsbDeviceFS, &FS_Desc, DEVICE_FS) != USBD_OK)
 8006ffe:	4c1a      	ldr	r4, [pc, #104]	@ (8007068 <MX_USB_DEVICE_Init+0x6c>)
 8007000:	2200      	movs	r2, #0
 8007002:	0020      	movs	r0, r4
 8007004:	4919      	ldr	r1, [pc, #100]	@ (800706c <MX_USB_DEVICE_Init+0x70>)
 8007006:	f7ff fba3 	bl	8006750 <USBD_Init>
 800700a:	2800      	cmp	r0, #0
 800700c:	d111      	bne.n	8007032 <MX_USB_DEVICE_Init+0x36>
  {
    Error_Handler();
  }
  if (USBD_RegisterClass(&hUsbDeviceFS, &USBD_CDC) != USBD_OK)
 800700e:	0020      	movs	r0, r4
 8007010:	4917      	ldr	r1, [pc, #92]	@ (8007070 <MX_USB_DEVICE_Init+0x74>)
 8007012:	f7ff fbb7 	bl	8006784 <USBD_RegisterClass>
 8007016:	2800      	cmp	r0, #0
 8007018:	d113      	bne.n	8007042 <MX_USB_DEVICE_Init+0x46>
  {
    Error_Handler();
  }
  if (USBD_CDC_RegisterInterface(&hUsbDeviceFS, &USBD_Interface_fops_FS) != USBD_OK)
 800701a:	0020      	movs	r0, r4
 800701c:	4915      	ldr	r1, [pc, #84]	@ (8007074 <MX_USB_DEVICE_Init+0x78>)
 800701e:	f7ff fb41 	bl	80066a4 <USBD_CDC_RegisterInterface>
 8007022:	2800      	cmp	r0, #0
 8007024:	d115      	bne.n	8007052 <MX_USB_DEVICE_Init+0x56>
  {
    Error_Handler();
  }
  if (USBD_Start(&hUsbDeviceFS) != USBD_OK)
 8007026:	0020      	movs	r0, r4
 8007028:	f7ff fbb6 	bl	8006798 <USBD_Start>
 800702c:	2800      	cmp	r0, #0
 800702e:	d117      	bne.n	8007060 <MX_USB_DEVICE_Init+0x64>
  }

  /* USER CODE BEGIN USB_DEVICE_Init_PostTreatment */

  /* USER CODE END USB_DEVICE_Init_PostTreatment */
}
 8007030:	bd10      	pop	{r4, pc}
    Error_Handler();
 8007032:	f7f9 fed3 	bl	8000ddc <Error_Handler>
  if (USBD_RegisterClass(&hUsbDeviceFS, &USBD_CDC) != USBD_OK)
 8007036:	0020      	movs	r0, r4
 8007038:	490d      	ldr	r1, [pc, #52]	@ (8007070 <MX_USB_DEVICE_Init+0x74>)
 800703a:	f7ff fba3 	bl	8006784 <USBD_RegisterClass>
 800703e:	2800      	cmp	r0, #0
 8007040:	d0eb      	beq.n	800701a <MX_USB_DEVICE_Init+0x1e>
    Error_Handler();
 8007042:	f7f9 fecb 	bl	8000ddc <Error_Handler>
  if (USBD_CDC_RegisterInterface(&hUsbDeviceFS, &USBD_Interface_fops_FS) != USBD_OK)
 8007046:	0020      	movs	r0, r4
 8007048:	490a      	ldr	r1, [pc, #40]	@ (8007074 <MX_USB_DEVICE_Init+0x78>)
 800704a:	f7ff fb2b 	bl	80066a4 <USBD_CDC_RegisterInterface>
 800704e:	2800      	cmp	r0, #0
 8007050:	d0e9      	beq.n	8007026 <MX_USB_DEVICE_Init+0x2a>
    Error_Handler();
 8007052:	f7f9 fec3 	bl	8000ddc <Error_Handler>
  if (USBD_Start(&hUsbDeviceFS) != USBD_OK)
 8007056:	0020      	movs	r0, r4
 8007058:	f7ff fb9e 	bl	8006798 <USBD_Start>
 800705c:	2800      	cmp	r0, #0
 800705e:	d0e7      	beq.n	8007030 <MX_USB_DEVICE_Init+0x34>
    Error_Handler();
 8007060:	f7f9 febc 	bl	8000ddc <Error_Handler>
}
 8007064:	e7e4      	b.n	8007030 <MX_USB_DEVICE_Init+0x34>
 8007066:	46c0      	nop			@ (mov r8, r8)
 8007068:	20000448 	.word	0x20000448
 800706c:	20000174 	.word	0x20000174
 8007070:	200000ec 	.word	0x200000ec
 8007074:	20000130 	.word	0x20000130

08007078 <CDC_DeInit_FS>:
static int8_t CDC_DeInit_FS(void)
{
  /* USER CODE BEGIN 4 */
	return (USBD_OK);
  /* USER CODE END 4 */
}
 8007078:	2000      	movs	r0, #0
 800707a:	4770      	bx	lr

0800707c <CDC_Control_FS>:
			break;
	}

	return (USBD_OK);
  /* USER CODE END 5 */
}
 800707c:	2000      	movs	r0, #0
 800707e:	4770      	bx	lr

08007080 <CDC_Receive_FS>:
  * @param  Buf: Buffer of data to be received
  * @param  Len: Number of data received (in bytes)
  * @retval Result of the operation: USBD_OK if all operations are OK else USBD_FAIL
  */
static int8_t CDC_Receive_FS(uint8_t* Buf, uint32_t *Len)
{
 8007080:	b570      	push	{r4, r5, r6, lr}
 8007082:	000e      	movs	r6, r1
 8007084:	0004      	movs	r4, r0
  /* USER CODE BEGIN 6 */
	USBD_CDC_SetRxBuffer(&hUsbDeviceFS, &Buf[0]);
 8007086:	4d0f      	ldr	r5, [pc, #60]	@ (80070c4 <CDC_Receive_FS+0x44>)
 8007088:	0001      	movs	r1, r0
 800708a:	0028      	movs	r0, r5
 800708c:	f7ff fb20 	bl	80066d0 <USBD_CDC_SetRxBuffer>
	USBD_CDC_ReceivePacket(&hUsbDeviceFS);
 8007090:	0028      	movs	r0, r5
 8007092:	f7ff fb43 	bl	800671c <USBD_CDC_ReceivePacket>

	memset(buffer, '\0', 64);  // clear the buffer
 8007096:	4d0c      	ldr	r5, [pc, #48]	@ (80070c8 <CDC_Receive_FS+0x48>)
 8007098:	2240      	movs	r2, #64	@ 0x40
 800709a:	0028      	movs	r0, r5
 800709c:	2100      	movs	r1, #0
 800709e:	f000 fc5f 	bl	8007960 <memset>
	uint8_t len = (uint8_t) *Len;
	memcpy(buffer, Buf, len);  // copy the data to the buffer
 80070a2:	7836      	ldrb	r6, [r6, #0]
 80070a4:	0021      	movs	r1, r4
 80070a6:	0032      	movs	r2, r6
 80070a8:	0028      	movs	r0, r5
 80070aa:	f000 fd44 	bl	8007b36 <memcpy>
	memset(Buf, '\0', len);   // clear the Buf also
 80070ae:	0032      	movs	r2, r6
 80070b0:	2100      	movs	r1, #0
 80070b2:	0020      	movs	r0, r4
 80070b4:	f000 fc54 	bl	8007960 <memset>
	commandRecieved = TRUE;
 80070b8:	2201      	movs	r2, #1
 80070ba:	4b04      	ldr	r3, [pc, #16]	@ (80070cc <CDC_Receive_FS+0x4c>)

	return (USBD_OK);
  /* USER CODE END 6 */
}
 80070bc:	2000      	movs	r0, #0
	commandRecieved = TRUE;
 80070be:	701a      	strb	r2, [r3, #0]
}
 80070c0:	bd70      	pop	{r4, r5, r6, pc}
 80070c2:	46c0      	nop			@ (mov r8, r8)
 80070c4:	20000448 	.word	0x20000448
 80070c8:	200003fc 	.word	0x200003fc
 80070cc:	20000228 	.word	0x20000228

080070d0 <CDC_Init_FS>:
{
 80070d0:	b510      	push	{r4, lr}
	USBD_CDC_SetTxBuffer(&hUsbDeviceFS, UserTxBufferFS, 0);
 80070d2:	4c06      	ldr	r4, [pc, #24]	@ (80070ec <CDC_Init_FS+0x1c>)
 80070d4:	2200      	movs	r2, #0
 80070d6:	0020      	movs	r0, r4
 80070d8:	4905      	ldr	r1, [pc, #20]	@ (80070f0 <CDC_Init_FS+0x20>)
 80070da:	f7ff faed 	bl	80066b8 <USBD_CDC_SetTxBuffer>
	USBD_CDC_SetRxBuffer(&hUsbDeviceFS, UserRxBufferFS);
 80070de:	0020      	movs	r0, r4
 80070e0:	4904      	ldr	r1, [pc, #16]	@ (80070f4 <CDC_Init_FS+0x24>)
 80070e2:	f7ff faf5 	bl	80066d0 <USBD_CDC_SetRxBuffer>
}
 80070e6:	2000      	movs	r0, #0
 80070e8:	bd10      	pop	{r4, pc}
 80070ea:	46c0      	nop			@ (mov r8, r8)
 80070ec:	20000448 	.word	0x20000448
 80070f0:	2000070c 	.word	0x2000070c
 80070f4:	20000b0c 	.word	0x20000b0c

080070f8 <CDC_Transmit_FS>:
  */
uint8_t CDC_Transmit_FS(uint8_t* Buf, uint16_t Len)
{
  uint8_t result = USBD_OK;
  /* USER CODE BEGIN 7 */
	USBD_CDC_HandleTypeDef *hcdc = (USBD_CDC_HandleTypeDef*) hUsbDeviceFS.pClassData;
 80070f8:	22ae      	movs	r2, #174	@ 0xae
{
 80070fa:	b510      	push	{r4, lr}
	USBD_CDC_HandleTypeDef *hcdc = (USBD_CDC_HandleTypeDef*) hUsbDeviceFS.pClassData;
 80070fc:	4c08      	ldr	r4, [pc, #32]	@ (8007120 <CDC_Transmit_FS+0x28>)
 80070fe:	0092      	lsls	r2, r2, #2
{
 8007100:	0003      	movs	r3, r0
	USBD_CDC_HandleTypeDef *hcdc = (USBD_CDC_HandleTypeDef*) hUsbDeviceFS.pClassData;
 8007102:	58a0      	ldr	r0, [r4, r2]
	if (hcdc->TxState != 0) {
 8007104:	3aa4      	subs	r2, #164	@ 0xa4
 8007106:	5882      	ldr	r2, [r0, r2]
		return USBD_BUSY;
 8007108:	2001      	movs	r0, #1
	if (hcdc->TxState != 0) {
 800710a:	2a00      	cmp	r2, #0
 800710c:	d107      	bne.n	800711e <CDC_Transmit_FS+0x26>
	}
	USBD_CDC_SetTxBuffer(&hUsbDeviceFS, Buf, Len);
 800710e:	000a      	movs	r2, r1
 8007110:	0020      	movs	r0, r4
 8007112:	0019      	movs	r1, r3
 8007114:	f7ff fad0 	bl	80066b8 <USBD_CDC_SetTxBuffer>
	result = USBD_CDC_TransmitPacket(&hUsbDeviceFS);
 8007118:	0020      	movs	r0, r4
 800711a:	f7ff fae1 	bl	80066e0 <USBD_CDC_TransmitPacket>
  /* USER CODE END 7 */
  return result;
}
 800711e:	bd10      	pop	{r4, pc}
 8007120:	20000448 	.word	0x20000448

08007124 <USBD_FS_DeviceDescriptor>:
  * @retval Pointer to descriptor buffer
  */
uint8_t * USBD_FS_DeviceDescriptor(USBD_SpeedTypeDef speed, uint16_t *length)
{
  UNUSED(speed);
  *length = sizeof(USBD_FS_DeviceDesc);
 8007124:	2312      	movs	r3, #18
  return USBD_FS_DeviceDesc;
 8007126:	4801      	ldr	r0, [pc, #4]	@ (800712c <USBD_FS_DeviceDescriptor+0x8>)
  *length = sizeof(USBD_FS_DeviceDesc);
 8007128:	800b      	strh	r3, [r1, #0]
}
 800712a:	4770      	bx	lr
 800712c:	20000160 	.word	0x20000160

08007130 <USBD_FS_LangIDStrDescriptor>:
  * @retval Pointer to descriptor buffer
  */
uint8_t * USBD_FS_LangIDStrDescriptor(USBD_SpeedTypeDef speed, uint16_t *length)
{
  UNUSED(speed);
  *length = sizeof(USBD_LangIDDesc);
 8007130:	2304      	movs	r3, #4
  return USBD_LangIDDesc;
 8007132:	4801      	ldr	r0, [pc, #4]	@ (8007138 <USBD_FS_LangIDStrDescriptor+0x8>)
  *length = sizeof(USBD_LangIDDesc);
 8007134:	800b      	strh	r3, [r1, #0]
}
 8007136:	4770      	bx	lr
 8007138:	2000015c 	.word	0x2000015c

0800713c <USBD_FS_ManufacturerStrDescriptor>:
  * @param  speed : Current device speed
  * @param  length : Pointer to data length variable
  * @retval Pointer to descriptor buffer
  */
uint8_t * USBD_FS_ManufacturerStrDescriptor(USBD_SpeedTypeDef speed, uint16_t *length)
{
 800713c:	b510      	push	{r4, lr}
  UNUSED(speed);
  USBD_GetString((uint8_t *)USBD_MANUFACTURER_STRING, USBD_StrDesc, length);
 800713e:	4c04      	ldr	r4, [pc, #16]	@ (8007150 <USBD_FS_ManufacturerStrDescriptor+0x14>)
{
 8007140:	000a      	movs	r2, r1
  USBD_GetString((uint8_t *)USBD_MANUFACTURER_STRING, USBD_StrDesc, length);
 8007142:	0021      	movs	r1, r4
 8007144:	4803      	ldr	r0, [pc, #12]	@ (8007154 <USBD_FS_ManufacturerStrDescriptor+0x18>)
 8007146:	f7ff fee9 	bl	8006f1c <USBD_GetString>
  return USBD_StrDesc;
}
 800714a:	0020      	movs	r0, r4
 800714c:	bd10      	pop	{r4, pc}
 800714e:	46c0      	nop			@ (mov r8, r8)
 8007150:	20000f0c 	.word	0x20000f0c
 8007154:	08008db8 	.word	0x08008db8

08007158 <USBD_FS_ProductStrDescriptor>:
{
 8007158:	b510      	push	{r4, lr}
    USBD_GetString((uint8_t *)USBD_PRODUCT_STRING_FS, USBD_StrDesc, length);
 800715a:	4c04      	ldr	r4, [pc, #16]	@ (800716c <USBD_FS_ProductStrDescriptor+0x14>)
{
 800715c:	000a      	movs	r2, r1
    USBD_GetString((uint8_t *)USBD_PRODUCT_STRING_FS, USBD_StrDesc, length);
 800715e:	0021      	movs	r1, r4
 8007160:	4803      	ldr	r0, [pc, #12]	@ (8007170 <USBD_FS_ProductStrDescriptor+0x18>)
 8007162:	f7ff fedb 	bl	8006f1c <USBD_GetString>
}
 8007166:	0020      	movs	r0, r4
 8007168:	bd10      	pop	{r4, pc}
 800716a:	46c0      	nop			@ (mov r8, r8)
 800716c:	20000f0c 	.word	0x20000f0c
 8007170:	08008dcc 	.word	0x08008dcc

08007174 <USBD_FS_ConfigStrDescriptor>:
  * @param  speed : Current device speed
  * @param  length : Pointer to data length variable
  * @retval Pointer to descriptor buffer
  */
uint8_t * USBD_FS_ConfigStrDescriptor(USBD_SpeedTypeDef speed, uint16_t *length)
{
 8007174:	b510      	push	{r4, lr}
  if(speed == USBD_SPEED_HIGH)
  {
    USBD_GetString((uint8_t *)USBD_CONFIGURATION_STRING_FS, USBD_StrDesc, length);
 8007176:	4c04      	ldr	r4, [pc, #16]	@ (8007188 <USBD_FS_ConfigStrDescriptor+0x14>)
{
 8007178:	000a      	movs	r2, r1
    USBD_GetString((uint8_t *)USBD_CONFIGURATION_STRING_FS, USBD_StrDesc, length);
 800717a:	0021      	movs	r1, r4
 800717c:	4803      	ldr	r0, [pc, #12]	@ (800718c <USBD_FS_ConfigStrDescriptor+0x18>)
 800717e:	f7ff fecd 	bl	8006f1c <USBD_GetString>
  else
  {
    USBD_GetString((uint8_t *)USBD_CONFIGURATION_STRING_FS, USBD_StrDesc, length);
  }
  return USBD_StrDesc;
}
 8007182:	0020      	movs	r0, r4
 8007184:	bd10      	pop	{r4, pc}
 8007186:	46c0      	nop			@ (mov r8, r8)
 8007188:	20000f0c 	.word	0x20000f0c
 800718c:	08008de4 	.word	0x08008de4

08007190 <USBD_FS_InterfaceStrDescriptor>:
  * @param  speed : Current device speed
  * @param  length : Pointer to data length variable
  * @retval Pointer to descriptor buffer
  */
uint8_t * USBD_FS_InterfaceStrDescriptor(USBD_SpeedTypeDef speed, uint16_t *length)
{
 8007190:	b510      	push	{r4, lr}
  if(speed == 0)
  {
    USBD_GetString((uint8_t *)USBD_INTERFACE_STRING_FS, USBD_StrDesc, length);
 8007192:	4c04      	ldr	r4, [pc, #16]	@ (80071a4 <USBD_FS_InterfaceStrDescriptor+0x14>)
{
 8007194:	000a      	movs	r2, r1
    USBD_GetString((uint8_t *)USBD_INTERFACE_STRING_FS, USBD_StrDesc, length);
 8007196:	0021      	movs	r1, r4
 8007198:	4803      	ldr	r0, [pc, #12]	@ (80071a8 <USBD_FS_InterfaceStrDescriptor+0x18>)
 800719a:	f7ff febf 	bl	8006f1c <USBD_GetString>
  else
  {
    USBD_GetString((uint8_t *)USBD_INTERFACE_STRING_FS, USBD_StrDesc, length);
  }
  return USBD_StrDesc;
}
 800719e:	0020      	movs	r0, r4
 80071a0:	bd10      	pop	{r4, pc}
 80071a2:	46c0      	nop			@ (mov r8, r8)
 80071a4:	20000f0c 	.word	0x20000f0c
 80071a8:	08008df0 	.word	0x08008df0

080071ac <USBD_FS_SerialStrDescriptor>:
  *length = USB_SIZ_STRING_SERIAL;
 80071ac:	231a      	movs	r3, #26
{
 80071ae:	b530      	push	{r4, r5, lr}
  uint32_t deviceserial1;
  uint32_t deviceserial2;

  deviceserial0 = *(uint32_t *) DEVICE_ID1;
  deviceserial1 = *(uint32_t *) DEVICE_ID2;
  deviceserial2 = *(uint32_t *) DEVICE_ID3;
 80071b0:	4a52      	ldr	r2, [pc, #328]	@ (80072fc <USBD_FS_SerialStrDescriptor+0x150>)
  *length = USB_SIZ_STRING_SERIAL;
 80071b2:	800b      	strh	r3, [r1, #0]
  deviceserial0 = *(uint32_t *) DEVICE_ID1;
 80071b4:	4b52      	ldr	r3, [pc, #328]	@ (8007300 <USBD_FS_SerialStrDescriptor+0x154>)

  deviceserial0 += deviceserial2;
 80071b6:	6812      	ldr	r2, [r2, #0]
  deviceserial0 = *(uint32_t *) DEVICE_ID1;
 80071b8:	681b      	ldr	r3, [r3, #0]
  deviceserial0 += deviceserial2;
 80071ba:	189b      	adds	r3, r3, r2

  if (deviceserial0 != 0)
 80071bc:	2b00      	cmp	r3, #0
 80071be:	d101      	bne.n	80071c4 <USBD_FS_SerialStrDescriptor+0x18>
 80071c0:	4850      	ldr	r0, [pc, #320]	@ (8007304 <USBD_FS_SerialStrDescriptor+0x158>)
}
 80071c2:	bd30      	pop	{r4, r5, pc}
{
  uint8_t idx = 0;

  for (idx = 0; idx < len; idx++)
  {
    if (((value >> 28)) < 0xA)
 80071c4:	0f19      	lsrs	r1, r3, #28
    {
      pbuf[2 * idx] = (value >> 28) + '0';
 80071c6:	000c      	movs	r4, r1
  deviceserial1 = *(uint32_t *) DEVICE_ID2;
 80071c8:	4a4f      	ldr	r2, [pc, #316]	@ (8007308 <USBD_FS_SerialStrDescriptor+0x15c>)
      pbuf[2 * idx] = (value >> 28) + '0';
 80071ca:	0008      	movs	r0, r1
  deviceserial1 = *(uint32_t *) DEVICE_ID2;
 80071cc:	6812      	ldr	r2, [r2, #0]
      pbuf[2 * idx] = (value >> 28) + '0';
 80071ce:	3430      	adds	r4, #48	@ 0x30
    if (((value >> 28)) < 0xA)
 80071d0:	2909      	cmp	r1, #9
 80071d2:	d900      	bls.n	80071d6 <USBD_FS_SerialStrDescriptor+0x2a>
 80071d4:	e086      	b.n	80072e4 <USBD_FS_SerialStrDescriptor+0x138>
      pbuf[2 * idx] = (value >> 28) + 'A' - 10;
    }

    value = value << 4;

    pbuf[2 * idx + 1] = 0;
 80071d6:	2100      	movs	r1, #0
      pbuf[2 * idx] = (value >> 28) + '0';
 80071d8:	484a      	ldr	r0, [pc, #296]	@ (8007304 <USBD_FS_SerialStrDescriptor+0x158>)
    pbuf[2 * idx + 1] = 0;
 80071da:	70c1      	strb	r1, [r0, #3]
    value = value << 4;
 80071dc:	0119      	lsls	r1, r3, #4
    if (((value >> 28)) < 0xA)
 80071de:	0f0d      	lsrs	r5, r1, #28
      pbuf[2 * idx] = (value >> 28) + '0';
 80071e0:	7084      	strb	r4, [r0, #2]
 80071e2:	002c      	movs	r4, r5
 80071e4:	0029      	movs	r1, r5
 80071e6:	3430      	adds	r4, #48	@ 0x30
    if (((value >> 28)) < 0xA)
 80071e8:	2d09      	cmp	r5, #9
 80071ea:	d878      	bhi.n	80072de <USBD_FS_SerialStrDescriptor+0x132>
    pbuf[2 * idx + 1] = 0;
 80071ec:	2100      	movs	r1, #0
 80071ee:	7141      	strb	r1, [r0, #5]
    value = value << 4;
 80071f0:	0219      	lsls	r1, r3, #8
    if (((value >> 28)) < 0xA)
 80071f2:	0f0d      	lsrs	r5, r1, #28
      pbuf[2 * idx] = (value >> 28) + '0';
 80071f4:	7104      	strb	r4, [r0, #4]
 80071f6:	002c      	movs	r4, r5
 80071f8:	0029      	movs	r1, r5
 80071fa:	3430      	adds	r4, #48	@ 0x30
    if (((value >> 28)) < 0xA)
 80071fc:	2d09      	cmp	r5, #9
 80071fe:	d86b      	bhi.n	80072d8 <USBD_FS_SerialStrDescriptor+0x12c>
    pbuf[2 * idx + 1] = 0;
 8007200:	2100      	movs	r1, #0
 8007202:	71c1      	strb	r1, [r0, #7]
    value = value << 4;
 8007204:	0319      	lsls	r1, r3, #12
    if (((value >> 28)) < 0xA)
 8007206:	0f0d      	lsrs	r5, r1, #28
      pbuf[2 * idx] = (value >> 28) + '0';
 8007208:	7184      	strb	r4, [r0, #6]
 800720a:	002c      	movs	r4, r5
 800720c:	0029      	movs	r1, r5
 800720e:	3430      	adds	r4, #48	@ 0x30
    if (((value >> 28)) < 0xA)
 8007210:	2d09      	cmp	r5, #9
 8007212:	d85e      	bhi.n	80072d2 <USBD_FS_SerialStrDescriptor+0x126>
    pbuf[2 * idx + 1] = 0;
 8007214:	2100      	movs	r1, #0
 8007216:	7241      	strb	r1, [r0, #9]
    value = value << 4;
 8007218:	0419      	lsls	r1, r3, #16
    if (((value >> 28)) < 0xA)
 800721a:	0f0d      	lsrs	r5, r1, #28
      pbuf[2 * idx] = (value >> 28) + '0';
 800721c:	7204      	strb	r4, [r0, #8]
 800721e:	002c      	movs	r4, r5
 8007220:	0029      	movs	r1, r5
 8007222:	3430      	adds	r4, #48	@ 0x30
    if (((value >> 28)) < 0xA)
 8007224:	2d09      	cmp	r5, #9
 8007226:	d851      	bhi.n	80072cc <USBD_FS_SerialStrDescriptor+0x120>
    pbuf[2 * idx + 1] = 0;
 8007228:	2100      	movs	r1, #0
 800722a:	72c1      	strb	r1, [r0, #11]
    value = value << 4;
 800722c:	0519      	lsls	r1, r3, #20
    if (((value >> 28)) < 0xA)
 800722e:	0f0d      	lsrs	r5, r1, #28
      pbuf[2 * idx] = (value >> 28) + '0';
 8007230:	7284      	strb	r4, [r0, #10]
 8007232:	002c      	movs	r4, r5
 8007234:	0029      	movs	r1, r5
 8007236:	3430      	adds	r4, #48	@ 0x30
    if (((value >> 28)) < 0xA)
 8007238:	2d09      	cmp	r5, #9
 800723a:	d844      	bhi.n	80072c6 <USBD_FS_SerialStrDescriptor+0x11a>
    pbuf[2 * idx + 1] = 0;
 800723c:	2100      	movs	r1, #0
 800723e:	7341      	strb	r1, [r0, #13]
    value = value << 4;
 8007240:	0619      	lsls	r1, r3, #24
    if (((value >> 28)) < 0xA)
 8007242:	0f0d      	lsrs	r5, r1, #28
      pbuf[2 * idx] = (value >> 28) + '0';
 8007244:	7304      	strb	r4, [r0, #12]
 8007246:	002c      	movs	r4, r5
 8007248:	0029      	movs	r1, r5
 800724a:	3430      	adds	r4, #48	@ 0x30
    if (((value >> 28)) < 0xA)
 800724c:	2d09      	cmp	r5, #9
 800724e:	d837      	bhi.n	80072c0 <USBD_FS_SerialStrDescriptor+0x114>
    pbuf[2 * idx + 1] = 0;
 8007250:	2100      	movs	r1, #0
 8007252:	73c1      	strb	r1, [r0, #15]
    if (((value >> 28)) < 0xA)
 8007254:	310f      	adds	r1, #15
      pbuf[2 * idx] = (value >> 28) + '0';
 8007256:	7384      	strb	r4, [r0, #14]
    if (((value >> 28)) < 0xA)
 8007258:	000c      	movs	r4, r1
 800725a:	401c      	ands	r4, r3
      pbuf[2 * idx] = (value >> 28) + 'A' - 10;
 800725c:	0023      	movs	r3, r4
 800725e:	3337      	adds	r3, #55	@ 0x37
    if (((value >> 28)) < 0xA)
 8007260:	2c09      	cmp	r4, #9
 8007262:	d800      	bhi.n	8007266 <USBD_FS_SerialStrDescriptor+0xba>
      pbuf[2 * idx] = (value >> 28) + '0';
 8007264:	3b07      	subs	r3, #7
 8007266:	7403      	strb	r3, [r0, #16]
    pbuf[2 * idx + 1] = 0;
 8007268:	2300      	movs	r3, #0
 800726a:	7443      	strb	r3, [r0, #17]
    if (((value >> 28)) < 0xA)
 800726c:	0f13      	lsrs	r3, r2, #28
      pbuf[2 * idx] = (value >> 28) + '0';
 800726e:	001c      	movs	r4, r3
 8007270:	0019      	movs	r1, r3
 8007272:	3430      	adds	r4, #48	@ 0x30
    if (((value >> 28)) < 0xA)
 8007274:	2b09      	cmp	r3, #9
 8007276:	d838      	bhi.n	80072ea <USBD_FS_SerialStrDescriptor+0x13e>
    pbuf[2 * idx + 1] = 0;
 8007278:	2300      	movs	r3, #0
 800727a:	74c3      	strb	r3, [r0, #19]
    value = value << 4;
 800727c:	0113      	lsls	r3, r2, #4
      pbuf[2 * idx] = (value >> 28) + '0';
 800727e:	7484      	strb	r4, [r0, #18]
    if (((value >> 28)) < 0xA)
 8007280:	0f1c      	lsrs	r4, r3, #28
      pbuf[2 * idx] = (value >> 28) + '0';
 8007282:	0021      	movs	r1, r4
 8007284:	0023      	movs	r3, r4
 8007286:	3130      	adds	r1, #48	@ 0x30
    if (((value >> 28)) < 0xA)
 8007288:	2c09      	cmp	r4, #9
 800728a:	d831      	bhi.n	80072f0 <USBD_FS_SerialStrDescriptor+0x144>
    pbuf[2 * idx + 1] = 0;
 800728c:	2300      	movs	r3, #0
 800728e:	7543      	strb	r3, [r0, #21]
    value = value << 4;
 8007290:	0213      	lsls	r3, r2, #8
    if (((value >> 28)) < 0xA)
 8007292:	0f1c      	lsrs	r4, r3, #28
      pbuf[2 * idx] = (value >> 28) + '0';
 8007294:	7501      	strb	r1, [r0, #20]
 8007296:	0021      	movs	r1, r4
 8007298:	0023      	movs	r3, r4
 800729a:	3130      	adds	r1, #48	@ 0x30
    if (((value >> 28)) < 0xA)
 800729c:	2c09      	cmp	r4, #9
 800729e:	d82a      	bhi.n	80072f6 <USBD_FS_SerialStrDescriptor+0x14a>
    pbuf[2 * idx + 1] = 0;
 80072a0:	2300      	movs	r3, #0
 80072a2:	75c3      	strb	r3, [r0, #23]
    value = value << 4;
 80072a4:	0313      	lsls	r3, r2, #12
      pbuf[2 * idx] = (value >> 28) + '0';
 80072a6:	7581      	strb	r1, [r0, #22]
    if (((value >> 28)) < 0xA)
 80072a8:	0f19      	lsrs	r1, r3, #28
      pbuf[2 * idx] = (value >> 28) + 'A' - 10;
 80072aa:	000a      	movs	r2, r1
      pbuf[2 * idx] = (value >> 28) + '0';
 80072ac:	000b      	movs	r3, r1
      pbuf[2 * idx] = (value >> 28) + 'A' - 10;
 80072ae:	3237      	adds	r2, #55	@ 0x37
    if (((value >> 28)) < 0xA)
 80072b0:	2909      	cmp	r1, #9
 80072b2:	d801      	bhi.n	80072b8 <USBD_FS_SerialStrDescriptor+0x10c>
      pbuf[2 * idx] = (value >> 28) + '0';
 80072b4:	3330      	adds	r3, #48	@ 0x30
 80072b6:	001a      	movs	r2, r3
    pbuf[2 * idx + 1] = 0;
 80072b8:	2300      	movs	r3, #0
      pbuf[2 * idx] = (value >> 28) + '0';
 80072ba:	7602      	strb	r2, [r0, #24]
    pbuf[2 * idx + 1] = 0;
 80072bc:	7643      	strb	r3, [r0, #25]
  return (uint8_t *) USBD_StringSerial;
 80072be:	e780      	b.n	80071c2 <USBD_FS_SerialStrDescriptor+0x16>
      pbuf[2 * idx] = (value >> 28) + 'A' - 10;
 80072c0:	3137      	adds	r1, #55	@ 0x37
 80072c2:	000c      	movs	r4, r1
 80072c4:	e7c4      	b.n	8007250 <USBD_FS_SerialStrDescriptor+0xa4>
 80072c6:	3137      	adds	r1, #55	@ 0x37
 80072c8:	000c      	movs	r4, r1
 80072ca:	e7b7      	b.n	800723c <USBD_FS_SerialStrDescriptor+0x90>
 80072cc:	3137      	adds	r1, #55	@ 0x37
 80072ce:	000c      	movs	r4, r1
 80072d0:	e7aa      	b.n	8007228 <USBD_FS_SerialStrDescriptor+0x7c>
 80072d2:	3137      	adds	r1, #55	@ 0x37
 80072d4:	000c      	movs	r4, r1
 80072d6:	e79d      	b.n	8007214 <USBD_FS_SerialStrDescriptor+0x68>
 80072d8:	3137      	adds	r1, #55	@ 0x37
 80072da:	000c      	movs	r4, r1
 80072dc:	e790      	b.n	8007200 <USBD_FS_SerialStrDescriptor+0x54>
 80072de:	3137      	adds	r1, #55	@ 0x37
 80072e0:	000c      	movs	r4, r1
 80072e2:	e783      	b.n	80071ec <USBD_FS_SerialStrDescriptor+0x40>
 80072e4:	3037      	adds	r0, #55	@ 0x37
 80072e6:	0004      	movs	r4, r0
 80072e8:	e775      	b.n	80071d6 <USBD_FS_SerialStrDescriptor+0x2a>
 80072ea:	3137      	adds	r1, #55	@ 0x37
 80072ec:	000c      	movs	r4, r1
 80072ee:	e7c3      	b.n	8007278 <USBD_FS_SerialStrDescriptor+0xcc>
 80072f0:	3337      	adds	r3, #55	@ 0x37
 80072f2:	0019      	movs	r1, r3
 80072f4:	e7ca      	b.n	800728c <USBD_FS_SerialStrDescriptor+0xe0>
 80072f6:	3337      	adds	r3, #55	@ 0x37
 80072f8:	0019      	movs	r1, r3
 80072fa:	e7d1      	b.n	80072a0 <USBD_FS_SerialStrDescriptor+0xf4>
 80072fc:	1ffff7b4 	.word	0x1ffff7b4
 8007300:	1ffff7ac 	.word	0x1ffff7ac
 8007304:	20000140 	.word	0x20000140
 8007308:	1ffff7b0 	.word	0x1ffff7b0

0800730c <HAL_PCD_MspInit>:
                       LL Driver Callbacks (PCD -> USB Device Library)
*******************************************************************************/
/* MSP Init */

void HAL_PCD_MspInit(PCD_HandleTypeDef* pcdHandle)
{
 800730c:	b500      	push	{lr}
  if(pcdHandle->Instance==USB)
 800730e:	4b0d      	ldr	r3, [pc, #52]	@ (8007344 <HAL_PCD_MspInit+0x38>)
 8007310:	6802      	ldr	r2, [r0, #0]
{
 8007312:	b083      	sub	sp, #12
  if(pcdHandle->Instance==USB)
 8007314:	429a      	cmp	r2, r3
 8007316:	d001      	beq.n	800731c <HAL_PCD_MspInit+0x10>
    HAL_NVIC_EnableIRQ(USB_IRQn);
  /* USER CODE BEGIN USB_MspInit 1 */

  /* USER CODE END USB_MspInit 1 */
  }
}
 8007318:	b003      	add	sp, #12
 800731a:	bd00      	pop	{pc}
    __HAL_RCC_USB_CLK_ENABLE();
 800731c:	2180      	movs	r1, #128	@ 0x80
 800731e:	4b0a      	ldr	r3, [pc, #40]	@ (8007348 <HAL_PCD_MspInit+0x3c>)
 8007320:	0409      	lsls	r1, r1, #16
 8007322:	69da      	ldr	r2, [r3, #28]
    HAL_NVIC_SetPriority(USB_IRQn, 0, 0);
 8007324:	201f      	movs	r0, #31
    __HAL_RCC_USB_CLK_ENABLE();
 8007326:	430a      	orrs	r2, r1
 8007328:	61da      	str	r2, [r3, #28]
 800732a:	69db      	ldr	r3, [r3, #28]
    HAL_NVIC_SetPriority(USB_IRQn, 0, 0);
 800732c:	2200      	movs	r2, #0
    __HAL_RCC_USB_CLK_ENABLE();
 800732e:	400b      	ands	r3, r1
 8007330:	9301      	str	r3, [sp, #4]
    HAL_NVIC_SetPriority(USB_IRQn, 0, 0);
 8007332:	2100      	movs	r1, #0
    __HAL_RCC_USB_CLK_ENABLE();
 8007334:	9b01      	ldr	r3, [sp, #4]
    HAL_NVIC_SetPriority(USB_IRQn, 0, 0);
 8007336:	f7fb faeb 	bl	8002910 <HAL_NVIC_SetPriority>
    HAL_NVIC_EnableIRQ(USB_IRQn);
 800733a:	201f      	movs	r0, #31
 800733c:	f7fb fb12 	bl	8002964 <HAL_NVIC_EnableIRQ>
}
 8007340:	e7ea      	b.n	8007318 <HAL_PCD_MspInit+0xc>
 8007342:	46c0      	nop			@ (mov r8, r8)
 8007344:	40005c00 	.word	0x40005c00
 8007348:	40021000 	.word	0x40021000

0800734c <HAL_PCD_SetupStageCallback>:
static void PCD_SetupStageCallback(PCD_HandleTypeDef *hpcd)
#else
void HAL_PCD_SetupStageCallback(PCD_HandleTypeDef *hpcd)
#endif /* USE_HAL_PCD_REGISTER_CALLBACKS */
{
  USBD_LL_SetupStage((USBD_HandleTypeDef*)hpcd->pData, (uint8_t *)hpcd->Setup);
 800734c:	23a6      	movs	r3, #166	@ 0xa6
{
 800734e:	b510      	push	{r4, lr}
  USBD_LL_SetupStage((USBD_HandleTypeDef*)hpcd->pData, (uint8_t *)hpcd->Setup);
 8007350:	009b      	lsls	r3, r3, #2
 8007352:	18c1      	adds	r1, r0, r3
 8007354:	3340      	adds	r3, #64	@ 0x40
 8007356:	58c0      	ldr	r0, [r0, r3]
 8007358:	f7ff fa3a 	bl	80067d0 <USBD_LL_SetupStage>
}
 800735c:	bd10      	pop	{r4, pc}
 800735e:	46c0      	nop			@ (mov r8, r8)

08007360 <HAL_PCD_DataOutStageCallback>:
static void PCD_DataOutStageCallback(PCD_HandleTypeDef *hpcd, uint8_t epnum)
#else
void HAL_PCD_DataOutStageCallback(PCD_HandleTypeDef *hpcd, uint8_t epnum)
#endif /* USE_HAL_PCD_REGISTER_CALLBACKS */
{
  USBD_LL_DataOutStage((USBD_HandleTypeDef*)hpcd->pData, epnum, hpcd->OUT_ep[epnum].xfer_buff);
 8007360:	008b      	lsls	r3, r1, #2
 8007362:	185b      	adds	r3, r3, r1
 8007364:	00db      	lsls	r3, r3, #3
 8007366:	18c3      	adds	r3, r0, r3
 8007368:	3365      	adds	r3, #101	@ 0x65
 800736a:	33ff      	adds	r3, #255	@ 0xff
 800736c:	681a      	ldr	r2, [r3, #0]
 800736e:	23b6      	movs	r3, #182	@ 0xb6
{
 8007370:	b510      	push	{r4, lr}
  USBD_LL_DataOutStage((USBD_HandleTypeDef*)hpcd->pData, epnum, hpcd->OUT_ep[epnum].xfer_buff);
 8007372:	009b      	lsls	r3, r3, #2
 8007374:	58c0      	ldr	r0, [r0, r3]
 8007376:	f7ff fa5d 	bl	8006834 <USBD_LL_DataOutStage>
}
 800737a:	bd10      	pop	{r4, pc}

0800737c <HAL_PCD_DataInStageCallback>:
static void PCD_DataInStageCallback(PCD_HandleTypeDef *hpcd, uint8_t epnum)
#else
void HAL_PCD_DataInStageCallback(PCD_HandleTypeDef *hpcd, uint8_t epnum)
#endif /* USE_HAL_PCD_REGISTER_CALLBACKS */
{
  USBD_LL_DataInStage((USBD_HandleTypeDef*)hpcd->pData, epnum, hpcd->IN_ep[epnum].xfer_buff);
 800737c:	008b      	lsls	r3, r1, #2
 800737e:	185b      	adds	r3, r3, r1
 8007380:	00db      	lsls	r3, r3, #3
 8007382:	18c3      	adds	r3, r0, r3
 8007384:	6a5a      	ldr	r2, [r3, #36]	@ 0x24
 8007386:	23b6      	movs	r3, #182	@ 0xb6
{
 8007388:	b510      	push	{r4, lr}
  USBD_LL_DataInStage((USBD_HandleTypeDef*)hpcd->pData, epnum, hpcd->IN_ep[epnum].xfer_buff);
 800738a:	009b      	lsls	r3, r3, #2
 800738c:	58c0      	ldr	r0, [r0, r3]
 800738e:	f7ff fa9d 	bl	80068cc <USBD_LL_DataInStage>
}
 8007392:	bd10      	pop	{r4, pc}

08007394 <HAL_PCD_SOFCallback>:
static void PCD_SOFCallback(PCD_HandleTypeDef *hpcd)
#else
void HAL_PCD_SOFCallback(PCD_HandleTypeDef *hpcd)
#endif /* USE_HAL_PCD_REGISTER_CALLBACKS */
{
  USBD_LL_SOF((USBD_HandleTypeDef*)hpcd->pData);
 8007394:	23b6      	movs	r3, #182	@ 0xb6
{
 8007396:	b510      	push	{r4, lr}
  USBD_LL_SOF((USBD_HandleTypeDef*)hpcd->pData);
 8007398:	009b      	lsls	r3, r3, #2
 800739a:	58c0      	ldr	r0, [r0, r3]
 800739c:	f7ff fb48 	bl	8006a30 <USBD_LL_SOF>
}
 80073a0:	bd10      	pop	{r4, pc}
 80073a2:	46c0      	nop			@ (mov r8, r8)

080073a4 <HAL_PCD_ResetCallback>:
#if (USE_HAL_PCD_REGISTER_CALLBACKS == 1U)
static void PCD_ResetCallback(PCD_HandleTypeDef *hpcd)
#else
void HAL_PCD_ResetCallback(PCD_HandleTypeDef *hpcd)
#endif /* USE_HAL_PCD_REGISTER_CALLBACKS */
{
 80073a4:	b570      	push	{r4, r5, r6, lr}
  USBD_SpeedTypeDef speed = USBD_SPEED_FULL;

  if ( hpcd->Init.speed != PCD_SPEED_FULL)
 80073a6:	7943      	ldrb	r3, [r0, #5]
{
 80073a8:	0004      	movs	r4, r0
  if ( hpcd->Init.speed != PCD_SPEED_FULL)
 80073aa:	2b02      	cmp	r3, #2
 80073ac:	d001      	beq.n	80073b2 <HAL_PCD_ResetCallback+0xe>
  {
    Error_Handler();
 80073ae:	f7f9 fd15 	bl	8000ddc <Error_Handler>
  }
    /* Set Speed. */
  USBD_LL_SetSpeed((USBD_HandleTypeDef*)hpcd->pData, speed);
 80073b2:	25b6      	movs	r5, #182	@ 0xb6
 80073b4:	00ad      	lsls	r5, r5, #2
 80073b6:	2101      	movs	r1, #1
 80073b8:	5960      	ldr	r0, [r4, r5]
 80073ba:	f7ff fb1d 	bl	80069f8 <USBD_LL_SetSpeed>

  /* Reset Device. */
  USBD_LL_Reset((USBD_HandleTypeDef*)hpcd->pData);
 80073be:	5960      	ldr	r0, [r4, r5]
 80073c0:	f7ff faea 	bl	8006998 <USBD_LL_Reset>
}
 80073c4:	bd70      	pop	{r4, r5, r6, pc}
 80073c6:	46c0      	nop			@ (mov r8, r8)

080073c8 <HAL_PCD_SuspendCallback>:
#else
void HAL_PCD_SuspendCallback(PCD_HandleTypeDef *hpcd)
#endif /* USE_HAL_PCD_REGISTER_CALLBACKS */
{
  /* Inform USB library that core enters in suspend Mode. */
  USBD_LL_Suspend((USBD_HandleTypeDef*)hpcd->pData);
 80073c8:	23b6      	movs	r3, #182	@ 0xb6
{
 80073ca:	b510      	push	{r4, lr}
 80073cc:	0004      	movs	r4, r0
  USBD_LL_Suspend((USBD_HandleTypeDef*)hpcd->pData);
 80073ce:	009b      	lsls	r3, r3, #2
 80073d0:	58c0      	ldr	r0, [r0, r3]
 80073d2:	f7ff fb15 	bl	8006a00 <USBD_LL_Suspend>
  /* Enter in STOP mode. */
  /* USER CODE BEGIN 2 */
  if (hpcd->Init.low_power_enable)
 80073d6:	7a63      	ldrb	r3, [r4, #9]
 80073d8:	2b00      	cmp	r3, #0
 80073da:	d004      	beq.n	80073e6 <HAL_PCD_SuspendCallback+0x1e>
  {
    /* Set SLEEPDEEP bit and SleepOnExit of Cortex System Control Register. */
    SCB->SCR |= (uint32_t)((uint32_t)(SCB_SCR_SLEEPDEEP_Msk | SCB_SCR_SLEEPONEXIT_Msk));
 80073dc:	2106      	movs	r1, #6
 80073de:	4a02      	ldr	r2, [pc, #8]	@ (80073e8 <HAL_PCD_SuspendCallback+0x20>)
 80073e0:	6913      	ldr	r3, [r2, #16]
 80073e2:	430b      	orrs	r3, r1
 80073e4:	6113      	str	r3, [r2, #16]
  }
  /* USER CODE END 2 */
}
 80073e6:	bd10      	pop	{r4, pc}
 80073e8:	e000ed00 	.word	0xe000ed00

080073ec <HAL_PCD_ResumeCallback>:
#if (USE_HAL_PCD_REGISTER_CALLBACKS == 1U)
static void PCD_ResumeCallback(PCD_HandleTypeDef *hpcd)
#else
void HAL_PCD_ResumeCallback(PCD_HandleTypeDef *hpcd)
#endif /* USE_HAL_PCD_REGISTER_CALLBACKS */
{
 80073ec:	b510      	push	{r4, lr}
  /* USER CODE BEGIN 3 */
  if (hpcd->Init.low_power_enable)
 80073ee:	7a43      	ldrb	r3, [r0, #9]
{
 80073f0:	0004      	movs	r4, r0
  if (hpcd->Init.low_power_enable)
 80073f2:	2b00      	cmp	r3, #0
 80073f4:	d105      	bne.n	8007402 <HAL_PCD_ResumeCallback+0x16>
    /* Reset SLEEPDEEP bit of Cortex System Control Register. */
    SCB->SCR &= (uint32_t)~((uint32_t)(SCB_SCR_SLEEPDEEP_Msk | SCB_SCR_SLEEPONEXIT_Msk));
    SystemClockConfig_Resume();
  }
  /* USER CODE END 3 */
  USBD_LL_Resume((USBD_HandleTypeDef*)hpcd->pData);
 80073f6:	23b6      	movs	r3, #182	@ 0xb6
 80073f8:	009b      	lsls	r3, r3, #2
 80073fa:	58e0      	ldr	r0, [r4, r3]
 80073fc:	f7ff fb0c 	bl	8006a18 <USBD_LL_Resume>
}
 8007400:	bd10      	pop	{r4, pc}
    SCB->SCR &= (uint32_t)~((uint32_t)(SCB_SCR_SLEEPDEEP_Msk | SCB_SCR_SLEEPONEXIT_Msk));
 8007402:	2106      	movs	r1, #6
 8007404:	4a03      	ldr	r2, [pc, #12]	@ (8007414 <HAL_PCD_ResumeCallback+0x28>)
 8007406:	6913      	ldr	r3, [r2, #16]
 8007408:	438b      	bics	r3, r1
 800740a:	6113      	str	r3, [r2, #16]
  *         enable HSI, PLL and select PLL as system clock source.
  * @retval None
  */
static void SystemClockConfig_Resume(void)
{
  SystemClock_Config();
 800740c:	f7f9 f868 	bl	80004e0 <SystemClock_Config>
}
 8007410:	e7f1      	b.n	80073f6 <HAL_PCD_ResumeCallback+0xa>
 8007412:	46c0      	nop			@ (mov r8, r8)
 8007414:	e000ed00 	.word	0xe000ed00

08007418 <USBD_LL_Init>:
  hpcd_USB_FS.pData = pdev;
 8007418:	23b6      	movs	r3, #182	@ 0xb6
{
 800741a:	b570      	push	{r4, r5, r6, lr}
 800741c:	0004      	movs	r4, r0
  hpcd_USB_FS.pData = pdev;
 800741e:	481d      	ldr	r0, [pc, #116]	@ (8007494 <USBD_LL_Init+0x7c>)
 8007420:	009b      	lsls	r3, r3, #2
 8007422:	50c4      	str	r4, [r0, r3]
  pdev->pData = &hpcd_USB_FS;
 8007424:	3b18      	subs	r3, #24
 8007426:	50e0      	str	r0, [r4, r3]
  hpcd_USB_FS.Instance = USB;
 8007428:	4b1b      	ldr	r3, [pc, #108]	@ (8007498 <USBD_LL_Init+0x80>)
 800742a:	6003      	str	r3, [r0, #0]
  hpcd_USB_FS.Init.dev_endpoints = 8;
 800742c:	2382      	movs	r3, #130	@ 0x82
 800742e:	009b      	lsls	r3, r3, #2
 8007430:	8083      	strh	r3, [r0, #4]
  hpcd_USB_FS.Init.phy_itface = PCD_PHY_EMBEDDED;
 8007432:	2302      	movs	r3, #2
 8007434:	71c3      	strb	r3, [r0, #7]
  hpcd_USB_FS.Init.low_power_enable = DISABLE;
 8007436:	2300      	movs	r3, #0
 8007438:	7243      	strb	r3, [r0, #9]
  hpcd_USB_FS.Init.lpm_enable = DISABLE;
 800743a:	8143      	strh	r3, [r0, #10]
  if (HAL_PCD_Init(&hpcd_USB_FS) != HAL_OK)
 800743c:	f7fc f9f4 	bl	8003828 <HAL_PCD_Init>
 8007440:	2800      	cmp	r0, #0
 8007442:	d123      	bne.n	800748c <USBD_LL_Init+0x74>
  HAL_PCDEx_PMAConfig((PCD_HandleTypeDef*)pdev->pData , 0x00 , PCD_SNG_BUF, 0x18);
 8007444:	25b0      	movs	r5, #176	@ 0xb0
 8007446:	00ad      	lsls	r5, r5, #2
 8007448:	5960      	ldr	r0, [r4, r5]
 800744a:	2318      	movs	r3, #24
 800744c:	2200      	movs	r2, #0
 800744e:	2100      	movs	r1, #0
 8007450:	f7fd f9da 	bl	8004808 <HAL_PCDEx_PMAConfig>
  HAL_PCDEx_PMAConfig((PCD_HandleTypeDef*)pdev->pData , 0x80 , PCD_SNG_BUF, 0x58);
 8007454:	5960      	ldr	r0, [r4, r5]
 8007456:	2358      	movs	r3, #88	@ 0x58
 8007458:	2200      	movs	r2, #0
 800745a:	2180      	movs	r1, #128	@ 0x80
 800745c:	f7fd f9d4 	bl	8004808 <HAL_PCDEx_PMAConfig>
  HAL_PCDEx_PMAConfig((PCD_HandleTypeDef*)pdev->pData , 0x81 , PCD_SNG_BUF, 0xC0);
 8007460:	5960      	ldr	r0, [r4, r5]
 8007462:	23c0      	movs	r3, #192	@ 0xc0
 8007464:	2200      	movs	r2, #0
 8007466:	2181      	movs	r1, #129	@ 0x81
 8007468:	f7fd f9ce 	bl	8004808 <HAL_PCDEx_PMAConfig>
  HAL_PCDEx_PMAConfig((PCD_HandleTypeDef*)pdev->pData , 0x01 , PCD_SNG_BUF, 0x110);
 800746c:	2388      	movs	r3, #136	@ 0x88
 800746e:	5960      	ldr	r0, [r4, r5]
 8007470:	2200      	movs	r2, #0
 8007472:	2101      	movs	r1, #1
 8007474:	005b      	lsls	r3, r3, #1
 8007476:	f7fd f9c7 	bl	8004808 <HAL_PCDEx_PMAConfig>
  HAL_PCDEx_PMAConfig((PCD_HandleTypeDef*)pdev->pData , 0x82 , PCD_SNG_BUF, 0x100);
 800747a:	2380      	movs	r3, #128	@ 0x80
 800747c:	5960      	ldr	r0, [r4, r5]
 800747e:	2200      	movs	r2, #0
 8007480:	2182      	movs	r1, #130	@ 0x82
 8007482:	005b      	lsls	r3, r3, #1
 8007484:	f7fd f9c0 	bl	8004808 <HAL_PCDEx_PMAConfig>
}
 8007488:	2000      	movs	r0, #0
 800748a:	bd70      	pop	{r4, r5, r6, pc}
    Error_Handler( );
 800748c:	f7f9 fca6 	bl	8000ddc <Error_Handler>
 8007490:	e7d8      	b.n	8007444 <USBD_LL_Init+0x2c>
 8007492:	46c0      	nop			@ (mov r8, r8)
 8007494:	2000132c 	.word	0x2000132c
 8007498:	40005c00 	.word	0x40005c00

0800749c <USBD_LL_Start>:
  hal_status = HAL_PCD_Start(pdev->pData);
 800749c:	23b0      	movs	r3, #176	@ 0xb0
 800749e:	009b      	lsls	r3, r3, #2
{
 80074a0:	b510      	push	{r4, lr}
  hal_status = HAL_PCD_Start(pdev->pData);
 80074a2:	58c0      	ldr	r0, [r0, r3]
 80074a4:	f7fc facc 	bl	8003a40 <HAL_PCD_Start>
  */
USBD_StatusTypeDef USBD_Get_USB_Status(HAL_StatusTypeDef hal_status)
{
  USBD_StatusTypeDef usb_status = USBD_OK;

  switch (hal_status)
 80074a8:	2800      	cmp	r0, #0
 80074aa:	d003      	beq.n	80074b4 <USBD_LL_Start+0x18>
 80074ac:	3802      	subs	r0, #2
 80074ae:	1e43      	subs	r3, r0, #1
 80074b0:	4198      	sbcs	r0, r3
 80074b2:	3001      	adds	r0, #1
}
 80074b4:	bd10      	pop	{r4, pc}
 80074b6:	46c0      	nop			@ (mov r8, r8)

080074b8 <USBD_LL_OpenEP>:
{
 80074b8:	b510      	push	{r4, lr}
 80074ba:	0014      	movs	r4, r2
 80074bc:	001a      	movs	r2, r3
  hal_status = HAL_PCD_EP_Open(pdev->pData, ep_addr, ep_mps, ep_type);
 80074be:	23b0      	movs	r3, #176	@ 0xb0
 80074c0:	009b      	lsls	r3, r3, #2
 80074c2:	58c0      	ldr	r0, [r0, r3]
 80074c4:	0023      	movs	r3, r4
 80074c6:	f7fd f885 	bl	80045d4 <HAL_PCD_EP_Open>
  switch (hal_status)
 80074ca:	2800      	cmp	r0, #0
 80074cc:	d003      	beq.n	80074d6 <USBD_LL_OpenEP+0x1e>
 80074ce:	3802      	subs	r0, #2
 80074d0:	1e43      	subs	r3, r0, #1
 80074d2:	4198      	sbcs	r0, r3
 80074d4:	3001      	adds	r0, #1
}
 80074d6:	bd10      	pop	{r4, pc}

080074d8 <USBD_LL_CloseEP>:
  hal_status = HAL_PCD_EP_Close(pdev->pData, ep_addr);
 80074d8:	23b0      	movs	r3, #176	@ 0xb0
 80074da:	009b      	lsls	r3, r3, #2
{
 80074dc:	b510      	push	{r4, lr}
  hal_status = HAL_PCD_EP_Close(pdev->pData, ep_addr);
 80074de:	58c0      	ldr	r0, [r0, r3]
 80074e0:	f7fd f8aa 	bl	8004638 <HAL_PCD_EP_Close>
  switch (hal_status)
 80074e4:	2800      	cmp	r0, #0
 80074e6:	d003      	beq.n	80074f0 <USBD_LL_CloseEP+0x18>
 80074e8:	3802      	subs	r0, #2
 80074ea:	1e43      	subs	r3, r0, #1
 80074ec:	4198      	sbcs	r0, r3
 80074ee:	3001      	adds	r0, #1
}
 80074f0:	bd10      	pop	{r4, pc}
 80074f2:	46c0      	nop			@ (mov r8, r8)

080074f4 <USBD_LL_StallEP>:
  hal_status = HAL_PCD_EP_SetStall(pdev->pData, ep_addr);
 80074f4:	23b0      	movs	r3, #176	@ 0xb0
 80074f6:	009b      	lsls	r3, r3, #2
{
 80074f8:	b510      	push	{r4, lr}
  hal_status = HAL_PCD_EP_SetStall(pdev->pData, ep_addr);
 80074fa:	58c0      	ldr	r0, [r0, r3]
 80074fc:	f7fd f90e 	bl	800471c <HAL_PCD_EP_SetStall>
  switch (hal_status)
 8007500:	2800      	cmp	r0, #0
 8007502:	d003      	beq.n	800750c <USBD_LL_StallEP+0x18>
 8007504:	3802      	subs	r0, #2
 8007506:	1e43      	subs	r3, r0, #1
 8007508:	4198      	sbcs	r0, r3
 800750a:	3001      	adds	r0, #1
}
 800750c:	bd10      	pop	{r4, pc}
 800750e:	46c0      	nop			@ (mov r8, r8)

08007510 <USBD_LL_ClearStallEP>:
  hal_status = HAL_PCD_EP_ClrStall(pdev->pData, ep_addr);
 8007510:	23b0      	movs	r3, #176	@ 0xb0
 8007512:	009b      	lsls	r3, r3, #2
{
 8007514:	b510      	push	{r4, lr}
  hal_status = HAL_PCD_EP_ClrStall(pdev->pData, ep_addr);
 8007516:	58c0      	ldr	r0, [r0, r3]
 8007518:	f7fd f93c 	bl	8004794 <HAL_PCD_EP_ClrStall>
  switch (hal_status)
 800751c:	2800      	cmp	r0, #0
 800751e:	d003      	beq.n	8007528 <USBD_LL_ClearStallEP+0x18>
 8007520:	3802      	subs	r0, #2
 8007522:	1e43      	subs	r3, r0, #1
 8007524:	4198      	sbcs	r0, r3
 8007526:	3001      	adds	r0, #1
}
 8007528:	bd10      	pop	{r4, pc}
 800752a:	46c0      	nop			@ (mov r8, r8)

0800752c <USBD_LL_IsStallEP>:
  PCD_HandleTypeDef *hpcd = (PCD_HandleTypeDef*) pdev->pData;
 800752c:	23b0      	movs	r3, #176	@ 0xb0
  if((ep_addr & 0x80) == 0x80)
 800752e:	b24a      	sxtb	r2, r1
  PCD_HandleTypeDef *hpcd = (PCD_HandleTypeDef*) pdev->pData;
 8007530:	009b      	lsls	r3, r3, #2
 8007532:	58c3      	ldr	r3, [r0, r3]
  if((ep_addr & 0x80) == 0x80)
 8007534:	2a00      	cmp	r2, #0
 8007536:	db07      	blt.n	8007548 <USBD_LL_IsStallEP+0x1c>
    return hpcd->OUT_ep[ep_addr & 0x7F].is_stall;
 8007538:	008a      	lsls	r2, r1, #2
 800753a:	1852      	adds	r2, r2, r1
 800753c:	00d2      	lsls	r2, r2, #3
 800753e:	189b      	adds	r3, r3, r2
 8007540:	3353      	adds	r3, #83	@ 0x53
 8007542:	33ff      	adds	r3, #255	@ 0xff
 8007544:	7818      	ldrb	r0, [r3, #0]
}
 8007546:	4770      	bx	lr
    return hpcd->IN_ep[ep_addr & 0x7F].is_stall;
 8007548:	227f      	movs	r2, #127	@ 0x7f
 800754a:	4011      	ands	r1, r2
 800754c:	008a      	lsls	r2, r1, #2
 800754e:	1852      	adds	r2, r2, r1
 8007550:	00d2      	lsls	r2, r2, #3
 8007552:	189b      	adds	r3, r3, r2
 8007554:	7c98      	ldrb	r0, [r3, #18]
 8007556:	e7f6      	b.n	8007546 <USBD_LL_IsStallEP+0x1a>

08007558 <USBD_LL_SetUSBAddress>:
  hal_status = HAL_PCD_SetAddress(pdev->pData, dev_addr);
 8007558:	23b0      	movs	r3, #176	@ 0xb0
 800755a:	009b      	lsls	r3, r3, #2
{
 800755c:	b510      	push	{r4, lr}
  hal_status = HAL_PCD_SetAddress(pdev->pData, dev_addr);
 800755e:	58c0      	ldr	r0, [r0, r3]
 8007560:	f7fd f824 	bl	80045ac <HAL_PCD_SetAddress>
  switch (hal_status)
 8007564:	2800      	cmp	r0, #0
 8007566:	d003      	beq.n	8007570 <USBD_LL_SetUSBAddress+0x18>
 8007568:	3802      	subs	r0, #2
 800756a:	1e43      	subs	r3, r0, #1
 800756c:	4198      	sbcs	r0, r3
 800756e:	3001      	adds	r0, #1
}
 8007570:	bd10      	pop	{r4, pc}
 8007572:	46c0      	nop			@ (mov r8, r8)

08007574 <USBD_LL_Transmit>:
{
 8007574:	b510      	push	{r4, lr}
  hal_status = HAL_PCD_EP_Transmit(pdev->pData, ep_addr, pbuf, size);
 8007576:	24b0      	movs	r4, #176	@ 0xb0
 8007578:	00a4      	lsls	r4, r4, #2
 800757a:	5900      	ldr	r0, [r0, r4]
 800757c:	f7fd f8b4 	bl	80046e8 <HAL_PCD_EP_Transmit>
  switch (hal_status)
 8007580:	2800      	cmp	r0, #0
 8007582:	d003      	beq.n	800758c <USBD_LL_Transmit+0x18>
 8007584:	3802      	subs	r0, #2
 8007586:	1e43      	subs	r3, r0, #1
 8007588:	4198      	sbcs	r0, r3
 800758a:	3001      	adds	r0, #1
}
 800758c:	bd10      	pop	{r4, pc}
 800758e:	46c0      	nop			@ (mov r8, r8)

08007590 <USBD_LL_PrepareReceive>:
{
 8007590:	b510      	push	{r4, lr}
  hal_status = HAL_PCD_EP_Receive(pdev->pData, ep_addr, pbuf, size);
 8007592:	24b0      	movs	r4, #176	@ 0xb0
 8007594:	00a4      	lsls	r4, r4, #2
 8007596:	5900      	ldr	r0, [r0, r4]
 8007598:	f7fd f87e 	bl	8004698 <HAL_PCD_EP_Receive>
  switch (hal_status)
 800759c:	2800      	cmp	r0, #0
 800759e:	d003      	beq.n	80075a8 <USBD_LL_PrepareReceive+0x18>
 80075a0:	3802      	subs	r0, #2
 80075a2:	1e43      	subs	r3, r0, #1
 80075a4:	4198      	sbcs	r0, r3
 80075a6:	3001      	adds	r0, #1
}
 80075a8:	bd10      	pop	{r4, pc}
 80075aa:	46c0      	nop			@ (mov r8, r8)

080075ac <USBD_LL_GetRxDataSize>:
  return HAL_PCD_EP_GetRxCount((PCD_HandleTypeDef*) pdev->pData, ep_addr);
 80075ac:	23b0      	movs	r3, #176	@ 0xb0
{
 80075ae:	b510      	push	{r4, lr}
  return HAL_PCD_EP_GetRxCount((PCD_HandleTypeDef*) pdev->pData, ep_addr);
 80075b0:	009b      	lsls	r3, r3, #2
 80075b2:	58c0      	ldr	r0, [r0, r3]
 80075b4:	f7fd f88e 	bl	80046d4 <HAL_PCD_EP_GetRxCount>
}
 80075b8:	bd10      	pop	{r4, pc}
 80075ba:	46c0      	nop			@ (mov r8, r8)

080075bc <USBD_static_malloc>:
  return mem;
 80075bc:	4800      	ldr	r0, [pc, #0]	@ (80075c0 <USBD_static_malloc+0x4>)
}
 80075be:	4770      	bx	lr
 80075c0:	2000110c 	.word	0x2000110c

080075c4 <USBD_static_free>:
}
 80075c4:	4770      	bx	lr
 80075c6:	46c0      	nop			@ (mov r8, r8)

080075c8 <atoi>:
 80075c8:	b510      	push	{r4, lr}
 80075ca:	220a      	movs	r2, #10
 80075cc:	2100      	movs	r1, #0
 80075ce:	f000 f88b 	bl	80076e8 <strtol>
 80075d2:	bd10      	pop	{r4, pc}

080075d4 <_strtol_l.constprop.0>:
 80075d4:	b5f0      	push	{r4, r5, r6, r7, lr}
 80075d6:	b085      	sub	sp, #20
 80075d8:	0017      	movs	r7, r2
 80075da:	001e      	movs	r6, r3
 80075dc:	9003      	str	r0, [sp, #12]
 80075de:	9101      	str	r1, [sp, #4]
 80075e0:	2b24      	cmp	r3, #36	@ 0x24
 80075e2:	d844      	bhi.n	800766e <_strtol_l.constprop.0+0x9a>
 80075e4:	000c      	movs	r4, r1
 80075e6:	2b01      	cmp	r3, #1
 80075e8:	d041      	beq.n	800766e <_strtol_l.constprop.0+0x9a>
 80075ea:	4b3d      	ldr	r3, [pc, #244]	@ (80076e0 <_strtol_l.constprop.0+0x10c>)
 80075ec:	2208      	movs	r2, #8
 80075ee:	469c      	mov	ip, r3
 80075f0:	0023      	movs	r3, r4
 80075f2:	4661      	mov	r1, ip
 80075f4:	781d      	ldrb	r5, [r3, #0]
 80075f6:	3401      	adds	r4, #1
 80075f8:	5d48      	ldrb	r0, [r1, r5]
 80075fa:	0001      	movs	r1, r0
 80075fc:	4011      	ands	r1, r2
 80075fe:	4210      	tst	r0, r2
 8007600:	d1f6      	bne.n	80075f0 <_strtol_l.constprop.0+0x1c>
 8007602:	2d2d      	cmp	r5, #45	@ 0x2d
 8007604:	d13a      	bne.n	800767c <_strtol_l.constprop.0+0xa8>
 8007606:	7825      	ldrb	r5, [r4, #0]
 8007608:	1c9c      	adds	r4, r3, #2
 800760a:	2301      	movs	r3, #1
 800760c:	9300      	str	r3, [sp, #0]
 800760e:	2210      	movs	r2, #16
 8007610:	0033      	movs	r3, r6
 8007612:	4393      	bics	r3, r2
 8007614:	d109      	bne.n	800762a <_strtol_l.constprop.0+0x56>
 8007616:	2d30      	cmp	r5, #48	@ 0x30
 8007618:	d136      	bne.n	8007688 <_strtol_l.constprop.0+0xb4>
 800761a:	2120      	movs	r1, #32
 800761c:	7823      	ldrb	r3, [r4, #0]
 800761e:	438b      	bics	r3, r1
 8007620:	2b58      	cmp	r3, #88	@ 0x58
 8007622:	d131      	bne.n	8007688 <_strtol_l.constprop.0+0xb4>
 8007624:	0016      	movs	r6, r2
 8007626:	7865      	ldrb	r5, [r4, #1]
 8007628:	3402      	adds	r4, #2
 800762a:	4a2e      	ldr	r2, [pc, #184]	@ (80076e4 <_strtol_l.constprop.0+0x110>)
 800762c:	9b00      	ldr	r3, [sp, #0]
 800762e:	4694      	mov	ip, r2
 8007630:	4463      	add	r3, ip
 8007632:	0031      	movs	r1, r6
 8007634:	0018      	movs	r0, r3
 8007636:	9302      	str	r3, [sp, #8]
 8007638:	f7f8 fdfe 	bl	8000238 <__aeabi_uidivmod>
 800763c:	2200      	movs	r2, #0
 800763e:	4684      	mov	ip, r0
 8007640:	0010      	movs	r0, r2
 8007642:	002b      	movs	r3, r5
 8007644:	3b30      	subs	r3, #48	@ 0x30
 8007646:	2b09      	cmp	r3, #9
 8007648:	d825      	bhi.n	8007696 <_strtol_l.constprop.0+0xc2>
 800764a:	001d      	movs	r5, r3
 800764c:	42ae      	cmp	r6, r5
 800764e:	dd31      	ble.n	80076b4 <_strtol_l.constprop.0+0xe0>
 8007650:	1c53      	adds	r3, r2, #1
 8007652:	d009      	beq.n	8007668 <_strtol_l.constprop.0+0x94>
 8007654:	2201      	movs	r2, #1
 8007656:	4252      	negs	r2, r2
 8007658:	4584      	cmp	ip, r0
 800765a:	d305      	bcc.n	8007668 <_strtol_l.constprop.0+0x94>
 800765c:	d101      	bne.n	8007662 <_strtol_l.constprop.0+0x8e>
 800765e:	42a9      	cmp	r1, r5
 8007660:	db25      	blt.n	80076ae <_strtol_l.constprop.0+0xda>
 8007662:	2201      	movs	r2, #1
 8007664:	4370      	muls	r0, r6
 8007666:	1828      	adds	r0, r5, r0
 8007668:	7825      	ldrb	r5, [r4, #0]
 800766a:	3401      	adds	r4, #1
 800766c:	e7e9      	b.n	8007642 <_strtol_l.constprop.0+0x6e>
 800766e:	f000 fa2d 	bl	8007acc <__errno>
 8007672:	2316      	movs	r3, #22
 8007674:	6003      	str	r3, [r0, #0]
 8007676:	2000      	movs	r0, #0
 8007678:	b005      	add	sp, #20
 800767a:	bdf0      	pop	{r4, r5, r6, r7, pc}
 800767c:	9100      	str	r1, [sp, #0]
 800767e:	2d2b      	cmp	r5, #43	@ 0x2b
 8007680:	d1c5      	bne.n	800760e <_strtol_l.constprop.0+0x3a>
 8007682:	7825      	ldrb	r5, [r4, #0]
 8007684:	1c9c      	adds	r4, r3, #2
 8007686:	e7c2      	b.n	800760e <_strtol_l.constprop.0+0x3a>
 8007688:	2e00      	cmp	r6, #0
 800768a:	d1ce      	bne.n	800762a <_strtol_l.constprop.0+0x56>
 800768c:	3608      	adds	r6, #8
 800768e:	2d30      	cmp	r5, #48	@ 0x30
 8007690:	d0cb      	beq.n	800762a <_strtol_l.constprop.0+0x56>
 8007692:	3602      	adds	r6, #2
 8007694:	e7c9      	b.n	800762a <_strtol_l.constprop.0+0x56>
 8007696:	002b      	movs	r3, r5
 8007698:	3b41      	subs	r3, #65	@ 0x41
 800769a:	2b19      	cmp	r3, #25
 800769c:	d801      	bhi.n	80076a2 <_strtol_l.constprop.0+0xce>
 800769e:	3d37      	subs	r5, #55	@ 0x37
 80076a0:	e7d4      	b.n	800764c <_strtol_l.constprop.0+0x78>
 80076a2:	002b      	movs	r3, r5
 80076a4:	3b61      	subs	r3, #97	@ 0x61
 80076a6:	2b19      	cmp	r3, #25
 80076a8:	d804      	bhi.n	80076b4 <_strtol_l.constprop.0+0xe0>
 80076aa:	3d57      	subs	r5, #87	@ 0x57
 80076ac:	e7ce      	b.n	800764c <_strtol_l.constprop.0+0x78>
 80076ae:	2201      	movs	r2, #1
 80076b0:	4252      	negs	r2, r2
 80076b2:	e7d9      	b.n	8007668 <_strtol_l.constprop.0+0x94>
 80076b4:	1c53      	adds	r3, r2, #1
 80076b6:	d108      	bne.n	80076ca <_strtol_l.constprop.0+0xf6>
 80076b8:	2322      	movs	r3, #34	@ 0x22
 80076ba:	9a03      	ldr	r2, [sp, #12]
 80076bc:	9802      	ldr	r0, [sp, #8]
 80076be:	6013      	str	r3, [r2, #0]
 80076c0:	2f00      	cmp	r7, #0
 80076c2:	d0d9      	beq.n	8007678 <_strtol_l.constprop.0+0xa4>
 80076c4:	1e63      	subs	r3, r4, #1
 80076c6:	9301      	str	r3, [sp, #4]
 80076c8:	e007      	b.n	80076da <_strtol_l.constprop.0+0x106>
 80076ca:	9b00      	ldr	r3, [sp, #0]
 80076cc:	2b00      	cmp	r3, #0
 80076ce:	d000      	beq.n	80076d2 <_strtol_l.constprop.0+0xfe>
 80076d0:	4240      	negs	r0, r0
 80076d2:	2f00      	cmp	r7, #0
 80076d4:	d0d0      	beq.n	8007678 <_strtol_l.constprop.0+0xa4>
 80076d6:	2a00      	cmp	r2, #0
 80076d8:	d1f4      	bne.n	80076c4 <_strtol_l.constprop.0+0xf0>
 80076da:	9b01      	ldr	r3, [sp, #4]
 80076dc:	603b      	str	r3, [r7, #0]
 80076de:	e7cb      	b.n	8007678 <_strtol_l.constprop.0+0xa4>
 80076e0:	08008dff 	.word	0x08008dff
 80076e4:	7fffffff 	.word	0x7fffffff

080076e8 <strtol>:
 80076e8:	b510      	push	{r4, lr}
 80076ea:	4c04      	ldr	r4, [pc, #16]	@ (80076fc <strtol+0x14>)
 80076ec:	0013      	movs	r3, r2
 80076ee:	000a      	movs	r2, r1
 80076f0:	0001      	movs	r1, r0
 80076f2:	6820      	ldr	r0, [r4, #0]
 80076f4:	f7ff ff6e 	bl	80075d4 <_strtol_l.constprop.0>
 80076f8:	bd10      	pop	{r4, pc}
 80076fa:	46c0      	nop			@ (mov r8, r8)
 80076fc:	2000019c 	.word	0x2000019c

08007700 <std>:
 8007700:	2300      	movs	r3, #0
 8007702:	b510      	push	{r4, lr}
 8007704:	0004      	movs	r4, r0
 8007706:	6003      	str	r3, [r0, #0]
 8007708:	6043      	str	r3, [r0, #4]
 800770a:	6083      	str	r3, [r0, #8]
 800770c:	8181      	strh	r1, [r0, #12]
 800770e:	6643      	str	r3, [r0, #100]	@ 0x64
 8007710:	81c2      	strh	r2, [r0, #14]
 8007712:	6103      	str	r3, [r0, #16]
 8007714:	6143      	str	r3, [r0, #20]
 8007716:	6183      	str	r3, [r0, #24]
 8007718:	0019      	movs	r1, r3
 800771a:	2208      	movs	r2, #8
 800771c:	305c      	adds	r0, #92	@ 0x5c
 800771e:	f000 f91f 	bl	8007960 <memset>
 8007722:	4b0b      	ldr	r3, [pc, #44]	@ (8007750 <std+0x50>)
 8007724:	6224      	str	r4, [r4, #32]
 8007726:	6263      	str	r3, [r4, #36]	@ 0x24
 8007728:	4b0a      	ldr	r3, [pc, #40]	@ (8007754 <std+0x54>)
 800772a:	62a3      	str	r3, [r4, #40]	@ 0x28
 800772c:	4b0a      	ldr	r3, [pc, #40]	@ (8007758 <std+0x58>)
 800772e:	62e3      	str	r3, [r4, #44]	@ 0x2c
 8007730:	4b0a      	ldr	r3, [pc, #40]	@ (800775c <std+0x5c>)
 8007732:	6323      	str	r3, [r4, #48]	@ 0x30
 8007734:	4b0a      	ldr	r3, [pc, #40]	@ (8007760 <std+0x60>)
 8007736:	429c      	cmp	r4, r3
 8007738:	d005      	beq.n	8007746 <std+0x46>
 800773a:	4b0a      	ldr	r3, [pc, #40]	@ (8007764 <std+0x64>)
 800773c:	429c      	cmp	r4, r3
 800773e:	d002      	beq.n	8007746 <std+0x46>
 8007740:	4b09      	ldr	r3, [pc, #36]	@ (8007768 <std+0x68>)
 8007742:	429c      	cmp	r4, r3
 8007744:	d103      	bne.n	800774e <std+0x4e>
 8007746:	0020      	movs	r0, r4
 8007748:	3058      	adds	r0, #88	@ 0x58
 800774a:	f000 f9e9 	bl	8007b20 <__retarget_lock_init_recursive>
 800774e:	bd10      	pop	{r4, pc}
 8007750:	080078c9 	.word	0x080078c9
 8007754:	080078f1 	.word	0x080078f1
 8007758:	08007929 	.word	0x08007929
 800775c:	08007955 	.word	0x08007955
 8007760:	20001608 	.word	0x20001608
 8007764:	20001670 	.word	0x20001670
 8007768:	200016d8 	.word	0x200016d8

0800776c <stdio_exit_handler>:
 800776c:	b510      	push	{r4, lr}
 800776e:	4a03      	ldr	r2, [pc, #12]	@ (800777c <stdio_exit_handler+0x10>)
 8007770:	4903      	ldr	r1, [pc, #12]	@ (8007780 <stdio_exit_handler+0x14>)
 8007772:	4804      	ldr	r0, [pc, #16]	@ (8007784 <stdio_exit_handler+0x18>)
 8007774:	f000 f86c 	bl	8007850 <_fwalk_sglue>
 8007778:	bd10      	pop	{r4, pc}
 800777a:	46c0      	nop			@ (mov r8, r8)
 800777c:	20000190 	.word	0x20000190
 8007780:	08008455 	.word	0x08008455
 8007784:	200001a0 	.word	0x200001a0

08007788 <cleanup_stdio>:
 8007788:	6841      	ldr	r1, [r0, #4]
 800778a:	4b0b      	ldr	r3, [pc, #44]	@ (80077b8 <cleanup_stdio+0x30>)
 800778c:	b510      	push	{r4, lr}
 800778e:	0004      	movs	r4, r0
 8007790:	4299      	cmp	r1, r3
 8007792:	d001      	beq.n	8007798 <cleanup_stdio+0x10>
 8007794:	f000 fe5e 	bl	8008454 <_fflush_r>
 8007798:	68a1      	ldr	r1, [r4, #8]
 800779a:	4b08      	ldr	r3, [pc, #32]	@ (80077bc <cleanup_stdio+0x34>)
 800779c:	4299      	cmp	r1, r3
 800779e:	d002      	beq.n	80077a6 <cleanup_stdio+0x1e>
 80077a0:	0020      	movs	r0, r4
 80077a2:	f000 fe57 	bl	8008454 <_fflush_r>
 80077a6:	68e1      	ldr	r1, [r4, #12]
 80077a8:	4b05      	ldr	r3, [pc, #20]	@ (80077c0 <cleanup_stdio+0x38>)
 80077aa:	4299      	cmp	r1, r3
 80077ac:	d002      	beq.n	80077b4 <cleanup_stdio+0x2c>
 80077ae:	0020      	movs	r0, r4
 80077b0:	f000 fe50 	bl	8008454 <_fflush_r>
 80077b4:	bd10      	pop	{r4, pc}
 80077b6:	46c0      	nop			@ (mov r8, r8)
 80077b8:	20001608 	.word	0x20001608
 80077bc:	20001670 	.word	0x20001670
 80077c0:	200016d8 	.word	0x200016d8

080077c4 <global_stdio_init.part.0>:
 80077c4:	b510      	push	{r4, lr}
 80077c6:	4b09      	ldr	r3, [pc, #36]	@ (80077ec <global_stdio_init.part.0+0x28>)
 80077c8:	4a09      	ldr	r2, [pc, #36]	@ (80077f0 <global_stdio_init.part.0+0x2c>)
 80077ca:	2104      	movs	r1, #4
 80077cc:	601a      	str	r2, [r3, #0]
 80077ce:	4809      	ldr	r0, [pc, #36]	@ (80077f4 <global_stdio_init.part.0+0x30>)
 80077d0:	2200      	movs	r2, #0
 80077d2:	f7ff ff95 	bl	8007700 <std>
 80077d6:	2201      	movs	r2, #1
 80077d8:	2109      	movs	r1, #9
 80077da:	4807      	ldr	r0, [pc, #28]	@ (80077f8 <global_stdio_init.part.0+0x34>)
 80077dc:	f7ff ff90 	bl	8007700 <std>
 80077e0:	2202      	movs	r2, #2
 80077e2:	2112      	movs	r1, #18
 80077e4:	4805      	ldr	r0, [pc, #20]	@ (80077fc <global_stdio_init.part.0+0x38>)
 80077e6:	f7ff ff8b 	bl	8007700 <std>
 80077ea:	bd10      	pop	{r4, pc}
 80077ec:	20001740 	.word	0x20001740
 80077f0:	0800776d 	.word	0x0800776d
 80077f4:	20001608 	.word	0x20001608
 80077f8:	20001670 	.word	0x20001670
 80077fc:	200016d8 	.word	0x200016d8

08007800 <__sfp_lock_acquire>:
 8007800:	b510      	push	{r4, lr}
 8007802:	4802      	ldr	r0, [pc, #8]	@ (800780c <__sfp_lock_acquire+0xc>)
 8007804:	f000 f98d 	bl	8007b22 <__retarget_lock_acquire_recursive>
 8007808:	bd10      	pop	{r4, pc}
 800780a:	46c0      	nop			@ (mov r8, r8)
 800780c:	20001749 	.word	0x20001749

08007810 <__sfp_lock_release>:
 8007810:	b510      	push	{r4, lr}
 8007812:	4802      	ldr	r0, [pc, #8]	@ (800781c <__sfp_lock_release+0xc>)
 8007814:	f000 f986 	bl	8007b24 <__retarget_lock_release_recursive>
 8007818:	bd10      	pop	{r4, pc}
 800781a:	46c0      	nop			@ (mov r8, r8)
 800781c:	20001749 	.word	0x20001749

08007820 <__sinit>:
 8007820:	b510      	push	{r4, lr}
 8007822:	0004      	movs	r4, r0
 8007824:	f7ff ffec 	bl	8007800 <__sfp_lock_acquire>
 8007828:	6a23      	ldr	r3, [r4, #32]
 800782a:	2b00      	cmp	r3, #0
 800782c:	d002      	beq.n	8007834 <__sinit+0x14>
 800782e:	f7ff ffef 	bl	8007810 <__sfp_lock_release>
 8007832:	bd10      	pop	{r4, pc}
 8007834:	4b04      	ldr	r3, [pc, #16]	@ (8007848 <__sinit+0x28>)
 8007836:	6223      	str	r3, [r4, #32]
 8007838:	4b04      	ldr	r3, [pc, #16]	@ (800784c <__sinit+0x2c>)
 800783a:	681b      	ldr	r3, [r3, #0]
 800783c:	2b00      	cmp	r3, #0
 800783e:	d1f6      	bne.n	800782e <__sinit+0xe>
 8007840:	f7ff ffc0 	bl	80077c4 <global_stdio_init.part.0>
 8007844:	e7f3      	b.n	800782e <__sinit+0xe>
 8007846:	46c0      	nop			@ (mov r8, r8)
 8007848:	08007789 	.word	0x08007789
 800784c:	20001740 	.word	0x20001740

08007850 <_fwalk_sglue>:
 8007850:	b5f7      	push	{r0, r1, r2, r4, r5, r6, r7, lr}
 8007852:	0014      	movs	r4, r2
 8007854:	2600      	movs	r6, #0
 8007856:	9000      	str	r0, [sp, #0]
 8007858:	9101      	str	r1, [sp, #4]
 800785a:	68a5      	ldr	r5, [r4, #8]
 800785c:	6867      	ldr	r7, [r4, #4]
 800785e:	3f01      	subs	r7, #1
 8007860:	d504      	bpl.n	800786c <_fwalk_sglue+0x1c>
 8007862:	6824      	ldr	r4, [r4, #0]
 8007864:	2c00      	cmp	r4, #0
 8007866:	d1f8      	bne.n	800785a <_fwalk_sglue+0xa>
 8007868:	0030      	movs	r0, r6
 800786a:	bdfe      	pop	{r1, r2, r3, r4, r5, r6, r7, pc}
 800786c:	89ab      	ldrh	r3, [r5, #12]
 800786e:	2b01      	cmp	r3, #1
 8007870:	d908      	bls.n	8007884 <_fwalk_sglue+0x34>
 8007872:	220e      	movs	r2, #14
 8007874:	5eab      	ldrsh	r3, [r5, r2]
 8007876:	3301      	adds	r3, #1
 8007878:	d004      	beq.n	8007884 <_fwalk_sglue+0x34>
 800787a:	0029      	movs	r1, r5
 800787c:	9800      	ldr	r0, [sp, #0]
 800787e:	9b01      	ldr	r3, [sp, #4]
 8007880:	4798      	blx	r3
 8007882:	4306      	orrs	r6, r0
 8007884:	3568      	adds	r5, #104	@ 0x68
 8007886:	e7ea      	b.n	800785e <_fwalk_sglue+0xe>

08007888 <siprintf>:
 8007888:	b40e      	push	{r1, r2, r3}
 800788a:	b500      	push	{lr}
 800788c:	490b      	ldr	r1, [pc, #44]	@ (80078bc <siprintf+0x34>)
 800788e:	b09c      	sub	sp, #112	@ 0x70
 8007890:	ab1d      	add	r3, sp, #116	@ 0x74
 8007892:	9002      	str	r0, [sp, #8]
 8007894:	9006      	str	r0, [sp, #24]
 8007896:	9107      	str	r1, [sp, #28]
 8007898:	9104      	str	r1, [sp, #16]
 800789a:	4809      	ldr	r0, [pc, #36]	@ (80078c0 <siprintf+0x38>)
 800789c:	4909      	ldr	r1, [pc, #36]	@ (80078c4 <siprintf+0x3c>)
 800789e:	cb04      	ldmia	r3!, {r2}
 80078a0:	9105      	str	r1, [sp, #20]
 80078a2:	6800      	ldr	r0, [r0, #0]
 80078a4:	a902      	add	r1, sp, #8
 80078a6:	9301      	str	r3, [sp, #4]
 80078a8:	f000 fad2 	bl	8007e50 <_svfiprintf_r>
 80078ac:	2200      	movs	r2, #0
 80078ae:	9b02      	ldr	r3, [sp, #8]
 80078b0:	701a      	strb	r2, [r3, #0]
 80078b2:	b01c      	add	sp, #112	@ 0x70
 80078b4:	bc08      	pop	{r3}
 80078b6:	b003      	add	sp, #12
 80078b8:	4718      	bx	r3
 80078ba:	46c0      	nop			@ (mov r8, r8)
 80078bc:	7fffffff 	.word	0x7fffffff
 80078c0:	2000019c 	.word	0x2000019c
 80078c4:	ffff0208 	.word	0xffff0208

080078c8 <__sread>:
 80078c8:	b570      	push	{r4, r5, r6, lr}
 80078ca:	000c      	movs	r4, r1
 80078cc:	250e      	movs	r5, #14
 80078ce:	5f49      	ldrsh	r1, [r1, r5]
 80078d0:	f000 f8d4 	bl	8007a7c <_read_r>
 80078d4:	2800      	cmp	r0, #0
 80078d6:	db03      	blt.n	80078e0 <__sread+0x18>
 80078d8:	6d63      	ldr	r3, [r4, #84]	@ 0x54
 80078da:	181b      	adds	r3, r3, r0
 80078dc:	6563      	str	r3, [r4, #84]	@ 0x54
 80078de:	bd70      	pop	{r4, r5, r6, pc}
 80078e0:	89a3      	ldrh	r3, [r4, #12]
 80078e2:	4a02      	ldr	r2, [pc, #8]	@ (80078ec <__sread+0x24>)
 80078e4:	4013      	ands	r3, r2
 80078e6:	81a3      	strh	r3, [r4, #12]
 80078e8:	e7f9      	b.n	80078de <__sread+0x16>
 80078ea:	46c0      	nop			@ (mov r8, r8)
 80078ec:	ffffefff 	.word	0xffffefff

080078f0 <__swrite>:
 80078f0:	b5f8      	push	{r3, r4, r5, r6, r7, lr}
 80078f2:	001f      	movs	r7, r3
 80078f4:	898b      	ldrh	r3, [r1, #12]
 80078f6:	0005      	movs	r5, r0
 80078f8:	000c      	movs	r4, r1
 80078fa:	0016      	movs	r6, r2
 80078fc:	05db      	lsls	r3, r3, #23
 80078fe:	d505      	bpl.n	800790c <__swrite+0x1c>
 8007900:	230e      	movs	r3, #14
 8007902:	5ec9      	ldrsh	r1, [r1, r3]
 8007904:	2200      	movs	r2, #0
 8007906:	2302      	movs	r3, #2
 8007908:	f000 f8a4 	bl	8007a54 <_lseek_r>
 800790c:	89a3      	ldrh	r3, [r4, #12]
 800790e:	4a05      	ldr	r2, [pc, #20]	@ (8007924 <__swrite+0x34>)
 8007910:	0028      	movs	r0, r5
 8007912:	4013      	ands	r3, r2
 8007914:	81a3      	strh	r3, [r4, #12]
 8007916:	0032      	movs	r2, r6
 8007918:	230e      	movs	r3, #14
 800791a:	5ee1      	ldrsh	r1, [r4, r3]
 800791c:	003b      	movs	r3, r7
 800791e:	f000 f8c1 	bl	8007aa4 <_write_r>
 8007922:	bdf8      	pop	{r3, r4, r5, r6, r7, pc}
 8007924:	ffffefff 	.word	0xffffefff

08007928 <__sseek>:
 8007928:	b570      	push	{r4, r5, r6, lr}
 800792a:	000c      	movs	r4, r1
 800792c:	250e      	movs	r5, #14
 800792e:	5f49      	ldrsh	r1, [r1, r5]
 8007930:	f000 f890 	bl	8007a54 <_lseek_r>
 8007934:	89a3      	ldrh	r3, [r4, #12]
 8007936:	1c42      	adds	r2, r0, #1
 8007938:	d103      	bne.n	8007942 <__sseek+0x1a>
 800793a:	4a05      	ldr	r2, [pc, #20]	@ (8007950 <__sseek+0x28>)
 800793c:	4013      	ands	r3, r2
 800793e:	81a3      	strh	r3, [r4, #12]
 8007940:	bd70      	pop	{r4, r5, r6, pc}
 8007942:	2280      	movs	r2, #128	@ 0x80
 8007944:	0152      	lsls	r2, r2, #5
 8007946:	4313      	orrs	r3, r2
 8007948:	81a3      	strh	r3, [r4, #12]
 800794a:	6560      	str	r0, [r4, #84]	@ 0x54
 800794c:	e7f8      	b.n	8007940 <__sseek+0x18>
 800794e:	46c0      	nop			@ (mov r8, r8)
 8007950:	ffffefff 	.word	0xffffefff

08007954 <__sclose>:
 8007954:	b510      	push	{r4, lr}
 8007956:	230e      	movs	r3, #14
 8007958:	5ec9      	ldrsh	r1, [r1, r3]
 800795a:	f000 f869 	bl	8007a30 <_close_r>
 800795e:	bd10      	pop	{r4, pc}

08007960 <memset>:
 8007960:	0003      	movs	r3, r0
 8007962:	1882      	adds	r2, r0, r2
 8007964:	4293      	cmp	r3, r2
 8007966:	d100      	bne.n	800796a <memset+0xa>
 8007968:	4770      	bx	lr
 800796a:	7019      	strb	r1, [r3, #0]
 800796c:	3301      	adds	r3, #1
 800796e:	e7f9      	b.n	8007964 <memset+0x4>

08007970 <strtok>:
 8007970:	b5f8      	push	{r3, r4, r5, r6, r7, lr}
 8007972:	4b16      	ldr	r3, [pc, #88]	@ (80079cc <strtok+0x5c>)
 8007974:	0005      	movs	r5, r0
 8007976:	681f      	ldr	r7, [r3, #0]
 8007978:	000e      	movs	r6, r1
 800797a:	6c7c      	ldr	r4, [r7, #68]	@ 0x44
 800797c:	2c00      	cmp	r4, #0
 800797e:	d11d      	bne.n	80079bc <strtok+0x4c>
 8007980:	2050      	movs	r0, #80	@ 0x50
 8007982:	f000 f949 	bl	8007c18 <malloc>
 8007986:	1e02      	subs	r2, r0, #0
 8007988:	6478      	str	r0, [r7, #68]	@ 0x44
 800798a:	d104      	bne.n	8007996 <strtok+0x26>
 800798c:	215b      	movs	r1, #91	@ 0x5b
 800798e:	4b10      	ldr	r3, [pc, #64]	@ (80079d0 <strtok+0x60>)
 8007990:	4810      	ldr	r0, [pc, #64]	@ (80079d4 <strtok+0x64>)
 8007992:	f000 f8d9 	bl	8007b48 <__assert_func>
 8007996:	6004      	str	r4, [r0, #0]
 8007998:	6044      	str	r4, [r0, #4]
 800799a:	6084      	str	r4, [r0, #8]
 800799c:	60c4      	str	r4, [r0, #12]
 800799e:	6104      	str	r4, [r0, #16]
 80079a0:	6144      	str	r4, [r0, #20]
 80079a2:	6184      	str	r4, [r0, #24]
 80079a4:	6284      	str	r4, [r0, #40]	@ 0x28
 80079a6:	62c4      	str	r4, [r0, #44]	@ 0x2c
 80079a8:	6304      	str	r4, [r0, #48]	@ 0x30
 80079aa:	6344      	str	r4, [r0, #52]	@ 0x34
 80079ac:	6384      	str	r4, [r0, #56]	@ 0x38
 80079ae:	63c4      	str	r4, [r0, #60]	@ 0x3c
 80079b0:	6404      	str	r4, [r0, #64]	@ 0x40
 80079b2:	6444      	str	r4, [r0, #68]	@ 0x44
 80079b4:	6484      	str	r4, [r0, #72]	@ 0x48
 80079b6:	64c4      	str	r4, [r0, #76]	@ 0x4c
 80079b8:	7704      	strb	r4, [r0, #28]
 80079ba:	6244      	str	r4, [r0, #36]	@ 0x24
 80079bc:	0031      	movs	r1, r6
 80079be:	0028      	movs	r0, r5
 80079c0:	6c7a      	ldr	r2, [r7, #68]	@ 0x44
 80079c2:	2301      	movs	r3, #1
 80079c4:	f000 f808 	bl	80079d8 <__strtok_r>
 80079c8:	bdf8      	pop	{r3, r4, r5, r6, r7, pc}
 80079ca:	46c0      	nop			@ (mov r8, r8)
 80079cc:	2000019c 	.word	0x2000019c
 80079d0:	08008eff 	.word	0x08008eff
 80079d4:	08008f16 	.word	0x08008f16

080079d8 <__strtok_r>:
 80079d8:	b5f0      	push	{r4, r5, r6, r7, lr}
 80079da:	1e04      	subs	r4, r0, #0
 80079dc:	d102      	bne.n	80079e4 <__strtok_r+0xc>
 80079de:	6814      	ldr	r4, [r2, #0]
 80079e0:	2c00      	cmp	r4, #0
 80079e2:	d009      	beq.n	80079f8 <__strtok_r+0x20>
 80079e4:	0020      	movs	r0, r4
 80079e6:	000e      	movs	r6, r1
 80079e8:	7805      	ldrb	r5, [r0, #0]
 80079ea:	3401      	adds	r4, #1
 80079ec:	7837      	ldrb	r7, [r6, #0]
 80079ee:	2f00      	cmp	r7, #0
 80079f0:	d104      	bne.n	80079fc <__strtok_r+0x24>
 80079f2:	2d00      	cmp	r5, #0
 80079f4:	d10d      	bne.n	8007a12 <__strtok_r+0x3a>
 80079f6:	6015      	str	r5, [r2, #0]
 80079f8:	2000      	movs	r0, #0
 80079fa:	e006      	b.n	8007a0a <__strtok_r+0x32>
 80079fc:	3601      	adds	r6, #1
 80079fe:	42bd      	cmp	r5, r7
 8007a00:	d1f4      	bne.n	80079ec <__strtok_r+0x14>
 8007a02:	2b00      	cmp	r3, #0
 8007a04:	d1ee      	bne.n	80079e4 <__strtok_r+0xc>
 8007a06:	6014      	str	r4, [r2, #0]
 8007a08:	7003      	strb	r3, [r0, #0]
 8007a0a:	bdf0      	pop	{r4, r5, r6, r7, pc}
 8007a0c:	3301      	adds	r3, #1
 8007a0e:	2d00      	cmp	r5, #0
 8007a10:	d102      	bne.n	8007a18 <__strtok_r+0x40>
 8007a12:	000b      	movs	r3, r1
 8007a14:	7826      	ldrb	r6, [r4, #0]
 8007a16:	3401      	adds	r4, #1
 8007a18:	781d      	ldrb	r5, [r3, #0]
 8007a1a:	42ae      	cmp	r6, r5
 8007a1c:	d1f6      	bne.n	8007a0c <__strtok_r+0x34>
 8007a1e:	2300      	movs	r3, #0
 8007a20:	001d      	movs	r5, r3
 8007a22:	429e      	cmp	r6, r3
 8007a24:	d002      	beq.n	8007a2c <__strtok_r+0x54>
 8007a26:	0023      	movs	r3, r4
 8007a28:	1e61      	subs	r1, r4, #1
 8007a2a:	700d      	strb	r5, [r1, #0]
 8007a2c:	6013      	str	r3, [r2, #0]
 8007a2e:	e7ec      	b.n	8007a0a <__strtok_r+0x32>

08007a30 <_close_r>:
 8007a30:	2300      	movs	r3, #0
 8007a32:	b570      	push	{r4, r5, r6, lr}
 8007a34:	4d06      	ldr	r5, [pc, #24]	@ (8007a50 <_close_r+0x20>)
 8007a36:	0004      	movs	r4, r0
 8007a38:	0008      	movs	r0, r1
 8007a3a:	602b      	str	r3, [r5, #0]
 8007a3c:	f7fa fc6e 	bl	800231c <_close>
 8007a40:	1c43      	adds	r3, r0, #1
 8007a42:	d103      	bne.n	8007a4c <_close_r+0x1c>
 8007a44:	682b      	ldr	r3, [r5, #0]
 8007a46:	2b00      	cmp	r3, #0
 8007a48:	d000      	beq.n	8007a4c <_close_r+0x1c>
 8007a4a:	6023      	str	r3, [r4, #0]
 8007a4c:	bd70      	pop	{r4, r5, r6, pc}
 8007a4e:	46c0      	nop			@ (mov r8, r8)
 8007a50:	20001744 	.word	0x20001744

08007a54 <_lseek_r>:
 8007a54:	b570      	push	{r4, r5, r6, lr}
 8007a56:	0004      	movs	r4, r0
 8007a58:	0008      	movs	r0, r1
 8007a5a:	0011      	movs	r1, r2
 8007a5c:	001a      	movs	r2, r3
 8007a5e:	2300      	movs	r3, #0
 8007a60:	4d05      	ldr	r5, [pc, #20]	@ (8007a78 <_lseek_r+0x24>)
 8007a62:	602b      	str	r3, [r5, #0]
 8007a64:	f7fa fc66 	bl	8002334 <_lseek>
 8007a68:	1c43      	adds	r3, r0, #1
 8007a6a:	d103      	bne.n	8007a74 <_lseek_r+0x20>
 8007a6c:	682b      	ldr	r3, [r5, #0]
 8007a6e:	2b00      	cmp	r3, #0
 8007a70:	d000      	beq.n	8007a74 <_lseek_r+0x20>
 8007a72:	6023      	str	r3, [r4, #0]
 8007a74:	bd70      	pop	{r4, r5, r6, pc}
 8007a76:	46c0      	nop			@ (mov r8, r8)
 8007a78:	20001744 	.word	0x20001744

08007a7c <_read_r>:
 8007a7c:	b570      	push	{r4, r5, r6, lr}
 8007a7e:	0004      	movs	r4, r0
 8007a80:	0008      	movs	r0, r1
 8007a82:	0011      	movs	r1, r2
 8007a84:	001a      	movs	r2, r3
 8007a86:	2300      	movs	r3, #0
 8007a88:	4d05      	ldr	r5, [pc, #20]	@ (8007aa0 <_read_r+0x24>)
 8007a8a:	602b      	str	r3, [r5, #0]
 8007a8c:	f7fa fc2a 	bl	80022e4 <_read>
 8007a90:	1c43      	adds	r3, r0, #1
 8007a92:	d103      	bne.n	8007a9c <_read_r+0x20>
 8007a94:	682b      	ldr	r3, [r5, #0]
 8007a96:	2b00      	cmp	r3, #0
 8007a98:	d000      	beq.n	8007a9c <_read_r+0x20>
 8007a9a:	6023      	str	r3, [r4, #0]
 8007a9c:	bd70      	pop	{r4, r5, r6, pc}
 8007a9e:	46c0      	nop			@ (mov r8, r8)
 8007aa0:	20001744 	.word	0x20001744

08007aa4 <_write_r>:
 8007aa4:	b570      	push	{r4, r5, r6, lr}
 8007aa6:	0004      	movs	r4, r0
 8007aa8:	0008      	movs	r0, r1
 8007aaa:	0011      	movs	r1, r2
 8007aac:	001a      	movs	r2, r3
 8007aae:	2300      	movs	r3, #0
 8007ab0:	4d05      	ldr	r5, [pc, #20]	@ (8007ac8 <_write_r+0x24>)
 8007ab2:	602b      	str	r3, [r5, #0]
 8007ab4:	f7fa fc24 	bl	8002300 <_write>
 8007ab8:	1c43      	adds	r3, r0, #1
 8007aba:	d103      	bne.n	8007ac4 <_write_r+0x20>
 8007abc:	682b      	ldr	r3, [r5, #0]
 8007abe:	2b00      	cmp	r3, #0
 8007ac0:	d000      	beq.n	8007ac4 <_write_r+0x20>
 8007ac2:	6023      	str	r3, [r4, #0]
 8007ac4:	bd70      	pop	{r4, r5, r6, pc}
 8007ac6:	46c0      	nop			@ (mov r8, r8)
 8007ac8:	20001744 	.word	0x20001744

08007acc <__errno>:
 8007acc:	4b01      	ldr	r3, [pc, #4]	@ (8007ad4 <__errno+0x8>)
 8007ace:	6818      	ldr	r0, [r3, #0]
 8007ad0:	4770      	bx	lr
 8007ad2:	46c0      	nop			@ (mov r8, r8)
 8007ad4:	2000019c 	.word	0x2000019c

08007ad8 <__libc_init_array>:
 8007ad8:	b570      	push	{r4, r5, r6, lr}
 8007ada:	2600      	movs	r6, #0
 8007adc:	4c0c      	ldr	r4, [pc, #48]	@ (8007b10 <__libc_init_array+0x38>)
 8007ade:	4d0d      	ldr	r5, [pc, #52]	@ (8007b14 <__libc_init_array+0x3c>)
 8007ae0:	1b64      	subs	r4, r4, r5
 8007ae2:	10a4      	asrs	r4, r4, #2
 8007ae4:	42a6      	cmp	r6, r4
 8007ae6:	d109      	bne.n	8007afc <__libc_init_array+0x24>
 8007ae8:	2600      	movs	r6, #0
 8007aea:	f001 f81b 	bl	8008b24 <_init>
 8007aee:	4c0a      	ldr	r4, [pc, #40]	@ (8007b18 <__libc_init_array+0x40>)
 8007af0:	4d0a      	ldr	r5, [pc, #40]	@ (8007b1c <__libc_init_array+0x44>)
 8007af2:	1b64      	subs	r4, r4, r5
 8007af4:	10a4      	asrs	r4, r4, #2
 8007af6:	42a6      	cmp	r6, r4
 8007af8:	d105      	bne.n	8007b06 <__libc_init_array+0x2e>
 8007afa:	bd70      	pop	{r4, r5, r6, pc}
 8007afc:	00b3      	lsls	r3, r6, #2
 8007afe:	58eb      	ldr	r3, [r5, r3]
 8007b00:	4798      	blx	r3
 8007b02:	3601      	adds	r6, #1
 8007b04:	e7ee      	b.n	8007ae4 <__libc_init_array+0xc>
 8007b06:	00b3      	lsls	r3, r6, #2
 8007b08:	58eb      	ldr	r3, [r5, r3]
 8007b0a:	4798      	blx	r3
 8007b0c:	3601      	adds	r6, #1
 8007b0e:	e7f2      	b.n	8007af6 <__libc_init_array+0x1e>
 8007b10:	08008fe0 	.word	0x08008fe0
 8007b14:	08008fe0 	.word	0x08008fe0
 8007b18:	08008fe4 	.word	0x08008fe4
 8007b1c:	08008fe0 	.word	0x08008fe0

08007b20 <__retarget_lock_init_recursive>:
 8007b20:	4770      	bx	lr

08007b22 <__retarget_lock_acquire_recursive>:
 8007b22:	4770      	bx	lr

08007b24 <__retarget_lock_release_recursive>:
 8007b24:	4770      	bx	lr

08007b26 <strcpy>:
 8007b26:	0003      	movs	r3, r0
 8007b28:	780a      	ldrb	r2, [r1, #0]
 8007b2a:	3101      	adds	r1, #1
 8007b2c:	701a      	strb	r2, [r3, #0]
 8007b2e:	3301      	adds	r3, #1
 8007b30:	2a00      	cmp	r2, #0
 8007b32:	d1f9      	bne.n	8007b28 <strcpy+0x2>
 8007b34:	4770      	bx	lr

08007b36 <memcpy>:
 8007b36:	2300      	movs	r3, #0
 8007b38:	b510      	push	{r4, lr}
 8007b3a:	429a      	cmp	r2, r3
 8007b3c:	d100      	bne.n	8007b40 <memcpy+0xa>
 8007b3e:	bd10      	pop	{r4, pc}
 8007b40:	5ccc      	ldrb	r4, [r1, r3]
 8007b42:	54c4      	strb	r4, [r0, r3]
 8007b44:	3301      	adds	r3, #1
 8007b46:	e7f8      	b.n	8007b3a <memcpy+0x4>

08007b48 <__assert_func>:
 8007b48:	b57f      	push	{r0, r1, r2, r3, r4, r5, r6, lr}
 8007b4a:	0014      	movs	r4, r2
 8007b4c:	001a      	movs	r2, r3
 8007b4e:	4b09      	ldr	r3, [pc, #36]	@ (8007b74 <__assert_func+0x2c>)
 8007b50:	0005      	movs	r5, r0
 8007b52:	681b      	ldr	r3, [r3, #0]
 8007b54:	000e      	movs	r6, r1
 8007b56:	68d8      	ldr	r0, [r3, #12]
 8007b58:	4b07      	ldr	r3, [pc, #28]	@ (8007b78 <__assert_func+0x30>)
 8007b5a:	2c00      	cmp	r4, #0
 8007b5c:	d101      	bne.n	8007b62 <__assert_func+0x1a>
 8007b5e:	4b07      	ldr	r3, [pc, #28]	@ (8007b7c <__assert_func+0x34>)
 8007b60:	001c      	movs	r4, r3
 8007b62:	4907      	ldr	r1, [pc, #28]	@ (8007b80 <__assert_func+0x38>)
 8007b64:	9301      	str	r3, [sp, #4]
 8007b66:	9402      	str	r4, [sp, #8]
 8007b68:	002b      	movs	r3, r5
 8007b6a:	9600      	str	r6, [sp, #0]
 8007b6c:	f000 fc9e 	bl	80084ac <fiprintf>
 8007b70:	f000 fcdd 	bl	800852e <abort>
 8007b74:	2000019c 	.word	0x2000019c
 8007b78:	08008f70 	.word	0x08008f70
 8007b7c:	08008fab 	.word	0x08008fab
 8007b80:	08008f7d 	.word	0x08008f7d

08007b84 <_free_r>:
 8007b84:	b570      	push	{r4, r5, r6, lr}
 8007b86:	0005      	movs	r5, r0
 8007b88:	1e0c      	subs	r4, r1, #0
 8007b8a:	d010      	beq.n	8007bae <_free_r+0x2a>
 8007b8c:	3c04      	subs	r4, #4
 8007b8e:	6823      	ldr	r3, [r4, #0]
 8007b90:	2b00      	cmp	r3, #0
 8007b92:	da00      	bge.n	8007b96 <_free_r+0x12>
 8007b94:	18e4      	adds	r4, r4, r3
 8007b96:	0028      	movs	r0, r5
 8007b98:	f000 f8ea 	bl	8007d70 <__malloc_lock>
 8007b9c:	4a1d      	ldr	r2, [pc, #116]	@ (8007c14 <_free_r+0x90>)
 8007b9e:	6813      	ldr	r3, [r2, #0]
 8007ba0:	2b00      	cmp	r3, #0
 8007ba2:	d105      	bne.n	8007bb0 <_free_r+0x2c>
 8007ba4:	6063      	str	r3, [r4, #4]
 8007ba6:	6014      	str	r4, [r2, #0]
 8007ba8:	0028      	movs	r0, r5
 8007baa:	f000 f8e9 	bl	8007d80 <__malloc_unlock>
 8007bae:	bd70      	pop	{r4, r5, r6, pc}
 8007bb0:	42a3      	cmp	r3, r4
 8007bb2:	d908      	bls.n	8007bc6 <_free_r+0x42>
 8007bb4:	6820      	ldr	r0, [r4, #0]
 8007bb6:	1821      	adds	r1, r4, r0
 8007bb8:	428b      	cmp	r3, r1
 8007bba:	d1f3      	bne.n	8007ba4 <_free_r+0x20>
 8007bbc:	6819      	ldr	r1, [r3, #0]
 8007bbe:	685b      	ldr	r3, [r3, #4]
 8007bc0:	1809      	adds	r1, r1, r0
 8007bc2:	6021      	str	r1, [r4, #0]
 8007bc4:	e7ee      	b.n	8007ba4 <_free_r+0x20>
 8007bc6:	001a      	movs	r2, r3
 8007bc8:	685b      	ldr	r3, [r3, #4]
 8007bca:	2b00      	cmp	r3, #0
 8007bcc:	d001      	beq.n	8007bd2 <_free_r+0x4e>
 8007bce:	42a3      	cmp	r3, r4
 8007bd0:	d9f9      	bls.n	8007bc6 <_free_r+0x42>
 8007bd2:	6811      	ldr	r1, [r2, #0]
 8007bd4:	1850      	adds	r0, r2, r1
 8007bd6:	42a0      	cmp	r0, r4
 8007bd8:	d10b      	bne.n	8007bf2 <_free_r+0x6e>
 8007bda:	6820      	ldr	r0, [r4, #0]
 8007bdc:	1809      	adds	r1, r1, r0
 8007bde:	1850      	adds	r0, r2, r1
 8007be0:	6011      	str	r1, [r2, #0]
 8007be2:	4283      	cmp	r3, r0
 8007be4:	d1e0      	bne.n	8007ba8 <_free_r+0x24>
 8007be6:	6818      	ldr	r0, [r3, #0]
 8007be8:	685b      	ldr	r3, [r3, #4]
 8007bea:	1841      	adds	r1, r0, r1
 8007bec:	6011      	str	r1, [r2, #0]
 8007bee:	6053      	str	r3, [r2, #4]
 8007bf0:	e7da      	b.n	8007ba8 <_free_r+0x24>
 8007bf2:	42a0      	cmp	r0, r4
 8007bf4:	d902      	bls.n	8007bfc <_free_r+0x78>
 8007bf6:	230c      	movs	r3, #12
 8007bf8:	602b      	str	r3, [r5, #0]
 8007bfa:	e7d5      	b.n	8007ba8 <_free_r+0x24>
 8007bfc:	6820      	ldr	r0, [r4, #0]
 8007bfe:	1821      	adds	r1, r4, r0
 8007c00:	428b      	cmp	r3, r1
 8007c02:	d103      	bne.n	8007c0c <_free_r+0x88>
 8007c04:	6819      	ldr	r1, [r3, #0]
 8007c06:	685b      	ldr	r3, [r3, #4]
 8007c08:	1809      	adds	r1, r1, r0
 8007c0a:	6021      	str	r1, [r4, #0]
 8007c0c:	6063      	str	r3, [r4, #4]
 8007c0e:	6054      	str	r4, [r2, #4]
 8007c10:	e7ca      	b.n	8007ba8 <_free_r+0x24>
 8007c12:	46c0      	nop			@ (mov r8, r8)
 8007c14:	20001750 	.word	0x20001750

08007c18 <malloc>:
 8007c18:	b510      	push	{r4, lr}
 8007c1a:	4b03      	ldr	r3, [pc, #12]	@ (8007c28 <malloc+0x10>)
 8007c1c:	0001      	movs	r1, r0
 8007c1e:	6818      	ldr	r0, [r3, #0]
 8007c20:	f000 f826 	bl	8007c70 <_malloc_r>
 8007c24:	bd10      	pop	{r4, pc}
 8007c26:	46c0      	nop			@ (mov r8, r8)
 8007c28:	2000019c 	.word	0x2000019c

08007c2c <sbrk_aligned>:
 8007c2c:	b570      	push	{r4, r5, r6, lr}
 8007c2e:	4e0f      	ldr	r6, [pc, #60]	@ (8007c6c <sbrk_aligned+0x40>)
 8007c30:	000d      	movs	r5, r1
 8007c32:	6831      	ldr	r1, [r6, #0]
 8007c34:	0004      	movs	r4, r0
 8007c36:	2900      	cmp	r1, #0
 8007c38:	d102      	bne.n	8007c40 <sbrk_aligned+0x14>
 8007c3a:	f000 fc5b 	bl	80084f4 <_sbrk_r>
 8007c3e:	6030      	str	r0, [r6, #0]
 8007c40:	0029      	movs	r1, r5
 8007c42:	0020      	movs	r0, r4
 8007c44:	f000 fc56 	bl	80084f4 <_sbrk_r>
 8007c48:	1c43      	adds	r3, r0, #1
 8007c4a:	d103      	bne.n	8007c54 <sbrk_aligned+0x28>
 8007c4c:	2501      	movs	r5, #1
 8007c4e:	426d      	negs	r5, r5
 8007c50:	0028      	movs	r0, r5
 8007c52:	bd70      	pop	{r4, r5, r6, pc}
 8007c54:	2303      	movs	r3, #3
 8007c56:	1cc5      	adds	r5, r0, #3
 8007c58:	439d      	bics	r5, r3
 8007c5a:	42a8      	cmp	r0, r5
 8007c5c:	d0f8      	beq.n	8007c50 <sbrk_aligned+0x24>
 8007c5e:	1a29      	subs	r1, r5, r0
 8007c60:	0020      	movs	r0, r4
 8007c62:	f000 fc47 	bl	80084f4 <_sbrk_r>
 8007c66:	3001      	adds	r0, #1
 8007c68:	d1f2      	bne.n	8007c50 <sbrk_aligned+0x24>
 8007c6a:	e7ef      	b.n	8007c4c <sbrk_aligned+0x20>
 8007c6c:	2000174c 	.word	0x2000174c

08007c70 <_malloc_r>:
 8007c70:	b5f7      	push	{r0, r1, r2, r4, r5, r6, r7, lr}
 8007c72:	2203      	movs	r2, #3
 8007c74:	1ccb      	adds	r3, r1, #3
 8007c76:	4393      	bics	r3, r2
 8007c78:	3308      	adds	r3, #8
 8007c7a:	0005      	movs	r5, r0
 8007c7c:	001f      	movs	r7, r3
 8007c7e:	2b0c      	cmp	r3, #12
 8007c80:	d234      	bcs.n	8007cec <_malloc_r+0x7c>
 8007c82:	270c      	movs	r7, #12
 8007c84:	42b9      	cmp	r1, r7
 8007c86:	d833      	bhi.n	8007cf0 <_malloc_r+0x80>
 8007c88:	0028      	movs	r0, r5
 8007c8a:	f000 f871 	bl	8007d70 <__malloc_lock>
 8007c8e:	4e37      	ldr	r6, [pc, #220]	@ (8007d6c <_malloc_r+0xfc>)
 8007c90:	6833      	ldr	r3, [r6, #0]
 8007c92:	001c      	movs	r4, r3
 8007c94:	2c00      	cmp	r4, #0
 8007c96:	d12f      	bne.n	8007cf8 <_malloc_r+0x88>
 8007c98:	0039      	movs	r1, r7
 8007c9a:	0028      	movs	r0, r5
 8007c9c:	f7ff ffc6 	bl	8007c2c <sbrk_aligned>
 8007ca0:	0004      	movs	r4, r0
 8007ca2:	1c43      	adds	r3, r0, #1
 8007ca4:	d15f      	bne.n	8007d66 <_malloc_r+0xf6>
 8007ca6:	6834      	ldr	r4, [r6, #0]
 8007ca8:	9400      	str	r4, [sp, #0]
 8007caa:	9b00      	ldr	r3, [sp, #0]
 8007cac:	2b00      	cmp	r3, #0
 8007cae:	d14a      	bne.n	8007d46 <_malloc_r+0xd6>
 8007cb0:	2c00      	cmp	r4, #0
 8007cb2:	d052      	beq.n	8007d5a <_malloc_r+0xea>
 8007cb4:	6823      	ldr	r3, [r4, #0]
 8007cb6:	0028      	movs	r0, r5
 8007cb8:	18e3      	adds	r3, r4, r3
 8007cba:	9900      	ldr	r1, [sp, #0]
 8007cbc:	9301      	str	r3, [sp, #4]
 8007cbe:	f000 fc19 	bl	80084f4 <_sbrk_r>
 8007cc2:	9b01      	ldr	r3, [sp, #4]
 8007cc4:	4283      	cmp	r3, r0
 8007cc6:	d148      	bne.n	8007d5a <_malloc_r+0xea>
 8007cc8:	6823      	ldr	r3, [r4, #0]
 8007cca:	0028      	movs	r0, r5
 8007ccc:	1aff      	subs	r7, r7, r3
 8007cce:	0039      	movs	r1, r7
 8007cd0:	f7ff ffac 	bl	8007c2c <sbrk_aligned>
 8007cd4:	3001      	adds	r0, #1
 8007cd6:	d040      	beq.n	8007d5a <_malloc_r+0xea>
 8007cd8:	6823      	ldr	r3, [r4, #0]
 8007cda:	19db      	adds	r3, r3, r7
 8007cdc:	6023      	str	r3, [r4, #0]
 8007cde:	6833      	ldr	r3, [r6, #0]
 8007ce0:	685a      	ldr	r2, [r3, #4]
 8007ce2:	2a00      	cmp	r2, #0
 8007ce4:	d133      	bne.n	8007d4e <_malloc_r+0xde>
 8007ce6:	9b00      	ldr	r3, [sp, #0]
 8007ce8:	6033      	str	r3, [r6, #0]
 8007cea:	e019      	b.n	8007d20 <_malloc_r+0xb0>
 8007cec:	2b00      	cmp	r3, #0
 8007cee:	dac9      	bge.n	8007c84 <_malloc_r+0x14>
 8007cf0:	230c      	movs	r3, #12
 8007cf2:	602b      	str	r3, [r5, #0]
 8007cf4:	2000      	movs	r0, #0
 8007cf6:	bdfe      	pop	{r1, r2, r3, r4, r5, r6, r7, pc}
 8007cf8:	6821      	ldr	r1, [r4, #0]
 8007cfa:	1bc9      	subs	r1, r1, r7
 8007cfc:	d420      	bmi.n	8007d40 <_malloc_r+0xd0>
 8007cfe:	290b      	cmp	r1, #11
 8007d00:	d90a      	bls.n	8007d18 <_malloc_r+0xa8>
 8007d02:	19e2      	adds	r2, r4, r7
 8007d04:	6027      	str	r7, [r4, #0]
 8007d06:	42a3      	cmp	r3, r4
 8007d08:	d104      	bne.n	8007d14 <_malloc_r+0xa4>
 8007d0a:	6032      	str	r2, [r6, #0]
 8007d0c:	6863      	ldr	r3, [r4, #4]
 8007d0e:	6011      	str	r1, [r2, #0]
 8007d10:	6053      	str	r3, [r2, #4]
 8007d12:	e005      	b.n	8007d20 <_malloc_r+0xb0>
 8007d14:	605a      	str	r2, [r3, #4]
 8007d16:	e7f9      	b.n	8007d0c <_malloc_r+0x9c>
 8007d18:	6862      	ldr	r2, [r4, #4]
 8007d1a:	42a3      	cmp	r3, r4
 8007d1c:	d10e      	bne.n	8007d3c <_malloc_r+0xcc>
 8007d1e:	6032      	str	r2, [r6, #0]
 8007d20:	0028      	movs	r0, r5
 8007d22:	f000 f82d 	bl	8007d80 <__malloc_unlock>
 8007d26:	0020      	movs	r0, r4
 8007d28:	2207      	movs	r2, #7
 8007d2a:	300b      	adds	r0, #11
 8007d2c:	1d23      	adds	r3, r4, #4
 8007d2e:	4390      	bics	r0, r2
 8007d30:	1ac2      	subs	r2, r0, r3
 8007d32:	4298      	cmp	r0, r3
 8007d34:	d0df      	beq.n	8007cf6 <_malloc_r+0x86>
 8007d36:	1a1b      	subs	r3, r3, r0
 8007d38:	50a3      	str	r3, [r4, r2]
 8007d3a:	e7dc      	b.n	8007cf6 <_malloc_r+0x86>
 8007d3c:	605a      	str	r2, [r3, #4]
 8007d3e:	e7ef      	b.n	8007d20 <_malloc_r+0xb0>
 8007d40:	0023      	movs	r3, r4
 8007d42:	6864      	ldr	r4, [r4, #4]
 8007d44:	e7a6      	b.n	8007c94 <_malloc_r+0x24>
 8007d46:	9c00      	ldr	r4, [sp, #0]
 8007d48:	6863      	ldr	r3, [r4, #4]
 8007d4a:	9300      	str	r3, [sp, #0]
 8007d4c:	e7ad      	b.n	8007caa <_malloc_r+0x3a>
 8007d4e:	001a      	movs	r2, r3
 8007d50:	685b      	ldr	r3, [r3, #4]
 8007d52:	42a3      	cmp	r3, r4
 8007d54:	d1fb      	bne.n	8007d4e <_malloc_r+0xde>
 8007d56:	2300      	movs	r3, #0
 8007d58:	e7da      	b.n	8007d10 <_malloc_r+0xa0>
 8007d5a:	230c      	movs	r3, #12
 8007d5c:	0028      	movs	r0, r5
 8007d5e:	602b      	str	r3, [r5, #0]
 8007d60:	f000 f80e 	bl	8007d80 <__malloc_unlock>
 8007d64:	e7c6      	b.n	8007cf4 <_malloc_r+0x84>
 8007d66:	6007      	str	r7, [r0, #0]
 8007d68:	e7da      	b.n	8007d20 <_malloc_r+0xb0>
 8007d6a:	46c0      	nop			@ (mov r8, r8)
 8007d6c:	20001750 	.word	0x20001750

08007d70 <__malloc_lock>:
 8007d70:	b510      	push	{r4, lr}
 8007d72:	4802      	ldr	r0, [pc, #8]	@ (8007d7c <__malloc_lock+0xc>)
 8007d74:	f7ff fed5 	bl	8007b22 <__retarget_lock_acquire_recursive>
 8007d78:	bd10      	pop	{r4, pc}
 8007d7a:	46c0      	nop			@ (mov r8, r8)
 8007d7c:	20001748 	.word	0x20001748

08007d80 <__malloc_unlock>:
 8007d80:	b510      	push	{r4, lr}
 8007d82:	4802      	ldr	r0, [pc, #8]	@ (8007d8c <__malloc_unlock+0xc>)
 8007d84:	f7ff fece 	bl	8007b24 <__retarget_lock_release_recursive>
 8007d88:	bd10      	pop	{r4, pc}
 8007d8a:	46c0      	nop			@ (mov r8, r8)
 8007d8c:	20001748 	.word	0x20001748

08007d90 <__ssputs_r>:
 8007d90:	b5f0      	push	{r4, r5, r6, r7, lr}
 8007d92:	688e      	ldr	r6, [r1, #8]
 8007d94:	b085      	sub	sp, #20
 8007d96:	001f      	movs	r7, r3
 8007d98:	000c      	movs	r4, r1
 8007d9a:	680b      	ldr	r3, [r1, #0]
 8007d9c:	9002      	str	r0, [sp, #8]
 8007d9e:	9203      	str	r2, [sp, #12]
 8007da0:	42be      	cmp	r6, r7
 8007da2:	d830      	bhi.n	8007e06 <__ssputs_r+0x76>
 8007da4:	210c      	movs	r1, #12
 8007da6:	5e62      	ldrsh	r2, [r4, r1]
 8007da8:	2190      	movs	r1, #144	@ 0x90
 8007daa:	00c9      	lsls	r1, r1, #3
 8007dac:	420a      	tst	r2, r1
 8007dae:	d028      	beq.n	8007e02 <__ssputs_r+0x72>
 8007db0:	2003      	movs	r0, #3
 8007db2:	6921      	ldr	r1, [r4, #16]
 8007db4:	1a5b      	subs	r3, r3, r1
 8007db6:	9301      	str	r3, [sp, #4]
 8007db8:	6963      	ldr	r3, [r4, #20]
 8007dba:	4343      	muls	r3, r0
 8007dbc:	9801      	ldr	r0, [sp, #4]
 8007dbe:	0fdd      	lsrs	r5, r3, #31
 8007dc0:	18ed      	adds	r5, r5, r3
 8007dc2:	1c7b      	adds	r3, r7, #1
 8007dc4:	181b      	adds	r3, r3, r0
 8007dc6:	106d      	asrs	r5, r5, #1
 8007dc8:	42ab      	cmp	r3, r5
 8007dca:	d900      	bls.n	8007dce <__ssputs_r+0x3e>
 8007dcc:	001d      	movs	r5, r3
 8007dce:	0552      	lsls	r2, r2, #21
 8007dd0:	d528      	bpl.n	8007e24 <__ssputs_r+0x94>
 8007dd2:	0029      	movs	r1, r5
 8007dd4:	9802      	ldr	r0, [sp, #8]
 8007dd6:	f7ff ff4b 	bl	8007c70 <_malloc_r>
 8007dda:	1e06      	subs	r6, r0, #0
 8007ddc:	d02c      	beq.n	8007e38 <__ssputs_r+0xa8>
 8007dde:	9a01      	ldr	r2, [sp, #4]
 8007de0:	6921      	ldr	r1, [r4, #16]
 8007de2:	f7ff fea8 	bl	8007b36 <memcpy>
 8007de6:	89a2      	ldrh	r2, [r4, #12]
 8007de8:	4b18      	ldr	r3, [pc, #96]	@ (8007e4c <__ssputs_r+0xbc>)
 8007dea:	401a      	ands	r2, r3
 8007dec:	2380      	movs	r3, #128	@ 0x80
 8007dee:	4313      	orrs	r3, r2
 8007df0:	81a3      	strh	r3, [r4, #12]
 8007df2:	9b01      	ldr	r3, [sp, #4]
 8007df4:	6126      	str	r6, [r4, #16]
 8007df6:	18f6      	adds	r6, r6, r3
 8007df8:	6026      	str	r6, [r4, #0]
 8007dfa:	003e      	movs	r6, r7
 8007dfc:	6165      	str	r5, [r4, #20]
 8007dfe:	1aed      	subs	r5, r5, r3
 8007e00:	60a5      	str	r5, [r4, #8]
 8007e02:	42be      	cmp	r6, r7
 8007e04:	d900      	bls.n	8007e08 <__ssputs_r+0x78>
 8007e06:	003e      	movs	r6, r7
 8007e08:	0032      	movs	r2, r6
 8007e0a:	9903      	ldr	r1, [sp, #12]
 8007e0c:	6820      	ldr	r0, [r4, #0]
 8007e0e:	f000 fb5d 	bl	80084cc <memmove>
 8007e12:	2000      	movs	r0, #0
 8007e14:	68a3      	ldr	r3, [r4, #8]
 8007e16:	1b9b      	subs	r3, r3, r6
 8007e18:	60a3      	str	r3, [r4, #8]
 8007e1a:	6823      	ldr	r3, [r4, #0]
 8007e1c:	199b      	adds	r3, r3, r6
 8007e1e:	6023      	str	r3, [r4, #0]
 8007e20:	b005      	add	sp, #20
 8007e22:	bdf0      	pop	{r4, r5, r6, r7, pc}
 8007e24:	002a      	movs	r2, r5
 8007e26:	9802      	ldr	r0, [sp, #8]
 8007e28:	f000 fb88 	bl	800853c <_realloc_r>
 8007e2c:	1e06      	subs	r6, r0, #0
 8007e2e:	d1e0      	bne.n	8007df2 <__ssputs_r+0x62>
 8007e30:	6921      	ldr	r1, [r4, #16]
 8007e32:	9802      	ldr	r0, [sp, #8]
 8007e34:	f7ff fea6 	bl	8007b84 <_free_r>
 8007e38:	230c      	movs	r3, #12
 8007e3a:	2001      	movs	r0, #1
 8007e3c:	9a02      	ldr	r2, [sp, #8]
 8007e3e:	4240      	negs	r0, r0
 8007e40:	6013      	str	r3, [r2, #0]
 8007e42:	89a2      	ldrh	r2, [r4, #12]
 8007e44:	3334      	adds	r3, #52	@ 0x34
 8007e46:	4313      	orrs	r3, r2
 8007e48:	81a3      	strh	r3, [r4, #12]
 8007e4a:	e7e9      	b.n	8007e20 <__ssputs_r+0x90>
 8007e4c:	fffffb7f 	.word	0xfffffb7f

08007e50 <_svfiprintf_r>:
 8007e50:	b5f0      	push	{r4, r5, r6, r7, lr}
 8007e52:	b0a1      	sub	sp, #132	@ 0x84
 8007e54:	9003      	str	r0, [sp, #12]
 8007e56:	001d      	movs	r5, r3
 8007e58:	898b      	ldrh	r3, [r1, #12]
 8007e5a:	000f      	movs	r7, r1
 8007e5c:	0016      	movs	r6, r2
 8007e5e:	061b      	lsls	r3, r3, #24
 8007e60:	d511      	bpl.n	8007e86 <_svfiprintf_r+0x36>
 8007e62:	690b      	ldr	r3, [r1, #16]
 8007e64:	2b00      	cmp	r3, #0
 8007e66:	d10e      	bne.n	8007e86 <_svfiprintf_r+0x36>
 8007e68:	2140      	movs	r1, #64	@ 0x40
 8007e6a:	f7ff ff01 	bl	8007c70 <_malloc_r>
 8007e6e:	6038      	str	r0, [r7, #0]
 8007e70:	6138      	str	r0, [r7, #16]
 8007e72:	2800      	cmp	r0, #0
 8007e74:	d105      	bne.n	8007e82 <_svfiprintf_r+0x32>
 8007e76:	230c      	movs	r3, #12
 8007e78:	9a03      	ldr	r2, [sp, #12]
 8007e7a:	6013      	str	r3, [r2, #0]
 8007e7c:	2001      	movs	r0, #1
 8007e7e:	4240      	negs	r0, r0
 8007e80:	e0cf      	b.n	8008022 <_svfiprintf_r+0x1d2>
 8007e82:	2340      	movs	r3, #64	@ 0x40
 8007e84:	617b      	str	r3, [r7, #20]
 8007e86:	2300      	movs	r3, #0
 8007e88:	ac08      	add	r4, sp, #32
 8007e8a:	6163      	str	r3, [r4, #20]
 8007e8c:	3320      	adds	r3, #32
 8007e8e:	7663      	strb	r3, [r4, #25]
 8007e90:	3310      	adds	r3, #16
 8007e92:	76a3      	strb	r3, [r4, #26]
 8007e94:	9507      	str	r5, [sp, #28]
 8007e96:	0035      	movs	r5, r6
 8007e98:	782b      	ldrb	r3, [r5, #0]
 8007e9a:	2b00      	cmp	r3, #0
 8007e9c:	d001      	beq.n	8007ea2 <_svfiprintf_r+0x52>
 8007e9e:	2b25      	cmp	r3, #37	@ 0x25
 8007ea0:	d148      	bne.n	8007f34 <_svfiprintf_r+0xe4>
 8007ea2:	1bab      	subs	r3, r5, r6
 8007ea4:	9305      	str	r3, [sp, #20]
 8007ea6:	42b5      	cmp	r5, r6
 8007ea8:	d00b      	beq.n	8007ec2 <_svfiprintf_r+0x72>
 8007eaa:	0032      	movs	r2, r6
 8007eac:	0039      	movs	r1, r7
 8007eae:	9803      	ldr	r0, [sp, #12]
 8007eb0:	f7ff ff6e 	bl	8007d90 <__ssputs_r>
 8007eb4:	3001      	adds	r0, #1
 8007eb6:	d100      	bne.n	8007eba <_svfiprintf_r+0x6a>
 8007eb8:	e0ae      	b.n	8008018 <_svfiprintf_r+0x1c8>
 8007eba:	6963      	ldr	r3, [r4, #20]
 8007ebc:	9a05      	ldr	r2, [sp, #20]
 8007ebe:	189b      	adds	r3, r3, r2
 8007ec0:	6163      	str	r3, [r4, #20]
 8007ec2:	782b      	ldrb	r3, [r5, #0]
 8007ec4:	2b00      	cmp	r3, #0
 8007ec6:	d100      	bne.n	8007eca <_svfiprintf_r+0x7a>
 8007ec8:	e0a6      	b.n	8008018 <_svfiprintf_r+0x1c8>
 8007eca:	2201      	movs	r2, #1
 8007ecc:	2300      	movs	r3, #0
 8007ece:	4252      	negs	r2, r2
 8007ed0:	6062      	str	r2, [r4, #4]
 8007ed2:	a904      	add	r1, sp, #16
 8007ed4:	3254      	adds	r2, #84	@ 0x54
 8007ed6:	1852      	adds	r2, r2, r1
 8007ed8:	1c6e      	adds	r6, r5, #1
 8007eda:	6023      	str	r3, [r4, #0]
 8007edc:	60e3      	str	r3, [r4, #12]
 8007ede:	60a3      	str	r3, [r4, #8]
 8007ee0:	7013      	strb	r3, [r2, #0]
 8007ee2:	65a3      	str	r3, [r4, #88]	@ 0x58
 8007ee4:	4b54      	ldr	r3, [pc, #336]	@ (8008038 <_svfiprintf_r+0x1e8>)
 8007ee6:	2205      	movs	r2, #5
 8007ee8:	0018      	movs	r0, r3
 8007eea:	7831      	ldrb	r1, [r6, #0]
 8007eec:	9305      	str	r3, [sp, #20]
 8007eee:	f000 fb13 	bl	8008518 <memchr>
 8007ef2:	1c75      	adds	r5, r6, #1
 8007ef4:	2800      	cmp	r0, #0
 8007ef6:	d11f      	bne.n	8007f38 <_svfiprintf_r+0xe8>
 8007ef8:	6822      	ldr	r2, [r4, #0]
 8007efa:	06d3      	lsls	r3, r2, #27
 8007efc:	d504      	bpl.n	8007f08 <_svfiprintf_r+0xb8>
 8007efe:	2353      	movs	r3, #83	@ 0x53
 8007f00:	a904      	add	r1, sp, #16
 8007f02:	185b      	adds	r3, r3, r1
 8007f04:	2120      	movs	r1, #32
 8007f06:	7019      	strb	r1, [r3, #0]
 8007f08:	0713      	lsls	r3, r2, #28
 8007f0a:	d504      	bpl.n	8007f16 <_svfiprintf_r+0xc6>
 8007f0c:	2353      	movs	r3, #83	@ 0x53
 8007f0e:	a904      	add	r1, sp, #16
 8007f10:	185b      	adds	r3, r3, r1
 8007f12:	212b      	movs	r1, #43	@ 0x2b
 8007f14:	7019      	strb	r1, [r3, #0]
 8007f16:	7833      	ldrb	r3, [r6, #0]
 8007f18:	2b2a      	cmp	r3, #42	@ 0x2a
 8007f1a:	d016      	beq.n	8007f4a <_svfiprintf_r+0xfa>
 8007f1c:	0035      	movs	r5, r6
 8007f1e:	2100      	movs	r1, #0
 8007f20:	200a      	movs	r0, #10
 8007f22:	68e3      	ldr	r3, [r4, #12]
 8007f24:	782a      	ldrb	r2, [r5, #0]
 8007f26:	1c6e      	adds	r6, r5, #1
 8007f28:	3a30      	subs	r2, #48	@ 0x30
 8007f2a:	2a09      	cmp	r2, #9
 8007f2c:	d950      	bls.n	8007fd0 <_svfiprintf_r+0x180>
 8007f2e:	2900      	cmp	r1, #0
 8007f30:	d111      	bne.n	8007f56 <_svfiprintf_r+0x106>
 8007f32:	e017      	b.n	8007f64 <_svfiprintf_r+0x114>
 8007f34:	3501      	adds	r5, #1
 8007f36:	e7af      	b.n	8007e98 <_svfiprintf_r+0x48>
 8007f38:	9b05      	ldr	r3, [sp, #20]
 8007f3a:	6822      	ldr	r2, [r4, #0]
 8007f3c:	1ac0      	subs	r0, r0, r3
 8007f3e:	2301      	movs	r3, #1
 8007f40:	4083      	lsls	r3, r0
 8007f42:	4313      	orrs	r3, r2
 8007f44:	002e      	movs	r6, r5
 8007f46:	6023      	str	r3, [r4, #0]
 8007f48:	e7cc      	b.n	8007ee4 <_svfiprintf_r+0x94>
 8007f4a:	9b07      	ldr	r3, [sp, #28]
 8007f4c:	1d19      	adds	r1, r3, #4
 8007f4e:	681b      	ldr	r3, [r3, #0]
 8007f50:	9107      	str	r1, [sp, #28]
 8007f52:	2b00      	cmp	r3, #0
 8007f54:	db01      	blt.n	8007f5a <_svfiprintf_r+0x10a>
 8007f56:	930b      	str	r3, [sp, #44]	@ 0x2c
 8007f58:	e004      	b.n	8007f64 <_svfiprintf_r+0x114>
 8007f5a:	425b      	negs	r3, r3
 8007f5c:	60e3      	str	r3, [r4, #12]
 8007f5e:	2302      	movs	r3, #2
 8007f60:	4313      	orrs	r3, r2
 8007f62:	6023      	str	r3, [r4, #0]
 8007f64:	782b      	ldrb	r3, [r5, #0]
 8007f66:	2b2e      	cmp	r3, #46	@ 0x2e
 8007f68:	d10c      	bne.n	8007f84 <_svfiprintf_r+0x134>
 8007f6a:	786b      	ldrb	r3, [r5, #1]
 8007f6c:	2b2a      	cmp	r3, #42	@ 0x2a
 8007f6e:	d134      	bne.n	8007fda <_svfiprintf_r+0x18a>
 8007f70:	9b07      	ldr	r3, [sp, #28]
 8007f72:	3502      	adds	r5, #2
 8007f74:	1d1a      	adds	r2, r3, #4
 8007f76:	681b      	ldr	r3, [r3, #0]
 8007f78:	9207      	str	r2, [sp, #28]
 8007f7a:	2b00      	cmp	r3, #0
 8007f7c:	da01      	bge.n	8007f82 <_svfiprintf_r+0x132>
 8007f7e:	2301      	movs	r3, #1
 8007f80:	425b      	negs	r3, r3
 8007f82:	9309      	str	r3, [sp, #36]	@ 0x24
 8007f84:	4e2d      	ldr	r6, [pc, #180]	@ (800803c <_svfiprintf_r+0x1ec>)
 8007f86:	2203      	movs	r2, #3
 8007f88:	0030      	movs	r0, r6
 8007f8a:	7829      	ldrb	r1, [r5, #0]
 8007f8c:	f000 fac4 	bl	8008518 <memchr>
 8007f90:	2800      	cmp	r0, #0
 8007f92:	d006      	beq.n	8007fa2 <_svfiprintf_r+0x152>
 8007f94:	2340      	movs	r3, #64	@ 0x40
 8007f96:	1b80      	subs	r0, r0, r6
 8007f98:	4083      	lsls	r3, r0
 8007f9a:	6822      	ldr	r2, [r4, #0]
 8007f9c:	3501      	adds	r5, #1
 8007f9e:	4313      	orrs	r3, r2
 8007fa0:	6023      	str	r3, [r4, #0]
 8007fa2:	7829      	ldrb	r1, [r5, #0]
 8007fa4:	2206      	movs	r2, #6
 8007fa6:	4826      	ldr	r0, [pc, #152]	@ (8008040 <_svfiprintf_r+0x1f0>)
 8007fa8:	1c6e      	adds	r6, r5, #1
 8007faa:	7621      	strb	r1, [r4, #24]
 8007fac:	f000 fab4 	bl	8008518 <memchr>
 8007fb0:	2800      	cmp	r0, #0
 8007fb2:	d038      	beq.n	8008026 <_svfiprintf_r+0x1d6>
 8007fb4:	4b23      	ldr	r3, [pc, #140]	@ (8008044 <_svfiprintf_r+0x1f4>)
 8007fb6:	2b00      	cmp	r3, #0
 8007fb8:	d122      	bne.n	8008000 <_svfiprintf_r+0x1b0>
 8007fba:	2207      	movs	r2, #7
 8007fbc:	9b07      	ldr	r3, [sp, #28]
 8007fbe:	3307      	adds	r3, #7
 8007fc0:	4393      	bics	r3, r2
 8007fc2:	3308      	adds	r3, #8
 8007fc4:	9307      	str	r3, [sp, #28]
 8007fc6:	6963      	ldr	r3, [r4, #20]
 8007fc8:	9a04      	ldr	r2, [sp, #16]
 8007fca:	189b      	adds	r3, r3, r2
 8007fcc:	6163      	str	r3, [r4, #20]
 8007fce:	e762      	b.n	8007e96 <_svfiprintf_r+0x46>
 8007fd0:	4343      	muls	r3, r0
 8007fd2:	0035      	movs	r5, r6
 8007fd4:	2101      	movs	r1, #1
 8007fd6:	189b      	adds	r3, r3, r2
 8007fd8:	e7a4      	b.n	8007f24 <_svfiprintf_r+0xd4>
 8007fda:	2300      	movs	r3, #0
 8007fdc:	200a      	movs	r0, #10
 8007fde:	0019      	movs	r1, r3
 8007fe0:	3501      	adds	r5, #1
 8007fe2:	6063      	str	r3, [r4, #4]
 8007fe4:	782a      	ldrb	r2, [r5, #0]
 8007fe6:	1c6e      	adds	r6, r5, #1
 8007fe8:	3a30      	subs	r2, #48	@ 0x30
 8007fea:	2a09      	cmp	r2, #9
 8007fec:	d903      	bls.n	8007ff6 <_svfiprintf_r+0x1a6>
 8007fee:	2b00      	cmp	r3, #0
 8007ff0:	d0c8      	beq.n	8007f84 <_svfiprintf_r+0x134>
 8007ff2:	9109      	str	r1, [sp, #36]	@ 0x24
 8007ff4:	e7c6      	b.n	8007f84 <_svfiprintf_r+0x134>
 8007ff6:	4341      	muls	r1, r0
 8007ff8:	0035      	movs	r5, r6
 8007ffa:	2301      	movs	r3, #1
 8007ffc:	1889      	adds	r1, r1, r2
 8007ffe:	e7f1      	b.n	8007fe4 <_svfiprintf_r+0x194>
 8008000:	aa07      	add	r2, sp, #28
 8008002:	9200      	str	r2, [sp, #0]
 8008004:	0021      	movs	r1, r4
 8008006:	003a      	movs	r2, r7
 8008008:	4b0f      	ldr	r3, [pc, #60]	@ (8008048 <_svfiprintf_r+0x1f8>)
 800800a:	9803      	ldr	r0, [sp, #12]
 800800c:	e000      	b.n	8008010 <_svfiprintf_r+0x1c0>
 800800e:	bf00      	nop
 8008010:	9004      	str	r0, [sp, #16]
 8008012:	9b04      	ldr	r3, [sp, #16]
 8008014:	3301      	adds	r3, #1
 8008016:	d1d6      	bne.n	8007fc6 <_svfiprintf_r+0x176>
 8008018:	89bb      	ldrh	r3, [r7, #12]
 800801a:	980d      	ldr	r0, [sp, #52]	@ 0x34
 800801c:	065b      	lsls	r3, r3, #25
 800801e:	d500      	bpl.n	8008022 <_svfiprintf_r+0x1d2>
 8008020:	e72c      	b.n	8007e7c <_svfiprintf_r+0x2c>
 8008022:	b021      	add	sp, #132	@ 0x84
 8008024:	bdf0      	pop	{r4, r5, r6, r7, pc}
 8008026:	aa07      	add	r2, sp, #28
 8008028:	9200      	str	r2, [sp, #0]
 800802a:	0021      	movs	r1, r4
 800802c:	003a      	movs	r2, r7
 800802e:	4b06      	ldr	r3, [pc, #24]	@ (8008048 <_svfiprintf_r+0x1f8>)
 8008030:	9803      	ldr	r0, [sp, #12]
 8008032:	f000 f87b 	bl	800812c <_printf_i>
 8008036:	e7eb      	b.n	8008010 <_svfiprintf_r+0x1c0>
 8008038:	08008fac 	.word	0x08008fac
 800803c:	08008fb2 	.word	0x08008fb2
 8008040:	08008fb6 	.word	0x08008fb6
 8008044:	00000000 	.word	0x00000000
 8008048:	08007d91 	.word	0x08007d91

0800804c <_printf_common>:
 800804c:	b5f7      	push	{r0, r1, r2, r4, r5, r6, r7, lr}
 800804e:	0016      	movs	r6, r2
 8008050:	9301      	str	r3, [sp, #4]
 8008052:	688a      	ldr	r2, [r1, #8]
 8008054:	690b      	ldr	r3, [r1, #16]
 8008056:	000c      	movs	r4, r1
 8008058:	9000      	str	r0, [sp, #0]
 800805a:	4293      	cmp	r3, r2
 800805c:	da00      	bge.n	8008060 <_printf_common+0x14>
 800805e:	0013      	movs	r3, r2
 8008060:	0022      	movs	r2, r4
 8008062:	6033      	str	r3, [r6, #0]
 8008064:	3243      	adds	r2, #67	@ 0x43
 8008066:	7812      	ldrb	r2, [r2, #0]
 8008068:	2a00      	cmp	r2, #0
 800806a:	d001      	beq.n	8008070 <_printf_common+0x24>
 800806c:	3301      	adds	r3, #1
 800806e:	6033      	str	r3, [r6, #0]
 8008070:	6823      	ldr	r3, [r4, #0]
 8008072:	069b      	lsls	r3, r3, #26
 8008074:	d502      	bpl.n	800807c <_printf_common+0x30>
 8008076:	6833      	ldr	r3, [r6, #0]
 8008078:	3302      	adds	r3, #2
 800807a:	6033      	str	r3, [r6, #0]
 800807c:	6822      	ldr	r2, [r4, #0]
 800807e:	2306      	movs	r3, #6
 8008080:	0015      	movs	r5, r2
 8008082:	401d      	ands	r5, r3
 8008084:	421a      	tst	r2, r3
 8008086:	d027      	beq.n	80080d8 <_printf_common+0x8c>
 8008088:	0023      	movs	r3, r4
 800808a:	3343      	adds	r3, #67	@ 0x43
 800808c:	781b      	ldrb	r3, [r3, #0]
 800808e:	1e5a      	subs	r2, r3, #1
 8008090:	4193      	sbcs	r3, r2
 8008092:	6822      	ldr	r2, [r4, #0]
 8008094:	0692      	lsls	r2, r2, #26
 8008096:	d430      	bmi.n	80080fa <_printf_common+0xae>
 8008098:	0022      	movs	r2, r4
 800809a:	9901      	ldr	r1, [sp, #4]
 800809c:	9800      	ldr	r0, [sp, #0]
 800809e:	9d08      	ldr	r5, [sp, #32]
 80080a0:	3243      	adds	r2, #67	@ 0x43
 80080a2:	47a8      	blx	r5
 80080a4:	3001      	adds	r0, #1
 80080a6:	d025      	beq.n	80080f4 <_printf_common+0xa8>
 80080a8:	2206      	movs	r2, #6
 80080aa:	6823      	ldr	r3, [r4, #0]
 80080ac:	2500      	movs	r5, #0
 80080ae:	4013      	ands	r3, r2
 80080b0:	2b04      	cmp	r3, #4
 80080b2:	d105      	bne.n	80080c0 <_printf_common+0x74>
 80080b4:	6833      	ldr	r3, [r6, #0]
 80080b6:	68e5      	ldr	r5, [r4, #12]
 80080b8:	1aed      	subs	r5, r5, r3
 80080ba:	43eb      	mvns	r3, r5
 80080bc:	17db      	asrs	r3, r3, #31
 80080be:	401d      	ands	r5, r3
 80080c0:	68a3      	ldr	r3, [r4, #8]
 80080c2:	6922      	ldr	r2, [r4, #16]
 80080c4:	4293      	cmp	r3, r2
 80080c6:	dd01      	ble.n	80080cc <_printf_common+0x80>
 80080c8:	1a9b      	subs	r3, r3, r2
 80080ca:	18ed      	adds	r5, r5, r3
 80080cc:	2600      	movs	r6, #0
 80080ce:	42b5      	cmp	r5, r6
 80080d0:	d120      	bne.n	8008114 <_printf_common+0xc8>
 80080d2:	2000      	movs	r0, #0
 80080d4:	e010      	b.n	80080f8 <_printf_common+0xac>
 80080d6:	3501      	adds	r5, #1
 80080d8:	68e3      	ldr	r3, [r4, #12]
 80080da:	6832      	ldr	r2, [r6, #0]
 80080dc:	1a9b      	subs	r3, r3, r2
 80080de:	42ab      	cmp	r3, r5
 80080e0:	ddd2      	ble.n	8008088 <_printf_common+0x3c>
 80080e2:	0022      	movs	r2, r4
 80080e4:	2301      	movs	r3, #1
 80080e6:	9901      	ldr	r1, [sp, #4]
 80080e8:	9800      	ldr	r0, [sp, #0]
 80080ea:	9f08      	ldr	r7, [sp, #32]
 80080ec:	3219      	adds	r2, #25
 80080ee:	47b8      	blx	r7
 80080f0:	3001      	adds	r0, #1
 80080f2:	d1f0      	bne.n	80080d6 <_printf_common+0x8a>
 80080f4:	2001      	movs	r0, #1
 80080f6:	4240      	negs	r0, r0
 80080f8:	bdfe      	pop	{r1, r2, r3, r4, r5, r6, r7, pc}
 80080fa:	2030      	movs	r0, #48	@ 0x30
 80080fc:	18e1      	adds	r1, r4, r3
 80080fe:	3143      	adds	r1, #67	@ 0x43
 8008100:	7008      	strb	r0, [r1, #0]
 8008102:	0021      	movs	r1, r4
 8008104:	1c5a      	adds	r2, r3, #1
 8008106:	3145      	adds	r1, #69	@ 0x45
 8008108:	7809      	ldrb	r1, [r1, #0]
 800810a:	18a2      	adds	r2, r4, r2
 800810c:	3243      	adds	r2, #67	@ 0x43
 800810e:	3302      	adds	r3, #2
 8008110:	7011      	strb	r1, [r2, #0]
 8008112:	e7c1      	b.n	8008098 <_printf_common+0x4c>
 8008114:	0022      	movs	r2, r4
 8008116:	2301      	movs	r3, #1
 8008118:	9901      	ldr	r1, [sp, #4]
 800811a:	9800      	ldr	r0, [sp, #0]
 800811c:	9f08      	ldr	r7, [sp, #32]
 800811e:	321a      	adds	r2, #26
 8008120:	47b8      	blx	r7
 8008122:	3001      	adds	r0, #1
 8008124:	d0e6      	beq.n	80080f4 <_printf_common+0xa8>
 8008126:	3601      	adds	r6, #1
 8008128:	e7d1      	b.n	80080ce <_printf_common+0x82>
	...

0800812c <_printf_i>:
 800812c:	b5f0      	push	{r4, r5, r6, r7, lr}
 800812e:	b08b      	sub	sp, #44	@ 0x2c
 8008130:	9206      	str	r2, [sp, #24]
 8008132:	000a      	movs	r2, r1
 8008134:	3243      	adds	r2, #67	@ 0x43
 8008136:	9307      	str	r3, [sp, #28]
 8008138:	9005      	str	r0, [sp, #20]
 800813a:	9203      	str	r2, [sp, #12]
 800813c:	7e0a      	ldrb	r2, [r1, #24]
 800813e:	000c      	movs	r4, r1
 8008140:	9b10      	ldr	r3, [sp, #64]	@ 0x40
 8008142:	2a78      	cmp	r2, #120	@ 0x78
 8008144:	d809      	bhi.n	800815a <_printf_i+0x2e>
 8008146:	2a62      	cmp	r2, #98	@ 0x62
 8008148:	d80b      	bhi.n	8008162 <_printf_i+0x36>
 800814a:	2a00      	cmp	r2, #0
 800814c:	d100      	bne.n	8008150 <_printf_i+0x24>
 800814e:	e0bc      	b.n	80082ca <_printf_i+0x19e>
 8008150:	497b      	ldr	r1, [pc, #492]	@ (8008340 <_printf_i+0x214>)
 8008152:	9104      	str	r1, [sp, #16]
 8008154:	2a58      	cmp	r2, #88	@ 0x58
 8008156:	d100      	bne.n	800815a <_printf_i+0x2e>
 8008158:	e090      	b.n	800827c <_printf_i+0x150>
 800815a:	0025      	movs	r5, r4
 800815c:	3542      	adds	r5, #66	@ 0x42
 800815e:	702a      	strb	r2, [r5, #0]
 8008160:	e022      	b.n	80081a8 <_printf_i+0x7c>
 8008162:	0010      	movs	r0, r2
 8008164:	3863      	subs	r0, #99	@ 0x63
 8008166:	2815      	cmp	r0, #21
 8008168:	d8f7      	bhi.n	800815a <_printf_i+0x2e>
 800816a:	f7f7 ffd5 	bl	8000118 <__gnu_thumb1_case_shi>
 800816e:	0016      	.short	0x0016
 8008170:	fff6001f 	.word	0xfff6001f
 8008174:	fff6fff6 	.word	0xfff6fff6
 8008178:	001ffff6 	.word	0x001ffff6
 800817c:	fff6fff6 	.word	0xfff6fff6
 8008180:	fff6fff6 	.word	0xfff6fff6
 8008184:	003600a1 	.word	0x003600a1
 8008188:	fff60080 	.word	0xfff60080
 800818c:	00b2fff6 	.word	0x00b2fff6
 8008190:	0036fff6 	.word	0x0036fff6
 8008194:	fff6fff6 	.word	0xfff6fff6
 8008198:	0084      	.short	0x0084
 800819a:	0025      	movs	r5, r4
 800819c:	681a      	ldr	r2, [r3, #0]
 800819e:	3542      	adds	r5, #66	@ 0x42
 80081a0:	1d11      	adds	r1, r2, #4
 80081a2:	6019      	str	r1, [r3, #0]
 80081a4:	6813      	ldr	r3, [r2, #0]
 80081a6:	702b      	strb	r3, [r5, #0]
 80081a8:	2301      	movs	r3, #1
 80081aa:	e0a0      	b.n	80082ee <_printf_i+0x1c2>
 80081ac:	6818      	ldr	r0, [r3, #0]
 80081ae:	6809      	ldr	r1, [r1, #0]
 80081b0:	1d02      	adds	r2, r0, #4
 80081b2:	060d      	lsls	r5, r1, #24
 80081b4:	d50b      	bpl.n	80081ce <_printf_i+0xa2>
 80081b6:	6806      	ldr	r6, [r0, #0]
 80081b8:	601a      	str	r2, [r3, #0]
 80081ba:	2e00      	cmp	r6, #0
 80081bc:	da03      	bge.n	80081c6 <_printf_i+0x9a>
 80081be:	232d      	movs	r3, #45	@ 0x2d
 80081c0:	9a03      	ldr	r2, [sp, #12]
 80081c2:	4276      	negs	r6, r6
 80081c4:	7013      	strb	r3, [r2, #0]
 80081c6:	4b5e      	ldr	r3, [pc, #376]	@ (8008340 <_printf_i+0x214>)
 80081c8:	270a      	movs	r7, #10
 80081ca:	9304      	str	r3, [sp, #16]
 80081cc:	e018      	b.n	8008200 <_printf_i+0xd4>
 80081ce:	6806      	ldr	r6, [r0, #0]
 80081d0:	601a      	str	r2, [r3, #0]
 80081d2:	0649      	lsls	r1, r1, #25
 80081d4:	d5f1      	bpl.n	80081ba <_printf_i+0x8e>
 80081d6:	b236      	sxth	r6, r6
 80081d8:	e7ef      	b.n	80081ba <_printf_i+0x8e>
 80081da:	6808      	ldr	r0, [r1, #0]
 80081dc:	6819      	ldr	r1, [r3, #0]
 80081de:	c940      	ldmia	r1!, {r6}
 80081e0:	0605      	lsls	r5, r0, #24
 80081e2:	d402      	bmi.n	80081ea <_printf_i+0xbe>
 80081e4:	0640      	lsls	r0, r0, #25
 80081e6:	d500      	bpl.n	80081ea <_printf_i+0xbe>
 80081e8:	b2b6      	uxth	r6, r6
 80081ea:	6019      	str	r1, [r3, #0]
 80081ec:	4b54      	ldr	r3, [pc, #336]	@ (8008340 <_printf_i+0x214>)
 80081ee:	270a      	movs	r7, #10
 80081f0:	9304      	str	r3, [sp, #16]
 80081f2:	2a6f      	cmp	r2, #111	@ 0x6f
 80081f4:	d100      	bne.n	80081f8 <_printf_i+0xcc>
 80081f6:	3f02      	subs	r7, #2
 80081f8:	0023      	movs	r3, r4
 80081fa:	2200      	movs	r2, #0
 80081fc:	3343      	adds	r3, #67	@ 0x43
 80081fe:	701a      	strb	r2, [r3, #0]
 8008200:	6863      	ldr	r3, [r4, #4]
 8008202:	60a3      	str	r3, [r4, #8]
 8008204:	2b00      	cmp	r3, #0
 8008206:	db03      	blt.n	8008210 <_printf_i+0xe4>
 8008208:	2104      	movs	r1, #4
 800820a:	6822      	ldr	r2, [r4, #0]
 800820c:	438a      	bics	r2, r1
 800820e:	6022      	str	r2, [r4, #0]
 8008210:	2e00      	cmp	r6, #0
 8008212:	d102      	bne.n	800821a <_printf_i+0xee>
 8008214:	9d03      	ldr	r5, [sp, #12]
 8008216:	2b00      	cmp	r3, #0
 8008218:	d00c      	beq.n	8008234 <_printf_i+0x108>
 800821a:	9d03      	ldr	r5, [sp, #12]
 800821c:	0030      	movs	r0, r6
 800821e:	0039      	movs	r1, r7
 8008220:	f7f8 f80a 	bl	8000238 <__aeabi_uidivmod>
 8008224:	9b04      	ldr	r3, [sp, #16]
 8008226:	3d01      	subs	r5, #1
 8008228:	5c5b      	ldrb	r3, [r3, r1]
 800822a:	702b      	strb	r3, [r5, #0]
 800822c:	0033      	movs	r3, r6
 800822e:	0006      	movs	r6, r0
 8008230:	429f      	cmp	r7, r3
 8008232:	d9f3      	bls.n	800821c <_printf_i+0xf0>
 8008234:	2f08      	cmp	r7, #8
 8008236:	d109      	bne.n	800824c <_printf_i+0x120>
 8008238:	6823      	ldr	r3, [r4, #0]
 800823a:	07db      	lsls	r3, r3, #31
 800823c:	d506      	bpl.n	800824c <_printf_i+0x120>
 800823e:	6862      	ldr	r2, [r4, #4]
 8008240:	6923      	ldr	r3, [r4, #16]
 8008242:	429a      	cmp	r2, r3
 8008244:	dc02      	bgt.n	800824c <_printf_i+0x120>
 8008246:	2330      	movs	r3, #48	@ 0x30
 8008248:	3d01      	subs	r5, #1
 800824a:	702b      	strb	r3, [r5, #0]
 800824c:	9b03      	ldr	r3, [sp, #12]
 800824e:	1b5b      	subs	r3, r3, r5
 8008250:	6123      	str	r3, [r4, #16]
 8008252:	9b07      	ldr	r3, [sp, #28]
 8008254:	0021      	movs	r1, r4
 8008256:	9300      	str	r3, [sp, #0]
 8008258:	9805      	ldr	r0, [sp, #20]
 800825a:	9b06      	ldr	r3, [sp, #24]
 800825c:	aa09      	add	r2, sp, #36	@ 0x24
 800825e:	f7ff fef5 	bl	800804c <_printf_common>
 8008262:	3001      	adds	r0, #1
 8008264:	d148      	bne.n	80082f8 <_printf_i+0x1cc>
 8008266:	2001      	movs	r0, #1
 8008268:	4240      	negs	r0, r0
 800826a:	b00b      	add	sp, #44	@ 0x2c
 800826c:	bdf0      	pop	{r4, r5, r6, r7, pc}
 800826e:	2220      	movs	r2, #32
 8008270:	6809      	ldr	r1, [r1, #0]
 8008272:	430a      	orrs	r2, r1
 8008274:	6022      	str	r2, [r4, #0]
 8008276:	2278      	movs	r2, #120	@ 0x78
 8008278:	4932      	ldr	r1, [pc, #200]	@ (8008344 <_printf_i+0x218>)
 800827a:	9104      	str	r1, [sp, #16]
 800827c:	0021      	movs	r1, r4
 800827e:	3145      	adds	r1, #69	@ 0x45
 8008280:	700a      	strb	r2, [r1, #0]
 8008282:	6819      	ldr	r1, [r3, #0]
 8008284:	6822      	ldr	r2, [r4, #0]
 8008286:	c940      	ldmia	r1!, {r6}
 8008288:	0610      	lsls	r0, r2, #24
 800828a:	d402      	bmi.n	8008292 <_printf_i+0x166>
 800828c:	0650      	lsls	r0, r2, #25
 800828e:	d500      	bpl.n	8008292 <_printf_i+0x166>
 8008290:	b2b6      	uxth	r6, r6
 8008292:	6019      	str	r1, [r3, #0]
 8008294:	07d3      	lsls	r3, r2, #31
 8008296:	d502      	bpl.n	800829e <_printf_i+0x172>
 8008298:	2320      	movs	r3, #32
 800829a:	4313      	orrs	r3, r2
 800829c:	6023      	str	r3, [r4, #0]
 800829e:	2e00      	cmp	r6, #0
 80082a0:	d001      	beq.n	80082a6 <_printf_i+0x17a>
 80082a2:	2710      	movs	r7, #16
 80082a4:	e7a8      	b.n	80081f8 <_printf_i+0xcc>
 80082a6:	2220      	movs	r2, #32
 80082a8:	6823      	ldr	r3, [r4, #0]
 80082aa:	4393      	bics	r3, r2
 80082ac:	6023      	str	r3, [r4, #0]
 80082ae:	e7f8      	b.n	80082a2 <_printf_i+0x176>
 80082b0:	681a      	ldr	r2, [r3, #0]
 80082b2:	680d      	ldr	r5, [r1, #0]
 80082b4:	1d10      	adds	r0, r2, #4
 80082b6:	6949      	ldr	r1, [r1, #20]
 80082b8:	6018      	str	r0, [r3, #0]
 80082ba:	6813      	ldr	r3, [r2, #0]
 80082bc:	062e      	lsls	r6, r5, #24
 80082be:	d501      	bpl.n	80082c4 <_printf_i+0x198>
 80082c0:	6019      	str	r1, [r3, #0]
 80082c2:	e002      	b.n	80082ca <_printf_i+0x19e>
 80082c4:	066d      	lsls	r5, r5, #25
 80082c6:	d5fb      	bpl.n	80082c0 <_printf_i+0x194>
 80082c8:	8019      	strh	r1, [r3, #0]
 80082ca:	2300      	movs	r3, #0
 80082cc:	9d03      	ldr	r5, [sp, #12]
 80082ce:	6123      	str	r3, [r4, #16]
 80082d0:	e7bf      	b.n	8008252 <_printf_i+0x126>
 80082d2:	681a      	ldr	r2, [r3, #0]
 80082d4:	1d11      	adds	r1, r2, #4
 80082d6:	6019      	str	r1, [r3, #0]
 80082d8:	6815      	ldr	r5, [r2, #0]
 80082da:	2100      	movs	r1, #0
 80082dc:	0028      	movs	r0, r5
 80082de:	6862      	ldr	r2, [r4, #4]
 80082e0:	f000 f91a 	bl	8008518 <memchr>
 80082e4:	2800      	cmp	r0, #0
 80082e6:	d001      	beq.n	80082ec <_printf_i+0x1c0>
 80082e8:	1b40      	subs	r0, r0, r5
 80082ea:	6060      	str	r0, [r4, #4]
 80082ec:	6863      	ldr	r3, [r4, #4]
 80082ee:	6123      	str	r3, [r4, #16]
 80082f0:	2300      	movs	r3, #0
 80082f2:	9a03      	ldr	r2, [sp, #12]
 80082f4:	7013      	strb	r3, [r2, #0]
 80082f6:	e7ac      	b.n	8008252 <_printf_i+0x126>
 80082f8:	002a      	movs	r2, r5
 80082fa:	6923      	ldr	r3, [r4, #16]
 80082fc:	9906      	ldr	r1, [sp, #24]
 80082fe:	9805      	ldr	r0, [sp, #20]
 8008300:	9d07      	ldr	r5, [sp, #28]
 8008302:	47a8      	blx	r5
 8008304:	3001      	adds	r0, #1
 8008306:	d0ae      	beq.n	8008266 <_printf_i+0x13a>
 8008308:	6823      	ldr	r3, [r4, #0]
 800830a:	079b      	lsls	r3, r3, #30
 800830c:	d415      	bmi.n	800833a <_printf_i+0x20e>
 800830e:	9b09      	ldr	r3, [sp, #36]	@ 0x24
 8008310:	68e0      	ldr	r0, [r4, #12]
 8008312:	4298      	cmp	r0, r3
 8008314:	daa9      	bge.n	800826a <_printf_i+0x13e>
 8008316:	0018      	movs	r0, r3
 8008318:	e7a7      	b.n	800826a <_printf_i+0x13e>
 800831a:	0022      	movs	r2, r4
 800831c:	2301      	movs	r3, #1
 800831e:	9906      	ldr	r1, [sp, #24]
 8008320:	9805      	ldr	r0, [sp, #20]
 8008322:	9e07      	ldr	r6, [sp, #28]
 8008324:	3219      	adds	r2, #25
 8008326:	47b0      	blx	r6
 8008328:	3001      	adds	r0, #1
 800832a:	d09c      	beq.n	8008266 <_printf_i+0x13a>
 800832c:	3501      	adds	r5, #1
 800832e:	68e3      	ldr	r3, [r4, #12]
 8008330:	9a09      	ldr	r2, [sp, #36]	@ 0x24
 8008332:	1a9b      	subs	r3, r3, r2
 8008334:	42ab      	cmp	r3, r5
 8008336:	dcf0      	bgt.n	800831a <_printf_i+0x1ee>
 8008338:	e7e9      	b.n	800830e <_printf_i+0x1e2>
 800833a:	2500      	movs	r5, #0
 800833c:	e7f7      	b.n	800832e <_printf_i+0x202>
 800833e:	46c0      	nop			@ (mov r8, r8)
 8008340:	08008fbd 	.word	0x08008fbd
 8008344:	08008fce 	.word	0x08008fce

08008348 <__sflush_r>:
 8008348:	b5f7      	push	{r0, r1, r2, r4, r5, r6, r7, lr}
 800834a:	220c      	movs	r2, #12
 800834c:	5e8b      	ldrsh	r3, [r1, r2]
 800834e:	0005      	movs	r5, r0
 8008350:	000c      	movs	r4, r1
 8008352:	071a      	lsls	r2, r3, #28
 8008354:	d456      	bmi.n	8008404 <__sflush_r+0xbc>
 8008356:	684a      	ldr	r2, [r1, #4]
 8008358:	2a00      	cmp	r2, #0
 800835a:	dc02      	bgt.n	8008362 <__sflush_r+0x1a>
 800835c:	6c0a      	ldr	r2, [r1, #64]	@ 0x40
 800835e:	2a00      	cmp	r2, #0
 8008360:	dd4e      	ble.n	8008400 <__sflush_r+0xb8>
 8008362:	6ae7      	ldr	r7, [r4, #44]	@ 0x2c
 8008364:	2f00      	cmp	r7, #0
 8008366:	d04b      	beq.n	8008400 <__sflush_r+0xb8>
 8008368:	2200      	movs	r2, #0
 800836a:	2080      	movs	r0, #128	@ 0x80
 800836c:	682e      	ldr	r6, [r5, #0]
 800836e:	602a      	str	r2, [r5, #0]
 8008370:	001a      	movs	r2, r3
 8008372:	0140      	lsls	r0, r0, #5
 8008374:	6a21      	ldr	r1, [r4, #32]
 8008376:	4002      	ands	r2, r0
 8008378:	4203      	tst	r3, r0
 800837a:	d033      	beq.n	80083e4 <__sflush_r+0x9c>
 800837c:	6d62      	ldr	r2, [r4, #84]	@ 0x54
 800837e:	89a3      	ldrh	r3, [r4, #12]
 8008380:	075b      	lsls	r3, r3, #29
 8008382:	d506      	bpl.n	8008392 <__sflush_r+0x4a>
 8008384:	6863      	ldr	r3, [r4, #4]
 8008386:	1ad2      	subs	r2, r2, r3
 8008388:	6b63      	ldr	r3, [r4, #52]	@ 0x34
 800838a:	2b00      	cmp	r3, #0
 800838c:	d001      	beq.n	8008392 <__sflush_r+0x4a>
 800838e:	6c23      	ldr	r3, [r4, #64]	@ 0x40
 8008390:	1ad2      	subs	r2, r2, r3
 8008392:	2300      	movs	r3, #0
 8008394:	0028      	movs	r0, r5
 8008396:	6ae7      	ldr	r7, [r4, #44]	@ 0x2c
 8008398:	6a21      	ldr	r1, [r4, #32]
 800839a:	47b8      	blx	r7
 800839c:	89a2      	ldrh	r2, [r4, #12]
 800839e:	1c43      	adds	r3, r0, #1
 80083a0:	d106      	bne.n	80083b0 <__sflush_r+0x68>
 80083a2:	6829      	ldr	r1, [r5, #0]
 80083a4:	291d      	cmp	r1, #29
 80083a6:	d846      	bhi.n	8008436 <__sflush_r+0xee>
 80083a8:	4b29      	ldr	r3, [pc, #164]	@ (8008450 <__sflush_r+0x108>)
 80083aa:	410b      	asrs	r3, r1
 80083ac:	07db      	lsls	r3, r3, #31
 80083ae:	d442      	bmi.n	8008436 <__sflush_r+0xee>
 80083b0:	2300      	movs	r3, #0
 80083b2:	6063      	str	r3, [r4, #4]
 80083b4:	6923      	ldr	r3, [r4, #16]
 80083b6:	6023      	str	r3, [r4, #0]
 80083b8:	04d2      	lsls	r2, r2, #19
 80083ba:	d505      	bpl.n	80083c8 <__sflush_r+0x80>
 80083bc:	1c43      	adds	r3, r0, #1
 80083be:	d102      	bne.n	80083c6 <__sflush_r+0x7e>
 80083c0:	682b      	ldr	r3, [r5, #0]
 80083c2:	2b00      	cmp	r3, #0
 80083c4:	d100      	bne.n	80083c8 <__sflush_r+0x80>
 80083c6:	6560      	str	r0, [r4, #84]	@ 0x54
 80083c8:	6b61      	ldr	r1, [r4, #52]	@ 0x34
 80083ca:	602e      	str	r6, [r5, #0]
 80083cc:	2900      	cmp	r1, #0
 80083ce:	d017      	beq.n	8008400 <__sflush_r+0xb8>
 80083d0:	0023      	movs	r3, r4
 80083d2:	3344      	adds	r3, #68	@ 0x44
 80083d4:	4299      	cmp	r1, r3
 80083d6:	d002      	beq.n	80083de <__sflush_r+0x96>
 80083d8:	0028      	movs	r0, r5
 80083da:	f7ff fbd3 	bl	8007b84 <_free_r>
 80083de:	2300      	movs	r3, #0
 80083e0:	6363      	str	r3, [r4, #52]	@ 0x34
 80083e2:	e00d      	b.n	8008400 <__sflush_r+0xb8>
 80083e4:	2301      	movs	r3, #1
 80083e6:	0028      	movs	r0, r5
 80083e8:	47b8      	blx	r7
 80083ea:	0002      	movs	r2, r0
 80083ec:	1c43      	adds	r3, r0, #1
 80083ee:	d1c6      	bne.n	800837e <__sflush_r+0x36>
 80083f0:	682b      	ldr	r3, [r5, #0]
 80083f2:	2b00      	cmp	r3, #0
 80083f4:	d0c3      	beq.n	800837e <__sflush_r+0x36>
 80083f6:	2b1d      	cmp	r3, #29
 80083f8:	d001      	beq.n	80083fe <__sflush_r+0xb6>
 80083fa:	2b16      	cmp	r3, #22
 80083fc:	d11a      	bne.n	8008434 <__sflush_r+0xec>
 80083fe:	602e      	str	r6, [r5, #0]
 8008400:	2000      	movs	r0, #0
 8008402:	e01e      	b.n	8008442 <__sflush_r+0xfa>
 8008404:	690e      	ldr	r6, [r1, #16]
 8008406:	2e00      	cmp	r6, #0
 8008408:	d0fa      	beq.n	8008400 <__sflush_r+0xb8>
 800840a:	680f      	ldr	r7, [r1, #0]
 800840c:	600e      	str	r6, [r1, #0]
 800840e:	1bba      	subs	r2, r7, r6
 8008410:	9201      	str	r2, [sp, #4]
 8008412:	2200      	movs	r2, #0
 8008414:	079b      	lsls	r3, r3, #30
 8008416:	d100      	bne.n	800841a <__sflush_r+0xd2>
 8008418:	694a      	ldr	r2, [r1, #20]
 800841a:	60a2      	str	r2, [r4, #8]
 800841c:	9b01      	ldr	r3, [sp, #4]
 800841e:	2b00      	cmp	r3, #0
 8008420:	ddee      	ble.n	8008400 <__sflush_r+0xb8>
 8008422:	6aa3      	ldr	r3, [r4, #40]	@ 0x28
 8008424:	0032      	movs	r2, r6
 8008426:	001f      	movs	r7, r3
 8008428:	0028      	movs	r0, r5
 800842a:	9b01      	ldr	r3, [sp, #4]
 800842c:	6a21      	ldr	r1, [r4, #32]
 800842e:	47b8      	blx	r7
 8008430:	2800      	cmp	r0, #0
 8008432:	dc07      	bgt.n	8008444 <__sflush_r+0xfc>
 8008434:	89a2      	ldrh	r2, [r4, #12]
 8008436:	2340      	movs	r3, #64	@ 0x40
 8008438:	2001      	movs	r0, #1
 800843a:	4313      	orrs	r3, r2
 800843c:	b21b      	sxth	r3, r3
 800843e:	81a3      	strh	r3, [r4, #12]
 8008440:	4240      	negs	r0, r0
 8008442:	bdfe      	pop	{r1, r2, r3, r4, r5, r6, r7, pc}
 8008444:	9b01      	ldr	r3, [sp, #4]
 8008446:	1836      	adds	r6, r6, r0
 8008448:	1a1b      	subs	r3, r3, r0
 800844a:	9301      	str	r3, [sp, #4]
 800844c:	e7e6      	b.n	800841c <__sflush_r+0xd4>
 800844e:	46c0      	nop			@ (mov r8, r8)
 8008450:	dfbffffe 	.word	0xdfbffffe

08008454 <_fflush_r>:
 8008454:	690b      	ldr	r3, [r1, #16]
 8008456:	b570      	push	{r4, r5, r6, lr}
 8008458:	0005      	movs	r5, r0
 800845a:	000c      	movs	r4, r1
 800845c:	2b00      	cmp	r3, #0
 800845e:	d102      	bne.n	8008466 <_fflush_r+0x12>
 8008460:	2500      	movs	r5, #0
 8008462:	0028      	movs	r0, r5
 8008464:	bd70      	pop	{r4, r5, r6, pc}
 8008466:	2800      	cmp	r0, #0
 8008468:	d004      	beq.n	8008474 <_fflush_r+0x20>
 800846a:	6a03      	ldr	r3, [r0, #32]
 800846c:	2b00      	cmp	r3, #0
 800846e:	d101      	bne.n	8008474 <_fflush_r+0x20>
 8008470:	f7ff f9d6 	bl	8007820 <__sinit>
 8008474:	220c      	movs	r2, #12
 8008476:	5ea3      	ldrsh	r3, [r4, r2]
 8008478:	2b00      	cmp	r3, #0
 800847a:	d0f1      	beq.n	8008460 <_fflush_r+0xc>
 800847c:	6e62      	ldr	r2, [r4, #100]	@ 0x64
 800847e:	07d2      	lsls	r2, r2, #31
 8008480:	d404      	bmi.n	800848c <_fflush_r+0x38>
 8008482:	059b      	lsls	r3, r3, #22
 8008484:	d402      	bmi.n	800848c <_fflush_r+0x38>
 8008486:	6da0      	ldr	r0, [r4, #88]	@ 0x58
 8008488:	f7ff fb4b 	bl	8007b22 <__retarget_lock_acquire_recursive>
 800848c:	0028      	movs	r0, r5
 800848e:	0021      	movs	r1, r4
 8008490:	f7ff ff5a 	bl	8008348 <__sflush_r>
 8008494:	6e63      	ldr	r3, [r4, #100]	@ 0x64
 8008496:	0005      	movs	r5, r0
 8008498:	07db      	lsls	r3, r3, #31
 800849a:	d4e2      	bmi.n	8008462 <_fflush_r+0xe>
 800849c:	89a3      	ldrh	r3, [r4, #12]
 800849e:	059b      	lsls	r3, r3, #22
 80084a0:	d4df      	bmi.n	8008462 <_fflush_r+0xe>
 80084a2:	6da0      	ldr	r0, [r4, #88]	@ 0x58
 80084a4:	f7ff fb3e 	bl	8007b24 <__retarget_lock_release_recursive>
 80084a8:	e7db      	b.n	8008462 <_fflush_r+0xe>
	...

080084ac <fiprintf>:
 80084ac:	b40e      	push	{r1, r2, r3}
 80084ae:	b517      	push	{r0, r1, r2, r4, lr}
 80084b0:	4c05      	ldr	r4, [pc, #20]	@ (80084c8 <fiprintf+0x1c>)
 80084b2:	ab05      	add	r3, sp, #20
 80084b4:	cb04      	ldmia	r3!, {r2}
 80084b6:	0001      	movs	r1, r0
 80084b8:	6820      	ldr	r0, [r4, #0]
 80084ba:	9301      	str	r3, [sp, #4]
 80084bc:	f000 f894 	bl	80085e8 <_vfiprintf_r>
 80084c0:	bc1e      	pop	{r1, r2, r3, r4}
 80084c2:	bc08      	pop	{r3}
 80084c4:	b003      	add	sp, #12
 80084c6:	4718      	bx	r3
 80084c8:	2000019c 	.word	0x2000019c

080084cc <memmove>:
 80084cc:	b510      	push	{r4, lr}
 80084ce:	4288      	cmp	r0, r1
 80084d0:	d806      	bhi.n	80084e0 <memmove+0x14>
 80084d2:	2300      	movs	r3, #0
 80084d4:	429a      	cmp	r2, r3
 80084d6:	d008      	beq.n	80084ea <memmove+0x1e>
 80084d8:	5ccc      	ldrb	r4, [r1, r3]
 80084da:	54c4      	strb	r4, [r0, r3]
 80084dc:	3301      	adds	r3, #1
 80084de:	e7f9      	b.n	80084d4 <memmove+0x8>
 80084e0:	188b      	adds	r3, r1, r2
 80084e2:	4298      	cmp	r0, r3
 80084e4:	d2f5      	bcs.n	80084d2 <memmove+0x6>
 80084e6:	3a01      	subs	r2, #1
 80084e8:	d200      	bcs.n	80084ec <memmove+0x20>
 80084ea:	bd10      	pop	{r4, pc}
 80084ec:	5c8b      	ldrb	r3, [r1, r2]
 80084ee:	5483      	strb	r3, [r0, r2]
 80084f0:	e7f9      	b.n	80084e6 <memmove+0x1a>
	...

080084f4 <_sbrk_r>:
 80084f4:	2300      	movs	r3, #0
 80084f6:	b570      	push	{r4, r5, r6, lr}
 80084f8:	4d06      	ldr	r5, [pc, #24]	@ (8008514 <_sbrk_r+0x20>)
 80084fa:	0004      	movs	r4, r0
 80084fc:	0008      	movs	r0, r1
 80084fe:	602b      	str	r3, [r5, #0]
 8008500:	f7f9 ff1a 	bl	8002338 <_sbrk>
 8008504:	1c43      	adds	r3, r0, #1
 8008506:	d103      	bne.n	8008510 <_sbrk_r+0x1c>
 8008508:	682b      	ldr	r3, [r5, #0]
 800850a:	2b00      	cmp	r3, #0
 800850c:	d000      	beq.n	8008510 <_sbrk_r+0x1c>
 800850e:	6023      	str	r3, [r4, #0]
 8008510:	bd70      	pop	{r4, r5, r6, pc}
 8008512:	46c0      	nop			@ (mov r8, r8)
 8008514:	20001744 	.word	0x20001744

08008518 <memchr>:
 8008518:	b2c9      	uxtb	r1, r1
 800851a:	1882      	adds	r2, r0, r2
 800851c:	4290      	cmp	r0, r2
 800851e:	d101      	bne.n	8008524 <memchr+0xc>
 8008520:	2000      	movs	r0, #0
 8008522:	4770      	bx	lr
 8008524:	7803      	ldrb	r3, [r0, #0]
 8008526:	428b      	cmp	r3, r1
 8008528:	d0fb      	beq.n	8008522 <memchr+0xa>
 800852a:	3001      	adds	r0, #1
 800852c:	e7f6      	b.n	800851c <memchr+0x4>

0800852e <abort>:
 800852e:	2006      	movs	r0, #6
 8008530:	b510      	push	{r4, lr}
 8008532:	f000 fa3f 	bl	80089b4 <raise>
 8008536:	2001      	movs	r0, #1
 8008538:	f7f9 fece 	bl	80022d8 <_exit>

0800853c <_realloc_r>:
 800853c:	b5f7      	push	{r0, r1, r2, r4, r5, r6, r7, lr}
 800853e:	0006      	movs	r6, r0
 8008540:	000c      	movs	r4, r1
 8008542:	0015      	movs	r5, r2
 8008544:	2900      	cmp	r1, #0
 8008546:	d105      	bne.n	8008554 <_realloc_r+0x18>
 8008548:	0011      	movs	r1, r2
 800854a:	f7ff fb91 	bl	8007c70 <_malloc_r>
 800854e:	0004      	movs	r4, r0
 8008550:	0020      	movs	r0, r4
 8008552:	bdfe      	pop	{r1, r2, r3, r4, r5, r6, r7, pc}
 8008554:	2a00      	cmp	r2, #0
 8008556:	d103      	bne.n	8008560 <_realloc_r+0x24>
 8008558:	f7ff fb14 	bl	8007b84 <_free_r>
 800855c:	2400      	movs	r4, #0
 800855e:	e7f7      	b.n	8008550 <_realloc_r+0x14>
 8008560:	f000 fa48 	bl	80089f4 <_malloc_usable_size_r>
 8008564:	0007      	movs	r7, r0
 8008566:	4285      	cmp	r5, r0
 8008568:	d802      	bhi.n	8008570 <_realloc_r+0x34>
 800856a:	0843      	lsrs	r3, r0, #1
 800856c:	42ab      	cmp	r3, r5
 800856e:	d3ef      	bcc.n	8008550 <_realloc_r+0x14>
 8008570:	0029      	movs	r1, r5
 8008572:	0030      	movs	r0, r6
 8008574:	f7ff fb7c 	bl	8007c70 <_malloc_r>
 8008578:	9001      	str	r0, [sp, #4]
 800857a:	2800      	cmp	r0, #0
 800857c:	d0ee      	beq.n	800855c <_realloc_r+0x20>
 800857e:	002a      	movs	r2, r5
 8008580:	42bd      	cmp	r5, r7
 8008582:	d900      	bls.n	8008586 <_realloc_r+0x4a>
 8008584:	003a      	movs	r2, r7
 8008586:	0021      	movs	r1, r4
 8008588:	9801      	ldr	r0, [sp, #4]
 800858a:	f7ff fad4 	bl	8007b36 <memcpy>
 800858e:	0021      	movs	r1, r4
 8008590:	0030      	movs	r0, r6
 8008592:	f7ff faf7 	bl	8007b84 <_free_r>
 8008596:	9c01      	ldr	r4, [sp, #4]
 8008598:	e7da      	b.n	8008550 <_realloc_r+0x14>

0800859a <__sfputc_r>:
 800859a:	6893      	ldr	r3, [r2, #8]
 800859c:	b510      	push	{r4, lr}
 800859e:	3b01      	subs	r3, #1
 80085a0:	6093      	str	r3, [r2, #8]
 80085a2:	2b00      	cmp	r3, #0
 80085a4:	da04      	bge.n	80085b0 <__sfputc_r+0x16>
 80085a6:	6994      	ldr	r4, [r2, #24]
 80085a8:	42a3      	cmp	r3, r4
 80085aa:	db07      	blt.n	80085bc <__sfputc_r+0x22>
 80085ac:	290a      	cmp	r1, #10
 80085ae:	d005      	beq.n	80085bc <__sfputc_r+0x22>
 80085b0:	6813      	ldr	r3, [r2, #0]
 80085b2:	1c58      	adds	r0, r3, #1
 80085b4:	6010      	str	r0, [r2, #0]
 80085b6:	7019      	strb	r1, [r3, #0]
 80085b8:	0008      	movs	r0, r1
 80085ba:	bd10      	pop	{r4, pc}
 80085bc:	f000 f930 	bl	8008820 <__swbuf_r>
 80085c0:	0001      	movs	r1, r0
 80085c2:	e7f9      	b.n	80085b8 <__sfputc_r+0x1e>

080085c4 <__sfputs_r>:
 80085c4:	b5f8      	push	{r3, r4, r5, r6, r7, lr}
 80085c6:	0006      	movs	r6, r0
 80085c8:	000f      	movs	r7, r1
 80085ca:	0014      	movs	r4, r2
 80085cc:	18d5      	adds	r5, r2, r3
 80085ce:	42ac      	cmp	r4, r5
 80085d0:	d101      	bne.n	80085d6 <__sfputs_r+0x12>
 80085d2:	2000      	movs	r0, #0
 80085d4:	e007      	b.n	80085e6 <__sfputs_r+0x22>
 80085d6:	7821      	ldrb	r1, [r4, #0]
 80085d8:	003a      	movs	r2, r7
 80085da:	0030      	movs	r0, r6
 80085dc:	f7ff ffdd 	bl	800859a <__sfputc_r>
 80085e0:	3401      	adds	r4, #1
 80085e2:	1c43      	adds	r3, r0, #1
 80085e4:	d1f3      	bne.n	80085ce <__sfputs_r+0xa>
 80085e6:	bdf8      	pop	{r3, r4, r5, r6, r7, pc}

080085e8 <_vfiprintf_r>:
 80085e8:	b5f0      	push	{r4, r5, r6, r7, lr}
 80085ea:	b0a1      	sub	sp, #132	@ 0x84
 80085ec:	000f      	movs	r7, r1
 80085ee:	0015      	movs	r5, r2
 80085f0:	001e      	movs	r6, r3
 80085f2:	9003      	str	r0, [sp, #12]
 80085f4:	2800      	cmp	r0, #0
 80085f6:	d004      	beq.n	8008602 <_vfiprintf_r+0x1a>
 80085f8:	6a03      	ldr	r3, [r0, #32]
 80085fa:	2b00      	cmp	r3, #0
 80085fc:	d101      	bne.n	8008602 <_vfiprintf_r+0x1a>
 80085fe:	f7ff f90f 	bl	8007820 <__sinit>
 8008602:	6e7b      	ldr	r3, [r7, #100]	@ 0x64
 8008604:	07db      	lsls	r3, r3, #31
 8008606:	d405      	bmi.n	8008614 <_vfiprintf_r+0x2c>
 8008608:	89bb      	ldrh	r3, [r7, #12]
 800860a:	059b      	lsls	r3, r3, #22
 800860c:	d402      	bmi.n	8008614 <_vfiprintf_r+0x2c>
 800860e:	6db8      	ldr	r0, [r7, #88]	@ 0x58
 8008610:	f7ff fa87 	bl	8007b22 <__retarget_lock_acquire_recursive>
 8008614:	89bb      	ldrh	r3, [r7, #12]
 8008616:	071b      	lsls	r3, r3, #28
 8008618:	d502      	bpl.n	8008620 <_vfiprintf_r+0x38>
 800861a:	693b      	ldr	r3, [r7, #16]
 800861c:	2b00      	cmp	r3, #0
 800861e:	d113      	bne.n	8008648 <_vfiprintf_r+0x60>
 8008620:	0039      	movs	r1, r7
 8008622:	9803      	ldr	r0, [sp, #12]
 8008624:	f000 f93e 	bl	80088a4 <__swsetup_r>
 8008628:	2800      	cmp	r0, #0
 800862a:	d00d      	beq.n	8008648 <_vfiprintf_r+0x60>
 800862c:	6e7b      	ldr	r3, [r7, #100]	@ 0x64
 800862e:	07db      	lsls	r3, r3, #31
 8008630:	d503      	bpl.n	800863a <_vfiprintf_r+0x52>
 8008632:	2001      	movs	r0, #1
 8008634:	4240      	negs	r0, r0
 8008636:	b021      	add	sp, #132	@ 0x84
 8008638:	bdf0      	pop	{r4, r5, r6, r7, pc}
 800863a:	89bb      	ldrh	r3, [r7, #12]
 800863c:	059b      	lsls	r3, r3, #22
 800863e:	d4f8      	bmi.n	8008632 <_vfiprintf_r+0x4a>
 8008640:	6db8      	ldr	r0, [r7, #88]	@ 0x58
 8008642:	f7ff fa6f 	bl	8007b24 <__retarget_lock_release_recursive>
 8008646:	e7f4      	b.n	8008632 <_vfiprintf_r+0x4a>
 8008648:	2300      	movs	r3, #0
 800864a:	ac08      	add	r4, sp, #32
 800864c:	6163      	str	r3, [r4, #20]
 800864e:	3320      	adds	r3, #32
 8008650:	7663      	strb	r3, [r4, #25]
 8008652:	3310      	adds	r3, #16
 8008654:	76a3      	strb	r3, [r4, #26]
 8008656:	9607      	str	r6, [sp, #28]
 8008658:	002e      	movs	r6, r5
 800865a:	7833      	ldrb	r3, [r6, #0]
 800865c:	2b00      	cmp	r3, #0
 800865e:	d001      	beq.n	8008664 <_vfiprintf_r+0x7c>
 8008660:	2b25      	cmp	r3, #37	@ 0x25
 8008662:	d148      	bne.n	80086f6 <_vfiprintf_r+0x10e>
 8008664:	1b73      	subs	r3, r6, r5
 8008666:	9305      	str	r3, [sp, #20]
 8008668:	42ae      	cmp	r6, r5
 800866a:	d00b      	beq.n	8008684 <_vfiprintf_r+0x9c>
 800866c:	002a      	movs	r2, r5
 800866e:	0039      	movs	r1, r7
 8008670:	9803      	ldr	r0, [sp, #12]
 8008672:	f7ff ffa7 	bl	80085c4 <__sfputs_r>
 8008676:	3001      	adds	r0, #1
 8008678:	d100      	bne.n	800867c <_vfiprintf_r+0x94>
 800867a:	e0ae      	b.n	80087da <_vfiprintf_r+0x1f2>
 800867c:	6963      	ldr	r3, [r4, #20]
 800867e:	9a05      	ldr	r2, [sp, #20]
 8008680:	189b      	adds	r3, r3, r2
 8008682:	6163      	str	r3, [r4, #20]
 8008684:	7833      	ldrb	r3, [r6, #0]
 8008686:	2b00      	cmp	r3, #0
 8008688:	d100      	bne.n	800868c <_vfiprintf_r+0xa4>
 800868a:	e0a6      	b.n	80087da <_vfiprintf_r+0x1f2>
 800868c:	2201      	movs	r2, #1
 800868e:	2300      	movs	r3, #0
 8008690:	4252      	negs	r2, r2
 8008692:	6062      	str	r2, [r4, #4]
 8008694:	a904      	add	r1, sp, #16
 8008696:	3254      	adds	r2, #84	@ 0x54
 8008698:	1852      	adds	r2, r2, r1
 800869a:	1c75      	adds	r5, r6, #1
 800869c:	6023      	str	r3, [r4, #0]
 800869e:	60e3      	str	r3, [r4, #12]
 80086a0:	60a3      	str	r3, [r4, #8]
 80086a2:	7013      	strb	r3, [r2, #0]
 80086a4:	65a3      	str	r3, [r4, #88]	@ 0x58
 80086a6:	4b59      	ldr	r3, [pc, #356]	@ (800880c <_vfiprintf_r+0x224>)
 80086a8:	2205      	movs	r2, #5
 80086aa:	0018      	movs	r0, r3
 80086ac:	7829      	ldrb	r1, [r5, #0]
 80086ae:	9305      	str	r3, [sp, #20]
 80086b0:	f7ff ff32 	bl	8008518 <memchr>
 80086b4:	1c6e      	adds	r6, r5, #1
 80086b6:	2800      	cmp	r0, #0
 80086b8:	d11f      	bne.n	80086fa <_vfiprintf_r+0x112>
 80086ba:	6822      	ldr	r2, [r4, #0]
 80086bc:	06d3      	lsls	r3, r2, #27
 80086be:	d504      	bpl.n	80086ca <_vfiprintf_r+0xe2>
 80086c0:	2353      	movs	r3, #83	@ 0x53
 80086c2:	a904      	add	r1, sp, #16
 80086c4:	185b      	adds	r3, r3, r1
 80086c6:	2120      	movs	r1, #32
 80086c8:	7019      	strb	r1, [r3, #0]
 80086ca:	0713      	lsls	r3, r2, #28
 80086cc:	d504      	bpl.n	80086d8 <_vfiprintf_r+0xf0>
 80086ce:	2353      	movs	r3, #83	@ 0x53
 80086d0:	a904      	add	r1, sp, #16
 80086d2:	185b      	adds	r3, r3, r1
 80086d4:	212b      	movs	r1, #43	@ 0x2b
 80086d6:	7019      	strb	r1, [r3, #0]
 80086d8:	782b      	ldrb	r3, [r5, #0]
 80086da:	2b2a      	cmp	r3, #42	@ 0x2a
 80086dc:	d016      	beq.n	800870c <_vfiprintf_r+0x124>
 80086de:	002e      	movs	r6, r5
 80086e0:	2100      	movs	r1, #0
 80086e2:	200a      	movs	r0, #10
 80086e4:	68e3      	ldr	r3, [r4, #12]
 80086e6:	7832      	ldrb	r2, [r6, #0]
 80086e8:	1c75      	adds	r5, r6, #1
 80086ea:	3a30      	subs	r2, #48	@ 0x30
 80086ec:	2a09      	cmp	r2, #9
 80086ee:	d950      	bls.n	8008792 <_vfiprintf_r+0x1aa>
 80086f0:	2900      	cmp	r1, #0
 80086f2:	d111      	bne.n	8008718 <_vfiprintf_r+0x130>
 80086f4:	e017      	b.n	8008726 <_vfiprintf_r+0x13e>
 80086f6:	3601      	adds	r6, #1
 80086f8:	e7af      	b.n	800865a <_vfiprintf_r+0x72>
 80086fa:	9b05      	ldr	r3, [sp, #20]
 80086fc:	6822      	ldr	r2, [r4, #0]
 80086fe:	1ac0      	subs	r0, r0, r3
 8008700:	2301      	movs	r3, #1
 8008702:	4083      	lsls	r3, r0
 8008704:	4313      	orrs	r3, r2
 8008706:	0035      	movs	r5, r6
 8008708:	6023      	str	r3, [r4, #0]
 800870a:	e7cc      	b.n	80086a6 <_vfiprintf_r+0xbe>
 800870c:	9b07      	ldr	r3, [sp, #28]
 800870e:	1d19      	adds	r1, r3, #4
 8008710:	681b      	ldr	r3, [r3, #0]
 8008712:	9107      	str	r1, [sp, #28]
 8008714:	2b00      	cmp	r3, #0
 8008716:	db01      	blt.n	800871c <_vfiprintf_r+0x134>
 8008718:	930b      	str	r3, [sp, #44]	@ 0x2c
 800871a:	e004      	b.n	8008726 <_vfiprintf_r+0x13e>
 800871c:	425b      	negs	r3, r3
 800871e:	60e3      	str	r3, [r4, #12]
 8008720:	2302      	movs	r3, #2
 8008722:	4313      	orrs	r3, r2
 8008724:	6023      	str	r3, [r4, #0]
 8008726:	7833      	ldrb	r3, [r6, #0]
 8008728:	2b2e      	cmp	r3, #46	@ 0x2e
 800872a:	d10c      	bne.n	8008746 <_vfiprintf_r+0x15e>
 800872c:	7873      	ldrb	r3, [r6, #1]
 800872e:	2b2a      	cmp	r3, #42	@ 0x2a
 8008730:	d134      	bne.n	800879c <_vfiprintf_r+0x1b4>
 8008732:	9b07      	ldr	r3, [sp, #28]
 8008734:	3602      	adds	r6, #2
 8008736:	1d1a      	adds	r2, r3, #4
 8008738:	681b      	ldr	r3, [r3, #0]
 800873a:	9207      	str	r2, [sp, #28]
 800873c:	2b00      	cmp	r3, #0
 800873e:	da01      	bge.n	8008744 <_vfiprintf_r+0x15c>
 8008740:	2301      	movs	r3, #1
 8008742:	425b      	negs	r3, r3
 8008744:	9309      	str	r3, [sp, #36]	@ 0x24
 8008746:	4d32      	ldr	r5, [pc, #200]	@ (8008810 <_vfiprintf_r+0x228>)
 8008748:	2203      	movs	r2, #3
 800874a:	0028      	movs	r0, r5
 800874c:	7831      	ldrb	r1, [r6, #0]
 800874e:	f7ff fee3 	bl	8008518 <memchr>
 8008752:	2800      	cmp	r0, #0
 8008754:	d006      	beq.n	8008764 <_vfiprintf_r+0x17c>
 8008756:	2340      	movs	r3, #64	@ 0x40
 8008758:	1b40      	subs	r0, r0, r5
 800875a:	4083      	lsls	r3, r0
 800875c:	6822      	ldr	r2, [r4, #0]
 800875e:	3601      	adds	r6, #1
 8008760:	4313      	orrs	r3, r2
 8008762:	6023      	str	r3, [r4, #0]
 8008764:	7831      	ldrb	r1, [r6, #0]
 8008766:	2206      	movs	r2, #6
 8008768:	482a      	ldr	r0, [pc, #168]	@ (8008814 <_vfiprintf_r+0x22c>)
 800876a:	1c75      	adds	r5, r6, #1
 800876c:	7621      	strb	r1, [r4, #24]
 800876e:	f7ff fed3 	bl	8008518 <memchr>
 8008772:	2800      	cmp	r0, #0
 8008774:	d040      	beq.n	80087f8 <_vfiprintf_r+0x210>
 8008776:	4b28      	ldr	r3, [pc, #160]	@ (8008818 <_vfiprintf_r+0x230>)
 8008778:	2b00      	cmp	r3, #0
 800877a:	d122      	bne.n	80087c2 <_vfiprintf_r+0x1da>
 800877c:	2207      	movs	r2, #7
 800877e:	9b07      	ldr	r3, [sp, #28]
 8008780:	3307      	adds	r3, #7
 8008782:	4393      	bics	r3, r2
 8008784:	3308      	adds	r3, #8
 8008786:	9307      	str	r3, [sp, #28]
 8008788:	6963      	ldr	r3, [r4, #20]
 800878a:	9a04      	ldr	r2, [sp, #16]
 800878c:	189b      	adds	r3, r3, r2
 800878e:	6163      	str	r3, [r4, #20]
 8008790:	e762      	b.n	8008658 <_vfiprintf_r+0x70>
 8008792:	4343      	muls	r3, r0
 8008794:	002e      	movs	r6, r5
 8008796:	2101      	movs	r1, #1
 8008798:	189b      	adds	r3, r3, r2
 800879a:	e7a4      	b.n	80086e6 <_vfiprintf_r+0xfe>
 800879c:	2300      	movs	r3, #0
 800879e:	200a      	movs	r0, #10
 80087a0:	0019      	movs	r1, r3
 80087a2:	3601      	adds	r6, #1
 80087a4:	6063      	str	r3, [r4, #4]
 80087a6:	7832      	ldrb	r2, [r6, #0]
 80087a8:	1c75      	adds	r5, r6, #1
 80087aa:	3a30      	subs	r2, #48	@ 0x30
 80087ac:	2a09      	cmp	r2, #9
 80087ae:	d903      	bls.n	80087b8 <_vfiprintf_r+0x1d0>
 80087b0:	2b00      	cmp	r3, #0
 80087b2:	d0c8      	beq.n	8008746 <_vfiprintf_r+0x15e>
 80087b4:	9109      	str	r1, [sp, #36]	@ 0x24
 80087b6:	e7c6      	b.n	8008746 <_vfiprintf_r+0x15e>
 80087b8:	4341      	muls	r1, r0
 80087ba:	002e      	movs	r6, r5
 80087bc:	2301      	movs	r3, #1
 80087be:	1889      	adds	r1, r1, r2
 80087c0:	e7f1      	b.n	80087a6 <_vfiprintf_r+0x1be>
 80087c2:	aa07      	add	r2, sp, #28
 80087c4:	9200      	str	r2, [sp, #0]
 80087c6:	0021      	movs	r1, r4
 80087c8:	003a      	movs	r2, r7
 80087ca:	4b14      	ldr	r3, [pc, #80]	@ (800881c <_vfiprintf_r+0x234>)
 80087cc:	9803      	ldr	r0, [sp, #12]
 80087ce:	e000      	b.n	80087d2 <_vfiprintf_r+0x1ea>
 80087d0:	bf00      	nop
 80087d2:	9004      	str	r0, [sp, #16]
 80087d4:	9b04      	ldr	r3, [sp, #16]
 80087d6:	3301      	adds	r3, #1
 80087d8:	d1d6      	bne.n	8008788 <_vfiprintf_r+0x1a0>
 80087da:	6e7b      	ldr	r3, [r7, #100]	@ 0x64
 80087dc:	07db      	lsls	r3, r3, #31
 80087de:	d405      	bmi.n	80087ec <_vfiprintf_r+0x204>
 80087e0:	89bb      	ldrh	r3, [r7, #12]
 80087e2:	059b      	lsls	r3, r3, #22
 80087e4:	d402      	bmi.n	80087ec <_vfiprintf_r+0x204>
 80087e6:	6db8      	ldr	r0, [r7, #88]	@ 0x58
 80087e8:	f7ff f99c 	bl	8007b24 <__retarget_lock_release_recursive>
 80087ec:	89bb      	ldrh	r3, [r7, #12]
 80087ee:	065b      	lsls	r3, r3, #25
 80087f0:	d500      	bpl.n	80087f4 <_vfiprintf_r+0x20c>
 80087f2:	e71e      	b.n	8008632 <_vfiprintf_r+0x4a>
 80087f4:	980d      	ldr	r0, [sp, #52]	@ 0x34
 80087f6:	e71e      	b.n	8008636 <_vfiprintf_r+0x4e>
 80087f8:	aa07      	add	r2, sp, #28
 80087fa:	9200      	str	r2, [sp, #0]
 80087fc:	0021      	movs	r1, r4
 80087fe:	003a      	movs	r2, r7
 8008800:	4b06      	ldr	r3, [pc, #24]	@ (800881c <_vfiprintf_r+0x234>)
 8008802:	9803      	ldr	r0, [sp, #12]
 8008804:	f7ff fc92 	bl	800812c <_printf_i>
 8008808:	e7e3      	b.n	80087d2 <_vfiprintf_r+0x1ea>
 800880a:	46c0      	nop			@ (mov r8, r8)
 800880c:	08008fac 	.word	0x08008fac
 8008810:	08008fb2 	.word	0x08008fb2
 8008814:	08008fb6 	.word	0x08008fb6
 8008818:	00000000 	.word	0x00000000
 800881c:	080085c5 	.word	0x080085c5

08008820 <__swbuf_r>:
 8008820:	b5f8      	push	{r3, r4, r5, r6, r7, lr}
 8008822:	0006      	movs	r6, r0
 8008824:	000d      	movs	r5, r1
 8008826:	0014      	movs	r4, r2
 8008828:	2800      	cmp	r0, #0
 800882a:	d004      	beq.n	8008836 <__swbuf_r+0x16>
 800882c:	6a03      	ldr	r3, [r0, #32]
 800882e:	2b00      	cmp	r3, #0
 8008830:	d101      	bne.n	8008836 <__swbuf_r+0x16>
 8008832:	f7fe fff5 	bl	8007820 <__sinit>
 8008836:	69a3      	ldr	r3, [r4, #24]
 8008838:	60a3      	str	r3, [r4, #8]
 800883a:	89a3      	ldrh	r3, [r4, #12]
 800883c:	071b      	lsls	r3, r3, #28
 800883e:	d502      	bpl.n	8008846 <__swbuf_r+0x26>
 8008840:	6923      	ldr	r3, [r4, #16]
 8008842:	2b00      	cmp	r3, #0
 8008844:	d109      	bne.n	800885a <__swbuf_r+0x3a>
 8008846:	0021      	movs	r1, r4
 8008848:	0030      	movs	r0, r6
 800884a:	f000 f82b 	bl	80088a4 <__swsetup_r>
 800884e:	2800      	cmp	r0, #0
 8008850:	d003      	beq.n	800885a <__swbuf_r+0x3a>
 8008852:	2501      	movs	r5, #1
 8008854:	426d      	negs	r5, r5
 8008856:	0028      	movs	r0, r5
 8008858:	bdf8      	pop	{r3, r4, r5, r6, r7, pc}
 800885a:	6923      	ldr	r3, [r4, #16]
 800885c:	6820      	ldr	r0, [r4, #0]
 800885e:	b2ef      	uxtb	r7, r5
 8008860:	1ac0      	subs	r0, r0, r3
 8008862:	6963      	ldr	r3, [r4, #20]
 8008864:	b2ed      	uxtb	r5, r5
 8008866:	4283      	cmp	r3, r0
 8008868:	dc05      	bgt.n	8008876 <__swbuf_r+0x56>
 800886a:	0021      	movs	r1, r4
 800886c:	0030      	movs	r0, r6
 800886e:	f7ff fdf1 	bl	8008454 <_fflush_r>
 8008872:	2800      	cmp	r0, #0
 8008874:	d1ed      	bne.n	8008852 <__swbuf_r+0x32>
 8008876:	68a3      	ldr	r3, [r4, #8]
 8008878:	3001      	adds	r0, #1
 800887a:	3b01      	subs	r3, #1
 800887c:	60a3      	str	r3, [r4, #8]
 800887e:	6823      	ldr	r3, [r4, #0]
 8008880:	1c5a      	adds	r2, r3, #1
 8008882:	6022      	str	r2, [r4, #0]
 8008884:	701f      	strb	r7, [r3, #0]
 8008886:	6963      	ldr	r3, [r4, #20]
 8008888:	4283      	cmp	r3, r0
 800888a:	d004      	beq.n	8008896 <__swbuf_r+0x76>
 800888c:	89a3      	ldrh	r3, [r4, #12]
 800888e:	07db      	lsls	r3, r3, #31
 8008890:	d5e1      	bpl.n	8008856 <__swbuf_r+0x36>
 8008892:	2d0a      	cmp	r5, #10
 8008894:	d1df      	bne.n	8008856 <__swbuf_r+0x36>
 8008896:	0021      	movs	r1, r4
 8008898:	0030      	movs	r0, r6
 800889a:	f7ff fddb 	bl	8008454 <_fflush_r>
 800889e:	2800      	cmp	r0, #0
 80088a0:	d0d9      	beq.n	8008856 <__swbuf_r+0x36>
 80088a2:	e7d6      	b.n	8008852 <__swbuf_r+0x32>

080088a4 <__swsetup_r>:
 80088a4:	4b2d      	ldr	r3, [pc, #180]	@ (800895c <__swsetup_r+0xb8>)
 80088a6:	b570      	push	{r4, r5, r6, lr}
 80088a8:	0005      	movs	r5, r0
 80088aa:	6818      	ldr	r0, [r3, #0]
 80088ac:	000c      	movs	r4, r1
 80088ae:	2800      	cmp	r0, #0
 80088b0:	d004      	beq.n	80088bc <__swsetup_r+0x18>
 80088b2:	6a03      	ldr	r3, [r0, #32]
 80088b4:	2b00      	cmp	r3, #0
 80088b6:	d101      	bne.n	80088bc <__swsetup_r+0x18>
 80088b8:	f7fe ffb2 	bl	8007820 <__sinit>
 80088bc:	230c      	movs	r3, #12
 80088be:	5ee2      	ldrsh	r2, [r4, r3]
 80088c0:	0713      	lsls	r3, r2, #28
 80088c2:	d423      	bmi.n	800890c <__swsetup_r+0x68>
 80088c4:	06d3      	lsls	r3, r2, #27
 80088c6:	d407      	bmi.n	80088d8 <__swsetup_r+0x34>
 80088c8:	2309      	movs	r3, #9
 80088ca:	602b      	str	r3, [r5, #0]
 80088cc:	2340      	movs	r3, #64	@ 0x40
 80088ce:	2001      	movs	r0, #1
 80088d0:	4313      	orrs	r3, r2
 80088d2:	81a3      	strh	r3, [r4, #12]
 80088d4:	4240      	negs	r0, r0
 80088d6:	e03a      	b.n	800894e <__swsetup_r+0xaa>
 80088d8:	0752      	lsls	r2, r2, #29
 80088da:	d513      	bpl.n	8008904 <__swsetup_r+0x60>
 80088dc:	6b61      	ldr	r1, [r4, #52]	@ 0x34
 80088de:	2900      	cmp	r1, #0
 80088e0:	d008      	beq.n	80088f4 <__swsetup_r+0x50>
 80088e2:	0023      	movs	r3, r4
 80088e4:	3344      	adds	r3, #68	@ 0x44
 80088e6:	4299      	cmp	r1, r3
 80088e8:	d002      	beq.n	80088f0 <__swsetup_r+0x4c>
 80088ea:	0028      	movs	r0, r5
 80088ec:	f7ff f94a 	bl	8007b84 <_free_r>
 80088f0:	2300      	movs	r3, #0
 80088f2:	6363      	str	r3, [r4, #52]	@ 0x34
 80088f4:	2224      	movs	r2, #36	@ 0x24
 80088f6:	89a3      	ldrh	r3, [r4, #12]
 80088f8:	4393      	bics	r3, r2
 80088fa:	81a3      	strh	r3, [r4, #12]
 80088fc:	2300      	movs	r3, #0
 80088fe:	6063      	str	r3, [r4, #4]
 8008900:	6923      	ldr	r3, [r4, #16]
 8008902:	6023      	str	r3, [r4, #0]
 8008904:	2308      	movs	r3, #8
 8008906:	89a2      	ldrh	r2, [r4, #12]
 8008908:	4313      	orrs	r3, r2
 800890a:	81a3      	strh	r3, [r4, #12]
 800890c:	6923      	ldr	r3, [r4, #16]
 800890e:	2b00      	cmp	r3, #0
 8008910:	d10b      	bne.n	800892a <__swsetup_r+0x86>
 8008912:	21a0      	movs	r1, #160	@ 0xa0
 8008914:	2280      	movs	r2, #128	@ 0x80
 8008916:	89a3      	ldrh	r3, [r4, #12]
 8008918:	0089      	lsls	r1, r1, #2
 800891a:	0092      	lsls	r2, r2, #2
 800891c:	400b      	ands	r3, r1
 800891e:	4293      	cmp	r3, r2
 8008920:	d003      	beq.n	800892a <__swsetup_r+0x86>
 8008922:	0021      	movs	r1, r4
 8008924:	0028      	movs	r0, r5
 8008926:	f000 f897 	bl	8008a58 <__smakebuf_r>
 800892a:	230c      	movs	r3, #12
 800892c:	5ee2      	ldrsh	r2, [r4, r3]
 800892e:	2101      	movs	r1, #1
 8008930:	0013      	movs	r3, r2
 8008932:	400b      	ands	r3, r1
 8008934:	420a      	tst	r2, r1
 8008936:	d00b      	beq.n	8008950 <__swsetup_r+0xac>
 8008938:	2300      	movs	r3, #0
 800893a:	60a3      	str	r3, [r4, #8]
 800893c:	6963      	ldr	r3, [r4, #20]
 800893e:	425b      	negs	r3, r3
 8008940:	61a3      	str	r3, [r4, #24]
 8008942:	2000      	movs	r0, #0
 8008944:	6923      	ldr	r3, [r4, #16]
 8008946:	4283      	cmp	r3, r0
 8008948:	d101      	bne.n	800894e <__swsetup_r+0xaa>
 800894a:	0613      	lsls	r3, r2, #24
 800894c:	d4be      	bmi.n	80088cc <__swsetup_r+0x28>
 800894e:	bd70      	pop	{r4, r5, r6, pc}
 8008950:	0791      	lsls	r1, r2, #30
 8008952:	d400      	bmi.n	8008956 <__swsetup_r+0xb2>
 8008954:	6963      	ldr	r3, [r4, #20]
 8008956:	60a3      	str	r3, [r4, #8]
 8008958:	e7f3      	b.n	8008942 <__swsetup_r+0x9e>
 800895a:	46c0      	nop			@ (mov r8, r8)
 800895c:	2000019c 	.word	0x2000019c

08008960 <_raise_r>:
 8008960:	b570      	push	{r4, r5, r6, lr}
 8008962:	0004      	movs	r4, r0
 8008964:	000d      	movs	r5, r1
 8008966:	291f      	cmp	r1, #31
 8008968:	d904      	bls.n	8008974 <_raise_r+0x14>
 800896a:	2316      	movs	r3, #22
 800896c:	6003      	str	r3, [r0, #0]
 800896e:	2001      	movs	r0, #1
 8008970:	4240      	negs	r0, r0
 8008972:	bd70      	pop	{r4, r5, r6, pc}
 8008974:	6bc3      	ldr	r3, [r0, #60]	@ 0x3c
 8008976:	2b00      	cmp	r3, #0
 8008978:	d004      	beq.n	8008984 <_raise_r+0x24>
 800897a:	008a      	lsls	r2, r1, #2
 800897c:	189b      	adds	r3, r3, r2
 800897e:	681a      	ldr	r2, [r3, #0]
 8008980:	2a00      	cmp	r2, #0
 8008982:	d108      	bne.n	8008996 <_raise_r+0x36>
 8008984:	0020      	movs	r0, r4
 8008986:	f000 f831 	bl	80089ec <_getpid_r>
 800898a:	002a      	movs	r2, r5
 800898c:	0001      	movs	r1, r0
 800898e:	0020      	movs	r0, r4
 8008990:	f000 f81a 	bl	80089c8 <_kill_r>
 8008994:	e7ed      	b.n	8008972 <_raise_r+0x12>
 8008996:	2a01      	cmp	r2, #1
 8008998:	d009      	beq.n	80089ae <_raise_r+0x4e>
 800899a:	1c51      	adds	r1, r2, #1
 800899c:	d103      	bne.n	80089a6 <_raise_r+0x46>
 800899e:	2316      	movs	r3, #22
 80089a0:	6003      	str	r3, [r0, #0]
 80089a2:	2001      	movs	r0, #1
 80089a4:	e7e5      	b.n	8008972 <_raise_r+0x12>
 80089a6:	2100      	movs	r1, #0
 80089a8:	0028      	movs	r0, r5
 80089aa:	6019      	str	r1, [r3, #0]
 80089ac:	4790      	blx	r2
 80089ae:	2000      	movs	r0, #0
 80089b0:	e7df      	b.n	8008972 <_raise_r+0x12>
	...

080089b4 <raise>:
 80089b4:	b510      	push	{r4, lr}
 80089b6:	4b03      	ldr	r3, [pc, #12]	@ (80089c4 <raise+0x10>)
 80089b8:	0001      	movs	r1, r0
 80089ba:	6818      	ldr	r0, [r3, #0]
 80089bc:	f7ff ffd0 	bl	8008960 <_raise_r>
 80089c0:	bd10      	pop	{r4, pc}
 80089c2:	46c0      	nop			@ (mov r8, r8)
 80089c4:	2000019c 	.word	0x2000019c

080089c8 <_kill_r>:
 80089c8:	2300      	movs	r3, #0
 80089ca:	b570      	push	{r4, r5, r6, lr}
 80089cc:	4d06      	ldr	r5, [pc, #24]	@ (80089e8 <_kill_r+0x20>)
 80089ce:	0004      	movs	r4, r0
 80089d0:	0008      	movs	r0, r1
 80089d2:	0011      	movs	r1, r2
 80089d4:	602b      	str	r3, [r5, #0]
 80089d6:	f7f9 fc77 	bl	80022c8 <_kill>
 80089da:	1c43      	adds	r3, r0, #1
 80089dc:	d103      	bne.n	80089e6 <_kill_r+0x1e>
 80089de:	682b      	ldr	r3, [r5, #0]
 80089e0:	2b00      	cmp	r3, #0
 80089e2:	d000      	beq.n	80089e6 <_kill_r+0x1e>
 80089e4:	6023      	str	r3, [r4, #0]
 80089e6:	bd70      	pop	{r4, r5, r6, pc}
 80089e8:	20001744 	.word	0x20001744

080089ec <_getpid_r>:
 80089ec:	b510      	push	{r4, lr}
 80089ee:	f7f9 fc69 	bl	80022c4 <_getpid>
 80089f2:	bd10      	pop	{r4, pc}

080089f4 <_malloc_usable_size_r>:
 80089f4:	1f0b      	subs	r3, r1, #4
 80089f6:	681b      	ldr	r3, [r3, #0]
 80089f8:	1f18      	subs	r0, r3, #4
 80089fa:	2b00      	cmp	r3, #0
 80089fc:	da01      	bge.n	8008a02 <_malloc_usable_size_r+0xe>
 80089fe:	580b      	ldr	r3, [r1, r0]
 8008a00:	18c0      	adds	r0, r0, r3
 8008a02:	4770      	bx	lr

08008a04 <__swhatbuf_r>:
 8008a04:	b570      	push	{r4, r5, r6, lr}
 8008a06:	000e      	movs	r6, r1
 8008a08:	001d      	movs	r5, r3
 8008a0a:	230e      	movs	r3, #14
 8008a0c:	5ec9      	ldrsh	r1, [r1, r3]
 8008a0e:	0014      	movs	r4, r2
 8008a10:	b096      	sub	sp, #88	@ 0x58
 8008a12:	2900      	cmp	r1, #0
 8008a14:	da0c      	bge.n	8008a30 <__swhatbuf_r+0x2c>
 8008a16:	89b2      	ldrh	r2, [r6, #12]
 8008a18:	2380      	movs	r3, #128	@ 0x80
 8008a1a:	0011      	movs	r1, r2
 8008a1c:	4019      	ands	r1, r3
 8008a1e:	421a      	tst	r2, r3
 8008a20:	d114      	bne.n	8008a4c <__swhatbuf_r+0x48>
 8008a22:	2380      	movs	r3, #128	@ 0x80
 8008a24:	00db      	lsls	r3, r3, #3
 8008a26:	2000      	movs	r0, #0
 8008a28:	6029      	str	r1, [r5, #0]
 8008a2a:	6023      	str	r3, [r4, #0]
 8008a2c:	b016      	add	sp, #88	@ 0x58
 8008a2e:	bd70      	pop	{r4, r5, r6, pc}
 8008a30:	466a      	mov	r2, sp
 8008a32:	f000 f853 	bl	8008adc <_fstat_r>
 8008a36:	2800      	cmp	r0, #0
 8008a38:	dbed      	blt.n	8008a16 <__swhatbuf_r+0x12>
 8008a3a:	23f0      	movs	r3, #240	@ 0xf0
 8008a3c:	9901      	ldr	r1, [sp, #4]
 8008a3e:	021b      	lsls	r3, r3, #8
 8008a40:	4019      	ands	r1, r3
 8008a42:	4b04      	ldr	r3, [pc, #16]	@ (8008a54 <__swhatbuf_r+0x50>)
 8008a44:	18c9      	adds	r1, r1, r3
 8008a46:	424b      	negs	r3, r1
 8008a48:	4159      	adcs	r1, r3
 8008a4a:	e7ea      	b.n	8008a22 <__swhatbuf_r+0x1e>
 8008a4c:	2100      	movs	r1, #0
 8008a4e:	2340      	movs	r3, #64	@ 0x40
 8008a50:	e7e9      	b.n	8008a26 <__swhatbuf_r+0x22>
 8008a52:	46c0      	nop			@ (mov r8, r8)
 8008a54:	ffffe000 	.word	0xffffe000

08008a58 <__smakebuf_r>:
 8008a58:	b5f0      	push	{r4, r5, r6, r7, lr}
 8008a5a:	2602      	movs	r6, #2
 8008a5c:	898b      	ldrh	r3, [r1, #12]
 8008a5e:	0005      	movs	r5, r0
 8008a60:	000c      	movs	r4, r1
 8008a62:	b085      	sub	sp, #20
 8008a64:	4233      	tst	r3, r6
 8008a66:	d007      	beq.n	8008a78 <__smakebuf_r+0x20>
 8008a68:	0023      	movs	r3, r4
 8008a6a:	3347      	adds	r3, #71	@ 0x47
 8008a6c:	6023      	str	r3, [r4, #0]
 8008a6e:	6123      	str	r3, [r4, #16]
 8008a70:	2301      	movs	r3, #1
 8008a72:	6163      	str	r3, [r4, #20]
 8008a74:	b005      	add	sp, #20
 8008a76:	bdf0      	pop	{r4, r5, r6, r7, pc}
 8008a78:	ab03      	add	r3, sp, #12
 8008a7a:	aa02      	add	r2, sp, #8
 8008a7c:	f7ff ffc2 	bl	8008a04 <__swhatbuf_r>
 8008a80:	9f02      	ldr	r7, [sp, #8]
 8008a82:	9001      	str	r0, [sp, #4]
 8008a84:	0039      	movs	r1, r7
 8008a86:	0028      	movs	r0, r5
 8008a88:	f7ff f8f2 	bl	8007c70 <_malloc_r>
 8008a8c:	2800      	cmp	r0, #0
 8008a8e:	d108      	bne.n	8008aa2 <__smakebuf_r+0x4a>
 8008a90:	220c      	movs	r2, #12
 8008a92:	5ea3      	ldrsh	r3, [r4, r2]
 8008a94:	059a      	lsls	r2, r3, #22
 8008a96:	d4ed      	bmi.n	8008a74 <__smakebuf_r+0x1c>
 8008a98:	2203      	movs	r2, #3
 8008a9a:	4393      	bics	r3, r2
 8008a9c:	431e      	orrs	r6, r3
 8008a9e:	81a6      	strh	r6, [r4, #12]
 8008aa0:	e7e2      	b.n	8008a68 <__smakebuf_r+0x10>
 8008aa2:	2380      	movs	r3, #128	@ 0x80
 8008aa4:	89a2      	ldrh	r2, [r4, #12]
 8008aa6:	6020      	str	r0, [r4, #0]
 8008aa8:	4313      	orrs	r3, r2
 8008aaa:	81a3      	strh	r3, [r4, #12]
 8008aac:	9b03      	ldr	r3, [sp, #12]
 8008aae:	6120      	str	r0, [r4, #16]
 8008ab0:	6167      	str	r7, [r4, #20]
 8008ab2:	2b00      	cmp	r3, #0
 8008ab4:	d00c      	beq.n	8008ad0 <__smakebuf_r+0x78>
 8008ab6:	0028      	movs	r0, r5
 8008ab8:	230e      	movs	r3, #14
 8008aba:	5ee1      	ldrsh	r1, [r4, r3]
 8008abc:	f000 f820 	bl	8008b00 <_isatty_r>
 8008ac0:	2800      	cmp	r0, #0
 8008ac2:	d005      	beq.n	8008ad0 <__smakebuf_r+0x78>
 8008ac4:	2303      	movs	r3, #3
 8008ac6:	89a2      	ldrh	r2, [r4, #12]
 8008ac8:	439a      	bics	r2, r3
 8008aca:	3b02      	subs	r3, #2
 8008acc:	4313      	orrs	r3, r2
 8008ace:	81a3      	strh	r3, [r4, #12]
 8008ad0:	89a3      	ldrh	r3, [r4, #12]
 8008ad2:	9a01      	ldr	r2, [sp, #4]
 8008ad4:	4313      	orrs	r3, r2
 8008ad6:	81a3      	strh	r3, [r4, #12]
 8008ad8:	e7cc      	b.n	8008a74 <__smakebuf_r+0x1c>
	...

08008adc <_fstat_r>:
 8008adc:	2300      	movs	r3, #0
 8008ade:	b570      	push	{r4, r5, r6, lr}
 8008ae0:	4d06      	ldr	r5, [pc, #24]	@ (8008afc <_fstat_r+0x20>)
 8008ae2:	0004      	movs	r4, r0
 8008ae4:	0008      	movs	r0, r1
 8008ae6:	0011      	movs	r1, r2
 8008ae8:	602b      	str	r3, [r5, #0]
 8008aea:	f7f9 fc1b 	bl	8002324 <_fstat>
 8008aee:	1c43      	adds	r3, r0, #1
 8008af0:	d103      	bne.n	8008afa <_fstat_r+0x1e>
 8008af2:	682b      	ldr	r3, [r5, #0]
 8008af4:	2b00      	cmp	r3, #0
 8008af6:	d000      	beq.n	8008afa <_fstat_r+0x1e>
 8008af8:	6023      	str	r3, [r4, #0]
 8008afa:	bd70      	pop	{r4, r5, r6, pc}
 8008afc:	20001744 	.word	0x20001744

08008b00 <_isatty_r>:
 8008b00:	2300      	movs	r3, #0
 8008b02:	b570      	push	{r4, r5, r6, lr}
 8008b04:	4d06      	ldr	r5, [pc, #24]	@ (8008b20 <_isatty_r+0x20>)
 8008b06:	0004      	movs	r4, r0
 8008b08:	0008      	movs	r0, r1
 8008b0a:	602b      	str	r3, [r5, #0]
 8008b0c:	f7f9 fc10 	bl	8002330 <_isatty>
 8008b10:	1c43      	adds	r3, r0, #1
 8008b12:	d103      	bne.n	8008b1c <_isatty_r+0x1c>
 8008b14:	682b      	ldr	r3, [r5, #0]
 8008b16:	2b00      	cmp	r3, #0
 8008b18:	d000      	beq.n	8008b1c <_isatty_r+0x1c>
 8008b1a:	6023      	str	r3, [r4, #0]
 8008b1c:	bd70      	pop	{r4, r5, r6, pc}
 8008b1e:	46c0      	nop			@ (mov r8, r8)
 8008b20:	20001744 	.word	0x20001744

08008b24 <_init>:
 8008b24:	b5f8      	push	{r3, r4, r5, r6, r7, lr}
 8008b26:	46c0      	nop			@ (mov r8, r8)
 8008b28:	bcf8      	pop	{r3, r4, r5, r6, r7}
 8008b2a:	bc08      	pop	{r3}
 8008b2c:	469e      	mov	lr, r3
 8008b2e:	4770      	bx	lr

08008b30 <_fini>:
 8008b30:	b5f8      	push	{r3, r4, r5, r6, r7, lr}
 8008b32:	46c0      	nop			@ (mov r8, r8)
 8008b34:	bcf8      	pop	{r3, r4, r5, r6, r7}
 8008b36:	bc08      	pop	{r3}
 8008b38:	469e      	mov	lr, r3
 8008b3a:	4770      	bx	lr
