
FAC Firmware V2.elf:     file format elf32-littlearm

Sections:
Idx Name          Size      VMA       LMA       File off  Algn
  0 .isr_vector   000000c0  08000000  08000000  00001000  2**0
                  CONTENTS, ALLOC, LOAD, READONLY, DATA
  1 .text         00008524  080000c0  080000c0  000010c0  2**2
                  CONTENTS, ALLOC, LOAD, READONLY, CODE
  2 .rodata       000000e4  080085e4  080085e4  000095e4  2**2
                  CONTENTS, ALLOC, LOAD, READONLY, DATA
  3 .ARM.extab    00000000  080086c8  080086c8  0000a374  2**0
                  CONTENTS, READONLY
  4 .ARM          00000008  080086c8  080086c8  000096c8  2**2
                  CONTENTS, ALLOC, LOAD, READONLY, DATA
  5 .preinit_array 00000000  080086d0  080086d0  0000a374  2**0
                  CONTENTS, ALLOC, LOAD, DATA
  6 .init_array   00000004  080086d0  080086d0  000096d0  2**2
                  CONTENTS, ALLOC, LOAD, READONLY, DATA
  7 .fini_array   00000004  080086d4  080086d4  000096d4  2**2
                  CONTENTS, ALLOC, LOAD, READONLY, DATA
  8 .data         00000374  20000000  080086d8  0000a000  2**2
                  CONTENTS, ALLOC, LOAD, DATA
  9 .bss          000026b4  20000374  08008a4c  0000a374  2**2
                  ALLOC
 10 ._user_heap_stack 00000600  20002a28  08008a4c  0000aa28  2**0
                  ALLOC
 11 .ARM.attributes 00000028  00000000  00000000  0000a374  2**0
                  CONTENTS, READONLY
 12 .comment      00000043  00000000  00000000  0000a39c  2**0
                  CONTENTS, READONLY
 13 .debug_frame  00000398  00000000  00000000  0000a3e0  2**2
                  CONTENTS, READONLY, DEBUGGING, OCTETS

Disassembly of section .text:

080000c0 <__do_global_dtors_aux>:
 80000c0:	b510      	push	{r4, lr}
 80000c2:	4c06      	ldr	r4, [pc, #24]	@ (80000dc <__do_global_dtors_aux+0x1c>)
 80000c4:	7823      	ldrb	r3, [r4, #0]
 80000c6:	2b00      	cmp	r3, #0
 80000c8:	d107      	bne.n	80000da <__do_global_dtors_aux+0x1a>
 80000ca:	4b05      	ldr	r3, [pc, #20]	@ (80000e0 <__do_global_dtors_aux+0x20>)
 80000cc:	2b00      	cmp	r3, #0
 80000ce:	d002      	beq.n	80000d6 <__do_global_dtors_aux+0x16>
 80000d0:	4804      	ldr	r0, [pc, #16]	@ (80000e4 <__do_global_dtors_aux+0x24>)
 80000d2:	e000      	b.n	80000d6 <__do_global_dtors_aux+0x16>
 80000d4:	bf00      	nop
 80000d6:	2301      	movs	r3, #1
 80000d8:	7023      	strb	r3, [r4, #0]
 80000da:	bd10      	pop	{r4, pc}
 80000dc:	20000374 	.word	0x20000374
 80000e0:	00000000 	.word	0x00000000
 80000e4:	080085cc 	.word	0x080085cc

080000e8 <frame_dummy>:
 80000e8:	4b04      	ldr	r3, [pc, #16]	@ (80000fc <frame_dummy+0x14>)
 80000ea:	b510      	push	{r4, lr}
 80000ec:	2b00      	cmp	r3, #0
 80000ee:	d003      	beq.n	80000f8 <frame_dummy+0x10>
 80000f0:	4903      	ldr	r1, [pc, #12]	@ (8000100 <frame_dummy+0x18>)
 80000f2:	4804      	ldr	r0, [pc, #16]	@ (8000104 <frame_dummy+0x1c>)
 80000f4:	e000      	b.n	80000f8 <frame_dummy+0x10>
 80000f6:	bf00      	nop
 80000f8:	bd10      	pop	{r4, pc}
 80000fa:	46c0      	nop			@ (mov r8, r8)
 80000fc:	00000000 	.word	0x00000000
 8000100:	20000378 	.word	0x20000378
 8000104:	080085cc 	.word	0x080085cc

08000108 <strlen>:
 8000108:	2300      	movs	r3, #0
 800010a:	5cc2      	ldrb	r2, [r0, r3]
 800010c:	3301      	adds	r3, #1
 800010e:	2a00      	cmp	r2, #0
 8000110:	d1fb      	bne.n	800010a <strlen+0x2>
 8000112:	1e58      	subs	r0, r3, #1
 8000114:	4770      	bx	lr
	...

08000118 <__gnu_thumb1_case_sqi>:
 8000118:	b402      	push	{r1}
 800011a:	4671      	mov	r1, lr
 800011c:	0849      	lsrs	r1, r1, #1
 800011e:	0049      	lsls	r1, r1, #1
 8000120:	5609      	ldrsb	r1, [r1, r0]
 8000122:	0049      	lsls	r1, r1, #1
 8000124:	448e      	add	lr, r1
 8000126:	bc02      	pop	{r1}
 8000128:	4770      	bx	lr
 800012a:	46c0      	nop			@ (mov r8, r8)

0800012c <__gnu_thumb1_case_uqi>:
 800012c:	b402      	push	{r1}
 800012e:	4671      	mov	r1, lr
 8000130:	0849      	lsrs	r1, r1, #1
 8000132:	0049      	lsls	r1, r1, #1
 8000134:	5c09      	ldrb	r1, [r1, r0]
 8000136:	0049      	lsls	r1, r1, #1
 8000138:	448e      	add	lr, r1
 800013a:	bc02      	pop	{r1}
 800013c:	4770      	bx	lr
 800013e:	46c0      	nop			@ (mov r8, r8)

08000140 <__gnu_thumb1_case_shi>:
 8000140:	b403      	push	{r0, r1}
 8000142:	4671      	mov	r1, lr
 8000144:	0849      	lsrs	r1, r1, #1
 8000146:	0040      	lsls	r0, r0, #1
 8000148:	0049      	lsls	r1, r1, #1
 800014a:	5e09      	ldrsh	r1, [r1, r0]
 800014c:	0049      	lsls	r1, r1, #1
 800014e:	448e      	add	lr, r1
 8000150:	bc03      	pop	{r0, r1}
 8000152:	4770      	bx	lr

08000154 <__udivsi3>:
 8000154:	2200      	movs	r2, #0
 8000156:	0843      	lsrs	r3, r0, #1
 8000158:	428b      	cmp	r3, r1
 800015a:	d374      	bcc.n	8000246 <__udivsi3+0xf2>
 800015c:	0903      	lsrs	r3, r0, #4
 800015e:	428b      	cmp	r3, r1
 8000160:	d35f      	bcc.n	8000222 <__udivsi3+0xce>
 8000162:	0a03      	lsrs	r3, r0, #8
 8000164:	428b      	cmp	r3, r1
 8000166:	d344      	bcc.n	80001f2 <__udivsi3+0x9e>
 8000168:	0b03      	lsrs	r3, r0, #12
 800016a:	428b      	cmp	r3, r1
 800016c:	d328      	bcc.n	80001c0 <__udivsi3+0x6c>
 800016e:	0c03      	lsrs	r3, r0, #16
 8000170:	428b      	cmp	r3, r1
 8000172:	d30d      	bcc.n	8000190 <__udivsi3+0x3c>
 8000174:	22ff      	movs	r2, #255	@ 0xff
 8000176:	0209      	lsls	r1, r1, #8
 8000178:	ba12      	rev	r2, r2
 800017a:	0c03      	lsrs	r3, r0, #16
 800017c:	428b      	cmp	r3, r1
 800017e:	d302      	bcc.n	8000186 <__udivsi3+0x32>
 8000180:	1212      	asrs	r2, r2, #8
 8000182:	0209      	lsls	r1, r1, #8
 8000184:	d065      	beq.n	8000252 <__udivsi3+0xfe>
 8000186:	0b03      	lsrs	r3, r0, #12
 8000188:	428b      	cmp	r3, r1
 800018a:	d319      	bcc.n	80001c0 <__udivsi3+0x6c>
 800018c:	e000      	b.n	8000190 <__udivsi3+0x3c>
 800018e:	0a09      	lsrs	r1, r1, #8
 8000190:	0bc3      	lsrs	r3, r0, #15
 8000192:	428b      	cmp	r3, r1
 8000194:	d301      	bcc.n	800019a <__udivsi3+0x46>
 8000196:	03cb      	lsls	r3, r1, #15
 8000198:	1ac0      	subs	r0, r0, r3
 800019a:	4152      	adcs	r2, r2
 800019c:	0b83      	lsrs	r3, r0, #14
 800019e:	428b      	cmp	r3, r1
 80001a0:	d301      	bcc.n	80001a6 <__udivsi3+0x52>
 80001a2:	038b      	lsls	r3, r1, #14
 80001a4:	1ac0      	subs	r0, r0, r3
 80001a6:	4152      	adcs	r2, r2
 80001a8:	0b43      	lsrs	r3, r0, #13
 80001aa:	428b      	cmp	r3, r1
 80001ac:	d301      	bcc.n	80001b2 <__udivsi3+0x5e>
 80001ae:	034b      	lsls	r3, r1, #13
 80001b0:	1ac0      	subs	r0, r0, r3
 80001b2:	4152      	adcs	r2, r2
 80001b4:	0b03      	lsrs	r3, r0, #12
 80001b6:	428b      	cmp	r3, r1
 80001b8:	d301      	bcc.n	80001be <__udivsi3+0x6a>
 80001ba:	030b      	lsls	r3, r1, #12
 80001bc:	1ac0      	subs	r0, r0, r3
 80001be:	4152      	adcs	r2, r2
 80001c0:	0ac3      	lsrs	r3, r0, #11
 80001c2:	428b      	cmp	r3, r1
 80001c4:	d301      	bcc.n	80001ca <__udivsi3+0x76>
 80001c6:	02cb      	lsls	r3, r1, #11
 80001c8:	1ac0      	subs	r0, r0, r3
 80001ca:	4152      	adcs	r2, r2
 80001cc:	0a83      	lsrs	r3, r0, #10
 80001ce:	428b      	cmp	r3, r1
 80001d0:	d301      	bcc.n	80001d6 <__udivsi3+0x82>
 80001d2:	028b      	lsls	r3, r1, #10
 80001d4:	1ac0      	subs	r0, r0, r3
 80001d6:	4152      	adcs	r2, r2
 80001d8:	0a43      	lsrs	r3, r0, #9
 80001da:	428b      	cmp	r3, r1
 80001dc:	d301      	bcc.n	80001e2 <__udivsi3+0x8e>
 80001de:	024b      	lsls	r3, r1, #9
 80001e0:	1ac0      	subs	r0, r0, r3
 80001e2:	4152      	adcs	r2, r2
 80001e4:	0a03      	lsrs	r3, r0, #8
 80001e6:	428b      	cmp	r3, r1
 80001e8:	d301      	bcc.n	80001ee <__udivsi3+0x9a>
 80001ea:	020b      	lsls	r3, r1, #8
 80001ec:	1ac0      	subs	r0, r0, r3
 80001ee:	4152      	adcs	r2, r2
 80001f0:	d2cd      	bcs.n	800018e <__udivsi3+0x3a>
 80001f2:	09c3      	lsrs	r3, r0, #7
 80001f4:	428b      	cmp	r3, r1
 80001f6:	d301      	bcc.n	80001fc <__udivsi3+0xa8>
 80001f8:	01cb      	lsls	r3, r1, #7
 80001fa:	1ac0      	subs	r0, r0, r3
 80001fc:	4152      	adcs	r2, r2
 80001fe:	0983      	lsrs	r3, r0, #6
 8000200:	428b      	cmp	r3, r1
 8000202:	d301      	bcc.n	8000208 <__udivsi3+0xb4>
 8000204:	018b      	lsls	r3, r1, #6
 8000206:	1ac0      	subs	r0, r0, r3
 8000208:	4152      	adcs	r2, r2
 800020a:	0943      	lsrs	r3, r0, #5
 800020c:	428b      	cmp	r3, r1
 800020e:	d301      	bcc.n	8000214 <__udivsi3+0xc0>
 8000210:	014b      	lsls	r3, r1, #5
 8000212:	1ac0      	subs	r0, r0, r3
 8000214:	4152      	adcs	r2, r2
 8000216:	0903      	lsrs	r3, r0, #4
 8000218:	428b      	cmp	r3, r1
 800021a:	d301      	bcc.n	8000220 <__udivsi3+0xcc>
 800021c:	010b      	lsls	r3, r1, #4
 800021e:	1ac0      	subs	r0, r0, r3
 8000220:	4152      	adcs	r2, r2
 8000222:	08c3      	lsrs	r3, r0, #3
 8000224:	428b      	cmp	r3, r1
 8000226:	d301      	bcc.n	800022c <__udivsi3+0xd8>
 8000228:	00cb      	lsls	r3, r1, #3
 800022a:	1ac0      	subs	r0, r0, r3
 800022c:	4152      	adcs	r2, r2
 800022e:	0883      	lsrs	r3, r0, #2
 8000230:	428b      	cmp	r3, r1
 8000232:	d301      	bcc.n	8000238 <__udivsi3+0xe4>
 8000234:	008b      	lsls	r3, r1, #2
 8000236:	1ac0      	subs	r0, r0, r3
 8000238:	4152      	adcs	r2, r2
 800023a:	0843      	lsrs	r3, r0, #1
 800023c:	428b      	cmp	r3, r1
 800023e:	d301      	bcc.n	8000244 <__udivsi3+0xf0>
 8000240:	004b      	lsls	r3, r1, #1
 8000242:	1ac0      	subs	r0, r0, r3
 8000244:	4152      	adcs	r2, r2
 8000246:	1a41      	subs	r1, r0, r1
 8000248:	d200      	bcs.n	800024c <__udivsi3+0xf8>
 800024a:	4601      	mov	r1, r0
 800024c:	4152      	adcs	r2, r2
 800024e:	4610      	mov	r0, r2
 8000250:	4770      	bx	lr
 8000252:	e7ff      	b.n	8000254 <__udivsi3+0x100>
 8000254:	b501      	push	{r0, lr}
 8000256:	2000      	movs	r0, #0
 8000258:	f000 f8f0 	bl	800043c <__aeabi_idiv0>
 800025c:	bd02      	pop	{r1, pc}
 800025e:	46c0      	nop			@ (mov r8, r8)

08000260 <__aeabi_uidivmod>:
 8000260:	2900      	cmp	r1, #0
 8000262:	d0f7      	beq.n	8000254 <__udivsi3+0x100>
 8000264:	e776      	b.n	8000154 <__udivsi3>
 8000266:	4770      	bx	lr

08000268 <__divsi3>:
 8000268:	4603      	mov	r3, r0
 800026a:	430b      	orrs	r3, r1
 800026c:	d47f      	bmi.n	800036e <__divsi3+0x106>
 800026e:	2200      	movs	r2, #0
 8000270:	0843      	lsrs	r3, r0, #1
 8000272:	428b      	cmp	r3, r1
 8000274:	d374      	bcc.n	8000360 <__divsi3+0xf8>
 8000276:	0903      	lsrs	r3, r0, #4
 8000278:	428b      	cmp	r3, r1
 800027a:	d35f      	bcc.n	800033c <__divsi3+0xd4>
 800027c:	0a03      	lsrs	r3, r0, #8
 800027e:	428b      	cmp	r3, r1
 8000280:	d344      	bcc.n	800030c <__divsi3+0xa4>
 8000282:	0b03      	lsrs	r3, r0, #12
 8000284:	428b      	cmp	r3, r1
 8000286:	d328      	bcc.n	80002da <__divsi3+0x72>
 8000288:	0c03      	lsrs	r3, r0, #16
 800028a:	428b      	cmp	r3, r1
 800028c:	d30d      	bcc.n	80002aa <__divsi3+0x42>
 800028e:	22ff      	movs	r2, #255	@ 0xff
 8000290:	0209      	lsls	r1, r1, #8
 8000292:	ba12      	rev	r2, r2
 8000294:	0c03      	lsrs	r3, r0, #16
 8000296:	428b      	cmp	r3, r1
 8000298:	d302      	bcc.n	80002a0 <__divsi3+0x38>
 800029a:	1212      	asrs	r2, r2, #8
 800029c:	0209      	lsls	r1, r1, #8
 800029e:	d065      	beq.n	800036c <__divsi3+0x104>
 80002a0:	0b03      	lsrs	r3, r0, #12
 80002a2:	428b      	cmp	r3, r1
 80002a4:	d319      	bcc.n	80002da <__divsi3+0x72>
 80002a6:	e000      	b.n	80002aa <__divsi3+0x42>
 80002a8:	0a09      	lsrs	r1, r1, #8
 80002aa:	0bc3      	lsrs	r3, r0, #15
 80002ac:	428b      	cmp	r3, r1
 80002ae:	d301      	bcc.n	80002b4 <__divsi3+0x4c>
 80002b0:	03cb      	lsls	r3, r1, #15
 80002b2:	1ac0      	subs	r0, r0, r3
 80002b4:	4152      	adcs	r2, r2
 80002b6:	0b83      	lsrs	r3, r0, #14
 80002b8:	428b      	cmp	r3, r1
 80002ba:	d301      	bcc.n	80002c0 <__divsi3+0x58>
 80002bc:	038b      	lsls	r3, r1, #14
 80002be:	1ac0      	subs	r0, r0, r3
 80002c0:	4152      	adcs	r2, r2
 80002c2:	0b43      	lsrs	r3, r0, #13
 80002c4:	428b      	cmp	r3, r1
 80002c6:	d301      	bcc.n	80002cc <__divsi3+0x64>
 80002c8:	034b      	lsls	r3, r1, #13
 80002ca:	1ac0      	subs	r0, r0, r3
 80002cc:	4152      	adcs	r2, r2
 80002ce:	0b03      	lsrs	r3, r0, #12
 80002d0:	428b      	cmp	r3, r1
 80002d2:	d301      	bcc.n	80002d8 <__divsi3+0x70>
 80002d4:	030b      	lsls	r3, r1, #12
 80002d6:	1ac0      	subs	r0, r0, r3
 80002d8:	4152      	adcs	r2, r2
 80002da:	0ac3      	lsrs	r3, r0, #11
 80002dc:	428b      	cmp	r3, r1
 80002de:	d301      	bcc.n	80002e4 <__divsi3+0x7c>
 80002e0:	02cb      	lsls	r3, r1, #11
 80002e2:	1ac0      	subs	r0, r0, r3
 80002e4:	4152      	adcs	r2, r2
 80002e6:	0a83      	lsrs	r3, r0, #10
 80002e8:	428b      	cmp	r3, r1
 80002ea:	d301      	bcc.n	80002f0 <__divsi3+0x88>
 80002ec:	028b      	lsls	r3, r1, #10
 80002ee:	1ac0      	subs	r0, r0, r3
 80002f0:	4152      	adcs	r2, r2
 80002f2:	0a43      	lsrs	r3, r0, #9
 80002f4:	428b      	cmp	r3, r1
 80002f6:	d301      	bcc.n	80002fc <__divsi3+0x94>
 80002f8:	024b      	lsls	r3, r1, #9
 80002fa:	1ac0      	subs	r0, r0, r3
 80002fc:	4152      	adcs	r2, r2
 80002fe:	0a03      	lsrs	r3, r0, #8
 8000300:	428b      	cmp	r3, r1
 8000302:	d301      	bcc.n	8000308 <__divsi3+0xa0>
 8000304:	020b      	lsls	r3, r1, #8
 8000306:	1ac0      	subs	r0, r0, r3
 8000308:	4152      	adcs	r2, r2
 800030a:	d2cd      	bcs.n	80002a8 <__divsi3+0x40>
 800030c:	09c3      	lsrs	r3, r0, #7
 800030e:	428b      	cmp	r3, r1
 8000310:	d301      	bcc.n	8000316 <__divsi3+0xae>
 8000312:	01cb      	lsls	r3, r1, #7
 8000314:	1ac0      	subs	r0, r0, r3
 8000316:	4152      	adcs	r2, r2
 8000318:	0983      	lsrs	r3, r0, #6
 800031a:	428b      	cmp	r3, r1
 800031c:	d301      	bcc.n	8000322 <__divsi3+0xba>
 800031e:	018b      	lsls	r3, r1, #6
 8000320:	1ac0      	subs	r0, r0, r3
 8000322:	4152      	adcs	r2, r2
 8000324:	0943      	lsrs	r3, r0, #5
 8000326:	428b      	cmp	r3, r1
 8000328:	d301      	bcc.n	800032e <__divsi3+0xc6>
 800032a:	014b      	lsls	r3, r1, #5
 800032c:	1ac0      	subs	r0, r0, r3
 800032e:	4152      	adcs	r2, r2
 8000330:	0903      	lsrs	r3, r0, #4
 8000332:	428b      	cmp	r3, r1
 8000334:	d301      	bcc.n	800033a <__divsi3+0xd2>
 8000336:	010b      	lsls	r3, r1, #4
 8000338:	1ac0      	subs	r0, r0, r3
 800033a:	4152      	adcs	r2, r2
 800033c:	08c3      	lsrs	r3, r0, #3
 800033e:	428b      	cmp	r3, r1
 8000340:	d301      	bcc.n	8000346 <__divsi3+0xde>
 8000342:	00cb      	lsls	r3, r1, #3
 8000344:	1ac0      	subs	r0, r0, r3
 8000346:	4152      	adcs	r2, r2
 8000348:	0883      	lsrs	r3, r0, #2
 800034a:	428b      	cmp	r3, r1
 800034c:	d301      	bcc.n	8000352 <__divsi3+0xea>
 800034e:	008b      	lsls	r3, r1, #2
 8000350:	1ac0      	subs	r0, r0, r3
 8000352:	4152      	adcs	r2, r2
 8000354:	0843      	lsrs	r3, r0, #1
 8000356:	428b      	cmp	r3, r1
 8000358:	d301      	bcc.n	800035e <__divsi3+0xf6>
 800035a:	004b      	lsls	r3, r1, #1
 800035c:	1ac0      	subs	r0, r0, r3
 800035e:	4152      	adcs	r2, r2
 8000360:	1a41      	subs	r1, r0, r1
 8000362:	d200      	bcs.n	8000366 <__divsi3+0xfe>
 8000364:	4601      	mov	r1, r0
 8000366:	4152      	adcs	r2, r2
 8000368:	4610      	mov	r0, r2
 800036a:	4770      	bx	lr
 800036c:	e05d      	b.n	800042a <__divsi3+0x1c2>
 800036e:	0fca      	lsrs	r2, r1, #31
 8000370:	d000      	beq.n	8000374 <__divsi3+0x10c>
 8000372:	4249      	negs	r1, r1
 8000374:	1003      	asrs	r3, r0, #32
 8000376:	d300      	bcc.n	800037a <__divsi3+0x112>
 8000378:	4240      	negs	r0, r0
 800037a:	4053      	eors	r3, r2
 800037c:	2200      	movs	r2, #0
 800037e:	469c      	mov	ip, r3
 8000380:	0903      	lsrs	r3, r0, #4
 8000382:	428b      	cmp	r3, r1
 8000384:	d32d      	bcc.n	80003e2 <__divsi3+0x17a>
 8000386:	0a03      	lsrs	r3, r0, #8
 8000388:	428b      	cmp	r3, r1
 800038a:	d312      	bcc.n	80003b2 <__divsi3+0x14a>
 800038c:	22fc      	movs	r2, #252	@ 0xfc
 800038e:	0189      	lsls	r1, r1, #6
 8000390:	ba12      	rev	r2, r2
 8000392:	0a03      	lsrs	r3, r0, #8
 8000394:	428b      	cmp	r3, r1
 8000396:	d30c      	bcc.n	80003b2 <__divsi3+0x14a>
 8000398:	0189      	lsls	r1, r1, #6
 800039a:	1192      	asrs	r2, r2, #6
 800039c:	428b      	cmp	r3, r1
 800039e:	d308      	bcc.n	80003b2 <__divsi3+0x14a>
 80003a0:	0189      	lsls	r1, r1, #6
 80003a2:	1192      	asrs	r2, r2, #6
 80003a4:	428b      	cmp	r3, r1
 80003a6:	d304      	bcc.n	80003b2 <__divsi3+0x14a>
 80003a8:	0189      	lsls	r1, r1, #6
 80003aa:	d03a      	beq.n	8000422 <__divsi3+0x1ba>
 80003ac:	1192      	asrs	r2, r2, #6
 80003ae:	e000      	b.n	80003b2 <__divsi3+0x14a>
 80003b0:	0989      	lsrs	r1, r1, #6
 80003b2:	09c3      	lsrs	r3, r0, #7
 80003b4:	428b      	cmp	r3, r1
 80003b6:	d301      	bcc.n	80003bc <__divsi3+0x154>
 80003b8:	01cb      	lsls	r3, r1, #7
 80003ba:	1ac0      	subs	r0, r0, r3
 80003bc:	4152      	adcs	r2, r2
 80003be:	0983      	lsrs	r3, r0, #6
 80003c0:	428b      	cmp	r3, r1
 80003c2:	d301      	bcc.n	80003c8 <__divsi3+0x160>
 80003c4:	018b      	lsls	r3, r1, #6
 80003c6:	1ac0      	subs	r0, r0, r3
 80003c8:	4152      	adcs	r2, r2
 80003ca:	0943      	lsrs	r3, r0, #5
 80003cc:	428b      	cmp	r3, r1
 80003ce:	d301      	bcc.n	80003d4 <__divsi3+0x16c>
 80003d0:	014b      	lsls	r3, r1, #5
 80003d2:	1ac0      	subs	r0, r0, r3
 80003d4:	4152      	adcs	r2, r2
 80003d6:	0903      	lsrs	r3, r0, #4
 80003d8:	428b      	cmp	r3, r1
 80003da:	d301      	bcc.n	80003e0 <__divsi3+0x178>
 80003dc:	010b      	lsls	r3, r1, #4
 80003de:	1ac0      	subs	r0, r0, r3
 80003e0:	4152      	adcs	r2, r2
 80003e2:	08c3      	lsrs	r3, r0, #3
 80003e4:	428b      	cmp	r3, r1
 80003e6:	d301      	bcc.n	80003ec <__divsi3+0x184>
 80003e8:	00cb      	lsls	r3, r1, #3
 80003ea:	1ac0      	subs	r0, r0, r3
 80003ec:	4152      	adcs	r2, r2
 80003ee:	0883      	lsrs	r3, r0, #2
 80003f0:	428b      	cmp	r3, r1
 80003f2:	d301      	bcc.n	80003f8 <__divsi3+0x190>
 80003f4:	008b      	lsls	r3, r1, #2
 80003f6:	1ac0      	subs	r0, r0, r3
 80003f8:	4152      	adcs	r2, r2
 80003fa:	d2d9      	bcs.n	80003b0 <__divsi3+0x148>
 80003fc:	0843      	lsrs	r3, r0, #1
 80003fe:	428b      	cmp	r3, r1
 8000400:	d301      	bcc.n	8000406 <__divsi3+0x19e>
 8000402:	004b      	lsls	r3, r1, #1
 8000404:	1ac0      	subs	r0, r0, r3
 8000406:	4152      	adcs	r2, r2
 8000408:	1a41      	subs	r1, r0, r1
 800040a:	d200      	bcs.n	800040e <__divsi3+0x1a6>
 800040c:	4601      	mov	r1, r0
 800040e:	4663      	mov	r3, ip
 8000410:	4152      	adcs	r2, r2
 8000412:	105b      	asrs	r3, r3, #1
 8000414:	4610      	mov	r0, r2
 8000416:	d301      	bcc.n	800041c <__divsi3+0x1b4>
 8000418:	4240      	negs	r0, r0
 800041a:	2b00      	cmp	r3, #0
 800041c:	d500      	bpl.n	8000420 <__divsi3+0x1b8>
 800041e:	4249      	negs	r1, r1
 8000420:	4770      	bx	lr
 8000422:	4663      	mov	r3, ip
 8000424:	105b      	asrs	r3, r3, #1
 8000426:	d300      	bcc.n	800042a <__divsi3+0x1c2>
 8000428:	4240      	negs	r0, r0
 800042a:	b501      	push	{r0, lr}
 800042c:	2000      	movs	r0, #0
 800042e:	f000 f805 	bl	800043c <__aeabi_idiv0>
 8000432:	bd02      	pop	{r1, pc}

08000434 <__aeabi_idivmod>:
 8000434:	2900      	cmp	r1, #0
 8000436:	d0f8      	beq.n	800042a <__divsi3+0x1c2>
 8000438:	e716      	b.n	8000268 <__divsi3>
 800043a:	4770      	bx	lr

0800043c <__aeabi_idiv0>:
 800043c:	4770      	bx	lr
 800043e:	46c0      	nop			@ (mov r8, r8)

08000440 <__aeabi_cfrcmple>:
 8000440:	4684      	mov	ip, r0
 8000442:	0008      	movs	r0, r1
 8000444:	4661      	mov	r1, ip
 8000446:	e7ff      	b.n	8000448 <__aeabi_cfcmpeq>

08000448 <__aeabi_cfcmpeq>:
 8000448:	b51f      	push	{r0, r1, r2, r3, r4, lr}
 800044a:	f000 fd1f 	bl	8000e8c <__lesf2>
 800044e:	2800      	cmp	r0, #0
 8000450:	d401      	bmi.n	8000456 <__aeabi_cfcmpeq+0xe>
 8000452:	2100      	movs	r1, #0
 8000454:	42c8      	cmn	r0, r1
 8000456:	bd1f      	pop	{r0, r1, r2, r3, r4, pc}

08000458 <__aeabi_fcmpeq>:
 8000458:	b510      	push	{r4, lr}
 800045a:	f000 fca7 	bl	8000dac <__eqsf2>
 800045e:	4240      	negs	r0, r0
 8000460:	3001      	adds	r0, #1
 8000462:	bd10      	pop	{r4, pc}

08000464 <__aeabi_fcmplt>:
 8000464:	b510      	push	{r4, lr}
 8000466:	f000 fd11 	bl	8000e8c <__lesf2>
 800046a:	2800      	cmp	r0, #0
 800046c:	db01      	blt.n	8000472 <__aeabi_fcmplt+0xe>
 800046e:	2000      	movs	r0, #0
 8000470:	bd10      	pop	{r4, pc}
 8000472:	2001      	movs	r0, #1
 8000474:	bd10      	pop	{r4, pc}
 8000476:	46c0      	nop			@ (mov r8, r8)

08000478 <__aeabi_fcmple>:
 8000478:	b510      	push	{r4, lr}
 800047a:	f000 fd07 	bl	8000e8c <__lesf2>
 800047e:	2800      	cmp	r0, #0
 8000480:	dd01      	ble.n	8000486 <__aeabi_fcmple+0xe>
 8000482:	2000      	movs	r0, #0
 8000484:	bd10      	pop	{r4, pc}
 8000486:	2001      	movs	r0, #1
 8000488:	bd10      	pop	{r4, pc}
 800048a:	46c0      	nop			@ (mov r8, r8)

0800048c <__aeabi_fcmpgt>:
 800048c:	b510      	push	{r4, lr}
 800048e:	f000 fcb5 	bl	8000dfc <__gesf2>
 8000492:	2800      	cmp	r0, #0
 8000494:	dc01      	bgt.n	800049a <__aeabi_fcmpgt+0xe>
 8000496:	2000      	movs	r0, #0
 8000498:	bd10      	pop	{r4, pc}
 800049a:	2001      	movs	r0, #1
 800049c:	bd10      	pop	{r4, pc}
 800049e:	46c0      	nop			@ (mov r8, r8)

080004a0 <__aeabi_fcmpge>:
 80004a0:	b510      	push	{r4, lr}
 80004a2:	f000 fcab 	bl	8000dfc <__gesf2>
 80004a6:	2800      	cmp	r0, #0
 80004a8:	da01      	bge.n	80004ae <__aeabi_fcmpge+0xe>
 80004aa:	2000      	movs	r0, #0
 80004ac:	bd10      	pop	{r4, pc}
 80004ae:	2001      	movs	r0, #1
 80004b0:	bd10      	pop	{r4, pc}
 80004b2:	46c0      	nop			@ (mov r8, r8)

080004b4 <__aeabi_ldivmod>:
 80004b4:	2b00      	cmp	r3, #0
 80004b6:	d115      	bne.n	80004e4 <__aeabi_ldivmod+0x30>
 80004b8:	2a00      	cmp	r2, #0
 80004ba:	d113      	bne.n	80004e4 <__aeabi_ldivmod+0x30>
 80004bc:	2900      	cmp	r1, #0
 80004be:	db06      	blt.n	80004ce <__aeabi_ldivmod+0x1a>
 80004c0:	dc01      	bgt.n	80004c6 <__aeabi_ldivmod+0x12>
 80004c2:	2800      	cmp	r0, #0
 80004c4:	d006      	beq.n	80004d4 <__aeabi_ldivmod+0x20>
 80004c6:	2000      	movs	r0, #0
 80004c8:	43c0      	mvns	r0, r0
 80004ca:	0841      	lsrs	r1, r0, #1
 80004cc:	e002      	b.n	80004d4 <__aeabi_ldivmod+0x20>
 80004ce:	2180      	movs	r1, #128	@ 0x80
 80004d0:	0609      	lsls	r1, r1, #24
 80004d2:	2000      	movs	r0, #0
 80004d4:	b407      	push	{r0, r1, r2}
 80004d6:	4802      	ldr	r0, [pc, #8]	@ (80004e0 <__aeabi_ldivmod+0x2c>)
 80004d8:	a101      	add	r1, pc, #4	@ (adr r1, 80004e0 <__aeabi_ldivmod+0x2c>)
 80004da:	1840      	adds	r0, r0, r1
 80004dc:	9002      	str	r0, [sp, #8]
 80004de:	bd03      	pop	{r0, r1, pc}
 80004e0:	ffffff5d 	.word	0xffffff5d
 80004e4:	b403      	push	{r0, r1}
 80004e6:	4668      	mov	r0, sp
 80004e8:	b501      	push	{r0, lr}
 80004ea:	9802      	ldr	r0, [sp, #8]
 80004ec:	f000 f938 	bl	8000760 <__gnu_ldivmod_helper>
 80004f0:	9b01      	ldr	r3, [sp, #4]
 80004f2:	469e      	mov	lr, r3
 80004f4:	b002      	add	sp, #8
 80004f6:	bc0c      	pop	{r2, r3}
 80004f8:	4770      	bx	lr
 80004fa:	46c0      	nop			@ (mov r8, r8)

080004fc <__aeabi_uldivmod>:
 80004fc:	2b00      	cmp	r3, #0
 80004fe:	d111      	bne.n	8000524 <__aeabi_uldivmod+0x28>
 8000500:	2a00      	cmp	r2, #0
 8000502:	d10f      	bne.n	8000524 <__aeabi_uldivmod+0x28>
 8000504:	2900      	cmp	r1, #0
 8000506:	d100      	bne.n	800050a <__aeabi_uldivmod+0xe>
 8000508:	2800      	cmp	r0, #0
 800050a:	d002      	beq.n	8000512 <__aeabi_uldivmod+0x16>
 800050c:	2100      	movs	r1, #0
 800050e:	43c9      	mvns	r1, r1
 8000510:	0008      	movs	r0, r1
 8000512:	b407      	push	{r0, r1, r2}
 8000514:	4802      	ldr	r0, [pc, #8]	@ (8000520 <__aeabi_uldivmod+0x24>)
 8000516:	a102      	add	r1, pc, #8	@ (adr r1, 8000520 <__aeabi_uldivmod+0x24>)
 8000518:	1840      	adds	r0, r0, r1
 800051a:	9002      	str	r0, [sp, #8]
 800051c:	bd03      	pop	{r0, r1, pc}
 800051e:	46c0      	nop			@ (mov r8, r8)
 8000520:	ffffff1d 	.word	0xffffff1d
 8000524:	b403      	push	{r0, r1}
 8000526:	4668      	mov	r0, sp
 8000528:	b501      	push	{r0, lr}
 800052a:	9802      	ldr	r0, [sp, #8]
 800052c:	f000 f84c 	bl	80005c8 <__udivmoddi4>
 8000530:	9b01      	ldr	r3, [sp, #4]
 8000532:	469e      	mov	lr, r3
 8000534:	b002      	add	sp, #8
 8000536:	bc0c      	pop	{r2, r3}
 8000538:	4770      	bx	lr
 800053a:	46c0      	nop			@ (mov r8, r8)

0800053c <__aeabi_lmul>:
 800053c:	b5f0      	push	{r4, r5, r6, r7, lr}
 800053e:	46ce      	mov	lr, r9
 8000540:	4699      	mov	r9, r3
 8000542:	0c03      	lsrs	r3, r0, #16
 8000544:	469c      	mov	ip, r3
 8000546:	0413      	lsls	r3, r2, #16
 8000548:	4647      	mov	r7, r8
 800054a:	0c1b      	lsrs	r3, r3, #16
 800054c:	001d      	movs	r5, r3
 800054e:	000e      	movs	r6, r1
 8000550:	4661      	mov	r1, ip
 8000552:	0404      	lsls	r4, r0, #16
 8000554:	0c24      	lsrs	r4, r4, #16
 8000556:	b580      	push	{r7, lr}
 8000558:	0007      	movs	r7, r0
 800055a:	0c10      	lsrs	r0, r2, #16
 800055c:	434b      	muls	r3, r1
 800055e:	4365      	muls	r5, r4
 8000560:	4341      	muls	r1, r0
 8000562:	4360      	muls	r0, r4
 8000564:	0c2c      	lsrs	r4, r5, #16
 8000566:	18c0      	adds	r0, r0, r3
 8000568:	1824      	adds	r4, r4, r0
 800056a:	468c      	mov	ip, r1
 800056c:	42a3      	cmp	r3, r4
 800056e:	d903      	bls.n	8000578 <__aeabi_lmul+0x3c>
 8000570:	2380      	movs	r3, #128	@ 0x80
 8000572:	025b      	lsls	r3, r3, #9
 8000574:	4698      	mov	r8, r3
 8000576:	44c4      	add	ip, r8
 8000578:	4649      	mov	r1, r9
 800057a:	4379      	muls	r1, r7
 800057c:	4356      	muls	r6, r2
 800057e:	0c23      	lsrs	r3, r4, #16
 8000580:	042d      	lsls	r5, r5, #16
 8000582:	0c2d      	lsrs	r5, r5, #16
 8000584:	1989      	adds	r1, r1, r6
 8000586:	4463      	add	r3, ip
 8000588:	0424      	lsls	r4, r4, #16
 800058a:	1960      	adds	r0, r4, r5
 800058c:	18c9      	adds	r1, r1, r3
 800058e:	bcc0      	pop	{r6, r7}
 8000590:	46b9      	mov	r9, r7
 8000592:	46b0      	mov	r8, r6
 8000594:	bdf0      	pop	{r4, r5, r6, r7, pc}
 8000596:	46c0      	nop			@ (mov r8, r8)

08000598 <__aeabi_f2uiz>:
 8000598:	219e      	movs	r1, #158	@ 0x9e
 800059a:	b510      	push	{r4, lr}
 800059c:	05c9      	lsls	r1, r1, #23
 800059e:	1c04      	adds	r4, r0, #0
 80005a0:	f7ff ff7e 	bl	80004a0 <__aeabi_fcmpge>
 80005a4:	2800      	cmp	r0, #0
 80005a6:	d103      	bne.n	80005b0 <__aeabi_f2uiz+0x18>
 80005a8:	1c20      	adds	r0, r4, #0
 80005aa:	f001 f875 	bl	8001698 <__aeabi_f2iz>
 80005ae:	bd10      	pop	{r4, pc}
 80005b0:	219e      	movs	r1, #158	@ 0x9e
 80005b2:	1c20      	adds	r0, r4, #0
 80005b4:	05c9      	lsls	r1, r1, #23
 80005b6:	f000 fe0b 	bl	80011d0 <__aeabi_fsub>
 80005ba:	f001 f86d 	bl	8001698 <__aeabi_f2iz>
 80005be:	2380      	movs	r3, #128	@ 0x80
 80005c0:	061b      	lsls	r3, r3, #24
 80005c2:	469c      	mov	ip, r3
 80005c4:	4460      	add	r0, ip
 80005c6:	e7f2      	b.n	80005ae <__aeabi_f2uiz+0x16>

080005c8 <__udivmoddi4>:
 80005c8:	b5f0      	push	{r4, r5, r6, r7, lr}
 80005ca:	4657      	mov	r7, sl
 80005cc:	464e      	mov	r6, r9
 80005ce:	4645      	mov	r5, r8
 80005d0:	46de      	mov	lr, fp
 80005d2:	b5e0      	push	{r5, r6, r7, lr}
 80005d4:	0004      	movs	r4, r0
 80005d6:	000d      	movs	r5, r1
 80005d8:	4692      	mov	sl, r2
 80005da:	4699      	mov	r9, r3
 80005dc:	b083      	sub	sp, #12
 80005de:	428b      	cmp	r3, r1
 80005e0:	d830      	bhi.n	8000644 <__udivmoddi4+0x7c>
 80005e2:	d02d      	beq.n	8000640 <__udivmoddi4+0x78>
 80005e4:	4649      	mov	r1, r9
 80005e6:	4650      	mov	r0, sl
 80005e8:	f001 f92a 	bl	8001840 <__clzdi2>
 80005ec:	0029      	movs	r1, r5
 80005ee:	0006      	movs	r6, r0
 80005f0:	0020      	movs	r0, r4
 80005f2:	f001 f925 	bl	8001840 <__clzdi2>
 80005f6:	1a33      	subs	r3, r6, r0
 80005f8:	4698      	mov	r8, r3
 80005fa:	3b20      	subs	r3, #32
 80005fc:	d434      	bmi.n	8000668 <__udivmoddi4+0xa0>
 80005fe:	469b      	mov	fp, r3
 8000600:	4653      	mov	r3, sl
 8000602:	465a      	mov	r2, fp
 8000604:	4093      	lsls	r3, r2
 8000606:	4642      	mov	r2, r8
 8000608:	001f      	movs	r7, r3
 800060a:	4653      	mov	r3, sl
 800060c:	4093      	lsls	r3, r2
 800060e:	001e      	movs	r6, r3
 8000610:	42af      	cmp	r7, r5
 8000612:	d83b      	bhi.n	800068c <__udivmoddi4+0xc4>
 8000614:	42af      	cmp	r7, r5
 8000616:	d100      	bne.n	800061a <__udivmoddi4+0x52>
 8000618:	e079      	b.n	800070e <__udivmoddi4+0x146>
 800061a:	465b      	mov	r3, fp
 800061c:	1ba4      	subs	r4, r4, r6
 800061e:	41bd      	sbcs	r5, r7
 8000620:	2b00      	cmp	r3, #0
 8000622:	da00      	bge.n	8000626 <__udivmoddi4+0x5e>
 8000624:	e076      	b.n	8000714 <__udivmoddi4+0x14c>
 8000626:	2200      	movs	r2, #0
 8000628:	2300      	movs	r3, #0
 800062a:	9200      	str	r2, [sp, #0]
 800062c:	9301      	str	r3, [sp, #4]
 800062e:	2301      	movs	r3, #1
 8000630:	465a      	mov	r2, fp
 8000632:	4093      	lsls	r3, r2
 8000634:	9301      	str	r3, [sp, #4]
 8000636:	2301      	movs	r3, #1
 8000638:	4642      	mov	r2, r8
 800063a:	4093      	lsls	r3, r2
 800063c:	9300      	str	r3, [sp, #0]
 800063e:	e029      	b.n	8000694 <__udivmoddi4+0xcc>
 8000640:	4282      	cmp	r2, r0
 8000642:	d9cf      	bls.n	80005e4 <__udivmoddi4+0x1c>
 8000644:	2200      	movs	r2, #0
 8000646:	2300      	movs	r3, #0
 8000648:	9200      	str	r2, [sp, #0]
 800064a:	9301      	str	r3, [sp, #4]
 800064c:	9b0c      	ldr	r3, [sp, #48]	@ 0x30
 800064e:	2b00      	cmp	r3, #0
 8000650:	d001      	beq.n	8000656 <__udivmoddi4+0x8e>
 8000652:	601c      	str	r4, [r3, #0]
 8000654:	605d      	str	r5, [r3, #4]
 8000656:	9800      	ldr	r0, [sp, #0]
 8000658:	9901      	ldr	r1, [sp, #4]
 800065a:	b003      	add	sp, #12
 800065c:	bcf0      	pop	{r4, r5, r6, r7}
 800065e:	46bb      	mov	fp, r7
 8000660:	46b2      	mov	sl, r6
 8000662:	46a9      	mov	r9, r5
 8000664:	46a0      	mov	r8, r4
 8000666:	bdf0      	pop	{r4, r5, r6, r7, pc}
 8000668:	4642      	mov	r2, r8
 800066a:	469b      	mov	fp, r3
 800066c:	2320      	movs	r3, #32
 800066e:	1a9b      	subs	r3, r3, r2
 8000670:	4652      	mov	r2, sl
 8000672:	40da      	lsrs	r2, r3
 8000674:	4641      	mov	r1, r8
 8000676:	0013      	movs	r3, r2
 8000678:	464a      	mov	r2, r9
 800067a:	408a      	lsls	r2, r1
 800067c:	0017      	movs	r7, r2
 800067e:	4642      	mov	r2, r8
 8000680:	431f      	orrs	r7, r3
 8000682:	4653      	mov	r3, sl
 8000684:	4093      	lsls	r3, r2
 8000686:	001e      	movs	r6, r3
 8000688:	42af      	cmp	r7, r5
 800068a:	d9c3      	bls.n	8000614 <__udivmoddi4+0x4c>
 800068c:	2200      	movs	r2, #0
 800068e:	2300      	movs	r3, #0
 8000690:	9200      	str	r2, [sp, #0]
 8000692:	9301      	str	r3, [sp, #4]
 8000694:	4643      	mov	r3, r8
 8000696:	2b00      	cmp	r3, #0
 8000698:	d0d8      	beq.n	800064c <__udivmoddi4+0x84>
 800069a:	07fb      	lsls	r3, r7, #31
 800069c:	0872      	lsrs	r2, r6, #1
 800069e:	431a      	orrs	r2, r3
 80006a0:	4646      	mov	r6, r8
 80006a2:	087b      	lsrs	r3, r7, #1
 80006a4:	e00e      	b.n	80006c4 <__udivmoddi4+0xfc>
 80006a6:	42ab      	cmp	r3, r5
 80006a8:	d101      	bne.n	80006ae <__udivmoddi4+0xe6>
 80006aa:	42a2      	cmp	r2, r4
 80006ac:	d80c      	bhi.n	80006c8 <__udivmoddi4+0x100>
 80006ae:	1aa4      	subs	r4, r4, r2
 80006b0:	419d      	sbcs	r5, r3
 80006b2:	2001      	movs	r0, #1
 80006b4:	1924      	adds	r4, r4, r4
 80006b6:	416d      	adcs	r5, r5
 80006b8:	2100      	movs	r1, #0
 80006ba:	3e01      	subs	r6, #1
 80006bc:	1824      	adds	r4, r4, r0
 80006be:	414d      	adcs	r5, r1
 80006c0:	2e00      	cmp	r6, #0
 80006c2:	d006      	beq.n	80006d2 <__udivmoddi4+0x10a>
 80006c4:	42ab      	cmp	r3, r5
 80006c6:	d9ee      	bls.n	80006a6 <__udivmoddi4+0xde>
 80006c8:	3e01      	subs	r6, #1
 80006ca:	1924      	adds	r4, r4, r4
 80006cc:	416d      	adcs	r5, r5
 80006ce:	2e00      	cmp	r6, #0
 80006d0:	d1f8      	bne.n	80006c4 <__udivmoddi4+0xfc>
 80006d2:	9800      	ldr	r0, [sp, #0]
 80006d4:	9901      	ldr	r1, [sp, #4]
 80006d6:	465b      	mov	r3, fp
 80006d8:	1900      	adds	r0, r0, r4
 80006da:	4169      	adcs	r1, r5
 80006dc:	2b00      	cmp	r3, #0
 80006de:	db24      	blt.n	800072a <__udivmoddi4+0x162>
 80006e0:	002b      	movs	r3, r5
 80006e2:	465a      	mov	r2, fp
 80006e4:	4644      	mov	r4, r8
 80006e6:	40d3      	lsrs	r3, r2
 80006e8:	002a      	movs	r2, r5
 80006ea:	40e2      	lsrs	r2, r4
 80006ec:	001c      	movs	r4, r3
 80006ee:	465b      	mov	r3, fp
 80006f0:	0015      	movs	r5, r2
 80006f2:	2b00      	cmp	r3, #0
 80006f4:	db2a      	blt.n	800074c <__udivmoddi4+0x184>
 80006f6:	0026      	movs	r6, r4
 80006f8:	409e      	lsls	r6, r3
 80006fa:	0033      	movs	r3, r6
 80006fc:	0026      	movs	r6, r4
 80006fe:	4647      	mov	r7, r8
 8000700:	40be      	lsls	r6, r7
 8000702:	0032      	movs	r2, r6
 8000704:	1a80      	subs	r0, r0, r2
 8000706:	4199      	sbcs	r1, r3
 8000708:	9000      	str	r0, [sp, #0]
 800070a:	9101      	str	r1, [sp, #4]
 800070c:	e79e      	b.n	800064c <__udivmoddi4+0x84>
 800070e:	42a3      	cmp	r3, r4
 8000710:	d8bc      	bhi.n	800068c <__udivmoddi4+0xc4>
 8000712:	e782      	b.n	800061a <__udivmoddi4+0x52>
 8000714:	4642      	mov	r2, r8
 8000716:	2320      	movs	r3, #32
 8000718:	2100      	movs	r1, #0
 800071a:	1a9b      	subs	r3, r3, r2
 800071c:	2200      	movs	r2, #0
 800071e:	9100      	str	r1, [sp, #0]
 8000720:	9201      	str	r2, [sp, #4]
 8000722:	2201      	movs	r2, #1
 8000724:	40da      	lsrs	r2, r3
 8000726:	9201      	str	r2, [sp, #4]
 8000728:	e785      	b.n	8000636 <__udivmoddi4+0x6e>
 800072a:	4642      	mov	r2, r8
 800072c:	2320      	movs	r3, #32
 800072e:	1a9b      	subs	r3, r3, r2
 8000730:	002a      	movs	r2, r5
 8000732:	4646      	mov	r6, r8
 8000734:	409a      	lsls	r2, r3
 8000736:	0023      	movs	r3, r4
 8000738:	40f3      	lsrs	r3, r6
 800073a:	4644      	mov	r4, r8
 800073c:	4313      	orrs	r3, r2
 800073e:	002a      	movs	r2, r5
 8000740:	40e2      	lsrs	r2, r4
 8000742:	001c      	movs	r4, r3
 8000744:	465b      	mov	r3, fp
 8000746:	0015      	movs	r5, r2
 8000748:	2b00      	cmp	r3, #0
 800074a:	dad4      	bge.n	80006f6 <__udivmoddi4+0x12e>
 800074c:	4642      	mov	r2, r8
 800074e:	002f      	movs	r7, r5
 8000750:	2320      	movs	r3, #32
 8000752:	0026      	movs	r6, r4
 8000754:	4097      	lsls	r7, r2
 8000756:	1a9b      	subs	r3, r3, r2
 8000758:	40de      	lsrs	r6, r3
 800075a:	003b      	movs	r3, r7
 800075c:	4333      	orrs	r3, r6
 800075e:	e7cd      	b.n	80006fc <__udivmoddi4+0x134>

08000760 <__gnu_ldivmod_helper>:
 8000760:	b5f8      	push	{r3, r4, r5, r6, r7, lr}
 8000762:	46ce      	mov	lr, r9
 8000764:	4647      	mov	r7, r8
 8000766:	b580      	push	{r7, lr}
 8000768:	4691      	mov	r9, r2
 800076a:	4698      	mov	r8, r3
 800076c:	0004      	movs	r4, r0
 800076e:	000d      	movs	r5, r1
 8000770:	f001 f872 	bl	8001858 <__divdi3>
 8000774:	0007      	movs	r7, r0
 8000776:	000e      	movs	r6, r1
 8000778:	0002      	movs	r2, r0
 800077a:	000b      	movs	r3, r1
 800077c:	4648      	mov	r0, r9
 800077e:	4641      	mov	r1, r8
 8000780:	f7ff fedc 	bl	800053c <__aeabi_lmul>
 8000784:	1a24      	subs	r4, r4, r0
 8000786:	418d      	sbcs	r5, r1
 8000788:	9b08      	ldr	r3, [sp, #32]
 800078a:	0038      	movs	r0, r7
 800078c:	0031      	movs	r1, r6
 800078e:	601c      	str	r4, [r3, #0]
 8000790:	605d      	str	r5, [r3, #4]
 8000792:	bcc0      	pop	{r6, r7}
 8000794:	46b9      	mov	r9, r7
 8000796:	46b0      	mov	r8, r6
 8000798:	bdf8      	pop	{r3, r4, r5, r6, r7, pc}
 800079a:	46c0      	nop			@ (mov r8, r8)

0800079c <__aeabi_fadd>:
 800079c:	b5f8      	push	{r3, r4, r5, r6, r7, lr}
 800079e:	024b      	lsls	r3, r1, #9
 80007a0:	0a5a      	lsrs	r2, r3, #9
 80007a2:	4694      	mov	ip, r2
 80007a4:	004a      	lsls	r2, r1, #1
 80007a6:	0fc9      	lsrs	r1, r1, #31
 80007a8:	46ce      	mov	lr, r9
 80007aa:	4647      	mov	r7, r8
 80007ac:	4689      	mov	r9, r1
 80007ae:	0045      	lsls	r5, r0, #1
 80007b0:	0246      	lsls	r6, r0, #9
 80007b2:	0e2d      	lsrs	r5, r5, #24
 80007b4:	0e12      	lsrs	r2, r2, #24
 80007b6:	b580      	push	{r7, lr}
 80007b8:	0999      	lsrs	r1, r3, #6
 80007ba:	0a77      	lsrs	r7, r6, #9
 80007bc:	0fc4      	lsrs	r4, r0, #31
 80007be:	09b6      	lsrs	r6, r6, #6
 80007c0:	1aab      	subs	r3, r5, r2
 80007c2:	454c      	cmp	r4, r9
 80007c4:	d020      	beq.n	8000808 <__aeabi_fadd+0x6c>
 80007c6:	2b00      	cmp	r3, #0
 80007c8:	dd0c      	ble.n	80007e4 <__aeabi_fadd+0x48>
 80007ca:	2a00      	cmp	r2, #0
 80007cc:	d134      	bne.n	8000838 <__aeabi_fadd+0x9c>
 80007ce:	2900      	cmp	r1, #0
 80007d0:	d02a      	beq.n	8000828 <__aeabi_fadd+0x8c>
 80007d2:	1e5a      	subs	r2, r3, #1
 80007d4:	2b01      	cmp	r3, #1
 80007d6:	d100      	bne.n	80007da <__aeabi_fadd+0x3e>
 80007d8:	e08f      	b.n	80008fa <__aeabi_fadd+0x15e>
 80007da:	2bff      	cmp	r3, #255	@ 0xff
 80007dc:	d100      	bne.n	80007e0 <__aeabi_fadd+0x44>
 80007de:	e0cd      	b.n	800097c <__aeabi_fadd+0x1e0>
 80007e0:	0013      	movs	r3, r2
 80007e2:	e02f      	b.n	8000844 <__aeabi_fadd+0xa8>
 80007e4:	2b00      	cmp	r3, #0
 80007e6:	d060      	beq.n	80008aa <__aeabi_fadd+0x10e>
 80007e8:	1b53      	subs	r3, r2, r5
 80007ea:	2d00      	cmp	r5, #0
 80007ec:	d000      	beq.n	80007f0 <__aeabi_fadd+0x54>
 80007ee:	e0ee      	b.n	80009ce <__aeabi_fadd+0x232>
 80007f0:	2e00      	cmp	r6, #0
 80007f2:	d100      	bne.n	80007f6 <__aeabi_fadd+0x5a>
 80007f4:	e13e      	b.n	8000a74 <__aeabi_fadd+0x2d8>
 80007f6:	1e5c      	subs	r4, r3, #1
 80007f8:	2b01      	cmp	r3, #1
 80007fa:	d100      	bne.n	80007fe <__aeabi_fadd+0x62>
 80007fc:	e16b      	b.n	8000ad6 <__aeabi_fadd+0x33a>
 80007fe:	2bff      	cmp	r3, #255	@ 0xff
 8000800:	d100      	bne.n	8000804 <__aeabi_fadd+0x68>
 8000802:	e0b9      	b.n	8000978 <__aeabi_fadd+0x1dc>
 8000804:	0023      	movs	r3, r4
 8000806:	e0e7      	b.n	80009d8 <__aeabi_fadd+0x23c>
 8000808:	2b00      	cmp	r3, #0
 800080a:	dc00      	bgt.n	800080e <__aeabi_fadd+0x72>
 800080c:	e0a4      	b.n	8000958 <__aeabi_fadd+0x1bc>
 800080e:	2a00      	cmp	r2, #0
 8000810:	d069      	beq.n	80008e6 <__aeabi_fadd+0x14a>
 8000812:	2dff      	cmp	r5, #255	@ 0xff
 8000814:	d100      	bne.n	8000818 <__aeabi_fadd+0x7c>
 8000816:	e0b1      	b.n	800097c <__aeabi_fadd+0x1e0>
 8000818:	2280      	movs	r2, #128	@ 0x80
 800081a:	04d2      	lsls	r2, r2, #19
 800081c:	4311      	orrs	r1, r2
 800081e:	2b1b      	cmp	r3, #27
 8000820:	dc00      	bgt.n	8000824 <__aeabi_fadd+0x88>
 8000822:	e0e9      	b.n	80009f8 <__aeabi_fadd+0x25c>
 8000824:	002b      	movs	r3, r5
 8000826:	3605      	adds	r6, #5
 8000828:	08f7      	lsrs	r7, r6, #3
 800082a:	2bff      	cmp	r3, #255	@ 0xff
 800082c:	d100      	bne.n	8000830 <__aeabi_fadd+0x94>
 800082e:	e0a5      	b.n	800097c <__aeabi_fadd+0x1e0>
 8000830:	027a      	lsls	r2, r7, #9
 8000832:	0a52      	lsrs	r2, r2, #9
 8000834:	b2d8      	uxtb	r0, r3
 8000836:	e030      	b.n	800089a <__aeabi_fadd+0xfe>
 8000838:	2dff      	cmp	r5, #255	@ 0xff
 800083a:	d100      	bne.n	800083e <__aeabi_fadd+0xa2>
 800083c:	e09e      	b.n	800097c <__aeabi_fadd+0x1e0>
 800083e:	2280      	movs	r2, #128	@ 0x80
 8000840:	04d2      	lsls	r2, r2, #19
 8000842:	4311      	orrs	r1, r2
 8000844:	2001      	movs	r0, #1
 8000846:	2b1b      	cmp	r3, #27
 8000848:	dc08      	bgt.n	800085c <__aeabi_fadd+0xc0>
 800084a:	0008      	movs	r0, r1
 800084c:	2220      	movs	r2, #32
 800084e:	40d8      	lsrs	r0, r3
 8000850:	1ad3      	subs	r3, r2, r3
 8000852:	4099      	lsls	r1, r3
 8000854:	000b      	movs	r3, r1
 8000856:	1e5a      	subs	r2, r3, #1
 8000858:	4193      	sbcs	r3, r2
 800085a:	4318      	orrs	r0, r3
 800085c:	1a36      	subs	r6, r6, r0
 800085e:	0173      	lsls	r3, r6, #5
 8000860:	d400      	bmi.n	8000864 <__aeabi_fadd+0xc8>
 8000862:	e071      	b.n	8000948 <__aeabi_fadd+0x1ac>
 8000864:	01b6      	lsls	r6, r6, #6
 8000866:	09b7      	lsrs	r7, r6, #6
 8000868:	0038      	movs	r0, r7
 800086a:	f000 ffcb 	bl	8001804 <__clzsi2>
 800086e:	003b      	movs	r3, r7
 8000870:	3805      	subs	r0, #5
 8000872:	4083      	lsls	r3, r0
 8000874:	4285      	cmp	r5, r0
 8000876:	dd4d      	ble.n	8000914 <__aeabi_fadd+0x178>
 8000878:	4eb4      	ldr	r6, [pc, #720]	@ (8000b4c <__aeabi_fadd+0x3b0>)
 800087a:	1a2d      	subs	r5, r5, r0
 800087c:	401e      	ands	r6, r3
 800087e:	075a      	lsls	r2, r3, #29
 8000880:	d068      	beq.n	8000954 <__aeabi_fadd+0x1b8>
 8000882:	220f      	movs	r2, #15
 8000884:	4013      	ands	r3, r2
 8000886:	2b04      	cmp	r3, #4
 8000888:	d064      	beq.n	8000954 <__aeabi_fadd+0x1b8>
 800088a:	3604      	adds	r6, #4
 800088c:	0173      	lsls	r3, r6, #5
 800088e:	d561      	bpl.n	8000954 <__aeabi_fadd+0x1b8>
 8000890:	1c68      	adds	r0, r5, #1
 8000892:	2dfe      	cmp	r5, #254	@ 0xfe
 8000894:	d154      	bne.n	8000940 <__aeabi_fadd+0x1a4>
 8000896:	20ff      	movs	r0, #255	@ 0xff
 8000898:	2200      	movs	r2, #0
 800089a:	05c0      	lsls	r0, r0, #23
 800089c:	4310      	orrs	r0, r2
 800089e:	07e4      	lsls	r4, r4, #31
 80008a0:	4320      	orrs	r0, r4
 80008a2:	bcc0      	pop	{r6, r7}
 80008a4:	46b9      	mov	r9, r7
 80008a6:	46b0      	mov	r8, r6
 80008a8:	bdf8      	pop	{r3, r4, r5, r6, r7, pc}
 80008aa:	22fe      	movs	r2, #254	@ 0xfe
 80008ac:	4690      	mov	r8, r2
 80008ae:	1c68      	adds	r0, r5, #1
 80008b0:	0002      	movs	r2, r0
 80008b2:	4640      	mov	r0, r8
 80008b4:	4210      	tst	r0, r2
 80008b6:	d16b      	bne.n	8000990 <__aeabi_fadd+0x1f4>
 80008b8:	2d00      	cmp	r5, #0
 80008ba:	d000      	beq.n	80008be <__aeabi_fadd+0x122>
 80008bc:	e0dd      	b.n	8000a7a <__aeabi_fadd+0x2de>
 80008be:	2e00      	cmp	r6, #0
 80008c0:	d100      	bne.n	80008c4 <__aeabi_fadd+0x128>
 80008c2:	e102      	b.n	8000aca <__aeabi_fadd+0x32e>
 80008c4:	2900      	cmp	r1, #0
 80008c6:	d0b3      	beq.n	8000830 <__aeabi_fadd+0x94>
 80008c8:	2280      	movs	r2, #128	@ 0x80
 80008ca:	1a77      	subs	r7, r6, r1
 80008cc:	04d2      	lsls	r2, r2, #19
 80008ce:	4217      	tst	r7, r2
 80008d0:	d100      	bne.n	80008d4 <__aeabi_fadd+0x138>
 80008d2:	e136      	b.n	8000b42 <__aeabi_fadd+0x3a6>
 80008d4:	464c      	mov	r4, r9
 80008d6:	1b8e      	subs	r6, r1, r6
 80008d8:	d061      	beq.n	800099e <__aeabi_fadd+0x202>
 80008da:	2001      	movs	r0, #1
 80008dc:	4216      	tst	r6, r2
 80008de:	d130      	bne.n	8000942 <__aeabi_fadd+0x1a6>
 80008e0:	2300      	movs	r3, #0
 80008e2:	08f7      	lsrs	r7, r6, #3
 80008e4:	e7a4      	b.n	8000830 <__aeabi_fadd+0x94>
 80008e6:	2900      	cmp	r1, #0
 80008e8:	d09e      	beq.n	8000828 <__aeabi_fadd+0x8c>
 80008ea:	1e5a      	subs	r2, r3, #1
 80008ec:	2b01      	cmp	r3, #1
 80008ee:	d100      	bne.n	80008f2 <__aeabi_fadd+0x156>
 80008f0:	e0ca      	b.n	8000a88 <__aeabi_fadd+0x2ec>
 80008f2:	2bff      	cmp	r3, #255	@ 0xff
 80008f4:	d042      	beq.n	800097c <__aeabi_fadd+0x1e0>
 80008f6:	0013      	movs	r3, r2
 80008f8:	e791      	b.n	800081e <__aeabi_fadd+0x82>
 80008fa:	1a71      	subs	r1, r6, r1
 80008fc:	014b      	lsls	r3, r1, #5
 80008fe:	d400      	bmi.n	8000902 <__aeabi_fadd+0x166>
 8000900:	e0d1      	b.n	8000aa6 <__aeabi_fadd+0x30a>
 8000902:	018f      	lsls	r7, r1, #6
 8000904:	09bf      	lsrs	r7, r7, #6
 8000906:	0038      	movs	r0, r7
 8000908:	f000 ff7c 	bl	8001804 <__clzsi2>
 800090c:	003b      	movs	r3, r7
 800090e:	3805      	subs	r0, #5
 8000910:	4083      	lsls	r3, r0
 8000912:	2501      	movs	r5, #1
 8000914:	2220      	movs	r2, #32
 8000916:	1b40      	subs	r0, r0, r5
 8000918:	3001      	adds	r0, #1
 800091a:	1a12      	subs	r2, r2, r0
 800091c:	001e      	movs	r6, r3
 800091e:	4093      	lsls	r3, r2
 8000920:	40c6      	lsrs	r6, r0
 8000922:	1e5a      	subs	r2, r3, #1
 8000924:	4193      	sbcs	r3, r2
 8000926:	431e      	orrs	r6, r3
 8000928:	d039      	beq.n	800099e <__aeabi_fadd+0x202>
 800092a:	0773      	lsls	r3, r6, #29
 800092c:	d100      	bne.n	8000930 <__aeabi_fadd+0x194>
 800092e:	e11b      	b.n	8000b68 <__aeabi_fadd+0x3cc>
 8000930:	230f      	movs	r3, #15
 8000932:	2500      	movs	r5, #0
 8000934:	4033      	ands	r3, r6
 8000936:	2b04      	cmp	r3, #4
 8000938:	d1a7      	bne.n	800088a <__aeabi_fadd+0xee>
 800093a:	2001      	movs	r0, #1
 800093c:	0172      	lsls	r2, r6, #5
 800093e:	d57c      	bpl.n	8000a3a <__aeabi_fadd+0x29e>
 8000940:	b2c0      	uxtb	r0, r0
 8000942:	01b2      	lsls	r2, r6, #6
 8000944:	0a52      	lsrs	r2, r2, #9
 8000946:	e7a8      	b.n	800089a <__aeabi_fadd+0xfe>
 8000948:	0773      	lsls	r3, r6, #29
 800094a:	d003      	beq.n	8000954 <__aeabi_fadd+0x1b8>
 800094c:	230f      	movs	r3, #15
 800094e:	4033      	ands	r3, r6
 8000950:	2b04      	cmp	r3, #4
 8000952:	d19a      	bne.n	800088a <__aeabi_fadd+0xee>
 8000954:	002b      	movs	r3, r5
 8000956:	e767      	b.n	8000828 <__aeabi_fadd+0x8c>
 8000958:	2b00      	cmp	r3, #0
 800095a:	d023      	beq.n	80009a4 <__aeabi_fadd+0x208>
 800095c:	1b53      	subs	r3, r2, r5
 800095e:	2d00      	cmp	r5, #0
 8000960:	d17b      	bne.n	8000a5a <__aeabi_fadd+0x2be>
 8000962:	2e00      	cmp	r6, #0
 8000964:	d100      	bne.n	8000968 <__aeabi_fadd+0x1cc>
 8000966:	e086      	b.n	8000a76 <__aeabi_fadd+0x2da>
 8000968:	1e5d      	subs	r5, r3, #1
 800096a:	2b01      	cmp	r3, #1
 800096c:	d100      	bne.n	8000970 <__aeabi_fadd+0x1d4>
 800096e:	e08b      	b.n	8000a88 <__aeabi_fadd+0x2ec>
 8000970:	2bff      	cmp	r3, #255	@ 0xff
 8000972:	d002      	beq.n	800097a <__aeabi_fadd+0x1de>
 8000974:	002b      	movs	r3, r5
 8000976:	e075      	b.n	8000a64 <__aeabi_fadd+0x2c8>
 8000978:	464c      	mov	r4, r9
 800097a:	4667      	mov	r7, ip
 800097c:	2f00      	cmp	r7, #0
 800097e:	d100      	bne.n	8000982 <__aeabi_fadd+0x1e6>
 8000980:	e789      	b.n	8000896 <__aeabi_fadd+0xfa>
 8000982:	2280      	movs	r2, #128	@ 0x80
 8000984:	03d2      	lsls	r2, r2, #15
 8000986:	433a      	orrs	r2, r7
 8000988:	0252      	lsls	r2, r2, #9
 800098a:	20ff      	movs	r0, #255	@ 0xff
 800098c:	0a52      	lsrs	r2, r2, #9
 800098e:	e784      	b.n	800089a <__aeabi_fadd+0xfe>
 8000990:	1a77      	subs	r7, r6, r1
 8000992:	017b      	lsls	r3, r7, #5
 8000994:	d46b      	bmi.n	8000a6e <__aeabi_fadd+0x2d2>
 8000996:	2f00      	cmp	r7, #0
 8000998:	d000      	beq.n	800099c <__aeabi_fadd+0x200>
 800099a:	e765      	b.n	8000868 <__aeabi_fadd+0xcc>
 800099c:	2400      	movs	r4, #0
 800099e:	2000      	movs	r0, #0
 80009a0:	2200      	movs	r2, #0
 80009a2:	e77a      	b.n	800089a <__aeabi_fadd+0xfe>
 80009a4:	22fe      	movs	r2, #254	@ 0xfe
 80009a6:	1c6b      	adds	r3, r5, #1
 80009a8:	421a      	tst	r2, r3
 80009aa:	d149      	bne.n	8000a40 <__aeabi_fadd+0x2a4>
 80009ac:	2d00      	cmp	r5, #0
 80009ae:	d000      	beq.n	80009b2 <__aeabi_fadd+0x216>
 80009b0:	e09f      	b.n	8000af2 <__aeabi_fadd+0x356>
 80009b2:	2e00      	cmp	r6, #0
 80009b4:	d100      	bne.n	80009b8 <__aeabi_fadd+0x21c>
 80009b6:	e0ba      	b.n	8000b2e <__aeabi_fadd+0x392>
 80009b8:	2900      	cmp	r1, #0
 80009ba:	d100      	bne.n	80009be <__aeabi_fadd+0x222>
 80009bc:	e0cf      	b.n	8000b5e <__aeabi_fadd+0x3c2>
 80009be:	1872      	adds	r2, r6, r1
 80009c0:	0153      	lsls	r3, r2, #5
 80009c2:	d400      	bmi.n	80009c6 <__aeabi_fadd+0x22a>
 80009c4:	e0cd      	b.n	8000b62 <__aeabi_fadd+0x3c6>
 80009c6:	0192      	lsls	r2, r2, #6
 80009c8:	2001      	movs	r0, #1
 80009ca:	0a52      	lsrs	r2, r2, #9
 80009cc:	e765      	b.n	800089a <__aeabi_fadd+0xfe>
 80009ce:	2aff      	cmp	r2, #255	@ 0xff
 80009d0:	d0d2      	beq.n	8000978 <__aeabi_fadd+0x1dc>
 80009d2:	2080      	movs	r0, #128	@ 0x80
 80009d4:	04c0      	lsls	r0, r0, #19
 80009d6:	4306      	orrs	r6, r0
 80009d8:	2001      	movs	r0, #1
 80009da:	2b1b      	cmp	r3, #27
 80009dc:	dc08      	bgt.n	80009f0 <__aeabi_fadd+0x254>
 80009de:	0030      	movs	r0, r6
 80009e0:	2420      	movs	r4, #32
 80009e2:	40d8      	lsrs	r0, r3
 80009e4:	1ae3      	subs	r3, r4, r3
 80009e6:	409e      	lsls	r6, r3
 80009e8:	0033      	movs	r3, r6
 80009ea:	1e5c      	subs	r4, r3, #1
 80009ec:	41a3      	sbcs	r3, r4
 80009ee:	4318      	orrs	r0, r3
 80009f0:	464c      	mov	r4, r9
 80009f2:	0015      	movs	r5, r2
 80009f4:	1a0e      	subs	r6, r1, r0
 80009f6:	e732      	b.n	800085e <__aeabi_fadd+0xc2>
 80009f8:	0008      	movs	r0, r1
 80009fa:	2220      	movs	r2, #32
 80009fc:	40d8      	lsrs	r0, r3
 80009fe:	1ad3      	subs	r3, r2, r3
 8000a00:	4099      	lsls	r1, r3
 8000a02:	000b      	movs	r3, r1
 8000a04:	1e5a      	subs	r2, r3, #1
 8000a06:	4193      	sbcs	r3, r2
 8000a08:	4303      	orrs	r3, r0
 8000a0a:	18f6      	adds	r6, r6, r3
 8000a0c:	0173      	lsls	r3, r6, #5
 8000a0e:	d59b      	bpl.n	8000948 <__aeabi_fadd+0x1ac>
 8000a10:	3501      	adds	r5, #1
 8000a12:	2dff      	cmp	r5, #255	@ 0xff
 8000a14:	d100      	bne.n	8000a18 <__aeabi_fadd+0x27c>
 8000a16:	e73e      	b.n	8000896 <__aeabi_fadd+0xfa>
 8000a18:	2301      	movs	r3, #1
 8000a1a:	494d      	ldr	r1, [pc, #308]	@ (8000b50 <__aeabi_fadd+0x3b4>)
 8000a1c:	0872      	lsrs	r2, r6, #1
 8000a1e:	4033      	ands	r3, r6
 8000a20:	400a      	ands	r2, r1
 8000a22:	431a      	orrs	r2, r3
 8000a24:	0016      	movs	r6, r2
 8000a26:	0753      	lsls	r3, r2, #29
 8000a28:	d004      	beq.n	8000a34 <__aeabi_fadd+0x298>
 8000a2a:	230f      	movs	r3, #15
 8000a2c:	4013      	ands	r3, r2
 8000a2e:	2b04      	cmp	r3, #4
 8000a30:	d000      	beq.n	8000a34 <__aeabi_fadd+0x298>
 8000a32:	e72a      	b.n	800088a <__aeabi_fadd+0xee>
 8000a34:	0173      	lsls	r3, r6, #5
 8000a36:	d500      	bpl.n	8000a3a <__aeabi_fadd+0x29e>
 8000a38:	e72a      	b.n	8000890 <__aeabi_fadd+0xf4>
 8000a3a:	002b      	movs	r3, r5
 8000a3c:	08f7      	lsrs	r7, r6, #3
 8000a3e:	e6f7      	b.n	8000830 <__aeabi_fadd+0x94>
 8000a40:	2bff      	cmp	r3, #255	@ 0xff
 8000a42:	d100      	bne.n	8000a46 <__aeabi_fadd+0x2aa>
 8000a44:	e727      	b.n	8000896 <__aeabi_fadd+0xfa>
 8000a46:	1871      	adds	r1, r6, r1
 8000a48:	0849      	lsrs	r1, r1, #1
 8000a4a:	074a      	lsls	r2, r1, #29
 8000a4c:	d02f      	beq.n	8000aae <__aeabi_fadd+0x312>
 8000a4e:	220f      	movs	r2, #15
 8000a50:	400a      	ands	r2, r1
 8000a52:	2a04      	cmp	r2, #4
 8000a54:	d02b      	beq.n	8000aae <__aeabi_fadd+0x312>
 8000a56:	1d0e      	adds	r6, r1, #4
 8000a58:	e6e6      	b.n	8000828 <__aeabi_fadd+0x8c>
 8000a5a:	2aff      	cmp	r2, #255	@ 0xff
 8000a5c:	d08d      	beq.n	800097a <__aeabi_fadd+0x1de>
 8000a5e:	2080      	movs	r0, #128	@ 0x80
 8000a60:	04c0      	lsls	r0, r0, #19
 8000a62:	4306      	orrs	r6, r0
 8000a64:	2b1b      	cmp	r3, #27
 8000a66:	dd24      	ble.n	8000ab2 <__aeabi_fadd+0x316>
 8000a68:	0013      	movs	r3, r2
 8000a6a:	1d4e      	adds	r6, r1, #5
 8000a6c:	e6dc      	b.n	8000828 <__aeabi_fadd+0x8c>
 8000a6e:	464c      	mov	r4, r9
 8000a70:	1b8f      	subs	r7, r1, r6
 8000a72:	e6f9      	b.n	8000868 <__aeabi_fadd+0xcc>
 8000a74:	464c      	mov	r4, r9
 8000a76:	000e      	movs	r6, r1
 8000a78:	e6d6      	b.n	8000828 <__aeabi_fadd+0x8c>
 8000a7a:	2e00      	cmp	r6, #0
 8000a7c:	d149      	bne.n	8000b12 <__aeabi_fadd+0x376>
 8000a7e:	2900      	cmp	r1, #0
 8000a80:	d068      	beq.n	8000b54 <__aeabi_fadd+0x3b8>
 8000a82:	4667      	mov	r7, ip
 8000a84:	464c      	mov	r4, r9
 8000a86:	e77c      	b.n	8000982 <__aeabi_fadd+0x1e6>
 8000a88:	1870      	adds	r0, r6, r1
 8000a8a:	0143      	lsls	r3, r0, #5
 8000a8c:	d574      	bpl.n	8000b78 <__aeabi_fadd+0x3dc>
 8000a8e:	4930      	ldr	r1, [pc, #192]	@ (8000b50 <__aeabi_fadd+0x3b4>)
 8000a90:	0840      	lsrs	r0, r0, #1
 8000a92:	4001      	ands	r1, r0
 8000a94:	0743      	lsls	r3, r0, #29
 8000a96:	d009      	beq.n	8000aac <__aeabi_fadd+0x310>
 8000a98:	230f      	movs	r3, #15
 8000a9a:	4003      	ands	r3, r0
 8000a9c:	2b04      	cmp	r3, #4
 8000a9e:	d005      	beq.n	8000aac <__aeabi_fadd+0x310>
 8000aa0:	2302      	movs	r3, #2
 8000aa2:	1d0e      	adds	r6, r1, #4
 8000aa4:	e6c0      	b.n	8000828 <__aeabi_fadd+0x8c>
 8000aa6:	2301      	movs	r3, #1
 8000aa8:	08cf      	lsrs	r7, r1, #3
 8000aaa:	e6c1      	b.n	8000830 <__aeabi_fadd+0x94>
 8000aac:	2302      	movs	r3, #2
 8000aae:	08cf      	lsrs	r7, r1, #3
 8000ab0:	e6be      	b.n	8000830 <__aeabi_fadd+0x94>
 8000ab2:	2520      	movs	r5, #32
 8000ab4:	0030      	movs	r0, r6
 8000ab6:	40d8      	lsrs	r0, r3
 8000ab8:	1aeb      	subs	r3, r5, r3
 8000aba:	409e      	lsls	r6, r3
 8000abc:	0033      	movs	r3, r6
 8000abe:	1e5d      	subs	r5, r3, #1
 8000ac0:	41ab      	sbcs	r3, r5
 8000ac2:	4303      	orrs	r3, r0
 8000ac4:	0015      	movs	r5, r2
 8000ac6:	185e      	adds	r6, r3, r1
 8000ac8:	e7a0      	b.n	8000a0c <__aeabi_fadd+0x270>
 8000aca:	2900      	cmp	r1, #0
 8000acc:	d100      	bne.n	8000ad0 <__aeabi_fadd+0x334>
 8000ace:	e765      	b.n	800099c <__aeabi_fadd+0x200>
 8000ad0:	464c      	mov	r4, r9
 8000ad2:	4667      	mov	r7, ip
 8000ad4:	e6ac      	b.n	8000830 <__aeabi_fadd+0x94>
 8000ad6:	1b8f      	subs	r7, r1, r6
 8000ad8:	017b      	lsls	r3, r7, #5
 8000ada:	d52e      	bpl.n	8000b3a <__aeabi_fadd+0x39e>
 8000adc:	01bf      	lsls	r7, r7, #6
 8000ade:	09bf      	lsrs	r7, r7, #6
 8000ae0:	0038      	movs	r0, r7
 8000ae2:	f000 fe8f 	bl	8001804 <__clzsi2>
 8000ae6:	003b      	movs	r3, r7
 8000ae8:	3805      	subs	r0, #5
 8000aea:	4083      	lsls	r3, r0
 8000aec:	464c      	mov	r4, r9
 8000aee:	3501      	adds	r5, #1
 8000af0:	e710      	b.n	8000914 <__aeabi_fadd+0x178>
 8000af2:	2e00      	cmp	r6, #0
 8000af4:	d100      	bne.n	8000af8 <__aeabi_fadd+0x35c>
 8000af6:	e740      	b.n	800097a <__aeabi_fadd+0x1de>
 8000af8:	2900      	cmp	r1, #0
 8000afa:	d100      	bne.n	8000afe <__aeabi_fadd+0x362>
 8000afc:	e741      	b.n	8000982 <__aeabi_fadd+0x1e6>
 8000afe:	2380      	movs	r3, #128	@ 0x80
 8000b00:	03db      	lsls	r3, r3, #15
 8000b02:	429f      	cmp	r7, r3
 8000b04:	d200      	bcs.n	8000b08 <__aeabi_fadd+0x36c>
 8000b06:	e73c      	b.n	8000982 <__aeabi_fadd+0x1e6>
 8000b08:	459c      	cmp	ip, r3
 8000b0a:	d300      	bcc.n	8000b0e <__aeabi_fadd+0x372>
 8000b0c:	e739      	b.n	8000982 <__aeabi_fadd+0x1e6>
 8000b0e:	4667      	mov	r7, ip
 8000b10:	e737      	b.n	8000982 <__aeabi_fadd+0x1e6>
 8000b12:	2900      	cmp	r1, #0
 8000b14:	d100      	bne.n	8000b18 <__aeabi_fadd+0x37c>
 8000b16:	e734      	b.n	8000982 <__aeabi_fadd+0x1e6>
 8000b18:	2380      	movs	r3, #128	@ 0x80
 8000b1a:	03db      	lsls	r3, r3, #15
 8000b1c:	429f      	cmp	r7, r3
 8000b1e:	d200      	bcs.n	8000b22 <__aeabi_fadd+0x386>
 8000b20:	e72f      	b.n	8000982 <__aeabi_fadd+0x1e6>
 8000b22:	459c      	cmp	ip, r3
 8000b24:	d300      	bcc.n	8000b28 <__aeabi_fadd+0x38c>
 8000b26:	e72c      	b.n	8000982 <__aeabi_fadd+0x1e6>
 8000b28:	464c      	mov	r4, r9
 8000b2a:	4667      	mov	r7, ip
 8000b2c:	e729      	b.n	8000982 <__aeabi_fadd+0x1e6>
 8000b2e:	2900      	cmp	r1, #0
 8000b30:	d100      	bne.n	8000b34 <__aeabi_fadd+0x398>
 8000b32:	e734      	b.n	800099e <__aeabi_fadd+0x202>
 8000b34:	2300      	movs	r3, #0
 8000b36:	08cf      	lsrs	r7, r1, #3
 8000b38:	e67a      	b.n	8000830 <__aeabi_fadd+0x94>
 8000b3a:	464c      	mov	r4, r9
 8000b3c:	2301      	movs	r3, #1
 8000b3e:	08ff      	lsrs	r7, r7, #3
 8000b40:	e676      	b.n	8000830 <__aeabi_fadd+0x94>
 8000b42:	2f00      	cmp	r7, #0
 8000b44:	d100      	bne.n	8000b48 <__aeabi_fadd+0x3ac>
 8000b46:	e729      	b.n	800099c <__aeabi_fadd+0x200>
 8000b48:	08ff      	lsrs	r7, r7, #3
 8000b4a:	e671      	b.n	8000830 <__aeabi_fadd+0x94>
 8000b4c:	fbffffff 	.word	0xfbffffff
 8000b50:	7dffffff 	.word	0x7dffffff
 8000b54:	2280      	movs	r2, #128	@ 0x80
 8000b56:	2400      	movs	r4, #0
 8000b58:	20ff      	movs	r0, #255	@ 0xff
 8000b5a:	03d2      	lsls	r2, r2, #15
 8000b5c:	e69d      	b.n	800089a <__aeabi_fadd+0xfe>
 8000b5e:	2300      	movs	r3, #0
 8000b60:	e666      	b.n	8000830 <__aeabi_fadd+0x94>
 8000b62:	2300      	movs	r3, #0
 8000b64:	08d7      	lsrs	r7, r2, #3
 8000b66:	e663      	b.n	8000830 <__aeabi_fadd+0x94>
 8000b68:	2001      	movs	r0, #1
 8000b6a:	0172      	lsls	r2, r6, #5
 8000b6c:	d500      	bpl.n	8000b70 <__aeabi_fadd+0x3d4>
 8000b6e:	e6e7      	b.n	8000940 <__aeabi_fadd+0x1a4>
 8000b70:	0031      	movs	r1, r6
 8000b72:	2300      	movs	r3, #0
 8000b74:	08cf      	lsrs	r7, r1, #3
 8000b76:	e65b      	b.n	8000830 <__aeabi_fadd+0x94>
 8000b78:	2301      	movs	r3, #1
 8000b7a:	08c7      	lsrs	r7, r0, #3
 8000b7c:	e658      	b.n	8000830 <__aeabi_fadd+0x94>
 8000b7e:	46c0      	nop			@ (mov r8, r8)

08000b80 <__aeabi_fdiv>:
 8000b80:	b5f0      	push	{r4, r5, r6, r7, lr}
 8000b82:	4646      	mov	r6, r8
 8000b84:	464f      	mov	r7, r9
 8000b86:	46d6      	mov	lr, sl
 8000b88:	0245      	lsls	r5, r0, #9
 8000b8a:	b5c0      	push	{r6, r7, lr}
 8000b8c:	0fc3      	lsrs	r3, r0, #31
 8000b8e:	0047      	lsls	r7, r0, #1
 8000b90:	4698      	mov	r8, r3
 8000b92:	1c0e      	adds	r6, r1, #0
 8000b94:	0a6d      	lsrs	r5, r5, #9
 8000b96:	0e3f      	lsrs	r7, r7, #24
 8000b98:	d05b      	beq.n	8000c52 <__aeabi_fdiv+0xd2>
 8000b9a:	2fff      	cmp	r7, #255	@ 0xff
 8000b9c:	d021      	beq.n	8000be2 <__aeabi_fdiv+0x62>
 8000b9e:	2380      	movs	r3, #128	@ 0x80
 8000ba0:	00ed      	lsls	r5, r5, #3
 8000ba2:	04db      	lsls	r3, r3, #19
 8000ba4:	431d      	orrs	r5, r3
 8000ba6:	2300      	movs	r3, #0
 8000ba8:	4699      	mov	r9, r3
 8000baa:	469a      	mov	sl, r3
 8000bac:	3f7f      	subs	r7, #127	@ 0x7f
 8000bae:	0274      	lsls	r4, r6, #9
 8000bb0:	0073      	lsls	r3, r6, #1
 8000bb2:	0a64      	lsrs	r4, r4, #9
 8000bb4:	0e1b      	lsrs	r3, r3, #24
 8000bb6:	0ff6      	lsrs	r6, r6, #31
 8000bb8:	2b00      	cmp	r3, #0
 8000bba:	d020      	beq.n	8000bfe <__aeabi_fdiv+0x7e>
 8000bbc:	2bff      	cmp	r3, #255	@ 0xff
 8000bbe:	d043      	beq.n	8000c48 <__aeabi_fdiv+0xc8>
 8000bc0:	2280      	movs	r2, #128	@ 0x80
 8000bc2:	2000      	movs	r0, #0
 8000bc4:	00e4      	lsls	r4, r4, #3
 8000bc6:	04d2      	lsls	r2, r2, #19
 8000bc8:	4314      	orrs	r4, r2
 8000bca:	3b7f      	subs	r3, #127	@ 0x7f
 8000bcc:	4642      	mov	r2, r8
 8000bce:	1aff      	subs	r7, r7, r3
 8000bd0:	464b      	mov	r3, r9
 8000bd2:	4072      	eors	r2, r6
 8000bd4:	2b0f      	cmp	r3, #15
 8000bd6:	d900      	bls.n	8000bda <__aeabi_fdiv+0x5a>
 8000bd8:	e09d      	b.n	8000d16 <__aeabi_fdiv+0x196>
 8000bda:	4971      	ldr	r1, [pc, #452]	@ (8000da0 <__aeabi_fdiv+0x220>)
 8000bdc:	009b      	lsls	r3, r3, #2
 8000bde:	58cb      	ldr	r3, [r1, r3]
 8000be0:	469f      	mov	pc, r3
 8000be2:	2d00      	cmp	r5, #0
 8000be4:	d15a      	bne.n	8000c9c <__aeabi_fdiv+0x11c>
 8000be6:	2308      	movs	r3, #8
 8000be8:	4699      	mov	r9, r3
 8000bea:	3b06      	subs	r3, #6
 8000bec:	0274      	lsls	r4, r6, #9
 8000bee:	469a      	mov	sl, r3
 8000bf0:	0073      	lsls	r3, r6, #1
 8000bf2:	27ff      	movs	r7, #255	@ 0xff
 8000bf4:	0a64      	lsrs	r4, r4, #9
 8000bf6:	0e1b      	lsrs	r3, r3, #24
 8000bf8:	0ff6      	lsrs	r6, r6, #31
 8000bfa:	2b00      	cmp	r3, #0
 8000bfc:	d1de      	bne.n	8000bbc <__aeabi_fdiv+0x3c>
 8000bfe:	2c00      	cmp	r4, #0
 8000c00:	d13b      	bne.n	8000c7a <__aeabi_fdiv+0xfa>
 8000c02:	2301      	movs	r3, #1
 8000c04:	4642      	mov	r2, r8
 8000c06:	4649      	mov	r1, r9
 8000c08:	4072      	eors	r2, r6
 8000c0a:	4319      	orrs	r1, r3
 8000c0c:	290e      	cmp	r1, #14
 8000c0e:	d818      	bhi.n	8000c42 <__aeabi_fdiv+0xc2>
 8000c10:	4864      	ldr	r0, [pc, #400]	@ (8000da4 <__aeabi_fdiv+0x224>)
 8000c12:	0089      	lsls	r1, r1, #2
 8000c14:	5841      	ldr	r1, [r0, r1]
 8000c16:	468f      	mov	pc, r1
 8000c18:	4653      	mov	r3, sl
 8000c1a:	2b02      	cmp	r3, #2
 8000c1c:	d100      	bne.n	8000c20 <__aeabi_fdiv+0xa0>
 8000c1e:	e0b8      	b.n	8000d92 <__aeabi_fdiv+0x212>
 8000c20:	2b03      	cmp	r3, #3
 8000c22:	d06e      	beq.n	8000d02 <__aeabi_fdiv+0x182>
 8000c24:	4642      	mov	r2, r8
 8000c26:	002c      	movs	r4, r5
 8000c28:	2b01      	cmp	r3, #1
 8000c2a:	d140      	bne.n	8000cae <__aeabi_fdiv+0x12e>
 8000c2c:	2000      	movs	r0, #0
 8000c2e:	2400      	movs	r4, #0
 8000c30:	05c0      	lsls	r0, r0, #23
 8000c32:	4320      	orrs	r0, r4
 8000c34:	07d2      	lsls	r2, r2, #31
 8000c36:	4310      	orrs	r0, r2
 8000c38:	bce0      	pop	{r5, r6, r7}
 8000c3a:	46ba      	mov	sl, r7
 8000c3c:	46b1      	mov	r9, r6
 8000c3e:	46a8      	mov	r8, r5
 8000c40:	bdf0      	pop	{r4, r5, r6, r7, pc}
 8000c42:	20ff      	movs	r0, #255	@ 0xff
 8000c44:	2400      	movs	r4, #0
 8000c46:	e7f3      	b.n	8000c30 <__aeabi_fdiv+0xb0>
 8000c48:	2c00      	cmp	r4, #0
 8000c4a:	d120      	bne.n	8000c8e <__aeabi_fdiv+0x10e>
 8000c4c:	2302      	movs	r3, #2
 8000c4e:	3fff      	subs	r7, #255	@ 0xff
 8000c50:	e7d8      	b.n	8000c04 <__aeabi_fdiv+0x84>
 8000c52:	2d00      	cmp	r5, #0
 8000c54:	d105      	bne.n	8000c62 <__aeabi_fdiv+0xe2>
 8000c56:	2304      	movs	r3, #4
 8000c58:	4699      	mov	r9, r3
 8000c5a:	3b03      	subs	r3, #3
 8000c5c:	2700      	movs	r7, #0
 8000c5e:	469a      	mov	sl, r3
 8000c60:	e7a5      	b.n	8000bae <__aeabi_fdiv+0x2e>
 8000c62:	0028      	movs	r0, r5
 8000c64:	f000 fdce 	bl	8001804 <__clzsi2>
 8000c68:	2776      	movs	r7, #118	@ 0x76
 8000c6a:	1f43      	subs	r3, r0, #5
 8000c6c:	409d      	lsls	r5, r3
 8000c6e:	2300      	movs	r3, #0
 8000c70:	427f      	negs	r7, r7
 8000c72:	4699      	mov	r9, r3
 8000c74:	469a      	mov	sl, r3
 8000c76:	1a3f      	subs	r7, r7, r0
 8000c78:	e799      	b.n	8000bae <__aeabi_fdiv+0x2e>
 8000c7a:	0020      	movs	r0, r4
 8000c7c:	f000 fdc2 	bl	8001804 <__clzsi2>
 8000c80:	1f43      	subs	r3, r0, #5
 8000c82:	409c      	lsls	r4, r3
 8000c84:	2376      	movs	r3, #118	@ 0x76
 8000c86:	425b      	negs	r3, r3
 8000c88:	1a1b      	subs	r3, r3, r0
 8000c8a:	2000      	movs	r0, #0
 8000c8c:	e79e      	b.n	8000bcc <__aeabi_fdiv+0x4c>
 8000c8e:	2303      	movs	r3, #3
 8000c90:	464a      	mov	r2, r9
 8000c92:	431a      	orrs	r2, r3
 8000c94:	4691      	mov	r9, r2
 8000c96:	2003      	movs	r0, #3
 8000c98:	33fc      	adds	r3, #252	@ 0xfc
 8000c9a:	e797      	b.n	8000bcc <__aeabi_fdiv+0x4c>
 8000c9c:	230c      	movs	r3, #12
 8000c9e:	4699      	mov	r9, r3
 8000ca0:	3b09      	subs	r3, #9
 8000ca2:	27ff      	movs	r7, #255	@ 0xff
 8000ca4:	469a      	mov	sl, r3
 8000ca6:	e782      	b.n	8000bae <__aeabi_fdiv+0x2e>
 8000ca8:	2803      	cmp	r0, #3
 8000caa:	d02c      	beq.n	8000d06 <__aeabi_fdiv+0x186>
 8000cac:	0032      	movs	r2, r6
 8000cae:	0038      	movs	r0, r7
 8000cb0:	307f      	adds	r0, #127	@ 0x7f
 8000cb2:	2800      	cmp	r0, #0
 8000cb4:	dd47      	ble.n	8000d46 <__aeabi_fdiv+0x1c6>
 8000cb6:	0763      	lsls	r3, r4, #29
 8000cb8:	d004      	beq.n	8000cc4 <__aeabi_fdiv+0x144>
 8000cba:	230f      	movs	r3, #15
 8000cbc:	4023      	ands	r3, r4
 8000cbe:	2b04      	cmp	r3, #4
 8000cc0:	d000      	beq.n	8000cc4 <__aeabi_fdiv+0x144>
 8000cc2:	3404      	adds	r4, #4
 8000cc4:	0123      	lsls	r3, r4, #4
 8000cc6:	d503      	bpl.n	8000cd0 <__aeabi_fdiv+0x150>
 8000cc8:	0038      	movs	r0, r7
 8000cca:	4b37      	ldr	r3, [pc, #220]	@ (8000da8 <__aeabi_fdiv+0x228>)
 8000ccc:	3080      	adds	r0, #128	@ 0x80
 8000cce:	401c      	ands	r4, r3
 8000cd0:	28fe      	cmp	r0, #254	@ 0xfe
 8000cd2:	dcb6      	bgt.n	8000c42 <__aeabi_fdiv+0xc2>
 8000cd4:	01a4      	lsls	r4, r4, #6
 8000cd6:	0a64      	lsrs	r4, r4, #9
 8000cd8:	b2c0      	uxtb	r0, r0
 8000cda:	e7a9      	b.n	8000c30 <__aeabi_fdiv+0xb0>
 8000cdc:	2480      	movs	r4, #128	@ 0x80
 8000cde:	2200      	movs	r2, #0
 8000ce0:	20ff      	movs	r0, #255	@ 0xff
 8000ce2:	03e4      	lsls	r4, r4, #15
 8000ce4:	e7a4      	b.n	8000c30 <__aeabi_fdiv+0xb0>
 8000ce6:	2380      	movs	r3, #128	@ 0x80
 8000ce8:	03db      	lsls	r3, r3, #15
 8000cea:	421d      	tst	r5, r3
 8000cec:	d001      	beq.n	8000cf2 <__aeabi_fdiv+0x172>
 8000cee:	421c      	tst	r4, r3
 8000cf0:	d00b      	beq.n	8000d0a <__aeabi_fdiv+0x18a>
 8000cf2:	2480      	movs	r4, #128	@ 0x80
 8000cf4:	03e4      	lsls	r4, r4, #15
 8000cf6:	432c      	orrs	r4, r5
 8000cf8:	0264      	lsls	r4, r4, #9
 8000cfa:	4642      	mov	r2, r8
 8000cfc:	20ff      	movs	r0, #255	@ 0xff
 8000cfe:	0a64      	lsrs	r4, r4, #9
 8000d00:	e796      	b.n	8000c30 <__aeabi_fdiv+0xb0>
 8000d02:	4646      	mov	r6, r8
 8000d04:	002c      	movs	r4, r5
 8000d06:	2380      	movs	r3, #128	@ 0x80
 8000d08:	03db      	lsls	r3, r3, #15
 8000d0a:	431c      	orrs	r4, r3
 8000d0c:	0264      	lsls	r4, r4, #9
 8000d0e:	0032      	movs	r2, r6
 8000d10:	20ff      	movs	r0, #255	@ 0xff
 8000d12:	0a64      	lsrs	r4, r4, #9
 8000d14:	e78c      	b.n	8000c30 <__aeabi_fdiv+0xb0>
 8000d16:	016d      	lsls	r5, r5, #5
 8000d18:	0160      	lsls	r0, r4, #5
 8000d1a:	4285      	cmp	r5, r0
 8000d1c:	d22d      	bcs.n	8000d7a <__aeabi_fdiv+0x1fa>
 8000d1e:	231b      	movs	r3, #27
 8000d20:	2400      	movs	r4, #0
 8000d22:	3f01      	subs	r7, #1
 8000d24:	2601      	movs	r6, #1
 8000d26:	0029      	movs	r1, r5
 8000d28:	0064      	lsls	r4, r4, #1
 8000d2a:	006d      	lsls	r5, r5, #1
 8000d2c:	2900      	cmp	r1, #0
 8000d2e:	db01      	blt.n	8000d34 <__aeabi_fdiv+0x1b4>
 8000d30:	4285      	cmp	r5, r0
 8000d32:	d301      	bcc.n	8000d38 <__aeabi_fdiv+0x1b8>
 8000d34:	1a2d      	subs	r5, r5, r0
 8000d36:	4334      	orrs	r4, r6
 8000d38:	3b01      	subs	r3, #1
 8000d3a:	2b00      	cmp	r3, #0
 8000d3c:	d1f3      	bne.n	8000d26 <__aeabi_fdiv+0x1a6>
 8000d3e:	1e6b      	subs	r3, r5, #1
 8000d40:	419d      	sbcs	r5, r3
 8000d42:	432c      	orrs	r4, r5
 8000d44:	e7b3      	b.n	8000cae <__aeabi_fdiv+0x12e>
 8000d46:	2301      	movs	r3, #1
 8000d48:	1a1b      	subs	r3, r3, r0
 8000d4a:	2b1b      	cmp	r3, #27
 8000d4c:	dd00      	ble.n	8000d50 <__aeabi_fdiv+0x1d0>
 8000d4e:	e76d      	b.n	8000c2c <__aeabi_fdiv+0xac>
 8000d50:	0021      	movs	r1, r4
 8000d52:	379e      	adds	r7, #158	@ 0x9e
 8000d54:	40d9      	lsrs	r1, r3
 8000d56:	40bc      	lsls	r4, r7
 8000d58:	000b      	movs	r3, r1
 8000d5a:	1e61      	subs	r1, r4, #1
 8000d5c:	418c      	sbcs	r4, r1
 8000d5e:	4323      	orrs	r3, r4
 8000d60:	0759      	lsls	r1, r3, #29
 8000d62:	d004      	beq.n	8000d6e <__aeabi_fdiv+0x1ee>
 8000d64:	210f      	movs	r1, #15
 8000d66:	4019      	ands	r1, r3
 8000d68:	2904      	cmp	r1, #4
 8000d6a:	d000      	beq.n	8000d6e <__aeabi_fdiv+0x1ee>
 8000d6c:	3304      	adds	r3, #4
 8000d6e:	0159      	lsls	r1, r3, #5
 8000d70:	d413      	bmi.n	8000d9a <__aeabi_fdiv+0x21a>
 8000d72:	019b      	lsls	r3, r3, #6
 8000d74:	2000      	movs	r0, #0
 8000d76:	0a5c      	lsrs	r4, r3, #9
 8000d78:	e75a      	b.n	8000c30 <__aeabi_fdiv+0xb0>
 8000d7a:	231a      	movs	r3, #26
 8000d7c:	2401      	movs	r4, #1
 8000d7e:	1a2d      	subs	r5, r5, r0
 8000d80:	e7d0      	b.n	8000d24 <__aeabi_fdiv+0x1a4>
 8000d82:	1e98      	subs	r0, r3, #2
 8000d84:	4243      	negs	r3, r0
 8000d86:	4158      	adcs	r0, r3
 8000d88:	4240      	negs	r0, r0
 8000d8a:	0032      	movs	r2, r6
 8000d8c:	2400      	movs	r4, #0
 8000d8e:	b2c0      	uxtb	r0, r0
 8000d90:	e74e      	b.n	8000c30 <__aeabi_fdiv+0xb0>
 8000d92:	4642      	mov	r2, r8
 8000d94:	20ff      	movs	r0, #255	@ 0xff
 8000d96:	2400      	movs	r4, #0
 8000d98:	e74a      	b.n	8000c30 <__aeabi_fdiv+0xb0>
 8000d9a:	2001      	movs	r0, #1
 8000d9c:	2400      	movs	r4, #0
 8000d9e:	e747      	b.n	8000c30 <__aeabi_fdiv+0xb0>
 8000da0:	080085e4 	.word	0x080085e4
 8000da4:	08008624 	.word	0x08008624
 8000da8:	f7ffffff 	.word	0xf7ffffff

08000dac <__eqsf2>:
 8000dac:	b570      	push	{r4, r5, r6, lr}
 8000dae:	0042      	lsls	r2, r0, #1
 8000db0:	024e      	lsls	r6, r1, #9
 8000db2:	004c      	lsls	r4, r1, #1
 8000db4:	0245      	lsls	r5, r0, #9
 8000db6:	0a6d      	lsrs	r5, r5, #9
 8000db8:	0e12      	lsrs	r2, r2, #24
 8000dba:	0fc3      	lsrs	r3, r0, #31
 8000dbc:	0a76      	lsrs	r6, r6, #9
 8000dbe:	0e24      	lsrs	r4, r4, #24
 8000dc0:	0fc9      	lsrs	r1, r1, #31
 8000dc2:	2aff      	cmp	r2, #255	@ 0xff
 8000dc4:	d010      	beq.n	8000de8 <__eqsf2+0x3c>
 8000dc6:	2cff      	cmp	r4, #255	@ 0xff
 8000dc8:	d00c      	beq.n	8000de4 <__eqsf2+0x38>
 8000dca:	2001      	movs	r0, #1
 8000dcc:	42a2      	cmp	r2, r4
 8000dce:	d10a      	bne.n	8000de6 <__eqsf2+0x3a>
 8000dd0:	42b5      	cmp	r5, r6
 8000dd2:	d108      	bne.n	8000de6 <__eqsf2+0x3a>
 8000dd4:	428b      	cmp	r3, r1
 8000dd6:	d00f      	beq.n	8000df8 <__eqsf2+0x4c>
 8000dd8:	2a00      	cmp	r2, #0
 8000dda:	d104      	bne.n	8000de6 <__eqsf2+0x3a>
 8000ddc:	0028      	movs	r0, r5
 8000dde:	1e43      	subs	r3, r0, #1
 8000de0:	4198      	sbcs	r0, r3
 8000de2:	e000      	b.n	8000de6 <__eqsf2+0x3a>
 8000de4:	2001      	movs	r0, #1
 8000de6:	bd70      	pop	{r4, r5, r6, pc}
 8000de8:	2001      	movs	r0, #1
 8000dea:	2cff      	cmp	r4, #255	@ 0xff
 8000dec:	d1fb      	bne.n	8000de6 <__eqsf2+0x3a>
 8000dee:	4335      	orrs	r5, r6
 8000df0:	d1f9      	bne.n	8000de6 <__eqsf2+0x3a>
 8000df2:	404b      	eors	r3, r1
 8000df4:	0018      	movs	r0, r3
 8000df6:	e7f6      	b.n	8000de6 <__eqsf2+0x3a>
 8000df8:	2000      	movs	r0, #0
 8000dfa:	e7f4      	b.n	8000de6 <__eqsf2+0x3a>

08000dfc <__gesf2>:
 8000dfc:	b530      	push	{r4, r5, lr}
 8000dfe:	0042      	lsls	r2, r0, #1
 8000e00:	0244      	lsls	r4, r0, #9
 8000e02:	024d      	lsls	r5, r1, #9
 8000e04:	0fc3      	lsrs	r3, r0, #31
 8000e06:	0048      	lsls	r0, r1, #1
 8000e08:	0a64      	lsrs	r4, r4, #9
 8000e0a:	0e12      	lsrs	r2, r2, #24
 8000e0c:	0a6d      	lsrs	r5, r5, #9
 8000e0e:	0e00      	lsrs	r0, r0, #24
 8000e10:	0fc9      	lsrs	r1, r1, #31
 8000e12:	2aff      	cmp	r2, #255	@ 0xff
 8000e14:	d018      	beq.n	8000e48 <__gesf2+0x4c>
 8000e16:	28ff      	cmp	r0, #255	@ 0xff
 8000e18:	d00a      	beq.n	8000e30 <__gesf2+0x34>
 8000e1a:	2a00      	cmp	r2, #0
 8000e1c:	d11e      	bne.n	8000e5c <__gesf2+0x60>
 8000e1e:	2800      	cmp	r0, #0
 8000e20:	d10a      	bne.n	8000e38 <__gesf2+0x3c>
 8000e22:	2d00      	cmp	r5, #0
 8000e24:	d029      	beq.n	8000e7a <__gesf2+0x7e>
 8000e26:	2c00      	cmp	r4, #0
 8000e28:	d12d      	bne.n	8000e86 <__gesf2+0x8a>
 8000e2a:	0048      	lsls	r0, r1, #1
 8000e2c:	3801      	subs	r0, #1
 8000e2e:	bd30      	pop	{r4, r5, pc}
 8000e30:	2d00      	cmp	r5, #0
 8000e32:	d125      	bne.n	8000e80 <__gesf2+0x84>
 8000e34:	2a00      	cmp	r2, #0
 8000e36:	d101      	bne.n	8000e3c <__gesf2+0x40>
 8000e38:	2c00      	cmp	r4, #0
 8000e3a:	d0f6      	beq.n	8000e2a <__gesf2+0x2e>
 8000e3c:	428b      	cmp	r3, r1
 8000e3e:	d019      	beq.n	8000e74 <__gesf2+0x78>
 8000e40:	2001      	movs	r0, #1
 8000e42:	425b      	negs	r3, r3
 8000e44:	4318      	orrs	r0, r3
 8000e46:	e7f2      	b.n	8000e2e <__gesf2+0x32>
 8000e48:	2c00      	cmp	r4, #0
 8000e4a:	d119      	bne.n	8000e80 <__gesf2+0x84>
 8000e4c:	28ff      	cmp	r0, #255	@ 0xff
 8000e4e:	d1f7      	bne.n	8000e40 <__gesf2+0x44>
 8000e50:	2d00      	cmp	r5, #0
 8000e52:	d115      	bne.n	8000e80 <__gesf2+0x84>
 8000e54:	2000      	movs	r0, #0
 8000e56:	428b      	cmp	r3, r1
 8000e58:	d1f2      	bne.n	8000e40 <__gesf2+0x44>
 8000e5a:	e7e8      	b.n	8000e2e <__gesf2+0x32>
 8000e5c:	2800      	cmp	r0, #0
 8000e5e:	d0ef      	beq.n	8000e40 <__gesf2+0x44>
 8000e60:	428b      	cmp	r3, r1
 8000e62:	d1ed      	bne.n	8000e40 <__gesf2+0x44>
 8000e64:	4282      	cmp	r2, r0
 8000e66:	dceb      	bgt.n	8000e40 <__gesf2+0x44>
 8000e68:	db04      	blt.n	8000e74 <__gesf2+0x78>
 8000e6a:	42ac      	cmp	r4, r5
 8000e6c:	d8e8      	bhi.n	8000e40 <__gesf2+0x44>
 8000e6e:	2000      	movs	r0, #0
 8000e70:	42ac      	cmp	r4, r5
 8000e72:	d2dc      	bcs.n	8000e2e <__gesf2+0x32>
 8000e74:	0058      	lsls	r0, r3, #1
 8000e76:	3801      	subs	r0, #1
 8000e78:	e7d9      	b.n	8000e2e <__gesf2+0x32>
 8000e7a:	2c00      	cmp	r4, #0
 8000e7c:	d0d7      	beq.n	8000e2e <__gesf2+0x32>
 8000e7e:	e7df      	b.n	8000e40 <__gesf2+0x44>
 8000e80:	2002      	movs	r0, #2
 8000e82:	4240      	negs	r0, r0
 8000e84:	e7d3      	b.n	8000e2e <__gesf2+0x32>
 8000e86:	428b      	cmp	r3, r1
 8000e88:	d1da      	bne.n	8000e40 <__gesf2+0x44>
 8000e8a:	e7ee      	b.n	8000e6a <__gesf2+0x6e>

08000e8c <__lesf2>:
 8000e8c:	b530      	push	{r4, r5, lr}
 8000e8e:	0042      	lsls	r2, r0, #1
 8000e90:	0244      	lsls	r4, r0, #9
 8000e92:	024d      	lsls	r5, r1, #9
 8000e94:	0fc3      	lsrs	r3, r0, #31
 8000e96:	0048      	lsls	r0, r1, #1
 8000e98:	0a64      	lsrs	r4, r4, #9
 8000e9a:	0e12      	lsrs	r2, r2, #24
 8000e9c:	0a6d      	lsrs	r5, r5, #9
 8000e9e:	0e00      	lsrs	r0, r0, #24
 8000ea0:	0fc9      	lsrs	r1, r1, #31
 8000ea2:	2aff      	cmp	r2, #255	@ 0xff
 8000ea4:	d017      	beq.n	8000ed6 <__lesf2+0x4a>
 8000ea6:	28ff      	cmp	r0, #255	@ 0xff
 8000ea8:	d00a      	beq.n	8000ec0 <__lesf2+0x34>
 8000eaa:	2a00      	cmp	r2, #0
 8000eac:	d11b      	bne.n	8000ee6 <__lesf2+0x5a>
 8000eae:	2800      	cmp	r0, #0
 8000eb0:	d10a      	bne.n	8000ec8 <__lesf2+0x3c>
 8000eb2:	2d00      	cmp	r5, #0
 8000eb4:	d01d      	beq.n	8000ef2 <__lesf2+0x66>
 8000eb6:	2c00      	cmp	r4, #0
 8000eb8:	d12d      	bne.n	8000f16 <__lesf2+0x8a>
 8000eba:	0048      	lsls	r0, r1, #1
 8000ebc:	3801      	subs	r0, #1
 8000ebe:	e011      	b.n	8000ee4 <__lesf2+0x58>
 8000ec0:	2d00      	cmp	r5, #0
 8000ec2:	d10e      	bne.n	8000ee2 <__lesf2+0x56>
 8000ec4:	2a00      	cmp	r2, #0
 8000ec6:	d101      	bne.n	8000ecc <__lesf2+0x40>
 8000ec8:	2c00      	cmp	r4, #0
 8000eca:	d0f6      	beq.n	8000eba <__lesf2+0x2e>
 8000ecc:	428b      	cmp	r3, r1
 8000ece:	d10c      	bne.n	8000eea <__lesf2+0x5e>
 8000ed0:	0058      	lsls	r0, r3, #1
 8000ed2:	3801      	subs	r0, #1
 8000ed4:	e006      	b.n	8000ee4 <__lesf2+0x58>
 8000ed6:	2c00      	cmp	r4, #0
 8000ed8:	d103      	bne.n	8000ee2 <__lesf2+0x56>
 8000eda:	28ff      	cmp	r0, #255	@ 0xff
 8000edc:	d105      	bne.n	8000eea <__lesf2+0x5e>
 8000ede:	2d00      	cmp	r5, #0
 8000ee0:	d015      	beq.n	8000f0e <__lesf2+0x82>
 8000ee2:	2002      	movs	r0, #2
 8000ee4:	bd30      	pop	{r4, r5, pc}
 8000ee6:	2800      	cmp	r0, #0
 8000ee8:	d106      	bne.n	8000ef8 <__lesf2+0x6c>
 8000eea:	2001      	movs	r0, #1
 8000eec:	425b      	negs	r3, r3
 8000eee:	4318      	orrs	r0, r3
 8000ef0:	e7f8      	b.n	8000ee4 <__lesf2+0x58>
 8000ef2:	2c00      	cmp	r4, #0
 8000ef4:	d0f6      	beq.n	8000ee4 <__lesf2+0x58>
 8000ef6:	e7f8      	b.n	8000eea <__lesf2+0x5e>
 8000ef8:	428b      	cmp	r3, r1
 8000efa:	d1f6      	bne.n	8000eea <__lesf2+0x5e>
 8000efc:	4282      	cmp	r2, r0
 8000efe:	dcf4      	bgt.n	8000eea <__lesf2+0x5e>
 8000f00:	dbe6      	blt.n	8000ed0 <__lesf2+0x44>
 8000f02:	42ac      	cmp	r4, r5
 8000f04:	d8f1      	bhi.n	8000eea <__lesf2+0x5e>
 8000f06:	2000      	movs	r0, #0
 8000f08:	42ac      	cmp	r4, r5
 8000f0a:	d2eb      	bcs.n	8000ee4 <__lesf2+0x58>
 8000f0c:	e7e0      	b.n	8000ed0 <__lesf2+0x44>
 8000f0e:	2000      	movs	r0, #0
 8000f10:	428b      	cmp	r3, r1
 8000f12:	d1ea      	bne.n	8000eea <__lesf2+0x5e>
 8000f14:	e7e6      	b.n	8000ee4 <__lesf2+0x58>
 8000f16:	428b      	cmp	r3, r1
 8000f18:	d1e7      	bne.n	8000eea <__lesf2+0x5e>
 8000f1a:	e7f2      	b.n	8000f02 <__lesf2+0x76>

08000f1c <__aeabi_fmul>:
 8000f1c:	b5f0      	push	{r4, r5, r6, r7, lr}
 8000f1e:	464f      	mov	r7, r9
 8000f20:	4646      	mov	r6, r8
 8000f22:	46d6      	mov	lr, sl
 8000f24:	0044      	lsls	r4, r0, #1
 8000f26:	b5c0      	push	{r6, r7, lr}
 8000f28:	0246      	lsls	r6, r0, #9
 8000f2a:	1c0f      	adds	r7, r1, #0
 8000f2c:	0a76      	lsrs	r6, r6, #9
 8000f2e:	0e24      	lsrs	r4, r4, #24
 8000f30:	0fc5      	lsrs	r5, r0, #31
 8000f32:	2c00      	cmp	r4, #0
 8000f34:	d100      	bne.n	8000f38 <__aeabi_fmul+0x1c>
 8000f36:	e0da      	b.n	80010ee <__aeabi_fmul+0x1d2>
 8000f38:	2cff      	cmp	r4, #255	@ 0xff
 8000f3a:	d074      	beq.n	8001026 <__aeabi_fmul+0x10a>
 8000f3c:	2380      	movs	r3, #128	@ 0x80
 8000f3e:	00f6      	lsls	r6, r6, #3
 8000f40:	04db      	lsls	r3, r3, #19
 8000f42:	431e      	orrs	r6, r3
 8000f44:	2300      	movs	r3, #0
 8000f46:	4699      	mov	r9, r3
 8000f48:	469a      	mov	sl, r3
 8000f4a:	3c7f      	subs	r4, #127	@ 0x7f
 8000f4c:	027b      	lsls	r3, r7, #9
 8000f4e:	0a5b      	lsrs	r3, r3, #9
 8000f50:	4698      	mov	r8, r3
 8000f52:	007b      	lsls	r3, r7, #1
 8000f54:	0e1b      	lsrs	r3, r3, #24
 8000f56:	0fff      	lsrs	r7, r7, #31
 8000f58:	2b00      	cmp	r3, #0
 8000f5a:	d074      	beq.n	8001046 <__aeabi_fmul+0x12a>
 8000f5c:	2bff      	cmp	r3, #255	@ 0xff
 8000f5e:	d100      	bne.n	8000f62 <__aeabi_fmul+0x46>
 8000f60:	e08e      	b.n	8001080 <__aeabi_fmul+0x164>
 8000f62:	4642      	mov	r2, r8
 8000f64:	2180      	movs	r1, #128	@ 0x80
 8000f66:	00d2      	lsls	r2, r2, #3
 8000f68:	04c9      	lsls	r1, r1, #19
 8000f6a:	4311      	orrs	r1, r2
 8000f6c:	3b7f      	subs	r3, #127	@ 0x7f
 8000f6e:	002a      	movs	r2, r5
 8000f70:	18e4      	adds	r4, r4, r3
 8000f72:	464b      	mov	r3, r9
 8000f74:	407a      	eors	r2, r7
 8000f76:	4688      	mov	r8, r1
 8000f78:	b2d2      	uxtb	r2, r2
 8000f7a:	2b0a      	cmp	r3, #10
 8000f7c:	dc75      	bgt.n	800106a <__aeabi_fmul+0x14e>
 8000f7e:	464b      	mov	r3, r9
 8000f80:	2000      	movs	r0, #0
 8000f82:	2b02      	cmp	r3, #2
 8000f84:	dd0f      	ble.n	8000fa6 <__aeabi_fmul+0x8a>
 8000f86:	4649      	mov	r1, r9
 8000f88:	2301      	movs	r3, #1
 8000f8a:	408b      	lsls	r3, r1
 8000f8c:	21a6      	movs	r1, #166	@ 0xa6
 8000f8e:	00c9      	lsls	r1, r1, #3
 8000f90:	420b      	tst	r3, r1
 8000f92:	d169      	bne.n	8001068 <__aeabi_fmul+0x14c>
 8000f94:	2190      	movs	r1, #144	@ 0x90
 8000f96:	0089      	lsls	r1, r1, #2
 8000f98:	420b      	tst	r3, r1
 8000f9a:	d000      	beq.n	8000f9e <__aeabi_fmul+0x82>
 8000f9c:	e100      	b.n	80011a0 <__aeabi_fmul+0x284>
 8000f9e:	2188      	movs	r1, #136	@ 0x88
 8000fa0:	4219      	tst	r1, r3
 8000fa2:	d000      	beq.n	8000fa6 <__aeabi_fmul+0x8a>
 8000fa4:	e0f5      	b.n	8001192 <__aeabi_fmul+0x276>
 8000fa6:	4641      	mov	r1, r8
 8000fa8:	0409      	lsls	r1, r1, #16
 8000faa:	0c09      	lsrs	r1, r1, #16
 8000fac:	4643      	mov	r3, r8
 8000fae:	0008      	movs	r0, r1
 8000fb0:	0c35      	lsrs	r5, r6, #16
 8000fb2:	0436      	lsls	r6, r6, #16
 8000fb4:	0c1b      	lsrs	r3, r3, #16
 8000fb6:	0c36      	lsrs	r6, r6, #16
 8000fb8:	4370      	muls	r0, r6
 8000fba:	4369      	muls	r1, r5
 8000fbc:	435e      	muls	r6, r3
 8000fbe:	435d      	muls	r5, r3
 8000fc0:	1876      	adds	r6, r6, r1
 8000fc2:	0c03      	lsrs	r3, r0, #16
 8000fc4:	199b      	adds	r3, r3, r6
 8000fc6:	4299      	cmp	r1, r3
 8000fc8:	d903      	bls.n	8000fd2 <__aeabi_fmul+0xb6>
 8000fca:	2180      	movs	r1, #128	@ 0x80
 8000fcc:	0249      	lsls	r1, r1, #9
 8000fce:	468c      	mov	ip, r1
 8000fd0:	4465      	add	r5, ip
 8000fd2:	0400      	lsls	r0, r0, #16
 8000fd4:	0419      	lsls	r1, r3, #16
 8000fd6:	0c00      	lsrs	r0, r0, #16
 8000fd8:	1809      	adds	r1, r1, r0
 8000fda:	018e      	lsls	r6, r1, #6
 8000fdc:	1e70      	subs	r0, r6, #1
 8000fde:	4186      	sbcs	r6, r0
 8000fe0:	0c1b      	lsrs	r3, r3, #16
 8000fe2:	0e89      	lsrs	r1, r1, #26
 8000fe4:	195b      	adds	r3, r3, r5
 8000fe6:	430e      	orrs	r6, r1
 8000fe8:	019b      	lsls	r3, r3, #6
 8000fea:	431e      	orrs	r6, r3
 8000fec:	011b      	lsls	r3, r3, #4
 8000fee:	d46c      	bmi.n	80010ca <__aeabi_fmul+0x1ae>
 8000ff0:	0023      	movs	r3, r4
 8000ff2:	337f      	adds	r3, #127	@ 0x7f
 8000ff4:	2b00      	cmp	r3, #0
 8000ff6:	dc00      	bgt.n	8000ffa <__aeabi_fmul+0xde>
 8000ff8:	e0b1      	b.n	800115e <__aeabi_fmul+0x242>
 8000ffa:	0015      	movs	r5, r2
 8000ffc:	0771      	lsls	r1, r6, #29
 8000ffe:	d00b      	beq.n	8001018 <__aeabi_fmul+0xfc>
 8001000:	200f      	movs	r0, #15
 8001002:	0021      	movs	r1, r4
 8001004:	4030      	ands	r0, r6
 8001006:	2804      	cmp	r0, #4
 8001008:	d006      	beq.n	8001018 <__aeabi_fmul+0xfc>
 800100a:	3604      	adds	r6, #4
 800100c:	0132      	lsls	r2, r6, #4
 800100e:	d503      	bpl.n	8001018 <__aeabi_fmul+0xfc>
 8001010:	4b6e      	ldr	r3, [pc, #440]	@ (80011cc <__aeabi_fmul+0x2b0>)
 8001012:	401e      	ands	r6, r3
 8001014:	000b      	movs	r3, r1
 8001016:	3380      	adds	r3, #128	@ 0x80
 8001018:	2bfe      	cmp	r3, #254	@ 0xfe
 800101a:	dd00      	ble.n	800101e <__aeabi_fmul+0x102>
 800101c:	e0bd      	b.n	800119a <__aeabi_fmul+0x27e>
 800101e:	01b2      	lsls	r2, r6, #6
 8001020:	0a52      	lsrs	r2, r2, #9
 8001022:	b2db      	uxtb	r3, r3
 8001024:	e048      	b.n	80010b8 <__aeabi_fmul+0x19c>
 8001026:	2e00      	cmp	r6, #0
 8001028:	d000      	beq.n	800102c <__aeabi_fmul+0x110>
 800102a:	e092      	b.n	8001152 <__aeabi_fmul+0x236>
 800102c:	2308      	movs	r3, #8
 800102e:	4699      	mov	r9, r3
 8001030:	3b06      	subs	r3, #6
 8001032:	469a      	mov	sl, r3
 8001034:	027b      	lsls	r3, r7, #9
 8001036:	0a5b      	lsrs	r3, r3, #9
 8001038:	4698      	mov	r8, r3
 800103a:	007b      	lsls	r3, r7, #1
 800103c:	24ff      	movs	r4, #255	@ 0xff
 800103e:	0e1b      	lsrs	r3, r3, #24
 8001040:	0fff      	lsrs	r7, r7, #31
 8001042:	2b00      	cmp	r3, #0
 8001044:	d18a      	bne.n	8000f5c <__aeabi_fmul+0x40>
 8001046:	4642      	mov	r2, r8
 8001048:	2a00      	cmp	r2, #0
 800104a:	d164      	bne.n	8001116 <__aeabi_fmul+0x1fa>
 800104c:	4649      	mov	r1, r9
 800104e:	3201      	adds	r2, #1
 8001050:	4311      	orrs	r1, r2
 8001052:	4689      	mov	r9, r1
 8001054:	290a      	cmp	r1, #10
 8001056:	dc08      	bgt.n	800106a <__aeabi_fmul+0x14e>
 8001058:	407d      	eors	r5, r7
 800105a:	2001      	movs	r0, #1
 800105c:	b2ea      	uxtb	r2, r5
 800105e:	2902      	cmp	r1, #2
 8001060:	dc91      	bgt.n	8000f86 <__aeabi_fmul+0x6a>
 8001062:	0015      	movs	r5, r2
 8001064:	2200      	movs	r2, #0
 8001066:	e027      	b.n	80010b8 <__aeabi_fmul+0x19c>
 8001068:	0015      	movs	r5, r2
 800106a:	4653      	mov	r3, sl
 800106c:	2b02      	cmp	r3, #2
 800106e:	d100      	bne.n	8001072 <__aeabi_fmul+0x156>
 8001070:	e093      	b.n	800119a <__aeabi_fmul+0x27e>
 8001072:	2b03      	cmp	r3, #3
 8001074:	d01a      	beq.n	80010ac <__aeabi_fmul+0x190>
 8001076:	2b01      	cmp	r3, #1
 8001078:	d12c      	bne.n	80010d4 <__aeabi_fmul+0x1b8>
 800107a:	2300      	movs	r3, #0
 800107c:	2200      	movs	r2, #0
 800107e:	e01b      	b.n	80010b8 <__aeabi_fmul+0x19c>
 8001080:	4643      	mov	r3, r8
 8001082:	34ff      	adds	r4, #255	@ 0xff
 8001084:	2b00      	cmp	r3, #0
 8001086:	d055      	beq.n	8001134 <__aeabi_fmul+0x218>
 8001088:	2103      	movs	r1, #3
 800108a:	464b      	mov	r3, r9
 800108c:	430b      	orrs	r3, r1
 800108e:	0019      	movs	r1, r3
 8001090:	2b0a      	cmp	r3, #10
 8001092:	dc00      	bgt.n	8001096 <__aeabi_fmul+0x17a>
 8001094:	e092      	b.n	80011bc <__aeabi_fmul+0x2a0>
 8001096:	2b0f      	cmp	r3, #15
 8001098:	d000      	beq.n	800109c <__aeabi_fmul+0x180>
 800109a:	e08c      	b.n	80011b6 <__aeabi_fmul+0x29a>
 800109c:	2280      	movs	r2, #128	@ 0x80
 800109e:	03d2      	lsls	r2, r2, #15
 80010a0:	4216      	tst	r6, r2
 80010a2:	d003      	beq.n	80010ac <__aeabi_fmul+0x190>
 80010a4:	4643      	mov	r3, r8
 80010a6:	4213      	tst	r3, r2
 80010a8:	d100      	bne.n	80010ac <__aeabi_fmul+0x190>
 80010aa:	e07d      	b.n	80011a8 <__aeabi_fmul+0x28c>
 80010ac:	2280      	movs	r2, #128	@ 0x80
 80010ae:	03d2      	lsls	r2, r2, #15
 80010b0:	4332      	orrs	r2, r6
 80010b2:	0252      	lsls	r2, r2, #9
 80010b4:	0a52      	lsrs	r2, r2, #9
 80010b6:	23ff      	movs	r3, #255	@ 0xff
 80010b8:	05d8      	lsls	r0, r3, #23
 80010ba:	07ed      	lsls	r5, r5, #31
 80010bc:	4310      	orrs	r0, r2
 80010be:	4328      	orrs	r0, r5
 80010c0:	bce0      	pop	{r5, r6, r7}
 80010c2:	46ba      	mov	sl, r7
 80010c4:	46b1      	mov	r9, r6
 80010c6:	46a8      	mov	r8, r5
 80010c8:	bdf0      	pop	{r4, r5, r6, r7, pc}
 80010ca:	2301      	movs	r3, #1
 80010cc:	0015      	movs	r5, r2
 80010ce:	0871      	lsrs	r1, r6, #1
 80010d0:	401e      	ands	r6, r3
 80010d2:	430e      	orrs	r6, r1
 80010d4:	0023      	movs	r3, r4
 80010d6:	3380      	adds	r3, #128	@ 0x80
 80010d8:	1c61      	adds	r1, r4, #1
 80010da:	2b00      	cmp	r3, #0
 80010dc:	dd41      	ble.n	8001162 <__aeabi_fmul+0x246>
 80010de:	0772      	lsls	r2, r6, #29
 80010e0:	d094      	beq.n	800100c <__aeabi_fmul+0xf0>
 80010e2:	220f      	movs	r2, #15
 80010e4:	4032      	ands	r2, r6
 80010e6:	2a04      	cmp	r2, #4
 80010e8:	d000      	beq.n	80010ec <__aeabi_fmul+0x1d0>
 80010ea:	e78e      	b.n	800100a <__aeabi_fmul+0xee>
 80010ec:	e78e      	b.n	800100c <__aeabi_fmul+0xf0>
 80010ee:	2e00      	cmp	r6, #0
 80010f0:	d105      	bne.n	80010fe <__aeabi_fmul+0x1e2>
 80010f2:	2304      	movs	r3, #4
 80010f4:	4699      	mov	r9, r3
 80010f6:	3b03      	subs	r3, #3
 80010f8:	2400      	movs	r4, #0
 80010fa:	469a      	mov	sl, r3
 80010fc:	e726      	b.n	8000f4c <__aeabi_fmul+0x30>
 80010fe:	0030      	movs	r0, r6
 8001100:	f000 fb80 	bl	8001804 <__clzsi2>
 8001104:	2476      	movs	r4, #118	@ 0x76
 8001106:	1f43      	subs	r3, r0, #5
 8001108:	409e      	lsls	r6, r3
 800110a:	2300      	movs	r3, #0
 800110c:	4264      	negs	r4, r4
 800110e:	4699      	mov	r9, r3
 8001110:	469a      	mov	sl, r3
 8001112:	1a24      	subs	r4, r4, r0
 8001114:	e71a      	b.n	8000f4c <__aeabi_fmul+0x30>
 8001116:	4640      	mov	r0, r8
 8001118:	f000 fb74 	bl	8001804 <__clzsi2>
 800111c:	464b      	mov	r3, r9
 800111e:	1a24      	subs	r4, r4, r0
 8001120:	3c76      	subs	r4, #118	@ 0x76
 8001122:	2b0a      	cmp	r3, #10
 8001124:	dca1      	bgt.n	800106a <__aeabi_fmul+0x14e>
 8001126:	4643      	mov	r3, r8
 8001128:	3805      	subs	r0, #5
 800112a:	4083      	lsls	r3, r0
 800112c:	407d      	eors	r5, r7
 800112e:	4698      	mov	r8, r3
 8001130:	b2ea      	uxtb	r2, r5
 8001132:	e724      	b.n	8000f7e <__aeabi_fmul+0x62>
 8001134:	464a      	mov	r2, r9
 8001136:	3302      	adds	r3, #2
 8001138:	4313      	orrs	r3, r2
 800113a:	002a      	movs	r2, r5
 800113c:	407a      	eors	r2, r7
 800113e:	b2d2      	uxtb	r2, r2
 8001140:	2b0a      	cmp	r3, #10
 8001142:	dc92      	bgt.n	800106a <__aeabi_fmul+0x14e>
 8001144:	4649      	mov	r1, r9
 8001146:	0015      	movs	r5, r2
 8001148:	2900      	cmp	r1, #0
 800114a:	d026      	beq.n	800119a <__aeabi_fmul+0x27e>
 800114c:	4699      	mov	r9, r3
 800114e:	2002      	movs	r0, #2
 8001150:	e719      	b.n	8000f86 <__aeabi_fmul+0x6a>
 8001152:	230c      	movs	r3, #12
 8001154:	4699      	mov	r9, r3
 8001156:	3b09      	subs	r3, #9
 8001158:	24ff      	movs	r4, #255	@ 0xff
 800115a:	469a      	mov	sl, r3
 800115c:	e6f6      	b.n	8000f4c <__aeabi_fmul+0x30>
 800115e:	0015      	movs	r5, r2
 8001160:	0021      	movs	r1, r4
 8001162:	2201      	movs	r2, #1
 8001164:	1ad3      	subs	r3, r2, r3
 8001166:	2b1b      	cmp	r3, #27
 8001168:	dd00      	ble.n	800116c <__aeabi_fmul+0x250>
 800116a:	e786      	b.n	800107a <__aeabi_fmul+0x15e>
 800116c:	319e      	adds	r1, #158	@ 0x9e
 800116e:	0032      	movs	r2, r6
 8001170:	408e      	lsls	r6, r1
 8001172:	40da      	lsrs	r2, r3
 8001174:	1e73      	subs	r3, r6, #1
 8001176:	419e      	sbcs	r6, r3
 8001178:	4332      	orrs	r2, r6
 800117a:	0753      	lsls	r3, r2, #29
 800117c:	d004      	beq.n	8001188 <__aeabi_fmul+0x26c>
 800117e:	230f      	movs	r3, #15
 8001180:	4013      	ands	r3, r2
 8001182:	2b04      	cmp	r3, #4
 8001184:	d000      	beq.n	8001188 <__aeabi_fmul+0x26c>
 8001186:	3204      	adds	r2, #4
 8001188:	0153      	lsls	r3, r2, #5
 800118a:	d510      	bpl.n	80011ae <__aeabi_fmul+0x292>
 800118c:	2301      	movs	r3, #1
 800118e:	2200      	movs	r2, #0
 8001190:	e792      	b.n	80010b8 <__aeabi_fmul+0x19c>
 8001192:	003d      	movs	r5, r7
 8001194:	4646      	mov	r6, r8
 8001196:	4682      	mov	sl, r0
 8001198:	e767      	b.n	800106a <__aeabi_fmul+0x14e>
 800119a:	23ff      	movs	r3, #255	@ 0xff
 800119c:	2200      	movs	r2, #0
 800119e:	e78b      	b.n	80010b8 <__aeabi_fmul+0x19c>
 80011a0:	2280      	movs	r2, #128	@ 0x80
 80011a2:	2500      	movs	r5, #0
 80011a4:	03d2      	lsls	r2, r2, #15
 80011a6:	e786      	b.n	80010b6 <__aeabi_fmul+0x19a>
 80011a8:	003d      	movs	r5, r7
 80011aa:	431a      	orrs	r2, r3
 80011ac:	e783      	b.n	80010b6 <__aeabi_fmul+0x19a>
 80011ae:	0192      	lsls	r2, r2, #6
 80011b0:	2300      	movs	r3, #0
 80011b2:	0a52      	lsrs	r2, r2, #9
 80011b4:	e780      	b.n	80010b8 <__aeabi_fmul+0x19c>
 80011b6:	003d      	movs	r5, r7
 80011b8:	4646      	mov	r6, r8
 80011ba:	e777      	b.n	80010ac <__aeabi_fmul+0x190>
 80011bc:	002a      	movs	r2, r5
 80011be:	2301      	movs	r3, #1
 80011c0:	407a      	eors	r2, r7
 80011c2:	408b      	lsls	r3, r1
 80011c4:	2003      	movs	r0, #3
 80011c6:	b2d2      	uxtb	r2, r2
 80011c8:	e6e9      	b.n	8000f9e <__aeabi_fmul+0x82>
 80011ca:	46c0      	nop			@ (mov r8, r8)
 80011cc:	f7ffffff 	.word	0xf7ffffff

080011d0 <__aeabi_fsub>:
 80011d0:	b5f8      	push	{r3, r4, r5, r6, r7, lr}
 80011d2:	4647      	mov	r7, r8
 80011d4:	46ce      	mov	lr, r9
 80011d6:	0243      	lsls	r3, r0, #9
 80011d8:	b580      	push	{r7, lr}
 80011da:	0a5f      	lsrs	r7, r3, #9
 80011dc:	099b      	lsrs	r3, r3, #6
 80011de:	0045      	lsls	r5, r0, #1
 80011e0:	004a      	lsls	r2, r1, #1
 80011e2:	469c      	mov	ip, r3
 80011e4:	024b      	lsls	r3, r1, #9
 80011e6:	0fc4      	lsrs	r4, r0, #31
 80011e8:	0fce      	lsrs	r6, r1, #31
 80011ea:	0e2d      	lsrs	r5, r5, #24
 80011ec:	0a58      	lsrs	r0, r3, #9
 80011ee:	0e12      	lsrs	r2, r2, #24
 80011f0:	0999      	lsrs	r1, r3, #6
 80011f2:	2aff      	cmp	r2, #255	@ 0xff
 80011f4:	d06b      	beq.n	80012ce <__aeabi_fsub+0xfe>
 80011f6:	2301      	movs	r3, #1
 80011f8:	405e      	eors	r6, r3
 80011fa:	1aab      	subs	r3, r5, r2
 80011fc:	42b4      	cmp	r4, r6
 80011fe:	d04b      	beq.n	8001298 <__aeabi_fsub+0xc8>
 8001200:	2b00      	cmp	r3, #0
 8001202:	dc00      	bgt.n	8001206 <__aeabi_fsub+0x36>
 8001204:	e0ff      	b.n	8001406 <__aeabi_fsub+0x236>
 8001206:	2a00      	cmp	r2, #0
 8001208:	d100      	bne.n	800120c <__aeabi_fsub+0x3c>
 800120a:	e088      	b.n	800131e <__aeabi_fsub+0x14e>
 800120c:	2dff      	cmp	r5, #255	@ 0xff
 800120e:	d100      	bne.n	8001212 <__aeabi_fsub+0x42>
 8001210:	e0ef      	b.n	80013f2 <__aeabi_fsub+0x222>
 8001212:	2280      	movs	r2, #128	@ 0x80
 8001214:	04d2      	lsls	r2, r2, #19
 8001216:	4311      	orrs	r1, r2
 8001218:	2001      	movs	r0, #1
 800121a:	2b1b      	cmp	r3, #27
 800121c:	dc08      	bgt.n	8001230 <__aeabi_fsub+0x60>
 800121e:	0008      	movs	r0, r1
 8001220:	2220      	movs	r2, #32
 8001222:	40d8      	lsrs	r0, r3
 8001224:	1ad3      	subs	r3, r2, r3
 8001226:	4099      	lsls	r1, r3
 8001228:	000b      	movs	r3, r1
 800122a:	1e5a      	subs	r2, r3, #1
 800122c:	4193      	sbcs	r3, r2
 800122e:	4318      	orrs	r0, r3
 8001230:	4663      	mov	r3, ip
 8001232:	1a1b      	subs	r3, r3, r0
 8001234:	469c      	mov	ip, r3
 8001236:	4663      	mov	r3, ip
 8001238:	015b      	lsls	r3, r3, #5
 800123a:	d400      	bmi.n	800123e <__aeabi_fsub+0x6e>
 800123c:	e0cd      	b.n	80013da <__aeabi_fsub+0x20a>
 800123e:	4663      	mov	r3, ip
 8001240:	019f      	lsls	r7, r3, #6
 8001242:	09bf      	lsrs	r7, r7, #6
 8001244:	0038      	movs	r0, r7
 8001246:	f000 fadd 	bl	8001804 <__clzsi2>
 800124a:	003b      	movs	r3, r7
 800124c:	3805      	subs	r0, #5
 800124e:	4083      	lsls	r3, r0
 8001250:	4285      	cmp	r5, r0
 8001252:	dc00      	bgt.n	8001256 <__aeabi_fsub+0x86>
 8001254:	e0a2      	b.n	800139c <__aeabi_fsub+0x1cc>
 8001256:	4ab7      	ldr	r2, [pc, #732]	@ (8001534 <__aeabi_fsub+0x364>)
 8001258:	1a2d      	subs	r5, r5, r0
 800125a:	401a      	ands	r2, r3
 800125c:	4694      	mov	ip, r2
 800125e:	075a      	lsls	r2, r3, #29
 8001260:	d100      	bne.n	8001264 <__aeabi_fsub+0x94>
 8001262:	e0c3      	b.n	80013ec <__aeabi_fsub+0x21c>
 8001264:	220f      	movs	r2, #15
 8001266:	4013      	ands	r3, r2
 8001268:	2b04      	cmp	r3, #4
 800126a:	d100      	bne.n	800126e <__aeabi_fsub+0x9e>
 800126c:	e0be      	b.n	80013ec <__aeabi_fsub+0x21c>
 800126e:	2304      	movs	r3, #4
 8001270:	4698      	mov	r8, r3
 8001272:	44c4      	add	ip, r8
 8001274:	4663      	mov	r3, ip
 8001276:	015b      	lsls	r3, r3, #5
 8001278:	d400      	bmi.n	800127c <__aeabi_fsub+0xac>
 800127a:	e0b7      	b.n	80013ec <__aeabi_fsub+0x21c>
 800127c:	1c68      	adds	r0, r5, #1
 800127e:	2dfe      	cmp	r5, #254	@ 0xfe
 8001280:	d000      	beq.n	8001284 <__aeabi_fsub+0xb4>
 8001282:	e0a5      	b.n	80013d0 <__aeabi_fsub+0x200>
 8001284:	20ff      	movs	r0, #255	@ 0xff
 8001286:	2200      	movs	r2, #0
 8001288:	05c0      	lsls	r0, r0, #23
 800128a:	4310      	orrs	r0, r2
 800128c:	07e4      	lsls	r4, r4, #31
 800128e:	4320      	orrs	r0, r4
 8001290:	bcc0      	pop	{r6, r7}
 8001292:	46b9      	mov	r9, r7
 8001294:	46b0      	mov	r8, r6
 8001296:	bdf8      	pop	{r3, r4, r5, r6, r7, pc}
 8001298:	2b00      	cmp	r3, #0
 800129a:	dc00      	bgt.n	800129e <__aeabi_fsub+0xce>
 800129c:	e1eb      	b.n	8001676 <__aeabi_fsub+0x4a6>
 800129e:	2a00      	cmp	r2, #0
 80012a0:	d046      	beq.n	8001330 <__aeabi_fsub+0x160>
 80012a2:	2dff      	cmp	r5, #255	@ 0xff
 80012a4:	d100      	bne.n	80012a8 <__aeabi_fsub+0xd8>
 80012a6:	e0a4      	b.n	80013f2 <__aeabi_fsub+0x222>
 80012a8:	2280      	movs	r2, #128	@ 0x80
 80012aa:	04d2      	lsls	r2, r2, #19
 80012ac:	4311      	orrs	r1, r2
 80012ae:	2b1b      	cmp	r3, #27
 80012b0:	dc00      	bgt.n	80012b4 <__aeabi_fsub+0xe4>
 80012b2:	e0fb      	b.n	80014ac <__aeabi_fsub+0x2dc>
 80012b4:	2305      	movs	r3, #5
 80012b6:	4698      	mov	r8, r3
 80012b8:	002b      	movs	r3, r5
 80012ba:	44c4      	add	ip, r8
 80012bc:	4662      	mov	r2, ip
 80012be:	08d7      	lsrs	r7, r2, #3
 80012c0:	2bff      	cmp	r3, #255	@ 0xff
 80012c2:	d100      	bne.n	80012c6 <__aeabi_fsub+0xf6>
 80012c4:	e095      	b.n	80013f2 <__aeabi_fsub+0x222>
 80012c6:	027a      	lsls	r2, r7, #9
 80012c8:	0a52      	lsrs	r2, r2, #9
 80012ca:	b2d8      	uxtb	r0, r3
 80012cc:	e7dc      	b.n	8001288 <__aeabi_fsub+0xb8>
 80012ce:	002b      	movs	r3, r5
 80012d0:	3bff      	subs	r3, #255	@ 0xff
 80012d2:	4699      	mov	r9, r3
 80012d4:	2900      	cmp	r1, #0
 80012d6:	d118      	bne.n	800130a <__aeabi_fsub+0x13a>
 80012d8:	2301      	movs	r3, #1
 80012da:	405e      	eors	r6, r3
 80012dc:	42b4      	cmp	r4, r6
 80012de:	d100      	bne.n	80012e2 <__aeabi_fsub+0x112>
 80012e0:	e0ca      	b.n	8001478 <__aeabi_fsub+0x2a8>
 80012e2:	464b      	mov	r3, r9
 80012e4:	2b00      	cmp	r3, #0
 80012e6:	d02d      	beq.n	8001344 <__aeabi_fsub+0x174>
 80012e8:	2d00      	cmp	r5, #0
 80012ea:	d000      	beq.n	80012ee <__aeabi_fsub+0x11e>
 80012ec:	e13c      	b.n	8001568 <__aeabi_fsub+0x398>
 80012ee:	23ff      	movs	r3, #255	@ 0xff
 80012f0:	4664      	mov	r4, ip
 80012f2:	2c00      	cmp	r4, #0
 80012f4:	d100      	bne.n	80012f8 <__aeabi_fsub+0x128>
 80012f6:	e15f      	b.n	80015b8 <__aeabi_fsub+0x3e8>
 80012f8:	1e5d      	subs	r5, r3, #1
 80012fa:	2b01      	cmp	r3, #1
 80012fc:	d100      	bne.n	8001300 <__aeabi_fsub+0x130>
 80012fe:	e174      	b.n	80015ea <__aeabi_fsub+0x41a>
 8001300:	0034      	movs	r4, r6
 8001302:	2bff      	cmp	r3, #255	@ 0xff
 8001304:	d074      	beq.n	80013f0 <__aeabi_fsub+0x220>
 8001306:	002b      	movs	r3, r5
 8001308:	e103      	b.n	8001512 <__aeabi_fsub+0x342>
 800130a:	42b4      	cmp	r4, r6
 800130c:	d100      	bne.n	8001310 <__aeabi_fsub+0x140>
 800130e:	e09c      	b.n	800144a <__aeabi_fsub+0x27a>
 8001310:	2b00      	cmp	r3, #0
 8001312:	d017      	beq.n	8001344 <__aeabi_fsub+0x174>
 8001314:	2d00      	cmp	r5, #0
 8001316:	d0ea      	beq.n	80012ee <__aeabi_fsub+0x11e>
 8001318:	0007      	movs	r7, r0
 800131a:	0034      	movs	r4, r6
 800131c:	e06c      	b.n	80013f8 <__aeabi_fsub+0x228>
 800131e:	2900      	cmp	r1, #0
 8001320:	d0cc      	beq.n	80012bc <__aeabi_fsub+0xec>
 8001322:	1e5a      	subs	r2, r3, #1
 8001324:	2b01      	cmp	r3, #1
 8001326:	d02b      	beq.n	8001380 <__aeabi_fsub+0x1b0>
 8001328:	2bff      	cmp	r3, #255	@ 0xff
 800132a:	d062      	beq.n	80013f2 <__aeabi_fsub+0x222>
 800132c:	0013      	movs	r3, r2
 800132e:	e773      	b.n	8001218 <__aeabi_fsub+0x48>
 8001330:	2900      	cmp	r1, #0
 8001332:	d0c3      	beq.n	80012bc <__aeabi_fsub+0xec>
 8001334:	1e5a      	subs	r2, r3, #1
 8001336:	2b01      	cmp	r3, #1
 8001338:	d100      	bne.n	800133c <__aeabi_fsub+0x16c>
 800133a:	e11e      	b.n	800157a <__aeabi_fsub+0x3aa>
 800133c:	2bff      	cmp	r3, #255	@ 0xff
 800133e:	d058      	beq.n	80013f2 <__aeabi_fsub+0x222>
 8001340:	0013      	movs	r3, r2
 8001342:	e7b4      	b.n	80012ae <__aeabi_fsub+0xde>
 8001344:	22fe      	movs	r2, #254	@ 0xfe
 8001346:	1c6b      	adds	r3, r5, #1
 8001348:	421a      	tst	r2, r3
 800134a:	d10d      	bne.n	8001368 <__aeabi_fsub+0x198>
 800134c:	2d00      	cmp	r5, #0
 800134e:	d060      	beq.n	8001412 <__aeabi_fsub+0x242>
 8001350:	4663      	mov	r3, ip
 8001352:	2b00      	cmp	r3, #0
 8001354:	d000      	beq.n	8001358 <__aeabi_fsub+0x188>
 8001356:	e120      	b.n	800159a <__aeabi_fsub+0x3ca>
 8001358:	2900      	cmp	r1, #0
 800135a:	d000      	beq.n	800135e <__aeabi_fsub+0x18e>
 800135c:	e128      	b.n	80015b0 <__aeabi_fsub+0x3e0>
 800135e:	2280      	movs	r2, #128	@ 0x80
 8001360:	2400      	movs	r4, #0
 8001362:	20ff      	movs	r0, #255	@ 0xff
 8001364:	03d2      	lsls	r2, r2, #15
 8001366:	e78f      	b.n	8001288 <__aeabi_fsub+0xb8>
 8001368:	4663      	mov	r3, ip
 800136a:	1a5f      	subs	r7, r3, r1
 800136c:	017b      	lsls	r3, r7, #5
 800136e:	d500      	bpl.n	8001372 <__aeabi_fsub+0x1a2>
 8001370:	e0fe      	b.n	8001570 <__aeabi_fsub+0x3a0>
 8001372:	2f00      	cmp	r7, #0
 8001374:	d000      	beq.n	8001378 <__aeabi_fsub+0x1a8>
 8001376:	e765      	b.n	8001244 <__aeabi_fsub+0x74>
 8001378:	2400      	movs	r4, #0
 800137a:	2000      	movs	r0, #0
 800137c:	2200      	movs	r2, #0
 800137e:	e783      	b.n	8001288 <__aeabi_fsub+0xb8>
 8001380:	4663      	mov	r3, ip
 8001382:	1a59      	subs	r1, r3, r1
 8001384:	014b      	lsls	r3, r1, #5
 8001386:	d400      	bmi.n	800138a <__aeabi_fsub+0x1ba>
 8001388:	e119      	b.n	80015be <__aeabi_fsub+0x3ee>
 800138a:	018f      	lsls	r7, r1, #6
 800138c:	09bf      	lsrs	r7, r7, #6
 800138e:	0038      	movs	r0, r7
 8001390:	f000 fa38 	bl	8001804 <__clzsi2>
 8001394:	003b      	movs	r3, r7
 8001396:	3805      	subs	r0, #5
 8001398:	4083      	lsls	r3, r0
 800139a:	2501      	movs	r5, #1
 800139c:	2220      	movs	r2, #32
 800139e:	1b40      	subs	r0, r0, r5
 80013a0:	3001      	adds	r0, #1
 80013a2:	1a12      	subs	r2, r2, r0
 80013a4:	0019      	movs	r1, r3
 80013a6:	4093      	lsls	r3, r2
 80013a8:	40c1      	lsrs	r1, r0
 80013aa:	1e5a      	subs	r2, r3, #1
 80013ac:	4193      	sbcs	r3, r2
 80013ae:	4319      	orrs	r1, r3
 80013b0:	468c      	mov	ip, r1
 80013b2:	1e0b      	subs	r3, r1, #0
 80013b4:	d0e1      	beq.n	800137a <__aeabi_fsub+0x1aa>
 80013b6:	075b      	lsls	r3, r3, #29
 80013b8:	d100      	bne.n	80013bc <__aeabi_fsub+0x1ec>
 80013ba:	e152      	b.n	8001662 <__aeabi_fsub+0x492>
 80013bc:	230f      	movs	r3, #15
 80013be:	2500      	movs	r5, #0
 80013c0:	400b      	ands	r3, r1
 80013c2:	2b04      	cmp	r3, #4
 80013c4:	d000      	beq.n	80013c8 <__aeabi_fsub+0x1f8>
 80013c6:	e752      	b.n	800126e <__aeabi_fsub+0x9e>
 80013c8:	2001      	movs	r0, #1
 80013ca:	014a      	lsls	r2, r1, #5
 80013cc:	d400      	bmi.n	80013d0 <__aeabi_fsub+0x200>
 80013ce:	e092      	b.n	80014f6 <__aeabi_fsub+0x326>
 80013d0:	b2c0      	uxtb	r0, r0
 80013d2:	4663      	mov	r3, ip
 80013d4:	019a      	lsls	r2, r3, #6
 80013d6:	0a52      	lsrs	r2, r2, #9
 80013d8:	e756      	b.n	8001288 <__aeabi_fsub+0xb8>
 80013da:	4663      	mov	r3, ip
 80013dc:	075b      	lsls	r3, r3, #29
 80013de:	d005      	beq.n	80013ec <__aeabi_fsub+0x21c>
 80013e0:	230f      	movs	r3, #15
 80013e2:	4662      	mov	r2, ip
 80013e4:	4013      	ands	r3, r2
 80013e6:	2b04      	cmp	r3, #4
 80013e8:	d000      	beq.n	80013ec <__aeabi_fsub+0x21c>
 80013ea:	e740      	b.n	800126e <__aeabi_fsub+0x9e>
 80013ec:	002b      	movs	r3, r5
 80013ee:	e765      	b.n	80012bc <__aeabi_fsub+0xec>
 80013f0:	0007      	movs	r7, r0
 80013f2:	2f00      	cmp	r7, #0
 80013f4:	d100      	bne.n	80013f8 <__aeabi_fsub+0x228>
 80013f6:	e745      	b.n	8001284 <__aeabi_fsub+0xb4>
 80013f8:	2280      	movs	r2, #128	@ 0x80
 80013fa:	03d2      	lsls	r2, r2, #15
 80013fc:	433a      	orrs	r2, r7
 80013fe:	0252      	lsls	r2, r2, #9
 8001400:	20ff      	movs	r0, #255	@ 0xff
 8001402:	0a52      	lsrs	r2, r2, #9
 8001404:	e740      	b.n	8001288 <__aeabi_fsub+0xb8>
 8001406:	2b00      	cmp	r3, #0
 8001408:	d179      	bne.n	80014fe <__aeabi_fsub+0x32e>
 800140a:	22fe      	movs	r2, #254	@ 0xfe
 800140c:	1c6b      	adds	r3, r5, #1
 800140e:	421a      	tst	r2, r3
 8001410:	d1aa      	bne.n	8001368 <__aeabi_fsub+0x198>
 8001412:	4663      	mov	r3, ip
 8001414:	2b00      	cmp	r3, #0
 8001416:	d100      	bne.n	800141a <__aeabi_fsub+0x24a>
 8001418:	e0f5      	b.n	8001606 <__aeabi_fsub+0x436>
 800141a:	2900      	cmp	r1, #0
 800141c:	d100      	bne.n	8001420 <__aeabi_fsub+0x250>
 800141e:	e0d1      	b.n	80015c4 <__aeabi_fsub+0x3f4>
 8001420:	1a5f      	subs	r7, r3, r1
 8001422:	2380      	movs	r3, #128	@ 0x80
 8001424:	04db      	lsls	r3, r3, #19
 8001426:	421f      	tst	r7, r3
 8001428:	d100      	bne.n	800142c <__aeabi_fsub+0x25c>
 800142a:	e10e      	b.n	800164a <__aeabi_fsub+0x47a>
 800142c:	4662      	mov	r2, ip
 800142e:	2401      	movs	r4, #1
 8001430:	1a8a      	subs	r2, r1, r2
 8001432:	4694      	mov	ip, r2
 8001434:	2000      	movs	r0, #0
 8001436:	4034      	ands	r4, r6
 8001438:	2a00      	cmp	r2, #0
 800143a:	d100      	bne.n	800143e <__aeabi_fsub+0x26e>
 800143c:	e724      	b.n	8001288 <__aeabi_fsub+0xb8>
 800143e:	2001      	movs	r0, #1
 8001440:	421a      	tst	r2, r3
 8001442:	d1c6      	bne.n	80013d2 <__aeabi_fsub+0x202>
 8001444:	2300      	movs	r3, #0
 8001446:	08d7      	lsrs	r7, r2, #3
 8001448:	e73d      	b.n	80012c6 <__aeabi_fsub+0xf6>
 800144a:	2b00      	cmp	r3, #0
 800144c:	d017      	beq.n	800147e <__aeabi_fsub+0x2ae>
 800144e:	2d00      	cmp	r5, #0
 8001450:	d000      	beq.n	8001454 <__aeabi_fsub+0x284>
 8001452:	e0af      	b.n	80015b4 <__aeabi_fsub+0x3e4>
 8001454:	23ff      	movs	r3, #255	@ 0xff
 8001456:	4665      	mov	r5, ip
 8001458:	2d00      	cmp	r5, #0
 800145a:	d100      	bne.n	800145e <__aeabi_fsub+0x28e>
 800145c:	e0ad      	b.n	80015ba <__aeabi_fsub+0x3ea>
 800145e:	1e5e      	subs	r6, r3, #1
 8001460:	2b01      	cmp	r3, #1
 8001462:	d100      	bne.n	8001466 <__aeabi_fsub+0x296>
 8001464:	e089      	b.n	800157a <__aeabi_fsub+0x3aa>
 8001466:	2bff      	cmp	r3, #255	@ 0xff
 8001468:	d0c2      	beq.n	80013f0 <__aeabi_fsub+0x220>
 800146a:	2e1b      	cmp	r6, #27
 800146c:	dc00      	bgt.n	8001470 <__aeabi_fsub+0x2a0>
 800146e:	e0ab      	b.n	80015c8 <__aeabi_fsub+0x3f8>
 8001470:	1d4b      	adds	r3, r1, #5
 8001472:	469c      	mov	ip, r3
 8001474:	0013      	movs	r3, r2
 8001476:	e721      	b.n	80012bc <__aeabi_fsub+0xec>
 8001478:	464b      	mov	r3, r9
 800147a:	2b00      	cmp	r3, #0
 800147c:	d170      	bne.n	8001560 <__aeabi_fsub+0x390>
 800147e:	22fe      	movs	r2, #254	@ 0xfe
 8001480:	1c6b      	adds	r3, r5, #1
 8001482:	421a      	tst	r2, r3
 8001484:	d15e      	bne.n	8001544 <__aeabi_fsub+0x374>
 8001486:	2d00      	cmp	r5, #0
 8001488:	d000      	beq.n	800148c <__aeabi_fsub+0x2bc>
 800148a:	e0c3      	b.n	8001614 <__aeabi_fsub+0x444>
 800148c:	4663      	mov	r3, ip
 800148e:	2b00      	cmp	r3, #0
 8001490:	d100      	bne.n	8001494 <__aeabi_fsub+0x2c4>
 8001492:	e0d0      	b.n	8001636 <__aeabi_fsub+0x466>
 8001494:	2900      	cmp	r1, #0
 8001496:	d100      	bne.n	800149a <__aeabi_fsub+0x2ca>
 8001498:	e094      	b.n	80015c4 <__aeabi_fsub+0x3f4>
 800149a:	000a      	movs	r2, r1
 800149c:	4462      	add	r2, ip
 800149e:	0153      	lsls	r3, r2, #5
 80014a0:	d400      	bmi.n	80014a4 <__aeabi_fsub+0x2d4>
 80014a2:	e0d8      	b.n	8001656 <__aeabi_fsub+0x486>
 80014a4:	0192      	lsls	r2, r2, #6
 80014a6:	2001      	movs	r0, #1
 80014a8:	0a52      	lsrs	r2, r2, #9
 80014aa:	e6ed      	b.n	8001288 <__aeabi_fsub+0xb8>
 80014ac:	0008      	movs	r0, r1
 80014ae:	2220      	movs	r2, #32
 80014b0:	40d8      	lsrs	r0, r3
 80014b2:	1ad3      	subs	r3, r2, r3
 80014b4:	4099      	lsls	r1, r3
 80014b6:	000b      	movs	r3, r1
 80014b8:	1e5a      	subs	r2, r3, #1
 80014ba:	4193      	sbcs	r3, r2
 80014bc:	4303      	orrs	r3, r0
 80014be:	449c      	add	ip, r3
 80014c0:	4663      	mov	r3, ip
 80014c2:	015b      	lsls	r3, r3, #5
 80014c4:	d589      	bpl.n	80013da <__aeabi_fsub+0x20a>
 80014c6:	3501      	adds	r5, #1
 80014c8:	2dff      	cmp	r5, #255	@ 0xff
 80014ca:	d100      	bne.n	80014ce <__aeabi_fsub+0x2fe>
 80014cc:	e6da      	b.n	8001284 <__aeabi_fsub+0xb4>
 80014ce:	4662      	mov	r2, ip
 80014d0:	2301      	movs	r3, #1
 80014d2:	4919      	ldr	r1, [pc, #100]	@ (8001538 <__aeabi_fsub+0x368>)
 80014d4:	4013      	ands	r3, r2
 80014d6:	0852      	lsrs	r2, r2, #1
 80014d8:	400a      	ands	r2, r1
 80014da:	431a      	orrs	r2, r3
 80014dc:	0013      	movs	r3, r2
 80014de:	4694      	mov	ip, r2
 80014e0:	075b      	lsls	r3, r3, #29
 80014e2:	d004      	beq.n	80014ee <__aeabi_fsub+0x31e>
 80014e4:	230f      	movs	r3, #15
 80014e6:	4013      	ands	r3, r2
 80014e8:	2b04      	cmp	r3, #4
 80014ea:	d000      	beq.n	80014ee <__aeabi_fsub+0x31e>
 80014ec:	e6bf      	b.n	800126e <__aeabi_fsub+0x9e>
 80014ee:	4663      	mov	r3, ip
 80014f0:	015b      	lsls	r3, r3, #5
 80014f2:	d500      	bpl.n	80014f6 <__aeabi_fsub+0x326>
 80014f4:	e6c2      	b.n	800127c <__aeabi_fsub+0xac>
 80014f6:	4663      	mov	r3, ip
 80014f8:	08df      	lsrs	r7, r3, #3
 80014fa:	002b      	movs	r3, r5
 80014fc:	e6e3      	b.n	80012c6 <__aeabi_fsub+0xf6>
 80014fe:	1b53      	subs	r3, r2, r5
 8001500:	2d00      	cmp	r5, #0
 8001502:	d100      	bne.n	8001506 <__aeabi_fsub+0x336>
 8001504:	e6f4      	b.n	80012f0 <__aeabi_fsub+0x120>
 8001506:	2080      	movs	r0, #128	@ 0x80
 8001508:	4664      	mov	r4, ip
 800150a:	04c0      	lsls	r0, r0, #19
 800150c:	4304      	orrs	r4, r0
 800150e:	46a4      	mov	ip, r4
 8001510:	0034      	movs	r4, r6
 8001512:	2001      	movs	r0, #1
 8001514:	2b1b      	cmp	r3, #27
 8001516:	dc09      	bgt.n	800152c <__aeabi_fsub+0x35c>
 8001518:	2520      	movs	r5, #32
 800151a:	4660      	mov	r0, ip
 800151c:	40d8      	lsrs	r0, r3
 800151e:	1aeb      	subs	r3, r5, r3
 8001520:	4665      	mov	r5, ip
 8001522:	409d      	lsls	r5, r3
 8001524:	002b      	movs	r3, r5
 8001526:	1e5d      	subs	r5, r3, #1
 8001528:	41ab      	sbcs	r3, r5
 800152a:	4318      	orrs	r0, r3
 800152c:	1a0b      	subs	r3, r1, r0
 800152e:	469c      	mov	ip, r3
 8001530:	0015      	movs	r5, r2
 8001532:	e680      	b.n	8001236 <__aeabi_fsub+0x66>
 8001534:	fbffffff 	.word	0xfbffffff
 8001538:	7dffffff 	.word	0x7dffffff
 800153c:	22fe      	movs	r2, #254	@ 0xfe
 800153e:	1c6b      	adds	r3, r5, #1
 8001540:	4213      	tst	r3, r2
 8001542:	d0a3      	beq.n	800148c <__aeabi_fsub+0x2bc>
 8001544:	2bff      	cmp	r3, #255	@ 0xff
 8001546:	d100      	bne.n	800154a <__aeabi_fsub+0x37a>
 8001548:	e69c      	b.n	8001284 <__aeabi_fsub+0xb4>
 800154a:	4461      	add	r1, ip
 800154c:	0849      	lsrs	r1, r1, #1
 800154e:	074a      	lsls	r2, r1, #29
 8001550:	d049      	beq.n	80015e6 <__aeabi_fsub+0x416>
 8001552:	220f      	movs	r2, #15
 8001554:	400a      	ands	r2, r1
 8001556:	2a04      	cmp	r2, #4
 8001558:	d045      	beq.n	80015e6 <__aeabi_fsub+0x416>
 800155a:	1d0a      	adds	r2, r1, #4
 800155c:	4694      	mov	ip, r2
 800155e:	e6ad      	b.n	80012bc <__aeabi_fsub+0xec>
 8001560:	2d00      	cmp	r5, #0
 8001562:	d100      	bne.n	8001566 <__aeabi_fsub+0x396>
 8001564:	e776      	b.n	8001454 <__aeabi_fsub+0x284>
 8001566:	e68d      	b.n	8001284 <__aeabi_fsub+0xb4>
 8001568:	0034      	movs	r4, r6
 800156a:	20ff      	movs	r0, #255	@ 0xff
 800156c:	2200      	movs	r2, #0
 800156e:	e68b      	b.n	8001288 <__aeabi_fsub+0xb8>
 8001570:	4663      	mov	r3, ip
 8001572:	2401      	movs	r4, #1
 8001574:	1acf      	subs	r7, r1, r3
 8001576:	4034      	ands	r4, r6
 8001578:	e664      	b.n	8001244 <__aeabi_fsub+0x74>
 800157a:	4461      	add	r1, ip
 800157c:	014b      	lsls	r3, r1, #5
 800157e:	d56d      	bpl.n	800165c <__aeabi_fsub+0x48c>
 8001580:	0848      	lsrs	r0, r1, #1
 8001582:	4944      	ldr	r1, [pc, #272]	@ (8001694 <__aeabi_fsub+0x4c4>)
 8001584:	4001      	ands	r1, r0
 8001586:	0743      	lsls	r3, r0, #29
 8001588:	d02c      	beq.n	80015e4 <__aeabi_fsub+0x414>
 800158a:	230f      	movs	r3, #15
 800158c:	4003      	ands	r3, r0
 800158e:	2b04      	cmp	r3, #4
 8001590:	d028      	beq.n	80015e4 <__aeabi_fsub+0x414>
 8001592:	1d0b      	adds	r3, r1, #4
 8001594:	469c      	mov	ip, r3
 8001596:	2302      	movs	r3, #2
 8001598:	e690      	b.n	80012bc <__aeabi_fsub+0xec>
 800159a:	2900      	cmp	r1, #0
 800159c:	d100      	bne.n	80015a0 <__aeabi_fsub+0x3d0>
 800159e:	e72b      	b.n	80013f8 <__aeabi_fsub+0x228>
 80015a0:	2380      	movs	r3, #128	@ 0x80
 80015a2:	03db      	lsls	r3, r3, #15
 80015a4:	429f      	cmp	r7, r3
 80015a6:	d200      	bcs.n	80015aa <__aeabi_fsub+0x3da>
 80015a8:	e726      	b.n	80013f8 <__aeabi_fsub+0x228>
 80015aa:	4298      	cmp	r0, r3
 80015ac:	d300      	bcc.n	80015b0 <__aeabi_fsub+0x3e0>
 80015ae:	e723      	b.n	80013f8 <__aeabi_fsub+0x228>
 80015b0:	2401      	movs	r4, #1
 80015b2:	4034      	ands	r4, r6
 80015b4:	0007      	movs	r7, r0
 80015b6:	e71f      	b.n	80013f8 <__aeabi_fsub+0x228>
 80015b8:	0034      	movs	r4, r6
 80015ba:	468c      	mov	ip, r1
 80015bc:	e67e      	b.n	80012bc <__aeabi_fsub+0xec>
 80015be:	2301      	movs	r3, #1
 80015c0:	08cf      	lsrs	r7, r1, #3
 80015c2:	e680      	b.n	80012c6 <__aeabi_fsub+0xf6>
 80015c4:	2300      	movs	r3, #0
 80015c6:	e67e      	b.n	80012c6 <__aeabi_fsub+0xf6>
 80015c8:	2020      	movs	r0, #32
 80015ca:	4665      	mov	r5, ip
 80015cc:	1b80      	subs	r0, r0, r6
 80015ce:	4085      	lsls	r5, r0
 80015d0:	4663      	mov	r3, ip
 80015d2:	0028      	movs	r0, r5
 80015d4:	40f3      	lsrs	r3, r6
 80015d6:	1e45      	subs	r5, r0, #1
 80015d8:	41a8      	sbcs	r0, r5
 80015da:	4303      	orrs	r3, r0
 80015dc:	469c      	mov	ip, r3
 80015de:	0015      	movs	r5, r2
 80015e0:	448c      	add	ip, r1
 80015e2:	e76d      	b.n	80014c0 <__aeabi_fsub+0x2f0>
 80015e4:	2302      	movs	r3, #2
 80015e6:	08cf      	lsrs	r7, r1, #3
 80015e8:	e66d      	b.n	80012c6 <__aeabi_fsub+0xf6>
 80015ea:	1b0f      	subs	r7, r1, r4
 80015ec:	017b      	lsls	r3, r7, #5
 80015ee:	d528      	bpl.n	8001642 <__aeabi_fsub+0x472>
 80015f0:	01bf      	lsls	r7, r7, #6
 80015f2:	09bf      	lsrs	r7, r7, #6
 80015f4:	0038      	movs	r0, r7
 80015f6:	f000 f905 	bl	8001804 <__clzsi2>
 80015fa:	003b      	movs	r3, r7
 80015fc:	3805      	subs	r0, #5
 80015fe:	4083      	lsls	r3, r0
 8001600:	0034      	movs	r4, r6
 8001602:	2501      	movs	r5, #1
 8001604:	e6ca      	b.n	800139c <__aeabi_fsub+0x1cc>
 8001606:	2900      	cmp	r1, #0
 8001608:	d100      	bne.n	800160c <__aeabi_fsub+0x43c>
 800160a:	e6b5      	b.n	8001378 <__aeabi_fsub+0x1a8>
 800160c:	2401      	movs	r4, #1
 800160e:	0007      	movs	r7, r0
 8001610:	4034      	ands	r4, r6
 8001612:	e658      	b.n	80012c6 <__aeabi_fsub+0xf6>
 8001614:	4663      	mov	r3, ip
 8001616:	2b00      	cmp	r3, #0
 8001618:	d100      	bne.n	800161c <__aeabi_fsub+0x44c>
 800161a:	e6e9      	b.n	80013f0 <__aeabi_fsub+0x220>
 800161c:	2900      	cmp	r1, #0
 800161e:	d100      	bne.n	8001622 <__aeabi_fsub+0x452>
 8001620:	e6ea      	b.n	80013f8 <__aeabi_fsub+0x228>
 8001622:	2380      	movs	r3, #128	@ 0x80
 8001624:	03db      	lsls	r3, r3, #15
 8001626:	429f      	cmp	r7, r3
 8001628:	d200      	bcs.n	800162c <__aeabi_fsub+0x45c>
 800162a:	e6e5      	b.n	80013f8 <__aeabi_fsub+0x228>
 800162c:	4298      	cmp	r0, r3
 800162e:	d300      	bcc.n	8001632 <__aeabi_fsub+0x462>
 8001630:	e6e2      	b.n	80013f8 <__aeabi_fsub+0x228>
 8001632:	0007      	movs	r7, r0
 8001634:	e6e0      	b.n	80013f8 <__aeabi_fsub+0x228>
 8001636:	2900      	cmp	r1, #0
 8001638:	d100      	bne.n	800163c <__aeabi_fsub+0x46c>
 800163a:	e69e      	b.n	800137a <__aeabi_fsub+0x1aa>
 800163c:	2300      	movs	r3, #0
 800163e:	08cf      	lsrs	r7, r1, #3
 8001640:	e641      	b.n	80012c6 <__aeabi_fsub+0xf6>
 8001642:	0034      	movs	r4, r6
 8001644:	2301      	movs	r3, #1
 8001646:	08ff      	lsrs	r7, r7, #3
 8001648:	e63d      	b.n	80012c6 <__aeabi_fsub+0xf6>
 800164a:	2f00      	cmp	r7, #0
 800164c:	d100      	bne.n	8001650 <__aeabi_fsub+0x480>
 800164e:	e693      	b.n	8001378 <__aeabi_fsub+0x1a8>
 8001650:	2300      	movs	r3, #0
 8001652:	08ff      	lsrs	r7, r7, #3
 8001654:	e637      	b.n	80012c6 <__aeabi_fsub+0xf6>
 8001656:	2300      	movs	r3, #0
 8001658:	08d7      	lsrs	r7, r2, #3
 800165a:	e634      	b.n	80012c6 <__aeabi_fsub+0xf6>
 800165c:	2301      	movs	r3, #1
 800165e:	08cf      	lsrs	r7, r1, #3
 8001660:	e631      	b.n	80012c6 <__aeabi_fsub+0xf6>
 8001662:	2280      	movs	r2, #128	@ 0x80
 8001664:	000b      	movs	r3, r1
 8001666:	04d2      	lsls	r2, r2, #19
 8001668:	2001      	movs	r0, #1
 800166a:	4013      	ands	r3, r2
 800166c:	4211      	tst	r1, r2
 800166e:	d000      	beq.n	8001672 <__aeabi_fsub+0x4a2>
 8001670:	e6ae      	b.n	80013d0 <__aeabi_fsub+0x200>
 8001672:	08cf      	lsrs	r7, r1, #3
 8001674:	e627      	b.n	80012c6 <__aeabi_fsub+0xf6>
 8001676:	2b00      	cmp	r3, #0
 8001678:	d100      	bne.n	800167c <__aeabi_fsub+0x4ac>
 800167a:	e75f      	b.n	800153c <__aeabi_fsub+0x36c>
 800167c:	1b56      	subs	r6, r2, r5
 800167e:	2d00      	cmp	r5, #0
 8001680:	d101      	bne.n	8001686 <__aeabi_fsub+0x4b6>
 8001682:	0033      	movs	r3, r6
 8001684:	e6e7      	b.n	8001456 <__aeabi_fsub+0x286>
 8001686:	2380      	movs	r3, #128	@ 0x80
 8001688:	4660      	mov	r0, ip
 800168a:	04db      	lsls	r3, r3, #19
 800168c:	4318      	orrs	r0, r3
 800168e:	4684      	mov	ip, r0
 8001690:	e6eb      	b.n	800146a <__aeabi_fsub+0x29a>
 8001692:	46c0      	nop			@ (mov r8, r8)
 8001694:	7dffffff 	.word	0x7dffffff

08001698 <__aeabi_f2iz>:
 8001698:	0241      	lsls	r1, r0, #9
 800169a:	0042      	lsls	r2, r0, #1
 800169c:	0fc3      	lsrs	r3, r0, #31
 800169e:	0a49      	lsrs	r1, r1, #9
 80016a0:	2000      	movs	r0, #0
 80016a2:	0e12      	lsrs	r2, r2, #24
 80016a4:	2a7e      	cmp	r2, #126	@ 0x7e
 80016a6:	dd03      	ble.n	80016b0 <__aeabi_f2iz+0x18>
 80016a8:	2a9d      	cmp	r2, #157	@ 0x9d
 80016aa:	dd02      	ble.n	80016b2 <__aeabi_f2iz+0x1a>
 80016ac:	4a09      	ldr	r2, [pc, #36]	@ (80016d4 <__aeabi_f2iz+0x3c>)
 80016ae:	1898      	adds	r0, r3, r2
 80016b0:	4770      	bx	lr
 80016b2:	2080      	movs	r0, #128	@ 0x80
 80016b4:	0400      	lsls	r0, r0, #16
 80016b6:	4301      	orrs	r1, r0
 80016b8:	2a95      	cmp	r2, #149	@ 0x95
 80016ba:	dc07      	bgt.n	80016cc <__aeabi_f2iz+0x34>
 80016bc:	2096      	movs	r0, #150	@ 0x96
 80016be:	1a82      	subs	r2, r0, r2
 80016c0:	40d1      	lsrs	r1, r2
 80016c2:	4248      	negs	r0, r1
 80016c4:	2b00      	cmp	r3, #0
 80016c6:	d1f3      	bne.n	80016b0 <__aeabi_f2iz+0x18>
 80016c8:	0008      	movs	r0, r1
 80016ca:	e7f1      	b.n	80016b0 <__aeabi_f2iz+0x18>
 80016cc:	3a96      	subs	r2, #150	@ 0x96
 80016ce:	4091      	lsls	r1, r2
 80016d0:	e7f7      	b.n	80016c2 <__aeabi_f2iz+0x2a>
 80016d2:	46c0      	nop			@ (mov r8, r8)
 80016d4:	7fffffff 	.word	0x7fffffff

080016d8 <__aeabi_i2f>:
 80016d8:	b570      	push	{r4, r5, r6, lr}
 80016da:	2800      	cmp	r0, #0
 80016dc:	d012      	beq.n	8001704 <__aeabi_i2f+0x2c>
 80016de:	17c3      	asrs	r3, r0, #31
 80016e0:	18c5      	adds	r5, r0, r3
 80016e2:	405d      	eors	r5, r3
 80016e4:	0fc4      	lsrs	r4, r0, #31
 80016e6:	0028      	movs	r0, r5
 80016e8:	f000 f88c 	bl	8001804 <__clzsi2>
 80016ec:	239e      	movs	r3, #158	@ 0x9e
 80016ee:	1a1b      	subs	r3, r3, r0
 80016f0:	2b96      	cmp	r3, #150	@ 0x96
 80016f2:	dc0f      	bgt.n	8001714 <__aeabi_i2f+0x3c>
 80016f4:	2808      	cmp	r0, #8
 80016f6:	d038      	beq.n	800176a <__aeabi_i2f+0x92>
 80016f8:	3808      	subs	r0, #8
 80016fa:	4085      	lsls	r5, r0
 80016fc:	026d      	lsls	r5, r5, #9
 80016fe:	0a6d      	lsrs	r5, r5, #9
 8001700:	b2d8      	uxtb	r0, r3
 8001702:	e002      	b.n	800170a <__aeabi_i2f+0x32>
 8001704:	2400      	movs	r4, #0
 8001706:	2000      	movs	r0, #0
 8001708:	2500      	movs	r5, #0
 800170a:	05c0      	lsls	r0, r0, #23
 800170c:	4328      	orrs	r0, r5
 800170e:	07e4      	lsls	r4, r4, #31
 8001710:	4320      	orrs	r0, r4
 8001712:	bd70      	pop	{r4, r5, r6, pc}
 8001714:	2b99      	cmp	r3, #153	@ 0x99
 8001716:	dc14      	bgt.n	8001742 <__aeabi_i2f+0x6a>
 8001718:	1f42      	subs	r2, r0, #5
 800171a:	4095      	lsls	r5, r2
 800171c:	002a      	movs	r2, r5
 800171e:	4915      	ldr	r1, [pc, #84]	@ (8001774 <__aeabi_i2f+0x9c>)
 8001720:	4011      	ands	r1, r2
 8001722:	0755      	lsls	r5, r2, #29
 8001724:	d01c      	beq.n	8001760 <__aeabi_i2f+0x88>
 8001726:	250f      	movs	r5, #15
 8001728:	402a      	ands	r2, r5
 800172a:	2a04      	cmp	r2, #4
 800172c:	d018      	beq.n	8001760 <__aeabi_i2f+0x88>
 800172e:	3104      	adds	r1, #4
 8001730:	08ca      	lsrs	r2, r1, #3
 8001732:	0149      	lsls	r1, r1, #5
 8001734:	d515      	bpl.n	8001762 <__aeabi_i2f+0x8a>
 8001736:	239f      	movs	r3, #159	@ 0x9f
 8001738:	0252      	lsls	r2, r2, #9
 800173a:	1a18      	subs	r0, r3, r0
 800173c:	0a55      	lsrs	r5, r2, #9
 800173e:	b2c0      	uxtb	r0, r0
 8001740:	e7e3      	b.n	800170a <__aeabi_i2f+0x32>
 8001742:	2205      	movs	r2, #5
 8001744:	0029      	movs	r1, r5
 8001746:	1a12      	subs	r2, r2, r0
 8001748:	40d1      	lsrs	r1, r2
 800174a:	0002      	movs	r2, r0
 800174c:	321b      	adds	r2, #27
 800174e:	4095      	lsls	r5, r2
 8001750:	002a      	movs	r2, r5
 8001752:	1e55      	subs	r5, r2, #1
 8001754:	41aa      	sbcs	r2, r5
 8001756:	430a      	orrs	r2, r1
 8001758:	4906      	ldr	r1, [pc, #24]	@ (8001774 <__aeabi_i2f+0x9c>)
 800175a:	4011      	ands	r1, r2
 800175c:	0755      	lsls	r5, r2, #29
 800175e:	d1e2      	bne.n	8001726 <__aeabi_i2f+0x4e>
 8001760:	08ca      	lsrs	r2, r1, #3
 8001762:	0252      	lsls	r2, r2, #9
 8001764:	0a55      	lsrs	r5, r2, #9
 8001766:	b2d8      	uxtb	r0, r3
 8001768:	e7cf      	b.n	800170a <__aeabi_i2f+0x32>
 800176a:	026d      	lsls	r5, r5, #9
 800176c:	0a6d      	lsrs	r5, r5, #9
 800176e:	308e      	adds	r0, #142	@ 0x8e
 8001770:	e7cb      	b.n	800170a <__aeabi_i2f+0x32>
 8001772:	46c0      	nop			@ (mov r8, r8)
 8001774:	fbffffff 	.word	0xfbffffff

08001778 <__aeabi_ui2f>:
 8001778:	b510      	push	{r4, lr}
 800177a:	1e04      	subs	r4, r0, #0
 800177c:	d00d      	beq.n	800179a <__aeabi_ui2f+0x22>
 800177e:	f000 f841 	bl	8001804 <__clzsi2>
 8001782:	239e      	movs	r3, #158	@ 0x9e
 8001784:	1a1b      	subs	r3, r3, r0
 8001786:	2b96      	cmp	r3, #150	@ 0x96
 8001788:	dc0c      	bgt.n	80017a4 <__aeabi_ui2f+0x2c>
 800178a:	2808      	cmp	r0, #8
 800178c:	d034      	beq.n	80017f8 <__aeabi_ui2f+0x80>
 800178e:	3808      	subs	r0, #8
 8001790:	4084      	lsls	r4, r0
 8001792:	0264      	lsls	r4, r4, #9
 8001794:	0a64      	lsrs	r4, r4, #9
 8001796:	b2d8      	uxtb	r0, r3
 8001798:	e001      	b.n	800179e <__aeabi_ui2f+0x26>
 800179a:	2000      	movs	r0, #0
 800179c:	2400      	movs	r4, #0
 800179e:	05c0      	lsls	r0, r0, #23
 80017a0:	4320      	orrs	r0, r4
 80017a2:	bd10      	pop	{r4, pc}
 80017a4:	2b99      	cmp	r3, #153	@ 0x99
 80017a6:	dc13      	bgt.n	80017d0 <__aeabi_ui2f+0x58>
 80017a8:	1f42      	subs	r2, r0, #5
 80017aa:	4094      	lsls	r4, r2
 80017ac:	4a14      	ldr	r2, [pc, #80]	@ (8001800 <__aeabi_ui2f+0x88>)
 80017ae:	4022      	ands	r2, r4
 80017b0:	0761      	lsls	r1, r4, #29
 80017b2:	d01c      	beq.n	80017ee <__aeabi_ui2f+0x76>
 80017b4:	210f      	movs	r1, #15
 80017b6:	4021      	ands	r1, r4
 80017b8:	2904      	cmp	r1, #4
 80017ba:	d018      	beq.n	80017ee <__aeabi_ui2f+0x76>
 80017bc:	3204      	adds	r2, #4
 80017be:	08d4      	lsrs	r4, r2, #3
 80017c0:	0152      	lsls	r2, r2, #5
 80017c2:	d515      	bpl.n	80017f0 <__aeabi_ui2f+0x78>
 80017c4:	239f      	movs	r3, #159	@ 0x9f
 80017c6:	0264      	lsls	r4, r4, #9
 80017c8:	1a18      	subs	r0, r3, r0
 80017ca:	0a64      	lsrs	r4, r4, #9
 80017cc:	b2c0      	uxtb	r0, r0
 80017ce:	e7e6      	b.n	800179e <__aeabi_ui2f+0x26>
 80017d0:	0002      	movs	r2, r0
 80017d2:	0021      	movs	r1, r4
 80017d4:	321b      	adds	r2, #27
 80017d6:	4091      	lsls	r1, r2
 80017d8:	000a      	movs	r2, r1
 80017da:	1e51      	subs	r1, r2, #1
 80017dc:	418a      	sbcs	r2, r1
 80017de:	2105      	movs	r1, #5
 80017e0:	1a09      	subs	r1, r1, r0
 80017e2:	40cc      	lsrs	r4, r1
 80017e4:	4314      	orrs	r4, r2
 80017e6:	4a06      	ldr	r2, [pc, #24]	@ (8001800 <__aeabi_ui2f+0x88>)
 80017e8:	4022      	ands	r2, r4
 80017ea:	0761      	lsls	r1, r4, #29
 80017ec:	d1e2      	bne.n	80017b4 <__aeabi_ui2f+0x3c>
 80017ee:	08d4      	lsrs	r4, r2, #3
 80017f0:	0264      	lsls	r4, r4, #9
 80017f2:	0a64      	lsrs	r4, r4, #9
 80017f4:	b2d8      	uxtb	r0, r3
 80017f6:	e7d2      	b.n	800179e <__aeabi_ui2f+0x26>
 80017f8:	0264      	lsls	r4, r4, #9
 80017fa:	0a64      	lsrs	r4, r4, #9
 80017fc:	308e      	adds	r0, #142	@ 0x8e
 80017fe:	e7ce      	b.n	800179e <__aeabi_ui2f+0x26>
 8001800:	fbffffff 	.word	0xfbffffff

08001804 <__clzsi2>:
 8001804:	211c      	movs	r1, #28
 8001806:	2301      	movs	r3, #1
 8001808:	041b      	lsls	r3, r3, #16
 800180a:	4298      	cmp	r0, r3
 800180c:	d301      	bcc.n	8001812 <__clzsi2+0xe>
 800180e:	0c00      	lsrs	r0, r0, #16
 8001810:	3910      	subs	r1, #16
 8001812:	0a1b      	lsrs	r3, r3, #8
 8001814:	4298      	cmp	r0, r3
 8001816:	d301      	bcc.n	800181c <__clzsi2+0x18>
 8001818:	0a00      	lsrs	r0, r0, #8
 800181a:	3908      	subs	r1, #8
 800181c:	091b      	lsrs	r3, r3, #4
 800181e:	4298      	cmp	r0, r3
 8001820:	d301      	bcc.n	8001826 <__clzsi2+0x22>
 8001822:	0900      	lsrs	r0, r0, #4
 8001824:	3904      	subs	r1, #4
 8001826:	a202      	add	r2, pc, #8	@ (adr r2, 8001830 <__clzsi2+0x2c>)
 8001828:	5c10      	ldrb	r0, [r2, r0]
 800182a:	1840      	adds	r0, r0, r1
 800182c:	4770      	bx	lr
 800182e:	46c0      	nop			@ (mov r8, r8)
 8001830:	02020304 	.word	0x02020304
 8001834:	01010101 	.word	0x01010101
	...

08001840 <__clzdi2>:
 8001840:	b510      	push	{r4, lr}
 8001842:	2900      	cmp	r1, #0
 8001844:	d103      	bne.n	800184e <__clzdi2+0xe>
 8001846:	f7ff ffdd 	bl	8001804 <__clzsi2>
 800184a:	3020      	adds	r0, #32
 800184c:	e002      	b.n	8001854 <__clzdi2+0x14>
 800184e:	0008      	movs	r0, r1
 8001850:	f7ff ffd8 	bl	8001804 <__clzsi2>
 8001854:	bd10      	pop	{r4, pc}
 8001856:	46c0      	nop			@ (mov r8, r8)

08001858 <__divdi3>:
 8001858:	b5f0      	push	{r4, r5, r6, r7, lr}
 800185a:	464f      	mov	r7, r9
 800185c:	4646      	mov	r6, r8
 800185e:	46d6      	mov	lr, sl
 8001860:	b5c0      	push	{r6, r7, lr}
 8001862:	0006      	movs	r6, r0
 8001864:	000f      	movs	r7, r1
 8001866:	0010      	movs	r0, r2
 8001868:	0019      	movs	r1, r3
 800186a:	b082      	sub	sp, #8
 800186c:	2f00      	cmp	r7, #0
 800186e:	db5d      	blt.n	800192c <__divdi3+0xd4>
 8001870:	0034      	movs	r4, r6
 8001872:	003d      	movs	r5, r7
 8001874:	2b00      	cmp	r3, #0
 8001876:	db0b      	blt.n	8001890 <__divdi3+0x38>
 8001878:	0016      	movs	r6, r2
 800187a:	001f      	movs	r7, r3
 800187c:	42ab      	cmp	r3, r5
 800187e:	d917      	bls.n	80018b0 <__divdi3+0x58>
 8001880:	2000      	movs	r0, #0
 8001882:	2100      	movs	r1, #0
 8001884:	b002      	add	sp, #8
 8001886:	bce0      	pop	{r5, r6, r7}
 8001888:	46ba      	mov	sl, r7
 800188a:	46b1      	mov	r9, r6
 800188c:	46a8      	mov	r8, r5
 800188e:	bdf0      	pop	{r4, r5, r6, r7, pc}
 8001890:	2700      	movs	r7, #0
 8001892:	4246      	negs	r6, r0
 8001894:	418f      	sbcs	r7, r1
 8001896:	42af      	cmp	r7, r5
 8001898:	d8f2      	bhi.n	8001880 <__divdi3+0x28>
 800189a:	d100      	bne.n	800189e <__divdi3+0x46>
 800189c:	e0a0      	b.n	80019e0 <__divdi3+0x188>
 800189e:	2301      	movs	r3, #1
 80018a0:	425b      	negs	r3, r3
 80018a2:	4699      	mov	r9, r3
 80018a4:	e009      	b.n	80018ba <__divdi3+0x62>
 80018a6:	2700      	movs	r7, #0
 80018a8:	4246      	negs	r6, r0
 80018aa:	418f      	sbcs	r7, r1
 80018ac:	42af      	cmp	r7, r5
 80018ae:	d8e7      	bhi.n	8001880 <__divdi3+0x28>
 80018b0:	42af      	cmp	r7, r5
 80018b2:	d100      	bne.n	80018b6 <__divdi3+0x5e>
 80018b4:	e090      	b.n	80019d8 <__divdi3+0x180>
 80018b6:	2300      	movs	r3, #0
 80018b8:	4699      	mov	r9, r3
 80018ba:	0039      	movs	r1, r7
 80018bc:	0030      	movs	r0, r6
 80018be:	f7ff ffbf 	bl	8001840 <__clzdi2>
 80018c2:	4680      	mov	r8, r0
 80018c4:	0029      	movs	r1, r5
 80018c6:	0020      	movs	r0, r4
 80018c8:	f7ff ffba 	bl	8001840 <__clzdi2>
 80018cc:	4643      	mov	r3, r8
 80018ce:	1a1b      	subs	r3, r3, r0
 80018d0:	4698      	mov	r8, r3
 80018d2:	3b20      	subs	r3, #32
 80018d4:	d475      	bmi.n	80019c2 <__divdi3+0x16a>
 80018d6:	0031      	movs	r1, r6
 80018d8:	4099      	lsls	r1, r3
 80018da:	469a      	mov	sl, r3
 80018dc:	000b      	movs	r3, r1
 80018de:	0031      	movs	r1, r6
 80018e0:	4640      	mov	r0, r8
 80018e2:	4081      	lsls	r1, r0
 80018e4:	000a      	movs	r2, r1
 80018e6:	42ab      	cmp	r3, r5
 80018e8:	d82e      	bhi.n	8001948 <__divdi3+0xf0>
 80018ea:	d02b      	beq.n	8001944 <__divdi3+0xec>
 80018ec:	4651      	mov	r1, sl
 80018ee:	1aa4      	subs	r4, r4, r2
 80018f0:	419d      	sbcs	r5, r3
 80018f2:	2900      	cmp	r1, #0
 80018f4:	da00      	bge.n	80018f8 <__divdi3+0xa0>
 80018f6:	e090      	b.n	8001a1a <__divdi3+0x1c2>
 80018f8:	2100      	movs	r1, #0
 80018fa:	2000      	movs	r0, #0
 80018fc:	2601      	movs	r6, #1
 80018fe:	9000      	str	r0, [sp, #0]
 8001900:	9101      	str	r1, [sp, #4]
 8001902:	4651      	mov	r1, sl
 8001904:	408e      	lsls	r6, r1
 8001906:	9601      	str	r6, [sp, #4]
 8001908:	4641      	mov	r1, r8
 800190a:	2601      	movs	r6, #1
 800190c:	408e      	lsls	r6, r1
 800190e:	4641      	mov	r1, r8
 8001910:	9600      	str	r6, [sp, #0]
 8001912:	2900      	cmp	r1, #0
 8001914:	d11f      	bne.n	8001956 <__divdi3+0xfe>
 8001916:	9800      	ldr	r0, [sp, #0]
 8001918:	9901      	ldr	r1, [sp, #4]
 800191a:	464b      	mov	r3, r9
 800191c:	2b00      	cmp	r3, #0
 800191e:	d0b1      	beq.n	8001884 <__divdi3+0x2c>
 8001920:	0003      	movs	r3, r0
 8001922:	000c      	movs	r4, r1
 8001924:	2100      	movs	r1, #0
 8001926:	4258      	negs	r0, r3
 8001928:	41a1      	sbcs	r1, r4
 800192a:	e7ab      	b.n	8001884 <__divdi3+0x2c>
 800192c:	2500      	movs	r5, #0
 800192e:	4274      	negs	r4, r6
 8001930:	41bd      	sbcs	r5, r7
 8001932:	2b00      	cmp	r3, #0
 8001934:	dbb7      	blt.n	80018a6 <__divdi3+0x4e>
 8001936:	0016      	movs	r6, r2
 8001938:	001f      	movs	r7, r3
 800193a:	42ab      	cmp	r3, r5
 800193c:	d8a0      	bhi.n	8001880 <__divdi3+0x28>
 800193e:	42af      	cmp	r7, r5
 8001940:	d1ad      	bne.n	800189e <__divdi3+0x46>
 8001942:	e04d      	b.n	80019e0 <__divdi3+0x188>
 8001944:	42a1      	cmp	r1, r4
 8001946:	d9d1      	bls.n	80018ec <__divdi3+0x94>
 8001948:	2100      	movs	r1, #0
 800194a:	2000      	movs	r0, #0
 800194c:	9000      	str	r0, [sp, #0]
 800194e:	9101      	str	r1, [sp, #4]
 8001950:	4641      	mov	r1, r8
 8001952:	2900      	cmp	r1, #0
 8001954:	d0df      	beq.n	8001916 <__divdi3+0xbe>
 8001956:	07d9      	lsls	r1, r3, #31
 8001958:	0856      	lsrs	r6, r2, #1
 800195a:	085f      	lsrs	r7, r3, #1
 800195c:	430e      	orrs	r6, r1
 800195e:	4643      	mov	r3, r8
 8001960:	e00e      	b.n	8001980 <__divdi3+0x128>
 8001962:	42af      	cmp	r7, r5
 8001964:	d101      	bne.n	800196a <__divdi3+0x112>
 8001966:	42a6      	cmp	r6, r4
 8001968:	d80c      	bhi.n	8001984 <__divdi3+0x12c>
 800196a:	1ba4      	subs	r4, r4, r6
 800196c:	41bd      	sbcs	r5, r7
 800196e:	2101      	movs	r1, #1
 8001970:	1924      	adds	r4, r4, r4
 8001972:	416d      	adcs	r5, r5
 8001974:	2200      	movs	r2, #0
 8001976:	3b01      	subs	r3, #1
 8001978:	1864      	adds	r4, r4, r1
 800197a:	4155      	adcs	r5, r2
 800197c:	2b00      	cmp	r3, #0
 800197e:	d006      	beq.n	800198e <__divdi3+0x136>
 8001980:	42af      	cmp	r7, r5
 8001982:	d9ee      	bls.n	8001962 <__divdi3+0x10a>
 8001984:	3b01      	subs	r3, #1
 8001986:	1924      	adds	r4, r4, r4
 8001988:	416d      	adcs	r5, r5
 800198a:	2b00      	cmp	r3, #0
 800198c:	d1f8      	bne.n	8001980 <__divdi3+0x128>
 800198e:	9a00      	ldr	r2, [sp, #0]
 8001990:	9b01      	ldr	r3, [sp, #4]
 8001992:	4651      	mov	r1, sl
 8001994:	1912      	adds	r2, r2, r4
 8001996:	416b      	adcs	r3, r5
 8001998:	2900      	cmp	r1, #0
 800199a:	db25      	blt.n	80019e8 <__divdi3+0x190>
 800199c:	002e      	movs	r6, r5
 800199e:	002c      	movs	r4, r5
 80019a0:	40ce      	lsrs	r6, r1
 80019a2:	4641      	mov	r1, r8
 80019a4:	40cc      	lsrs	r4, r1
 80019a6:	4651      	mov	r1, sl
 80019a8:	2900      	cmp	r1, #0
 80019aa:	db2d      	blt.n	8001a08 <__divdi3+0x1b0>
 80019ac:	0034      	movs	r4, r6
 80019ae:	408c      	lsls	r4, r1
 80019b0:	0021      	movs	r1, r4
 80019b2:	4644      	mov	r4, r8
 80019b4:	40a6      	lsls	r6, r4
 80019b6:	0030      	movs	r0, r6
 80019b8:	1a12      	subs	r2, r2, r0
 80019ba:	418b      	sbcs	r3, r1
 80019bc:	9200      	str	r2, [sp, #0]
 80019be:	9301      	str	r3, [sp, #4]
 80019c0:	e7a9      	b.n	8001916 <__divdi3+0xbe>
 80019c2:	4642      	mov	r2, r8
 80019c4:	0038      	movs	r0, r7
 80019c6:	469a      	mov	sl, r3
 80019c8:	2320      	movs	r3, #32
 80019ca:	0031      	movs	r1, r6
 80019cc:	4090      	lsls	r0, r2
 80019ce:	1a9b      	subs	r3, r3, r2
 80019d0:	40d9      	lsrs	r1, r3
 80019d2:	0003      	movs	r3, r0
 80019d4:	430b      	orrs	r3, r1
 80019d6:	e782      	b.n	80018de <__divdi3+0x86>
 80019d8:	42a6      	cmp	r6, r4
 80019da:	d900      	bls.n	80019de <__divdi3+0x186>
 80019dc:	e750      	b.n	8001880 <__divdi3+0x28>
 80019de:	e76a      	b.n	80018b6 <__divdi3+0x5e>
 80019e0:	42a6      	cmp	r6, r4
 80019e2:	d800      	bhi.n	80019e6 <__divdi3+0x18e>
 80019e4:	e75b      	b.n	800189e <__divdi3+0x46>
 80019e6:	e74b      	b.n	8001880 <__divdi3+0x28>
 80019e8:	4640      	mov	r0, r8
 80019ea:	2120      	movs	r1, #32
 80019ec:	1a09      	subs	r1, r1, r0
 80019ee:	0028      	movs	r0, r5
 80019f0:	4088      	lsls	r0, r1
 80019f2:	0026      	movs	r6, r4
 80019f4:	0001      	movs	r1, r0
 80019f6:	4640      	mov	r0, r8
 80019f8:	40c6      	lsrs	r6, r0
 80019fa:	002c      	movs	r4, r5
 80019fc:	430e      	orrs	r6, r1
 80019fe:	4641      	mov	r1, r8
 8001a00:	40cc      	lsrs	r4, r1
 8001a02:	4651      	mov	r1, sl
 8001a04:	2900      	cmp	r1, #0
 8001a06:	dad1      	bge.n	80019ac <__divdi3+0x154>
 8001a08:	4640      	mov	r0, r8
 8001a0a:	2120      	movs	r1, #32
 8001a0c:	0035      	movs	r5, r6
 8001a0e:	4084      	lsls	r4, r0
 8001a10:	1a09      	subs	r1, r1, r0
 8001a12:	40cd      	lsrs	r5, r1
 8001a14:	0021      	movs	r1, r4
 8001a16:	4329      	orrs	r1, r5
 8001a18:	e7cb      	b.n	80019b2 <__divdi3+0x15a>
 8001a1a:	4641      	mov	r1, r8
 8001a1c:	2620      	movs	r6, #32
 8001a1e:	2701      	movs	r7, #1
 8001a20:	1a76      	subs	r6, r6, r1
 8001a22:	2000      	movs	r0, #0
 8001a24:	2100      	movs	r1, #0
 8001a26:	40f7      	lsrs	r7, r6
 8001a28:	9000      	str	r0, [sp, #0]
 8001a2a:	9101      	str	r1, [sp, #4]
 8001a2c:	9701      	str	r7, [sp, #4]
 8001a2e:	e76b      	b.n	8001908 <__divdi3+0xb0>

08001a30 <FAC_adc_GET_resolution>:
 8001a30:	4b01      	ldr	r3, [pc, #4]	@ (8001a38 <FAC_adc_GET_resolution+0x8>)
 8001a32:	8818      	ldrh	r0, [r3, #0]
 8001a34:	4770      	bx	lr
 8001a36:	46c0      	nop			@ (mov r8, r8)
 8001a38:	20000394 	.word	0x20000394

08001a3c <FAC_adc_GET_Vref_in_uV>:
 8001a3c:	4b01      	ldr	r3, [pc, #4]	@ (8001a44 <FAC_adc_GET_Vref_in_uV+0x8>)
 8001a3e:	6858      	ldr	r0, [r3, #4]
 8001a40:	4770      	bx	lr
 8001a42:	46c0      	nop			@ (mov r8, r8)
 8001a44:	20000394 	.word	0x20000394

08001a48 <FAC_adc_Init>:
 8001a48:	b510      	push	{r4, lr}
 8001a4a:	2064      	movs	r0, #100	@ 0x64
 8001a4c:	f002 f8ca 	bl	8003be4 <HAL_Delay>
 8001a50:	4c13      	ldr	r4, [pc, #76]	@ (8001aa0 <FAC_adc_Init+0x58>)
 8001a52:	0020      	movs	r0, r4
 8001a54:	f002 fae2 	bl	800401c <HAL_ADCEx_Calibration_Start>
 8001a58:	2032      	movs	r0, #50	@ 0x32
 8001a5a:	f002 f8c3 	bl	8003be4 <HAL_Delay>
 8001a5e:	2202      	movs	r2, #2
 8001a60:	0020      	movs	r0, r4
 8001a62:	4910      	ldr	r1, [pc, #64]	@ (8001aa4 <FAC_adc_Init+0x5c>)
 8001a64:	f002 f9c2 	bl	8003dec <HAL_ADC_Start_DMA>
 8001a68:	4b0f      	ldr	r3, [pc, #60]	@ (8001aa8 <FAC_adc_Init+0x60>)
 8001a6a:	4a10      	ldr	r2, [pc, #64]	@ (8001aac <FAC_adc_Init+0x64>)
 8001a6c:	605a      	str	r2, [r3, #4]
 8001a6e:	2202      	movs	r2, #2
 8001a70:	801a      	strh	r2, [r3, #0]
 8001a72:	68a2      	ldr	r2, [r4, #8]
 8001a74:	2a10      	cmp	r2, #16
 8001a76:	d010      	beq.n	8001a9a <FAC_adc_Init+0x52>
 8001a78:	d804      	bhi.n	8001a84 <FAC_adc_Init+0x3c>
 8001a7a:	2a00      	cmp	r2, #0
 8001a7c:	d006      	beq.n	8001a8c <FAC_adc_Init+0x44>
 8001a7e:	2a08      	cmp	r2, #8
 8001a80:	d008      	beq.n	8001a94 <FAC_adc_Init+0x4c>
 8001a82:	bd10      	pop	{r4, pc}
 8001a84:	2a18      	cmp	r2, #24
 8001a86:	d1fc      	bne.n	8001a82 <FAC_adc_Init+0x3a>
 8001a88:	2240      	movs	r2, #64	@ 0x40
 8001a8a:	e001      	b.n	8001a90 <FAC_adc_Init+0x48>
 8001a8c:	2280      	movs	r2, #128	@ 0x80
 8001a8e:	0152      	lsls	r2, r2, #5
 8001a90:	801a      	strh	r2, [r3, #0]
 8001a92:	e7f6      	b.n	8001a82 <FAC_adc_Init+0x3a>
 8001a94:	2280      	movs	r2, #128	@ 0x80
 8001a96:	00d2      	lsls	r2, r2, #3
 8001a98:	e7fa      	b.n	8001a90 <FAC_adc_Init+0x48>
 8001a9a:	2280      	movs	r2, #128	@ 0x80
 8001a9c:	0052      	lsls	r2, r2, #1
 8001a9e:	e7f7      	b.n	8001a90 <FAC_adc_Init+0x48>
 8001aa0:	200015b4 	.word	0x200015b4
 8001aa4:	20000390 	.word	0x20000390
 8001aa8:	20000394 	.word	0x20000394
 8001aac:	00325aa0 	.word	0x00325aa0

08001ab0 <FAC_adc_get_raw_channel_value>:
 8001ab0:	4b01      	ldr	r3, [pc, #4]	@ (8001ab8 <FAC_adc_get_raw_channel_value+0x8>)
 8001ab2:	0040      	lsls	r0, r0, #1
 8001ab4:	5a18      	ldrh	r0, [r3, r0]
 8001ab6:	4770      	bx	lr
 8001ab8:	20000390 	.word	0x20000390

08001abc <FAC_app_GET_current_state>:
 8001abc:	4b01      	ldr	r3, [pc, #4]	@ (8001ac4 <FAC_app_GET_current_state+0x8>)
 8001abe:	7818      	ldrb	r0, [r3, #0]
 8001ac0:	4770      	bx	lr
 8001ac2:	46c0      	nop			@ (mov r8, r8)
 8001ac4:	200003b9 	.word	0x200003b9

08001ac8 <FAC_app_main_loop>:
 8001ac8:	b570      	push	{r4, r5, r6, lr}
 8001aca:	4c68      	ldr	r4, [pc, #416]	@ (8001c6c <FAC_app_main_loop+0x1a4>)
 8001acc:	7823      	ldrb	r3, [r4, #0]
 8001ace:	2b00      	cmp	r3, #0
 8001ad0:	d003      	beq.n	8001ada <FAC_app_main_loop+0x12>
 8001ad2:	f000 fee3 	bl	800289c <FAC_settings_command_response>
 8001ad6:	2300      	movs	r3, #0
 8001ad8:	7023      	strb	r3, [r4, #0]
 8001ada:	4865      	ldr	r0, [pc, #404]	@ (8001c70 <FAC_app_main_loop+0x1a8>)
 8001adc:	f003 f8ce 	bl	8004c7c <HAL_IWDG_Refresh>
 8001ae0:	4c64      	ldr	r4, [pc, #400]	@ (8001c74 <FAC_app_main_loop+0x1ac>)
 8001ae2:	7825      	ldrb	r5, [r4, #0]
 8001ae4:	2d01      	cmp	r5, #1
 8001ae6:	d048      	beq.n	8001b7a <FAC_app_main_loop+0xb2>
 8001ae8:	2d02      	cmp	r5, #2
 8001aea:	d100      	bne.n	8001aee <FAC_app_main_loop+0x26>
 8001aec:	e0a0      	b.n	8001c30 <FAC_app_main_loop+0x168>
 8001aee:	2d00      	cmp	r5, #0
 8001af0:	d000      	beq.n	8001af4 <FAC_app_main_loop+0x2c>
 8001af2:	e081      	b.n	8001bf8 <FAC_app_main_loop+0x130>
 8001af4:	2101      	movs	r1, #1
 8001af6:	002a      	movs	r2, r5
 8001af8:	0008      	movs	r0, r1
 8001afa:	f000 fc37 	bl	800236c <FAC_motor_set_speed_direction>
 8001afe:	002a      	movs	r2, r5
 8001b00:	2101      	movs	r1, #1
 8001b02:	2002      	movs	r0, #2
 8001b04:	f000 fc32 	bl	800236c <FAC_motor_set_speed_direction>
 8001b08:	002a      	movs	r2, r5
 8001b0a:	2101      	movs	r1, #1
 8001b0c:	2003      	movs	r0, #3
 8001b0e:	f000 fc2d 	bl	800236c <FAC_motor_set_speed_direction>
 8001b12:	2001      	movs	r0, #1
 8001b14:	f000 fe2a 	bl	800276c <FAC_servo_disable>
 8001b18:	2002      	movs	r0, #2
 8001b1a:	f000 fe27 	bl	800276c <FAC_servo_disable>
 8001b1e:	2013      	movs	r0, #19
 8001b20:	f000 fe8c 	bl	800283c <FAC_settings_GET_value>
 8001b24:	b2c0      	uxtb	r0, r0
 8001b26:	2800      	cmp	r0, #0
 8001b28:	d005      	beq.n	8001b36 <FAC_app_main_loop+0x6e>
 8001b2a:	f000 ff99 	bl	8002a60 <FAC_std_receiver_GET_channel>
 8001b2e:	23c8      	movs	r3, #200	@ 0xc8
 8001b30:	009b      	lsls	r3, r3, #2
 8001b32:	4298      	cmp	r0, r3
 8001b34:	d301      	bcc.n	8001b3a <FAC_app_main_loop+0x72>
 8001b36:	2301      	movs	r3, #1
 8001b38:	7023      	strb	r3, [r4, #0]
 8001b3a:	f002 f84d 	bl	8003bd8 <HAL_GetTick>
 8001b3e:	4d4e      	ldr	r5, [pc, #312]	@ (8001c78 <FAC_app_main_loop+0x1b0>)
 8001b40:	682b      	ldr	r3, [r5, #0]
 8001b42:	1ac0      	subs	r0, r0, r3
 8001b44:	28fa      	cmp	r0, #250	@ 0xfa
 8001b46:	d906      	bls.n	8001b56 <FAC_app_main_loop+0x8e>
 8001b48:	f002 f846 	bl	8003bd8 <HAL_GetTick>
 8001b4c:	2164      	movs	r1, #100	@ 0x64
 8001b4e:	6028      	str	r0, [r5, #0]
 8001b50:	484a      	ldr	r0, [pc, #296]	@ (8001c7c <FAC_app_main_loop+0x1b4>)
 8001b52:	f000 fc25 	bl	80023a0 <FAC_motor_make_noise>
 8001b56:	f002 f83f 	bl	8003bd8 <HAL_GetTick>
 8001b5a:	4d49      	ldr	r5, [pc, #292]	@ (8001c80 <FAC_app_main_loop+0x1b8>)
 8001b5c:	682b      	ldr	r3, [r5, #0]
 8001b5e:	1ac0      	subs	r0, r0, r3
 8001b60:	23fa      	movs	r3, #250	@ 0xfa
 8001b62:	005b      	lsls	r3, r3, #1
 8001b64:	4298      	cmp	r0, r3
 8001b66:	d947      	bls.n	8001bf8 <FAC_app_main_loop+0x130>
 8001b68:	f002 f836 	bl	8003bd8 <HAL_GetTick>
 8001b6c:	2180      	movs	r1, #128	@ 0x80
 8001b6e:	6028      	str	r0, [r5, #0]
 8001b70:	01c9      	lsls	r1, r1, #7
 8001b72:	4844      	ldr	r0, [pc, #272]	@ (8001c84 <FAC_app_main_loop+0x1bc>)
 8001b74:	f002 fcaa 	bl	80044cc <HAL_GPIO_TogglePin>
 8001b78:	e03e      	b.n	8001bf8 <FAC_app_main_loop+0x130>
 8001b7a:	f000 fb09 	bl	8002190 <FAC_mapper_apply_to_devices>
 8001b7e:	2013      	movs	r0, #19
 8001b80:	f000 fe5c 	bl	800283c <FAC_settings_GET_value>
 8001b84:	b2c0      	uxtb	r0, r0
 8001b86:	2800      	cmp	r0, #0
 8001b88:	d007      	beq.n	8001b9a <FAC_app_main_loop+0xd2>
 8001b8a:	f000 ff69 	bl	8002a60 <FAC_std_receiver_GET_channel>
 8001b8e:	23c8      	movs	r3, #200	@ 0xc8
 8001b90:	009b      	lsls	r3, r3, #2
 8001b92:	4298      	cmp	r0, r3
 8001b94:	d801      	bhi.n	8001b9a <FAC_app_main_loop+0xd2>
 8001b96:	2300      	movs	r3, #0
 8001b98:	7023      	strb	r3, [r4, #0]
 8001b9a:	f000 f96b 	bl	8001e74 <FAC_battery_GET_cell_voltage>
 8001b9e:	0005      	movs	r5, r0
 8001ba0:	f000 f972 	bl	8001e88 <FAC_battery_GET_type>
 8001ba4:	b2c0      	uxtb	r0, r0
 8001ba6:	2805      	cmp	r0, #5
 8001ba8:	d008      	beq.n	8001bbc <FAC_app_main_loop+0xf4>
 8001baa:	2800      	cmp	r0, #0
 8001bac:	d006      	beq.n	8001bbc <FAC_app_main_loop+0xf4>
 8001bae:	200e      	movs	r0, #14
 8001bb0:	f000 fe44 	bl	800283c <FAC_settings_GET_value>
 8001bb4:	42a8      	cmp	r0, r5
 8001bb6:	d901      	bls.n	8001bbc <FAC_app_main_loop+0xf4>
 8001bb8:	2301      	movs	r3, #1
 8001bba:	7063      	strb	r3, [r4, #1]
 8001bbc:	200f      	movs	r0, #15
 8001bbe:	f000 fe3d 	bl	800283c <FAC_settings_GET_value>
 8001bc2:	4e31      	ldr	r6, [pc, #196]	@ (8001c88 <FAC_app_main_loop+0x1c0>)
 8001bc4:	42a8      	cmp	r0, r5
 8001bc6:	d202      	bcs.n	8001bce <FAC_app_main_loop+0x106>
 8001bc8:	f002 f806 	bl	8003bd8 <HAL_GetTick>
 8001bcc:	6030      	str	r0, [r6, #0]
 8001bce:	f002 f803 	bl	8003bd8 <HAL_GetTick>
 8001bd2:	6835      	ldr	r5, [r6, #0]
 8001bd4:	1b45      	subs	r5, r0, r5
 8001bd6:	2010      	movs	r0, #16
 8001bd8:	f000 fe30 	bl	800283c <FAC_settings_GET_value>
 8001bdc:	4285      	cmp	r5, r0
 8001bde:	d901      	bls.n	8001be4 <FAC_app_main_loop+0x11c>
 8001be0:	2302      	movs	r3, #2
 8001be2:	7023      	strb	r3, [r4, #0]
 8001be4:	7863      	ldrb	r3, [r4, #1]
 8001be6:	2b00      	cmp	r3, #0
 8001be8:	d01b      	beq.n	8001c22 <FAC_app_main_loop+0x15a>
 8001bea:	f001 fff5 	bl	8003bd8 <HAL_GetTick>
 8001bee:	4d27      	ldr	r5, [pc, #156]	@ (8001c8c <FAC_app_main_loop+0x1c4>)
 8001bf0:	682b      	ldr	r3, [r5, #0]
 8001bf2:	1ac0      	subs	r0, r0, r3
 8001bf4:	28fa      	cmp	r0, #250	@ 0xfa
 8001bf6:	d8b7      	bhi.n	8001b68 <FAC_app_main_loop+0xa0>
 8001bf8:	f001 ffee 	bl	8003bd8 <HAL_GetTick>
 8001bfc:	4d24      	ldr	r5, [pc, #144]	@ (8001c90 <FAC_app_main_loop+0x1c8>)
 8001bfe:	682b      	ldr	r3, [r5, #0]
 8001c00:	1ac0      	subs	r0, r0, r3
 8001c02:	23fa      	movs	r3, #250	@ 0xfa
 8001c04:	009b      	lsls	r3, r3, #2
 8001c06:	4298      	cmp	r0, r3
 8001c08:	d30a      	bcc.n	8001c20 <FAC_app_main_loop+0x158>
 8001c0a:	f001 ffe5 	bl	8003bd8 <HAL_GetTick>
 8001c0e:	7823      	ldrb	r3, [r4, #0]
 8001c10:	6028      	str	r0, [r5, #0]
 8001c12:	2b01      	cmp	r3, #1
 8001c14:	d104      	bne.n	8001c20 <FAC_app_main_loop+0x158>
 8001c16:	2180      	movs	r1, #128	@ 0x80
 8001c18:	481a      	ldr	r0, [pc, #104]	@ (8001c84 <FAC_app_main_loop+0x1bc>)
 8001c1a:	01c9      	lsls	r1, r1, #7
 8001c1c:	f002 fc56 	bl	80044cc <HAL_GPIO_TogglePin>
 8001c20:	bd70      	pop	{r4, r5, r6, pc}
 8001c22:	2180      	movs	r1, #128	@ 0x80
 8001c24:	2201      	movs	r2, #1
 8001c26:	4817      	ldr	r0, [pc, #92]	@ (8001c84 <FAC_app_main_loop+0x1bc>)
 8001c28:	01c9      	lsls	r1, r1, #7
 8001c2a:	f002 fc49 	bl	80044c0 <HAL_GPIO_WritePin>
 8001c2e:	e7e3      	b.n	8001bf8 <FAC_app_main_loop+0x130>
 8001c30:	f001 ffd2 	bl	8003bd8 <HAL_GetTick>
 8001c34:	4d17      	ldr	r5, [pc, #92]	@ (8001c94 <FAC_app_main_loop+0x1cc>)
 8001c36:	682b      	ldr	r3, [r5, #0]
 8001c38:	1ac0      	subs	r0, r0, r3
 8001c3a:	2864      	cmp	r0, #100	@ 0x64
 8001c3c:	d907      	bls.n	8001c4e <FAC_app_main_loop+0x186>
 8001c3e:	f001 ffcb 	bl	8003bd8 <HAL_GetTick>
 8001c42:	2180      	movs	r1, #128	@ 0x80
 8001c44:	6028      	str	r0, [r5, #0]
 8001c46:	01c9      	lsls	r1, r1, #7
 8001c48:	480e      	ldr	r0, [pc, #56]	@ (8001c84 <FAC_app_main_loop+0x1bc>)
 8001c4a:	f002 fc3f 	bl	80044cc <HAL_GPIO_TogglePin>
 8001c4e:	f001 ffc3 	bl	8003bd8 <HAL_GetTick>
 8001c52:	4d11      	ldr	r5, [pc, #68]	@ (8001c98 <FAC_app_main_loop+0x1d0>)
 8001c54:	682b      	ldr	r3, [r5, #0]
 8001c56:	1ac0      	subs	r0, r0, r3
 8001c58:	2896      	cmp	r0, #150	@ 0x96
 8001c5a:	d9cd      	bls.n	8001bf8 <FAC_app_main_loop+0x130>
 8001c5c:	f001 ffbc 	bl	8003bd8 <HAL_GetTick>
 8001c60:	2164      	movs	r1, #100	@ 0x64
 8001c62:	6028      	str	r0, [r5, #0]
 8001c64:	4805      	ldr	r0, [pc, #20]	@ (8001c7c <FAC_app_main_loop+0x1b4>)
 8001c66:	f000 fb9b 	bl	80023a0 <FAC_motor_make_noise>
 8001c6a:	e7c5      	b.n	8001bf8 <FAC_app_main_loop+0x130>
 8001c6c:	200003b8 	.word	0x200003b8
 8001c70:	20001648 	.word	0x20001648
 8001c74:	200003b9 	.word	0x200003b9
 8001c78:	200003b4 	.word	0x200003b4
 8001c7c:	000002ee 	.word	0x000002ee
 8001c80:	200003b0 	.word	0x200003b0
 8001c84:	48000800 	.word	0x48000800
 8001c88:	200003ac 	.word	0x200003ac
 8001c8c:	200003a8 	.word	0x200003a8
 8001c90:	2000039c 	.word	0x2000039c
 8001c94:	200003a4 	.word	0x200003a4
 8001c98:	200003a0 	.word	0x200003a0

08001c9c <FAC_app_init_all_modules>:
 8001c9c:	b510      	push	{r4, lr}
 8001c9e:	f000 fbd7 	bl	8002450 <FAC_motor_init>
 8001ca2:	2011      	movs	r0, #17
 8001ca4:	f000 fdca 	bl	800283c <FAC_settings_GET_value>
 8001ca8:	b2c0      	uxtb	r0, r0
 8001caa:	f000 ff51 	bl	8002b50 <FAC_std_reciever_init>
 8001cae:	f000 fd69 	bl	8002784 <FAC_servo_init>
 8001cb2:	f001 f841 	bl	8002d38 <FAC_mixes_init>
 8001cb6:	f000 ffd9 	bl	8002c6c <FAC_functions_init>
 8001cba:	bd10      	pop	{r4, pc}

08001cbc <FAC_app_init>:
 8001cbc:	b570      	push	{r4, r5, r6, lr}
 8001cbe:	4c1f      	ldr	r4, [pc, #124]	@ (8001d3c <FAC_app_init+0x80>)
 8001cc0:	2564      	movs	r5, #100	@ 0x64
 8001cc2:	0020      	movs	r0, r4
 8001cc4:	f002 ffda 	bl	8004c7c <HAL_IWDG_Refresh>
 8001cc8:	2005      	movs	r0, #5
 8001cca:	f000 fe67 	bl	800299c <FAC_settings_init>
 8001cce:	f7ff febb 	bl	8001a48 <FAC_adc_Init>
 8001cd2:	f000 f901 	bl	8001ed8 <FAC_battery_init>
 8001cd6:	0020      	movs	r0, r4
 8001cd8:	f002 ffd0 	bl	8004c7c <HAL_IWDG_Refresh>
 8001cdc:	3d01      	subs	r5, #1
 8001cde:	200a      	movs	r0, #10
 8001ce0:	f001 ff80 	bl	8003be4 <HAL_Delay>
 8001ce4:	2d00      	cmp	r5, #0
 8001ce6:	d1f6      	bne.n	8001cd6 <FAC_app_init+0x1a>
 8001ce8:	f000 f9e2 	bl	80020b0 <FAC_IMU_init>
 8001cec:	0020      	movs	r0, r4
 8001cee:	f002 ffc5 	bl	8004c7c <HAL_IWDG_Refresh>
 8001cf2:	f000 f9ad 	bl	8002050 <FAC_IMU_init_accelerometer>
 8001cf6:	f000 f9b9 	bl	800206c <FAC_IMU_init_gyroscope>
 8001cfa:	f000 f985 	bl	8002008 <FAC_IMU_GET_status>
 8001cfe:	2801      	cmp	r0, #1
 8001d00:	d118      	bne.n	8001d34 <FAC_app_init+0x78>
 8001d02:	2680      	movs	r6, #128	@ 0x80
 8001d04:	3514      	adds	r5, #20
 8001d06:	01f6      	lsls	r6, r6, #7
 8001d08:	0031      	movs	r1, r6
 8001d0a:	480d      	ldr	r0, [pc, #52]	@ (8001d40 <FAC_app_init+0x84>)
 8001d0c:	f002 fbde 	bl	80044cc <HAL_GPIO_TogglePin>
 8001d10:	0020      	movs	r0, r4
 8001d12:	f002 ffb3 	bl	8004c7c <HAL_IWDG_Refresh>
 8001d16:	3d01      	subs	r5, #1
 8001d18:	20c8      	movs	r0, #200	@ 0xc8
 8001d1a:	f001 ff63 	bl	8003be4 <HAL_Delay>
 8001d1e:	2d00      	cmp	r5, #0
 8001d20:	d1f2      	bne.n	8001d08 <FAC_app_init+0x4c>
 8001d22:	f7ff ffbb 	bl	8001c9c <FAC_app_init_all_modules>
 8001d26:	2200      	movs	r2, #0
 8001d28:	4b06      	ldr	r3, [pc, #24]	@ (8001d44 <FAC_app_init+0x88>)
 8001d2a:	705a      	strb	r2, [r3, #1]
 8001d2c:	701a      	strb	r2, [r3, #0]
 8001d2e:	f001 fe87 	bl	8003a40 <FAC_jingle_Tequila>
 8001d32:	bd70      	pop	{r4, r5, r6, pc}
 8001d34:	f000 f9a8 	bl	8002088 <FAC_IMU_compute_gyro_offset>
 8001d38:	e7f3      	b.n	8001d22 <FAC_app_init+0x66>
 8001d3a:	46c0      	nop			@ (mov r8, r8)
 8001d3c:	20001648 	.word	0x20001648
 8001d40:	48000800 	.word	0x48000800
 8001d44:	200003b9 	.word	0x200003b9

08001d48 <map_uint32>:
 8001d48:	b570      	push	{r4, r5, r6, lr}
 8001d4a:	000e      	movs	r6, r1
 8001d4c:	0014      	movs	r4, r2
 8001d4e:	001d      	movs	r5, r3
 8001d50:	4290      	cmp	r0, r2
 8001d52:	d900      	bls.n	8001d56 <map_uint32+0xe>
 8001d54:	0010      	movs	r0, r2
 8001d56:	9b04      	ldr	r3, [sp, #16]
 8001d58:	1b80      	subs	r0, r0, r6
 8001d5a:	1b5a      	subs	r2, r3, r5
 8001d5c:	2300      	movs	r3, #0
 8001d5e:	0019      	movs	r1, r3
 8001d60:	f7fe fbec 	bl	800053c <__aeabi_lmul>
 8001d64:	1ba2      	subs	r2, r4, r6
 8001d66:	2300      	movs	r3, #0
 8001d68:	f7fe fbc8 	bl	80004fc <__aeabi_uldivmod>
 8001d6c:	1828      	adds	r0, r5, r0
 8001d6e:	bd70      	pop	{r4, r5, r6, pc}

08001d70 <map_int32>:
 8001d70:	b570      	push	{r4, r5, r6, lr}
 8001d72:	000e      	movs	r6, r1
 8001d74:	0014      	movs	r4, r2
 8001d76:	001d      	movs	r5, r3
 8001d78:	4290      	cmp	r0, r2
 8001d7a:	dd00      	ble.n	8001d7e <map_int32+0xe>
 8001d7c:	0010      	movs	r0, r2
 8001d7e:	9b04      	ldr	r3, [sp, #16]
 8001d80:	1b80      	subs	r0, r0, r6
 8001d82:	1b5a      	subs	r2, r3, r5
 8001d84:	17d3      	asrs	r3, r2, #31
 8001d86:	17c1      	asrs	r1, r0, #31
 8001d88:	f7fe fbd8 	bl	800053c <__aeabi_lmul>
 8001d8c:	1ba2      	subs	r2, r4, r6
 8001d8e:	17d3      	asrs	r3, r2, #31
 8001d90:	f7fe fb90 	bl	80004b4 <__aeabi_ldivmod>
 8001d94:	1828      	adds	r0, r5, r0
 8001d96:	bd70      	pop	{r4, r5, r6, pc}

08001d98 <map_float>:
 8001d98:	b5f8      	push	{r3, r4, r5, r6, r7, lr}
 8001d9a:	1c0d      	adds	r5, r1, #0
 8001d9c:	1c11      	adds	r1, r2, #0
 8001d9e:	1c04      	adds	r4, r0, #0
 8001da0:	1c16      	adds	r6, r2, #0
 8001da2:	1c1f      	adds	r7, r3, #0
 8001da4:	f7fe fb72 	bl	800048c <__aeabi_fcmpgt>
 8001da8:	2800      	cmp	r0, #0
 8001daa:	d000      	beq.n	8001dae <map_float+0x16>
 8001dac:	1c34      	adds	r4, r6, #0
 8001dae:	1c29      	adds	r1, r5, #0
 8001db0:	1c20      	adds	r0, r4, #0
 8001db2:	f7fe fb57 	bl	8000464 <__aeabi_fcmplt>
 8001db6:	2800      	cmp	r0, #0
 8001db8:	d000      	beq.n	8001dbc <map_float+0x24>
 8001dba:	1c2c      	adds	r4, r5, #0
 8001dbc:	1c29      	adds	r1, r5, #0
 8001dbe:	1c20      	adds	r0, r4, #0
 8001dc0:	f7ff fa06 	bl	80011d0 <__aeabi_fsub>
 8001dc4:	1c39      	adds	r1, r7, #0
 8001dc6:	1c04      	adds	r4, r0, #0
 8001dc8:	9806      	ldr	r0, [sp, #24]
 8001dca:	f7ff fa01 	bl	80011d0 <__aeabi_fsub>
 8001dce:	1c01      	adds	r1, r0, #0
 8001dd0:	1c20      	adds	r0, r4, #0
 8001dd2:	f7ff f8a3 	bl	8000f1c <__aeabi_fmul>
 8001dd6:	1c29      	adds	r1, r5, #0
 8001dd8:	1c04      	adds	r4, r0, #0
 8001dda:	1c30      	adds	r0, r6, #0
 8001ddc:	f7ff f9f8 	bl	80011d0 <__aeabi_fsub>
 8001de0:	1c01      	adds	r1, r0, #0
 8001de2:	1c20      	adds	r0, r4, #0
 8001de4:	f7fe fecc 	bl	8000b80 <__aeabi_fdiv>
 8001de8:	1c39      	adds	r1, r7, #0
 8001dea:	f7fe fcd7 	bl	800079c <__aeabi_fadd>
 8001dee:	bdf8      	pop	{r3, r4, r5, r6, r7, pc}

08001df0 <FAC_battery_calculate_voltage>:
 8001df0:	b570      	push	{r4, r5, r6, lr}
 8001df2:	f7ff fe1d 	bl	8001a30 <FAC_adc_GET_resolution>
 8001df6:	f7ff fcbf 	bl	8001778 <__aeabi_ui2f>
 8001dfa:	1c06      	adds	r6, r0, #0
 8001dfc:	f7ff fe1e 	bl	8001a3c <FAC_adc_GET_Vref_in_uV>
 8001e00:	f7ff fcba 	bl	8001778 <__aeabi_ui2f>
 8001e04:	1c04      	adds	r4, r0, #0
 8001e06:	2000      	movs	r0, #0
 8001e08:	f7ff fe52 	bl	8001ab0 <FAC_adc_get_raw_channel_value>
 8001e0c:	1c31      	adds	r1, r6, #0
 8001e0e:	0005      	movs	r5, r0
 8001e10:	1c20      	adds	r0, r4, #0
 8001e12:	f7fe feb5 	bl	8000b80 <__aeabi_fdiv>
 8001e16:	1c04      	adds	r4, r0, #0
 8001e18:	0028      	movs	r0, r5
 8001e1a:	f7ff fcad 	bl	8001778 <__aeabi_ui2f>
 8001e1e:	1c01      	adds	r1, r0, #0
 8001e20:	1c20      	adds	r0, r4, #0
 8001e22:	f7ff f87b 	bl	8000f1c <__aeabi_fmul>
 8001e26:	4c0b      	ldr	r4, [pc, #44]	@ (8001e54 <FAC_battery_calculate_voltage+0x64>)
 8001e28:	1c05      	adds	r5, r0, #0
 8001e2a:	8920      	ldrh	r0, [r4, #8]
 8001e2c:	f7ff fca4 	bl	8001778 <__aeabi_ui2f>
 8001e30:	1c01      	adds	r1, r0, #0
 8001e32:	1c28      	adds	r0, r5, #0
 8001e34:	f7ff f872 	bl	8000f1c <__aeabi_fmul>
 8001e38:	4907      	ldr	r1, [pc, #28]	@ (8001e58 <FAC_battery_calculate_voltage+0x68>)
 8001e3a:	f7fe fea1 	bl	8000b80 <__aeabi_fdiv>
 8001e3e:	4907      	ldr	r1, [pc, #28]	@ (8001e5c <FAC_battery_calculate_voltage+0x6c>)
 8001e40:	f7ff f86c 	bl	8000f1c <__aeabi_fmul>
 8001e44:	4906      	ldr	r1, [pc, #24]	@ (8001e60 <FAC_battery_calculate_voltage+0x70>)
 8001e46:	f7ff f9c3 	bl	80011d0 <__aeabi_fsub>
 8001e4a:	f7fe fba5 	bl	8000598 <__aeabi_f2uiz>
 8001e4e:	8020      	strh	r0, [r4, #0]
 8001e50:	bd70      	pop	{r4, r5, r6, pc}
 8001e52:	46c0      	nop			@ (mov r8, r8)
 8001e54:	200003bc 	.word	0x200003bc
 8001e58:	49742400 	.word	0x49742400
 8001e5c:	3f833333 	.word	0x3f833333
 8001e60:	42fa0000 	.word	0x42fa0000

08001e64 <FAC_battery_GET_voltage>:
 8001e64:	b510      	push	{r4, lr}
 8001e66:	f7ff ffc3 	bl	8001df0 <FAC_battery_calculate_voltage>
 8001e6a:	4b01      	ldr	r3, [pc, #4]	@ (8001e70 <FAC_battery_GET_voltage+0xc>)
 8001e6c:	8818      	ldrh	r0, [r3, #0]
 8001e6e:	bd10      	pop	{r4, pc}
 8001e70:	200003bc 	.word	0x200003bc

08001e74 <FAC_battery_GET_cell_voltage>:
 8001e74:	b510      	push	{r4, lr}
 8001e76:	f7ff ffbb 	bl	8001df0 <FAC_battery_calculate_voltage>
 8001e7a:	4b02      	ldr	r3, [pc, #8]	@ (8001e84 <FAC_battery_GET_cell_voltage+0x10>)
 8001e7c:	8818      	ldrh	r0, [r3, #0]
 8001e7e:	8058      	strh	r0, [r3, #2]
 8001e80:	bd10      	pop	{r4, pc}
 8001e82:	46c0      	nop			@ (mov r8, r8)
 8001e84:	200003bc 	.word	0x200003bc

08001e88 <FAC_battery_GET_type>:
 8001e88:	b570      	push	{r4, r5, r6, lr}
 8001e8a:	f7ff ffb1 	bl	8001df0 <FAC_battery_calculate_voltage>
 8001e8e:	22af      	movs	r2, #175	@ 0xaf
 8001e90:	4d0d      	ldr	r5, [pc, #52]	@ (8001ec8 <FAC_battery_GET_type+0x40>)
 8001e92:	4b0e      	ldr	r3, [pc, #56]	@ (8001ecc <FAC_battery_GET_type+0x44>)
 8001e94:	882c      	ldrh	r4, [r5, #0]
 8001e96:	2000      	movs	r0, #0
 8001e98:	18e3      	adds	r3, r4, r3
 8001e9a:	b29b      	uxth	r3, r3
 8001e9c:	0092      	lsls	r2, r2, #2
 8001e9e:	4293      	cmp	r3, r2
 8001ea0:	d910      	bls.n	8001ec4 <FAC_battery_GET_type+0x3c>
 8001ea2:	0020      	movs	r0, r4
 8001ea4:	490a      	ldr	r1, [pc, #40]	@ (8001ed0 <FAC_battery_GET_type+0x48>)
 8001ea6:	f7fe f955 	bl	8000154 <__udivsi3>
 8001eaa:	4a09      	ldr	r2, [pc, #36]	@ (8001ed0 <FAC_battery_GET_type+0x48>)
 8001eac:	b283      	uxth	r3, r0
 8001eae:	435a      	muls	r2, r3
 8001eb0:	b292      	uxth	r2, r2
 8001eb2:	2005      	movs	r0, #5
 8001eb4:	4294      	cmp	r4, r2
 8001eb6:	d305      	bcc.n	8001ec4 <FAC_battery_GET_type+0x3c>
 8001eb8:	4a06      	ldr	r2, [pc, #24]	@ (8001ed4 <FAC_battery_GET_type+0x4c>)
 8001eba:	435a      	muls	r2, r3
 8001ebc:	b292      	uxth	r2, r2
 8001ebe:	4294      	cmp	r4, r2
 8001ec0:	d800      	bhi.n	8001ec4 <FAC_battery_GET_type+0x3c>
 8001ec2:	b2d8      	uxtb	r0, r3
 8001ec4:	7128      	strb	r0, [r5, #4]
 8001ec6:	bd70      	pop	{r4, r5, r6, pc}
 8001ec8:	200003bc 	.word	0x200003bc
 8001ecc:	ffffee08 	.word	0xffffee08
 8001ed0:	00000d16 	.word	0x00000d16
 8001ed4:	0000109a 	.word	0x0000109a

08001ed8 <FAC_battery_init>:
 8001ed8:	2200      	movs	r2, #0
 8001eda:	4b04      	ldr	r3, [pc, #16]	@ (8001eec <FAC_battery_init+0x14>)
 8001edc:	801a      	strh	r2, [r3, #0]
 8001ede:	805a      	strh	r2, [r3, #2]
 8001ee0:	809a      	strh	r2, [r3, #4]
 8001ee2:	719a      	strb	r2, [r3, #6]
 8001ee4:	4a02      	ldr	r2, [pc, #8]	@ (8001ef0 <FAC_battery_init+0x18>)
 8001ee6:	811a      	strh	r2, [r3, #8]
 8001ee8:	4770      	bx	lr
 8001eea:	46c0      	nop			@ (mov r8, r8)
 8001eec:	200003bc 	.word	0x200003bc
 8001ef0:	00001e0c 	.word	0x00001e0c

08001ef4 <FAC_eeprom_write_byte>:
 8001ef4:	0002      	movs	r2, r0
 8001ef6:	23fa      	movs	r3, #250	@ 0xfa
 8001ef8:	2017      	movs	r0, #23
 8001efa:	b510      	push	{r4, lr}
 8001efc:	b086      	sub	sp, #24
 8001efe:	4468      	add	r0, sp
 8001f00:	009b      	lsls	r3, r3, #2
 8001f02:	7001      	strb	r1, [r0, #0]
 8001f04:	9302      	str	r3, [sp, #8]
 8001f06:	2301      	movs	r3, #1
 8001f08:	4c05      	ldr	r4, [pc, #20]	@ (8001f20 <FAC_eeprom_write_byte+0x2c>)
 8001f0a:	21a0      	movs	r1, #160	@ 0xa0
 8001f0c:	9301      	str	r3, [sp, #4]
 8001f0e:	9000      	str	r0, [sp, #0]
 8001f10:	0020      	movs	r0, r4
 8001f12:	f002 fc7f 	bl	8004814 <HAL_I2C_Mem_Write>
 8001f16:	200a      	movs	r0, #10
 8001f18:	f001 fe64 	bl	8003be4 <HAL_Delay>
 8001f1c:	b006      	add	sp, #24
 8001f1e:	bd10      	pop	{r4, pc}
 8001f20:	200015f4 	.word	0x200015f4

08001f24 <FAC_eeprom_WRITE_frist_boot_value_in_eeprom>:
 8001f24:	b510      	push	{r4, lr}
 8001f26:	4b03      	ldr	r3, [pc, #12]	@ (8001f34 <FAC_eeprom_WRITE_frist_boot_value_in_eeprom+0x10>)
 8001f28:	20ff      	movs	r0, #255	@ 0xff
 8001f2a:	7819      	ldrb	r1, [r3, #0]
 8001f2c:	f7ff ffe2 	bl	8001ef4 <FAC_eeprom_write_byte>
 8001f30:	bd10      	pop	{r4, pc}
 8001f32:	46c0      	nop			@ (mov r8, r8)
 8001f34:	200003c6 	.word	0x200003c6

08001f38 <FAC_eeprom_read_value>:
 8001f38:	b5f0      	push	{r4, r5, r6, r7, lr}
 8001f3a:	0040      	lsls	r0, r0, #1
 8001f3c:	b089      	sub	sp, #36	@ 0x24
 8001f3e:	b2c3      	uxtb	r3, r0
 8001f40:	9305      	str	r3, [sp, #20]
 8001f42:	23fa      	movs	r3, #250	@ 0xfa
 8001f44:	2413      	movs	r4, #19
 8001f46:	2601      	movs	r6, #1
 8001f48:	009b      	lsls	r3, r3, #2
 8001f4a:	4d10      	ldr	r5, [pc, #64]	@ (8001f8c <FAC_eeprom_read_value+0x54>)
 8001f4c:	9302      	str	r3, [sp, #8]
 8001f4e:	ab02      	add	r3, sp, #8
 8001f50:	18e4      	adds	r4, r4, r3
 8001f52:	9a05      	ldr	r2, [sp, #20]
 8001f54:	0033      	movs	r3, r6
 8001f56:	21a0      	movs	r1, #160	@ 0xa0
 8001f58:	0028      	movs	r0, r5
 8001f5a:	9601      	str	r6, [sp, #4]
 8001f5c:	9400      	str	r4, [sp, #0]
 8001f5e:	f002 fd33 	bl	80049c8 <HAL_I2C_Mem_Read>
 8001f62:	7823      	ldrb	r3, [r4, #0]
 8001f64:	af07      	add	r7, sp, #28
 8001f66:	703b      	strb	r3, [r7, #0]
 8001f68:	23fa      	movs	r3, #250	@ 0xfa
 8001f6a:	9a05      	ldr	r2, [sp, #20]
 8001f6c:	009b      	lsls	r3, r3, #2
 8001f6e:	1992      	adds	r2, r2, r6
 8001f70:	9302      	str	r3, [sp, #8]
 8001f72:	21a0      	movs	r1, #160	@ 0xa0
 8001f74:	0033      	movs	r3, r6
 8001f76:	0028      	movs	r0, r5
 8001f78:	b2d2      	uxtb	r2, r2
 8001f7a:	9601      	str	r6, [sp, #4]
 8001f7c:	9400      	str	r4, [sp, #0]
 8001f7e:	f002 fd23 	bl	80049c8 <HAL_I2C_Mem_Read>
 8001f82:	7823      	ldrb	r3, [r4, #0]
 8001f84:	707b      	strb	r3, [r7, #1]
 8001f86:	8838      	ldrh	r0, [r7, #0]
 8001f88:	b009      	add	sp, #36	@ 0x24
 8001f8a:	bdf0      	pop	{r4, r5, r6, r7, pc}
 8001f8c:	200015f4 	.word	0x200015f4

08001f90 <FAC_eeprom_store_value>:
 8001f90:	b570      	push	{r4, r5, r6, lr}
 8001f92:	000d      	movs	r5, r1
 8001f94:	0004      	movs	r4, r0
 8001f96:	f7ff ffcf 	bl	8001f38 <FAC_eeprom_read_value>
 8001f9a:	42a8      	cmp	r0, r5
 8001f9c:	d00a      	beq.n	8001fb4 <FAC_eeprom_store_value+0x24>
 8001f9e:	0064      	lsls	r4, r4, #1
 8001fa0:	b2e4      	uxtb	r4, r4
 8001fa2:	0020      	movs	r0, r4
 8001fa4:	b2e9      	uxtb	r1, r5
 8001fa6:	3401      	adds	r4, #1
 8001fa8:	f7ff ffa4 	bl	8001ef4 <FAC_eeprom_write_byte>
 8001fac:	0a29      	lsrs	r1, r5, #8
 8001fae:	b2e0      	uxtb	r0, r4
 8001fb0:	f7ff ffa0 	bl	8001ef4 <FAC_eeprom_write_byte>
 8001fb4:	bd70      	pop	{r4, r5, r6, pc}
	...

08001fb8 <FAC_eeprom_is_first_time>:
 8001fb8:	23fa      	movs	r3, #250	@ 0xfa
 8001fba:	b510      	push	{r4, lr}
 8001fbc:	009b      	lsls	r3, r3, #2
 8001fbe:	b086      	sub	sp, #24
 8001fc0:	2417      	movs	r4, #23
 8001fc2:	9302      	str	r3, [sp, #8]
 8001fc4:	2301      	movs	r3, #1
 8001fc6:	446c      	add	r4, sp
 8001fc8:	9301      	str	r3, [sp, #4]
 8001fca:	22ff      	movs	r2, #255	@ 0xff
 8001fcc:	21a0      	movs	r1, #160	@ 0xa0
 8001fce:	9400      	str	r4, [sp, #0]
 8001fd0:	4805      	ldr	r0, [pc, #20]	@ (8001fe8 <FAC_eeprom_is_first_time+0x30>)
 8001fd2:	f002 fcf9 	bl	80049c8 <HAL_I2C_Mem_Read>
 8001fd6:	4a05      	ldr	r2, [pc, #20]	@ (8001fec <FAC_eeprom_is_first_time+0x34>)
 8001fd8:	7823      	ldrb	r3, [r4, #0]
 8001fda:	7810      	ldrb	r0, [r2, #0]
 8001fdc:	1ac0      	subs	r0, r0, r3
 8001fde:	1e43      	subs	r3, r0, #1
 8001fe0:	4198      	sbcs	r0, r3
 8001fe2:	b2c0      	uxtb	r0, r0
 8001fe4:	b006      	add	sp, #24
 8001fe6:	bd10      	pop	{r4, pc}
 8001fe8:	200015f4 	.word	0x200015f4
 8001fec:	200003c6 	.word	0x200003c6

08001ff0 <FAC_eeprom_init>:
 8001ff0:	4a03      	ldr	r2, [pc, #12]	@ (8002000 <FAC_eeprom_init+0x10>)
 8001ff2:	1c03      	adds	r3, r0, #0
 8001ff4:	28fe      	cmp	r0, #254	@ 0xfe
 8001ff6:	d901      	bls.n	8001ffc <FAC_eeprom_init+0xc>
 8001ff8:	4b02      	ldr	r3, [pc, #8]	@ (8002004 <FAC_eeprom_init+0x14>)
 8001ffa:	781b      	ldrb	r3, [r3, #0]
 8001ffc:	7013      	strb	r3, [r2, #0]
 8001ffe:	4770      	bx	lr
 8002000:	200003c6 	.word	0x200003c6
 8002004:	08008660 	.word	0x08008660

08002008 <FAC_IMU_GET_status>:
 8002008:	4b01      	ldr	r3, [pc, #4]	@ (8002010 <FAC_IMU_GET_status+0x8>)
 800200a:	7f18      	ldrb	r0, [r3, #28]
 800200c:	4770      	bx	lr
 800200e:	46c0      	nop			@ (mov r8, r8)
 8002010:	200003c8 	.word	0x200003c8

08002014 <FAC_IMU_GET_accel_X>:
 8002014:	b510      	push	{r4, lr}
 8002016:	4c03      	ldr	r4, [pc, #12]	@ (8002024 <FAC_IMU_GET_accel_X+0x10>)
 8002018:	2100      	movs	r1, #0
 800201a:	0020      	movs	r0, r4
 800201c:	f001 f810 	bl	8003040 <LSM6DS3_update_accelerometer_single_value>
 8002020:	6860      	ldr	r0, [r4, #4]
 8002022:	bd10      	pop	{r4, pc}
 8002024:	200003c8 	.word	0x200003c8

08002028 <FAC_IMU_GET_accel_Y>:
 8002028:	b510      	push	{r4, lr}
 800202a:	4c03      	ldr	r4, [pc, #12]	@ (8002038 <FAC_IMU_GET_accel_Y+0x10>)
 800202c:	2101      	movs	r1, #1
 800202e:	0020      	movs	r0, r4
 8002030:	f001 f806 	bl	8003040 <LSM6DS3_update_accelerometer_single_value>
 8002034:	68a0      	ldr	r0, [r4, #8]
 8002036:	bd10      	pop	{r4, pc}
 8002038:	200003c8 	.word	0x200003c8

0800203c <FAC_IMU_GET_accel_Z>:
 800203c:	b510      	push	{r4, lr}
 800203e:	4c03      	ldr	r4, [pc, #12]	@ (800204c <FAC_IMU_GET_accel_Z+0x10>)
 8002040:	2102      	movs	r1, #2
 8002042:	0020      	movs	r0, r4
 8002044:	f000 fffc 	bl	8003040 <LSM6DS3_update_accelerometer_single_value>
 8002048:	68e0      	ldr	r0, [r4, #12]
 800204a:	bd10      	pop	{r4, pc}
 800204c:	200003c8 	.word	0x200003c8

08002050 <FAC_IMU_init_accelerometer>:
 8002050:	b510      	push	{r4, lr}
 8002052:	4805      	ldr	r0, [pc, #20]	@ (8002068 <FAC_IMU_init_accelerometer+0x18>)
 8002054:	7f03      	ldrb	r3, [r0, #28]
 8002056:	2b01      	cmp	r3, #1
 8002058:	d004      	beq.n	8002064 <FAC_IMU_init_accelerometer+0x14>
 800205a:	f000 ffdb 	bl	8003014 <LSM6DS3_init_accel>
 800205e:	2064      	movs	r0, #100	@ 0x64
 8002060:	f001 fdc0 	bl	8003be4 <HAL_Delay>
 8002064:	bd10      	pop	{r4, pc}
 8002066:	46c0      	nop			@ (mov r8, r8)
 8002068:	200003c8 	.word	0x200003c8

0800206c <FAC_IMU_init_gyroscope>:
 800206c:	b510      	push	{r4, lr}
 800206e:	4805      	ldr	r0, [pc, #20]	@ (8002084 <FAC_IMU_init_gyroscope+0x18>)
 8002070:	7f03      	ldrb	r3, [r0, #28]
 8002072:	2b01      	cmp	r3, #1
 8002074:	d004      	beq.n	8002080 <FAC_IMU_init_gyroscope+0x14>
 8002076:	f000 ffd8 	bl	800302a <LSM6DS3_init_gyro>
 800207a:	2064      	movs	r0, #100	@ 0x64
 800207c:	f001 fdb2 	bl	8003be4 <HAL_Delay>
 8002080:	bd10      	pop	{r4, pc}
 8002082:	46c0      	nop			@ (mov r8, r8)
 8002084:	200003c8 	.word	0x200003c8

08002088 <FAC_IMU_compute_gyro_offset>:
 8002088:	b570      	push	{r4, r5, r6, lr}
 800208a:	2580      	movs	r5, #128	@ 0x80
 800208c:	4c06      	ldr	r4, [pc, #24]	@ (80020a8 <FAC_IMU_compute_gyro_offset+0x20>)
 800208e:	01ed      	lsls	r5, r5, #7
 8002090:	0029      	movs	r1, r5
 8002092:	0020      	movs	r0, r4
 8002094:	f002 fa1a 	bl	80044cc <HAL_GPIO_TogglePin>
 8002098:	4804      	ldr	r0, [pc, #16]	@ (80020ac <FAC_IMU_compute_gyro_offset+0x24>)
 800209a:	f001 f807 	bl	80030ac <LSM6DS3_calculate_offset>
 800209e:	0029      	movs	r1, r5
 80020a0:	0020      	movs	r0, r4
 80020a2:	f002 fa13 	bl	80044cc <HAL_GPIO_TogglePin>
 80020a6:	bd70      	pop	{r4, r5, r6, pc}
 80020a8:	48000800 	.word	0x48000800
 80020ac:	200003c8 	.word	0x200003c8

080020b0 <FAC_IMU_init>:
 80020b0:	b510      	push	{r4, lr}
 80020b2:	20c8      	movs	r0, #200	@ 0xc8
 80020b4:	f001 fd96 	bl	8003be4 <HAL_Delay>
 80020b8:	4c04      	ldr	r4, [pc, #16]	@ (80020cc <FAC_IMU_init+0x1c>)
 80020ba:	4905      	ldr	r1, [pc, #20]	@ (80020d0 <FAC_IMU_init+0x20>)
 80020bc:	0020      	movs	r0, r4
 80020be:	f000 ff81 	bl	8002fc4 <LSM6DS3_init>
 80020c2:	2801      	cmp	r0, #1
 80020c4:	d100      	bne.n	80020c8 <FAC_IMU_init+0x18>
 80020c6:	7720      	strb	r0, [r4, #28]
 80020c8:	bd10      	pop	{r4, pc}
 80020ca:	46c0      	nop			@ (mov r8, r8)
 80020cc:	200003c8 	.word	0x200003c8
 80020d0:	200015f4 	.word	0x200015f4

080020d4 <FAC_mapper_apply_to_DCmotor>:
 80020d4:	000b      	movs	r3, r1
 80020d6:	3b64      	subs	r3, #100	@ 0x64
 80020d8:	b570      	push	{r4, r5, r6, lr}
 80020da:	0005      	movs	r5, r0
 80020dc:	0008      	movs	r0, r1
 80020de:	2b63      	cmp	r3, #99	@ 0x63
 80020e0:	d81c      	bhi.n	800211c <FAC_mapper_apply_to_DCmotor+0x48>
 80020e2:	2164      	movs	r1, #100	@ 0x64
 80020e4:	f7fe f8bc 	bl	8000260 <__aeabi_uidivmod>
 80020e8:	b2c8      	uxtb	r0, r1
 80020ea:	f000 fdd3 	bl	8002c94 <FAC_mixes_GET_output>
 80020ee:	2100      	movs	r1, #0
 80020f0:	1c04      	adds	r4, r0, #0
 80020f2:	f7fe f9b7 	bl	8000464 <__aeabi_fcmplt>
 80020f6:	2601      	movs	r6, #1
 80020f8:	2800      	cmp	r0, #0
 80020fa:	d003      	beq.n	8002104 <FAC_mapper_apply_to_DCmotor+0x30>
 80020fc:	2380      	movs	r3, #128	@ 0x80
 80020fe:	2600      	movs	r6, #0
 8002100:	061b      	lsls	r3, r3, #24
 8002102:	18e4      	adds	r4, r4, r3
 8002104:	490b      	ldr	r1, [pc, #44]	@ (8002134 <FAC_mapper_apply_to_DCmotor+0x60>)
 8002106:	1c20      	adds	r0, r4, #0
 8002108:	f7fe ff08 	bl	8000f1c <__aeabi_fmul>
 800210c:	f7fe fa44 	bl	8000598 <__aeabi_f2uiz>
 8002110:	0031      	movs	r1, r6
 8002112:	b282      	uxth	r2, r0
 8002114:	0028      	movs	r0, r5
 8002116:	f000 f929 	bl	800236c <FAC_motor_set_speed_direction>
 800211a:	bd70      	pop	{r4, r5, r6, pc}
 800211c:	29c7      	cmp	r1, #199	@ 0xc7
 800211e:	d906      	bls.n	800212e <FAC_mapper_apply_to_DCmotor+0x5a>
 8002120:	21c8      	movs	r1, #200	@ 0xc8
 8002122:	f7fe f89d 	bl	8000260 <__aeabi_uidivmod>
 8002126:	b2c8      	uxtb	r0, r1
 8002128:	f000 fd60 	bl	8002bec <FAC_functions_GET_output>
 800212c:	e7df      	b.n	80020ee <FAC_mapper_apply_to_DCmotor+0x1a>
 800212e:	2601      	movs	r6, #1
 8002130:	2400      	movs	r4, #0
 8002132:	e7e7      	b.n	8002104 <FAC_mapper_apply_to_DCmotor+0x30>
 8002134:	447a0000 	.word	0x447a0000

08002138 <FAC_mapper_apply_to_servo>:
 8002138:	000b      	movs	r3, r1
 800213a:	3b64      	subs	r3, #100	@ 0x64
 800213c:	b513      	push	{r0, r1, r4, lr}
 800213e:	0004      	movs	r4, r0
 8002140:	0008      	movs	r0, r1
 8002142:	2b63      	cmp	r3, #99	@ 0x63
 8002144:	d814      	bhi.n	8002170 <FAC_mapper_apply_to_servo+0x38>
 8002146:	2164      	movs	r1, #100	@ 0x64
 8002148:	f7fe f88a 	bl	8000260 <__aeabi_uidivmod>
 800214c:	b2c8      	uxtb	r0, r1
 800214e:	f000 fda1 	bl	8002c94 <FAC_mixes_GET_output>
 8002152:	22fe      	movs	r2, #254	@ 0xfe
 8002154:	4b0c      	ldr	r3, [pc, #48]	@ (8002188 <FAC_mapper_apply_to_servo+0x50>)
 8002156:	0592      	lsls	r2, r2, #22
 8002158:	490c      	ldr	r1, [pc, #48]	@ (800218c <FAC_mapper_apply_to_servo+0x54>)
 800215a:	9300      	str	r3, [sp, #0]
 800215c:	2300      	movs	r3, #0
 800215e:	f7ff fe1b 	bl	8001d98 <map_float>
 8002162:	f7fe fa19 	bl	8000598 <__aeabi_f2uiz>
 8002166:	b281      	uxth	r1, r0
 8002168:	0020      	movs	r0, r4
 800216a:	f000 fad1 	bl	8002710 <FAC_servo_set_position>
 800216e:	bd13      	pop	{r0, r1, r4, pc}
 8002170:	29c7      	cmp	r1, #199	@ 0xc7
 8002172:	d906      	bls.n	8002182 <FAC_mapper_apply_to_servo+0x4a>
 8002174:	21c8      	movs	r1, #200	@ 0xc8
 8002176:	f7fe f873 	bl	8000260 <__aeabi_uidivmod>
 800217a:	b2c8      	uxtb	r0, r1
 800217c:	f000 fd36 	bl	8002bec <FAC_functions_GET_output>
 8002180:	e7e7      	b.n	8002152 <FAC_mapper_apply_to_servo+0x1a>
 8002182:	2000      	movs	r0, #0
 8002184:	e7e5      	b.n	8002152 <FAC_mapper_apply_to_servo+0x1a>
 8002186:	46c0      	nop			@ (mov r8, r8)
 8002188:	447a0000 	.word	0x447a0000
 800218c:	bf800000 	.word	0xbf800000

08002190 <FAC_mapper_apply_to_devices>:
 8002190:	b5f0      	push	{r4, r5, r6, r7, lr}
 8002192:	2039      	movs	r0, #57	@ 0x39
 8002194:	b08d      	sub	sp, #52	@ 0x34
 8002196:	f000 fb51 	bl	800283c <FAC_settings_GET_value>
 800219a:	b2c4      	uxtb	r4, r0
 800219c:	203a      	movs	r0, #58	@ 0x3a
 800219e:	f000 fb4d 	bl	800283c <FAC_settings_GET_value>
 80021a2:	b2c3      	uxtb	r3, r0
 80021a4:	203b      	movs	r0, #59	@ 0x3b
 80021a6:	9300      	str	r3, [sp, #0]
 80021a8:	f000 fb48 	bl	800283c <FAC_settings_GET_value>
 80021ac:	b2c3      	uxtb	r3, r0
 80021ae:	203c      	movs	r0, #60	@ 0x3c
 80021b0:	9301      	str	r3, [sp, #4]
 80021b2:	f000 fb43 	bl	800283c <FAC_settings_GET_value>
 80021b6:	b2c3      	uxtb	r3, r0
 80021b8:	203d      	movs	r0, #61	@ 0x3d
 80021ba:	9302      	str	r3, [sp, #8]
 80021bc:	f000 fb3e 	bl	800283c <FAC_settings_GET_value>
 80021c0:	2500      	movs	r5, #0
 80021c2:	9a00      	ldr	r2, [sp, #0]
 80021c4:	ab05      	add	r3, sp, #20
 80021c6:	705a      	strb	r2, [r3, #1]
 80021c8:	9a01      	ldr	r2, [sp, #4]
 80021ca:	b2c7      	uxtb	r7, r0
 80021cc:	709a      	strb	r2, [r3, #2]
 80021ce:	9a02      	ldr	r2, [sp, #8]
 80021d0:	2100      	movs	r1, #0
 80021d2:	70da      	strb	r2, [r3, #3]
 80021d4:	a807      	add	r0, sp, #28
 80021d6:	2214      	movs	r2, #20
 80021d8:	701c      	strb	r4, [r3, #0]
 80021da:	711f      	strb	r7, [r3, #4]
 80021dc:	f006 f9bf 	bl	800855e <memset>
 80021e0:	9503      	str	r5, [sp, #12]
 80021e2:	ab05      	add	r3, sp, #20
 80021e4:	5ce8      	ldrb	r0, [r5, r3]
 80021e6:	0003      	movs	r3, r0
 80021e8:	3b64      	subs	r3, #100	@ 0x64
 80021ea:	2b63      	cmp	r3, #99	@ 0x63
 80021ec:	d807      	bhi.n	80021fe <FAC_mapper_apply_to_devices+0x6e>
 80021ee:	9b03      	ldr	r3, [sp, #12]
 80021f0:	2b00      	cmp	r3, #0
 80021f2:	d101      	bne.n	80021f8 <FAC_mapper_apply_to_devices+0x68>
 80021f4:	f000 fd96 	bl	8002d24 <FAC_mix_update>
 80021f8:	2301      	movs	r3, #1
 80021fa:	9303      	str	r3, [sp, #12]
 80021fc:	e013      	b.n	8002226 <FAC_mapper_apply_to_devices+0x96>
 80021fe:	28c7      	cmp	r0, #199	@ 0xc7
 8002200:	d911      	bls.n	8002226 <FAC_mapper_apply_to_devices+0x96>
 8002202:	21c8      	movs	r1, #200	@ 0xc8
 8002204:	f7fe f82c 	bl	8000260 <__aeabi_uidivmod>
 8002208:	220c      	movs	r2, #12
 800220a:	ab04      	add	r3, sp, #16
 800220c:	b2ce      	uxtb	r6, r1
 800220e:	189b      	adds	r3, r3, r2
 8002210:	5d9b      	ldrb	r3, [r3, r6]
 8002212:	2b00      	cmp	r3, #0
 8002214:	d102      	bne.n	800221c <FAC_mapper_apply_to_devices+0x8c>
 8002216:	0030      	movs	r0, r6
 8002218:	f000 fd22 	bl	8002c60 <FAC_functions_update>
 800221c:	220c      	movs	r2, #12
 800221e:	ab04      	add	r3, sp, #16
 8002220:	189b      	adds	r3, r3, r2
 8002222:	3a0b      	subs	r2, #11
 8002224:	559a      	strb	r2, [r3, r6]
 8002226:	3501      	adds	r5, #1
 8002228:	2d05      	cmp	r5, #5
 800222a:	d1da      	bne.n	80021e2 <FAC_mapper_apply_to_devices+0x52>
 800222c:	2c00      	cmp	r4, #0
 800222e:	d003      	beq.n	8002238 <FAC_mapper_apply_to_devices+0xa8>
 8002230:	0021      	movs	r1, r4
 8002232:	2001      	movs	r0, #1
 8002234:	f7ff ff4e 	bl	80020d4 <FAC_mapper_apply_to_DCmotor>
 8002238:	9b00      	ldr	r3, [sp, #0]
 800223a:	2b00      	cmp	r3, #0
 800223c:	d003      	beq.n	8002246 <FAC_mapper_apply_to_devices+0xb6>
 800223e:	0019      	movs	r1, r3
 8002240:	2002      	movs	r0, #2
 8002242:	f7ff ff47 	bl	80020d4 <FAC_mapper_apply_to_DCmotor>
 8002246:	9b01      	ldr	r3, [sp, #4]
 8002248:	2b00      	cmp	r3, #0
 800224a:	d003      	beq.n	8002254 <FAC_mapper_apply_to_devices+0xc4>
 800224c:	0019      	movs	r1, r3
 800224e:	2003      	movs	r0, #3
 8002250:	f7ff ff40 	bl	80020d4 <FAC_mapper_apply_to_DCmotor>
 8002254:	9b02      	ldr	r3, [sp, #8]
 8002256:	2001      	movs	r0, #1
 8002258:	2b00      	cmp	r3, #0
 800225a:	d010      	beq.n	800227e <FAC_mapper_apply_to_devices+0xee>
 800225c:	f000 fa7a 	bl	8002754 <FAC_servo_enable>
 8002260:	2001      	movs	r0, #1
 8002262:	9902      	ldr	r1, [sp, #8]
 8002264:	f7ff ff68 	bl	8002138 <FAC_mapper_apply_to_servo>
 8002268:	2002      	movs	r0, #2
 800226a:	2f00      	cmp	r7, #0
 800226c:	d00a      	beq.n	8002284 <FAC_mapper_apply_to_devices+0xf4>
 800226e:	f000 fa71 	bl	8002754 <FAC_servo_enable>
 8002272:	0039      	movs	r1, r7
 8002274:	2002      	movs	r0, #2
 8002276:	f7ff ff5f 	bl	8002138 <FAC_mapper_apply_to_servo>
 800227a:	b00d      	add	sp, #52	@ 0x34
 800227c:	bdf0      	pop	{r4, r5, r6, r7, pc}
 800227e:	f000 fa75 	bl	800276c <FAC_servo_disable>
 8002282:	e7f1      	b.n	8002268 <FAC_mapper_apply_to_devices+0xd8>
 8002284:	f000 fa72 	bl	800276c <FAC_servo_disable>
 8002288:	e7f7      	b.n	800227a <FAC_mapper_apply_to_devices+0xea>
	...

0800228c <FAC_motor_SET_direction>:
 800228c:	4b05      	ldr	r3, [pc, #20]	@ (80022a4 <FAC_motor_SET_direction+0x18>)
 800228e:	3801      	subs	r0, #1
 8002290:	0080      	lsls	r0, r0, #2
 8002292:	58c3      	ldr	r3, [r0, r3]
 8002294:	795a      	ldrb	r2, [r3, #5]
 8002296:	2a00      	cmp	r2, #0
 8002298:	d002      	beq.n	80022a0 <FAC_motor_SET_direction+0x14>
 800229a:	424a      	negs	r2, r1
 800229c:	4151      	adcs	r1, r2
 800229e:	b2c9      	uxtb	r1, r1
 80022a0:	7019      	strb	r1, [r3, #0]
 80022a2:	4770      	bx	lr
 80022a4:	200003e8 	.word	0x200003e8

080022a8 <FAC_set_pwm_duty>:
 80022a8:	2390      	movs	r3, #144	@ 0x90
 80022aa:	b510      	push	{r4, lr}
 80022ac:	000a      	movs	r2, r1
 80022ae:	0001      	movs	r1, r0
 80022b0:	05d8      	lsls	r0, r3, #23
 80022b2:	f000 fe45 	bl	8002f40 <setDMApwmDuty>
 80022b6:	bd10      	pop	{r4, pc}

080022b8 <FAC_motor_GET_direction>:
 80022b8:	4b02      	ldr	r3, [pc, #8]	@ (80022c4 <FAC_motor_GET_direction+0xc>)
 80022ba:	3801      	subs	r0, #1
 80022bc:	0080      	lsls	r0, r0, #2
 80022be:	58c3      	ldr	r3, [r0, r3]
 80022c0:	7818      	ldrb	r0, [r3, #0]
 80022c2:	4770      	bx	lr
 80022c4:	200003e8 	.word	0x200003e8

080022c8 <FAC_motor_GET_speed>:
 80022c8:	4b02      	ldr	r3, [pc, #8]	@ (80022d4 <FAC_motor_GET_speed+0xc>)
 80022ca:	3801      	subs	r0, #1
 80022cc:	0080      	lsls	r0, r0, #2
 80022ce:	58c3      	ldr	r3, [r0, r3]
 80022d0:	8858      	ldrh	r0, [r3, #2]
 80022d2:	4770      	bx	lr
 80022d4:	200003e8 	.word	0x200003e8

080022d8 <FAC_motor_GET_brake_en>:
 80022d8:	4b02      	ldr	r3, [pc, #8]	@ (80022e4 <FAC_motor_GET_brake_en+0xc>)
 80022da:	3801      	subs	r0, #1
 80022dc:	0080      	lsls	r0, r0, #2
 80022de:	58c3      	ldr	r3, [r0, r3]
 80022e0:	7918      	ldrb	r0, [r3, #4]
 80022e2:	4770      	bx	lr
 80022e4:	200003e8 	.word	0x200003e8

080022e8 <FAC_motor_apply_settings>:
 80022e8:	b570      	push	{r4, r5, r6, lr}
 80022ea:	0004      	movs	r4, r0
 80022ec:	f7ff fff4 	bl	80022d8 <FAC_motor_GET_brake_en>
 80022f0:	0006      	movs	r6, r0
 80022f2:	0020      	movs	r0, r4
 80022f4:	f7ff ffe0 	bl	80022b8 <FAC_motor_GET_direction>
 80022f8:	0005      	movs	r5, r0
 80022fa:	0020      	movs	r0, r4
 80022fc:	f7ff ffe4 	bl	80022c8 <FAC_motor_GET_speed>
 8002300:	3c01      	subs	r4, #1
 8002302:	0001      	movs	r1, r0
 8002304:	b2e4      	uxtb	r4, r4
 8002306:	2e00      	cmp	r6, #0
 8002308:	d01e      	beq.n	8002348 <FAC_motor_apply_settings+0x60>
 800230a:	2d01      	cmp	r5, #1
 800230c:	d10e      	bne.n	800232c <FAC_motor_apply_settings+0x44>
 800230e:	4d15      	ldr	r5, [pc, #84]	@ (8002364 <FAC_motor_apply_settings+0x7c>)
 8002310:	00a4      	lsls	r4, r4, #2
 8002312:	4e15      	ldr	r6, [pc, #84]	@ (8002368 <FAC_motor_apply_settings+0x80>)
 8002314:	5963      	ldr	r3, [r4, r5]
 8002316:	1a31      	subs	r1, r6, r0
 8002318:	b289      	uxth	r1, r1
 800231a:	8918      	ldrh	r0, [r3, #8]
 800231c:	f7ff ffc4 	bl	80022a8 <FAC_set_pwm_duty>
 8002320:	5963      	ldr	r3, [r4, r5]
 8002322:	88d8      	ldrh	r0, [r3, #6]
 8002324:	0031      	movs	r1, r6
 8002326:	f7ff ffbf 	bl	80022a8 <FAC_set_pwm_duty>
 800232a:	bd70      	pop	{r4, r5, r6, pc}
 800232c:	2d00      	cmp	r5, #0
 800232e:	d1fc      	bne.n	800232a <FAC_motor_apply_settings+0x42>
 8002330:	4e0d      	ldr	r6, [pc, #52]	@ (8002368 <FAC_motor_apply_settings+0x80>)
 8002332:	1a31      	subs	r1, r6, r0
 8002334:	b289      	uxth	r1, r1
 8002336:	4d0b      	ldr	r5, [pc, #44]	@ (8002364 <FAC_motor_apply_settings+0x7c>)
 8002338:	00a4      	lsls	r4, r4, #2
 800233a:	5963      	ldr	r3, [r4, r5]
 800233c:	88d8      	ldrh	r0, [r3, #6]
 800233e:	f7ff ffb3 	bl	80022a8 <FAC_set_pwm_duty>
 8002342:	5963      	ldr	r3, [r4, r5]
 8002344:	8918      	ldrh	r0, [r3, #8]
 8002346:	e7ed      	b.n	8002324 <FAC_motor_apply_settings+0x3c>
 8002348:	2d01      	cmp	r5, #1
 800234a:	d0f4      	beq.n	8002336 <FAC_motor_apply_settings+0x4e>
 800234c:	2d00      	cmp	r5, #0
 800234e:	d1ec      	bne.n	800232a <FAC_motor_apply_settings+0x42>
 8002350:	4e04      	ldr	r6, [pc, #16]	@ (8002364 <FAC_motor_apply_settings+0x7c>)
 8002352:	00a4      	lsls	r4, r4, #2
 8002354:	59a3      	ldr	r3, [r4, r6]
 8002356:	8918      	ldrh	r0, [r3, #8]
 8002358:	f7ff ffa6 	bl	80022a8 <FAC_set_pwm_duty>
 800235c:	59a3      	ldr	r3, [r4, r6]
 800235e:	0029      	movs	r1, r5
 8002360:	88d8      	ldrh	r0, [r3, #6]
 8002362:	e7e0      	b.n	8002326 <FAC_motor_apply_settings+0x3e>
 8002364:	200003e8 	.word	0x200003e8
 8002368:	000003e7 	.word	0x000003e7

0800236c <FAC_motor_set_speed_direction>:
 800236c:	b570      	push	{r4, r5, r6, lr}
 800236e:	0004      	movs	r4, r0
 8002370:	0015      	movs	r5, r2
 8002372:	f7ff ff8b 	bl	800228c <FAC_motor_SET_direction>
 8002376:	21fa      	movs	r1, #250	@ 0xfa
 8002378:	4a07      	ldr	r2, [pc, #28]	@ (8002398 <FAC_motor_set_speed_direction+0x2c>)
 800237a:	1e63      	subs	r3, r4, #1
 800237c:	009b      	lsls	r3, r3, #2
 800237e:	58d3      	ldr	r3, [r2, r3]
 8002380:	0089      	lsls	r1, r1, #2
 8002382:	428d      	cmp	r5, r1
 8002384:	d204      	bcs.n	8002390 <FAC_motor_set_speed_direction+0x24>
 8002386:	805d      	strh	r5, [r3, #2]
 8002388:	0020      	movs	r0, r4
 800238a:	f7ff ffad 	bl	80022e8 <FAC_motor_apply_settings>
 800238e:	bd70      	pop	{r4, r5, r6, pc}
 8002390:	4a02      	ldr	r2, [pc, #8]	@ (800239c <FAC_motor_set_speed_direction+0x30>)
 8002392:	805a      	strh	r2, [r3, #2]
 8002394:	e7f8      	b.n	8002388 <FAC_motor_set_speed_direction+0x1c>
 8002396:	46c0      	nop			@ (mov r8, r8)
 8002398:	200003e8 	.word	0x200003e8
 800239c:	000003e7 	.word	0x000003e7

080023a0 <FAC_motor_make_noise>:
 80023a0:	b5f7      	push	{r0, r1, r2, r4, r5, r6, r7, lr}
 80023a2:	26c8      	movs	r6, #200	@ 0xc8
 80023a4:	000d      	movs	r5, r1
 80023a6:	f000 fd81 	bl	8002eac <FAC_DMA_pwm_change_freq>
 80023aa:	4c27      	ldr	r4, [pc, #156]	@ (8002448 <FAC_motor_make_noise+0xa8>)
 80023ac:	2001      	movs	r0, #1
 80023ae:	6823      	ldr	r3, [r4, #0]
 80023b0:	805e      	strh	r6, [r3, #2]
 80023b2:	f7ff ff99 	bl	80022e8 <FAC_motor_apply_settings>
 80023b6:	6863      	ldr	r3, [r4, #4]
 80023b8:	2002      	movs	r0, #2
 80023ba:	805e      	strh	r6, [r3, #2]
 80023bc:	f7ff ff94 	bl	80022e8 <FAC_motor_apply_settings>
 80023c0:	68a3      	ldr	r3, [r4, #8]
 80023c2:	2003      	movs	r0, #3
 80023c4:	805e      	strh	r6, [r3, #2]
 80023c6:	f7ff ff8f 	bl	80022e8 <FAC_motor_apply_settings>
 80023ca:	f001 fc05 	bl	8003bd8 <HAL_GetTick>
 80023ce:	2600      	movs	r6, #0
 80023d0:	9001      	str	r0, [sp, #4]
 80023d2:	42b5      	cmp	r5, r6
 80023d4:	dc1b      	bgt.n	800240e <FAC_motor_make_noise+0x6e>
 80023d6:	f001 fbff 	bl	8003bd8 <HAL_GetTick>
 80023da:	9b01      	ldr	r3, [sp, #4]
 80023dc:	1ac0      	subs	r0, r0, r3
 80023de:	42a8      	cmp	r0, r5
 80023e0:	d91d      	bls.n	800241e <FAC_motor_make_noise+0x7e>
 80023e2:	2500      	movs	r5, #0
 80023e4:	2006      	movs	r0, #6
 80023e6:	f000 fa29 	bl	800283c <FAC_settings_GET_value>
 80023ea:	f000 fd5f 	bl	8002eac <FAC_DMA_pwm_change_freq>
 80023ee:	6823      	ldr	r3, [r4, #0]
 80023f0:	2001      	movs	r0, #1
 80023f2:	805d      	strh	r5, [r3, #2]
 80023f4:	f7ff ff78 	bl	80022e8 <FAC_motor_apply_settings>
 80023f8:	6863      	ldr	r3, [r4, #4]
 80023fa:	2002      	movs	r0, #2
 80023fc:	805d      	strh	r5, [r3, #2]
 80023fe:	f7ff ff73 	bl	80022e8 <FAC_motor_apply_settings>
 8002402:	68a3      	ldr	r3, [r4, #8]
 8002404:	2003      	movs	r0, #3
 8002406:	805d      	strh	r5, [r3, #2]
 8002408:	f7ff ff6e 	bl	80022e8 <FAC_motor_apply_settings>
 800240c:	bdf7      	pop	{r0, r1, r2, r4, r5, r6, r7, pc}
 800240e:	480f      	ldr	r0, [pc, #60]	@ (800244c <FAC_motor_make_noise+0xac>)
 8002410:	f002 fc34 	bl	8004c7c <HAL_IWDG_Refresh>
 8002414:	2000      	movs	r0, #0
 8002416:	f001 fbe5 	bl	8003be4 <HAL_Delay>
 800241a:	3601      	adds	r6, #1
 800241c:	e7d9      	b.n	80023d2 <FAC_motor_make_noise+0x32>
 800241e:	2601      	movs	r6, #1
 8002420:	b2f7      	uxtb	r7, r6
 8002422:	2101      	movs	r1, #1
 8002424:	0038      	movs	r0, r7
 8002426:	f7ff ff31 	bl	800228c <FAC_motor_SET_direction>
 800242a:	0038      	movs	r0, r7
 800242c:	f7ff ff5c 	bl	80022e8 <FAC_motor_apply_settings>
 8002430:	2100      	movs	r1, #0
 8002432:	0038      	movs	r0, r7
 8002434:	f7ff ff2a 	bl	800228c <FAC_motor_SET_direction>
 8002438:	3601      	adds	r6, #1
 800243a:	0038      	movs	r0, r7
 800243c:	f7ff ff54 	bl	80022e8 <FAC_motor_apply_settings>
 8002440:	2e04      	cmp	r6, #4
 8002442:	d1ed      	bne.n	8002420 <FAC_motor_make_noise+0x80>
 8002444:	e7c7      	b.n	80023d6 <FAC_motor_make_noise+0x36>
 8002446:	46c0      	nop			@ (mov r8, r8)
 8002448:	200003e8 	.word	0x200003e8
 800244c:	20001648 	.word	0x20001648

08002450 <FAC_motor_init>:
 8002450:	b5f8      	push	{r3, r4, r5, r6, r7, lr}
 8002452:	2404      	movs	r4, #4
 8002454:	2006      	movs	r0, #6
 8002456:	f000 f9f1 	bl	800283c <FAC_settings_GET_value>
 800245a:	f000 fd3f 	bl	8002edc <initDMApwm>
 800245e:	4815      	ldr	r0, [pc, #84]	@ (80024b4 <FAC_motor_init+0x64>)
 8002460:	4b15      	ldr	r3, [pc, #84]	@ (80024b8 <FAC_motor_init+0x68>)
 8002462:	80c4      	strh	r4, [r0, #6]
 8002464:	1924      	adds	r4, r4, r4
 8002466:	8104      	strh	r4, [r0, #8]
 8002468:	6018      	str	r0, [r3, #0]
 800246a:	2010      	movs	r0, #16
 800246c:	4913      	ldr	r1, [pc, #76]	@ (80024bc <FAC_motor_init+0x6c>)
 800246e:	001c      	movs	r4, r3
 8002470:	80c8      	strh	r0, [r1, #6]
 8002472:	1800      	adds	r0, r0, r0
 8002474:	6059      	str	r1, [r3, #4]
 8002476:	8108      	strh	r0, [r1, #8]
 8002478:	2140      	movs	r1, #64	@ 0x40
 800247a:	2501      	movs	r5, #1
 800247c:	4a10      	ldr	r2, [pc, #64]	@ (80024c0 <FAC_motor_init+0x70>)
 800247e:	80d1      	strh	r1, [r2, #6]
 8002480:	1849      	adds	r1, r1, r1
 8002482:	609a      	str	r2, [r3, #8]
 8002484:	8111      	strh	r1, [r2, #8]
 8002486:	b2ee      	uxtb	r6, r5
 8002488:	1e70      	subs	r0, r6, #1
 800248a:	b2c0      	uxtb	r0, r0
 800248c:	f000 f9d6 	bl	800283c <FAC_settings_GET_value>
 8002490:	6823      	ldr	r3, [r4, #0]
 8002492:	3501      	adds	r5, #1
 8002494:	7158      	strb	r0, [r3, #5]
 8002496:	1cb0      	adds	r0, r6, #2
 8002498:	b2c0      	uxtb	r0, r0
 800249a:	f000 f9cf 	bl	800283c <FAC_settings_GET_value>
 800249e:	cc80      	ldmia	r4!, {r7}
 80024a0:	2101      	movs	r1, #1
 80024a2:	7138      	strb	r0, [r7, #4]
 80024a4:	0030      	movs	r0, r6
 80024a6:	f7ff fef1 	bl	800228c <FAC_motor_SET_direction>
 80024aa:	2300      	movs	r3, #0
 80024ac:	807b      	strh	r3, [r7, #2]
 80024ae:	2d04      	cmp	r5, #4
 80024b0:	d1e9      	bne.n	8002486 <FAC_motor_init+0x36>
 80024b2:	bdf8      	pop	{r3, r4, r5, r6, r7, pc}
 80024b4:	20000408 	.word	0x20000408
 80024b8:	200003e8 	.word	0x200003e8
 80024bc:	200003fe 	.word	0x200003fe
 80024c0:	200003f4 	.word	0x200003f4

080024c4 <FAC_ppm_receiver_Callback>:
 80024c4:	4b0d      	ldr	r3, [pc, #52]	@ (80024fc <FAC_ppm_receiver_Callback+0x38>)
 80024c6:	b530      	push	{r4, r5, lr}
 80024c8:	681b      	ldr	r3, [r3, #0]
 80024ca:	6a5c      	ldr	r4, [r3, #36]	@ 0x24
 80024cc:	2801      	cmp	r0, #1
 80024ce:	d113      	bne.n	80024f8 <FAC_ppm_receiver_Callback+0x34>
 80024d0:	25fa      	movs	r5, #250	@ 0xfa
 80024d2:	480b      	ldr	r0, [pc, #44]	@ (8002500 <FAC_ppm_receiver_Callback+0x3c>)
 80024d4:	2300      	movs	r3, #0
 80024d6:	6801      	ldr	r1, [r0, #0]
 80024d8:	7d82      	ldrb	r2, [r0, #22]
 80024da:	1a61      	subs	r1, r4, r1
 80024dc:	b289      	uxth	r1, r1
 80024de:	016d      	lsls	r5, r5, #5
 80024e0:	42a9      	cmp	r1, r5
 80024e2:	d804      	bhi.n	80024ee <FAC_ppm_receiver_Callback+0x2a>
 80024e4:	1c53      	adds	r3, r2, #1
 80024e6:	b2db      	uxtb	r3, r3
 80024e8:	2b09      	cmp	r3, #9
 80024ea:	d100      	bne.n	80024ee <FAC_ppm_receiver_Callback+0x2a>
 80024ec:	2300      	movs	r3, #0
 80024ee:	0052      	lsls	r2, r2, #1
 80024f0:	1882      	adds	r2, r0, r2
 80024f2:	8091      	strh	r1, [r2, #4]
 80024f4:	7583      	strb	r3, [r0, #22]
 80024f6:	6004      	str	r4, [r0, #0]
 80024f8:	bd30      	pop	{r4, r5, pc}
 80024fa:	46c0      	nop			@ (mov r8, r8)
 80024fc:	20001748 	.word	0x20001748
 8002500:	20000414 	.word	0x20000414

08002504 <FAC_ppm_receiver_calculate_channels_values>:
 8002504:	b5f7      	push	{r0, r1, r2, r4, r5, r6, r7, lr}
 8002506:	26fa      	movs	r6, #250	@ 0xfa
 8002508:	2401      	movs	r4, #1
 800250a:	00f6      	lsls	r6, r6, #3
 800250c:	4d0e      	ldr	r5, [pc, #56]	@ (8002548 <FAC_ppm_receiver_calculate_channels_values+0x44>)
 800250e:	1c37      	adds	r7, r6, #0
 8002510:	88ab      	ldrh	r3, [r5, #4]
 8002512:	4a0e      	ldr	r2, [pc, #56]	@ (800254c <FAC_ppm_receiver_calculate_channels_values+0x48>)
 8002514:	4293      	cmp	r3, r2
 8002516:	d811      	bhi.n	800253c <FAC_ppm_receiver_calculate_channels_values+0x38>
 8002518:	1c18      	adds	r0, r3, #0
 800251a:	42b3      	cmp	r3, r6
 800251c:	d200      	bcs.n	8002520 <FAC_ppm_receiver_calculate_channels_values+0x1c>
 800251e:	1c38      	adds	r0, r7, #0
 8002520:	4b0b      	ldr	r3, [pc, #44]	@ (8002550 <FAC_ppm_receiver_calculate_channels_values+0x4c>)
 8002522:	b280      	uxth	r0, r0
 8002524:	18c0      	adds	r0, r0, r3
 8002526:	4b0b      	ldr	r3, [pc, #44]	@ (8002554 <FAC_ppm_receiver_calculate_channels_values+0x50>)
 8002528:	0032      	movs	r2, r6
 800252a:	9300      	str	r3, [sp, #0]
 800252c:	2300      	movs	r3, #0
 800252e:	0019      	movs	r1, r3
 8002530:	f7ff fc0a 	bl	8001d48 <map_uint32>
 8002534:	b281      	uxth	r1, r0
 8002536:	b2e0      	uxtb	r0, r4
 8002538:	f000 faaa 	bl	8002a90 <FAC_std_receiver_new_channel_value>
 800253c:	3401      	adds	r4, #1
 800253e:	3502      	adds	r5, #2
 8002540:	2c09      	cmp	r4, #9
 8002542:	d1e5      	bne.n	8002510 <FAC_ppm_receiver_calculate_channels_values+0xc>
 8002544:	bdf7      	pop	{r0, r1, r2, r4, r5, r6, r7, pc}
 8002546:	46c0      	nop			@ (mov r8, r8)
 8002548:	20000414 	.word	0x20000414
 800254c:	00001130 	.word	0x00001130
 8002550:	fffff830 	.word	0xfffff830
 8002554:	000003e7 	.word	0x000003e7

08002558 <FAC_ppm_receiver_init>:
 8002558:	b510      	push	{r4, lr}
 800255a:	4806      	ldr	r0, [pc, #24]	@ (8002574 <FAC_ppm_receiver_init+0x1c>)
 800255c:	f003 fef4 	bl	8006348 <HAL_TIM_Base_Start>
 8002560:	2100      	movs	r1, #0
 8002562:	4b05      	ldr	r3, [pc, #20]	@ (8002578 <FAC_ppm_receiver_init+0x20>)
 8002564:	2212      	movs	r2, #18
 8002566:	4805      	ldr	r0, [pc, #20]	@ (800257c <FAC_ppm_receiver_init+0x24>)
 8002568:	6019      	str	r1, [r3, #0]
 800256a:	7599      	strb	r1, [r3, #22]
 800256c:	f005 fff7 	bl	800855e <memset>
 8002570:	bd10      	pop	{r4, pc}
 8002572:	46c0      	nop			@ (mov r8, r8)
 8002574:	20001748 	.word	0x20001748
 8002578:	20000414 	.word	0x20000414
 800257c:	20000418 	.word	0x20000418

08002580 <FAC_pwm_receiver_Callback>:
 8002580:	4b19      	ldr	r3, [pc, #100]	@ (80025e8 <FAC_pwm_receiver_Callback+0x68>)
 8002582:	681b      	ldr	r3, [r3, #0]
 8002584:	6a5b      	ldr	r3, [r3, #36]	@ 0x24
 8002586:	2801      	cmp	r0, #1
 8002588:	d117      	bne.n	80025ba <FAC_pwm_receiver_Callback+0x3a>
 800258a:	2920      	cmp	r1, #32
 800258c:	d00c      	beq.n	80025a8 <FAC_pwm_receiver_Callback+0x28>
 800258e:	d804      	bhi.n	800259a <FAC_pwm_receiver_Callback+0x1a>
 8002590:	2908      	cmp	r1, #8
 8002592:	d00f      	beq.n	80025b4 <FAC_pwm_receiver_Callback+0x34>
 8002594:	2910      	cmp	r1, #16
 8002596:	d00a      	beq.n	80025ae <FAC_pwm_receiver_Callback+0x2e>
 8002598:	4770      	bx	lr
 800259a:	2280      	movs	r2, #128	@ 0x80
 800259c:	0212      	lsls	r2, r2, #8
 800259e:	4291      	cmp	r1, r2
 80025a0:	d1fa      	bne.n	8002598 <FAC_pwm_receiver_Callback+0x18>
 80025a2:	4a12      	ldr	r2, [pc, #72]	@ (80025ec <FAC_pwm_receiver_Callback+0x6c>)
 80025a4:	60d3      	str	r3, [r2, #12]
 80025a6:	e7f7      	b.n	8002598 <FAC_pwm_receiver_Callback+0x18>
 80025a8:	4a10      	ldr	r2, [pc, #64]	@ (80025ec <FAC_pwm_receiver_Callback+0x6c>)
 80025aa:	6013      	str	r3, [r2, #0]
 80025ac:	e7f4      	b.n	8002598 <FAC_pwm_receiver_Callback+0x18>
 80025ae:	4a0f      	ldr	r2, [pc, #60]	@ (80025ec <FAC_pwm_receiver_Callback+0x6c>)
 80025b0:	6053      	str	r3, [r2, #4]
 80025b2:	e7f1      	b.n	8002598 <FAC_pwm_receiver_Callback+0x18>
 80025b4:	4a0d      	ldr	r2, [pc, #52]	@ (80025ec <FAC_pwm_receiver_Callback+0x6c>)
 80025b6:	6093      	str	r3, [r2, #8]
 80025b8:	e7ee      	b.n	8002598 <FAC_pwm_receiver_Callback+0x18>
 80025ba:	2920      	cmp	r1, #32
 80025bc:	d00e      	beq.n	80025dc <FAC_pwm_receiver_Callback+0x5c>
 80025be:	d806      	bhi.n	80025ce <FAC_pwm_receiver_Callback+0x4e>
 80025c0:	2908      	cmp	r1, #8
 80025c2:	d00e      	beq.n	80025e2 <FAC_pwm_receiver_Callback+0x62>
 80025c4:	2910      	cmp	r1, #16
 80025c6:	d1e7      	bne.n	8002598 <FAC_pwm_receiver_Callback+0x18>
 80025c8:	4a08      	ldr	r2, [pc, #32]	@ (80025ec <FAC_pwm_receiver_Callback+0x6c>)
 80025ca:	6153      	str	r3, [r2, #20]
 80025cc:	e7e4      	b.n	8002598 <FAC_pwm_receiver_Callback+0x18>
 80025ce:	2280      	movs	r2, #128	@ 0x80
 80025d0:	0212      	lsls	r2, r2, #8
 80025d2:	4291      	cmp	r1, r2
 80025d4:	d1e0      	bne.n	8002598 <FAC_pwm_receiver_Callback+0x18>
 80025d6:	4a05      	ldr	r2, [pc, #20]	@ (80025ec <FAC_pwm_receiver_Callback+0x6c>)
 80025d8:	61d3      	str	r3, [r2, #28]
 80025da:	e7dd      	b.n	8002598 <FAC_pwm_receiver_Callback+0x18>
 80025dc:	4a03      	ldr	r2, [pc, #12]	@ (80025ec <FAC_pwm_receiver_Callback+0x6c>)
 80025de:	6113      	str	r3, [r2, #16]
 80025e0:	e7da      	b.n	8002598 <FAC_pwm_receiver_Callback+0x18>
 80025e2:	4a02      	ldr	r2, [pc, #8]	@ (80025ec <FAC_pwm_receiver_Callback+0x6c>)
 80025e4:	6193      	str	r3, [r2, #24]
 80025e6:	e7d7      	b.n	8002598 <FAC_pwm_receiver_Callback+0x18>
 80025e8:	20001748 	.word	0x20001748
 80025ec:	2000042c 	.word	0x2000042c

080025f0 <FAC_pwm_receiver_calculate_channel_value>:
 80025f0:	b5f0      	push	{r4, r5, r6, r7, lr}
 80025f2:	4e1a      	ldr	r6, [pc, #104]	@ (800265c <FAC_pwm_receiver_calculate_channel_value+0x6c>)
 80025f4:	1e44      	subs	r4, r0, #1
 80025f6:	00a3      	lsls	r3, r4, #2
 80025f8:	b085      	sub	sp, #20
 80025fa:	599a      	ldr	r2, [r3, r6]
 80025fc:	9303      	str	r3, [sp, #12]
 80025fe:	1cc3      	adds	r3, r0, #3
 8002600:	009b      	lsls	r3, r3, #2
 8002602:	599b      	ldr	r3, [r3, r6]
 8002604:	0005      	movs	r5, r0
 8002606:	429a      	cmp	r2, r3
 8002608:	d226      	bcs.n	8002658 <FAC_pwm_receiver_calculate_channel_value+0x68>
 800260a:	1a9b      	subs	r3, r3, r2
 800260c:	4a14      	ldr	r2, [pc, #80]	@ (8002660 <FAC_pwm_receiver_calculate_channel_value+0x70>)
 800260e:	b29b      	uxth	r3, r3
 8002610:	4293      	cmp	r3, r2
 8002612:	d821      	bhi.n	8002658 <FAC_pwm_receiver_calculate_channel_value+0x68>
 8002614:	22fa      	movs	r2, #250	@ 0xfa
 8002616:	1c18      	adds	r0, r3, #0
 8002618:	00d2      	lsls	r2, r2, #3
 800261a:	4293      	cmp	r3, r2
 800261c:	d200      	bcs.n	8002620 <FAC_pwm_receiver_calculate_channel_value+0x30>
 800261e:	1c10      	adds	r0, r2, #0
 8002620:	4b10      	ldr	r3, [pc, #64]	@ (8002664 <FAC_pwm_receiver_calculate_channel_value+0x74>)
 8002622:	b280      	uxth	r0, r0
 8002624:	18c0      	adds	r0, r0, r3
 8002626:	22fa      	movs	r2, #250	@ 0xfa
 8002628:	2300      	movs	r3, #0
 800262a:	4f0f      	ldr	r7, [pc, #60]	@ (8002668 <FAC_pwm_receiver_calculate_channel_value+0x78>)
 800262c:	0019      	movs	r1, r3
 800262e:	9700      	str	r7, [sp, #0]
 8002630:	00d2      	lsls	r2, r2, #3
 8002632:	f7ff fb89 	bl	8001d48 <map_uint32>
 8002636:	23fa      	movs	r3, #250	@ 0xfa
 8002638:	1c01      	adds	r1, r0, #0
 800263a:	b280      	uxth	r0, r0
 800263c:	009b      	lsls	r3, r3, #2
 800263e:	4298      	cmp	r0, r3
 8002640:	d300      	bcc.n	8002644 <FAC_pwm_receiver_calculate_channel_value+0x54>
 8002642:	1c39      	adds	r1, r7, #0
 8002644:	0028      	movs	r0, r5
 8002646:	b289      	uxth	r1, r1
 8002648:	f000 fa22 	bl	8002a90 <FAC_std_receiver_new_channel_value>
 800264c:	2300      	movs	r3, #0
 800264e:	9a03      	ldr	r2, [sp, #12]
 8002650:	3404      	adds	r4, #4
 8002652:	00a4      	lsls	r4, r4, #2
 8002654:	5133      	str	r3, [r6, r4]
 8002656:	50b3      	str	r3, [r6, r2]
 8002658:	b005      	add	sp, #20
 800265a:	bdf0      	pop	{r4, r5, r6, r7, pc}
 800265c:	2000042c 	.word	0x2000042c
 8002660:	00001130 	.word	0x00001130
 8002664:	fffff830 	.word	0xfffff830
 8002668:	000003e7 	.word	0x000003e7

0800266c <FAC_pwm_receiver_init>:
 800266c:	b510      	push	{r4, lr}
 800266e:	4807      	ldr	r0, [pc, #28]	@ (800268c <FAC_pwm_receiver_init+0x20>)
 8002670:	f003 fe6a 	bl	8006348 <HAL_TIM_Base_Start>
 8002674:	2200      	movs	r2, #0
 8002676:	4b06      	ldr	r3, [pc, #24]	@ (8002690 <FAC_pwm_receiver_init+0x24>)
 8002678:	601a      	str	r2, [r3, #0]
 800267a:	611a      	str	r2, [r3, #16]
 800267c:	605a      	str	r2, [r3, #4]
 800267e:	615a      	str	r2, [r3, #20]
 8002680:	609a      	str	r2, [r3, #8]
 8002682:	619a      	str	r2, [r3, #24]
 8002684:	60da      	str	r2, [r3, #12]
 8002686:	61da      	str	r2, [r3, #28]
 8002688:	bd10      	pop	{r4, pc}
 800268a:	46c0      	nop			@ (mov r8, r8)
 800268c:	20001748 	.word	0x20001748
 8002690:	2000042c 	.word	0x2000042c

08002694 <FAC_servo_GET_is_enable>:
 8002694:	4b02      	ldr	r3, [pc, #8]	@ (80026a0 <FAC_servo_GET_is_enable+0xc>)
 8002696:	3801      	subs	r0, #1
 8002698:	0080      	lsls	r0, r0, #2
 800269a:	58c3      	ldr	r3, [r0, r3]
 800269c:	7898      	ldrb	r0, [r3, #2]
 800269e:	4770      	bx	lr
 80026a0:	2000044c 	.word	0x2000044c

080026a4 <FAC_servo_apply_settings>:
 80026a4:	b570      	push	{r4, r5, r6, lr}
 80026a6:	0005      	movs	r5, r0
 80026a8:	f7ff fff4 	bl	8002694 <FAC_servo_GET_is_enable>
 80026ac:	2800      	cmp	r0, #0
 80026ae:	d01d      	beq.n	80026ec <FAC_servo_apply_settings+0x48>
 80026b0:	4b11      	ldr	r3, [pc, #68]	@ (80026f8 <FAC_servo_apply_settings+0x54>)
 80026b2:	1e6a      	subs	r2, r5, #1
 80026b4:	0092      	lsls	r2, r2, #2
 80026b6:	58d6      	ldr	r6, [r2, r3]
 80026b8:	2164      	movs	r1, #100	@ 0x64
 80026ba:	8934      	ldrh	r4, [r6, #8]
 80026bc:	8970      	ldrh	r0, [r6, #10]
 80026be:	1b00      	subs	r0, r0, r4
 80026c0:	f7fd fdd2 	bl	8000268 <__divsi3>
 80026c4:	8833      	ldrh	r3, [r6, #0]
 80026c6:	210a      	movs	r1, #10
 80026c8:	4358      	muls	r0, r3
 80026ca:	f7fd fdcd 	bl	8000268 <__divsi3>
 80026ce:	2d01      	cmp	r5, #1
 80026d0:	d002      	beq.n	80026d8 <FAC_servo_apply_settings+0x34>
 80026d2:	2d02      	cmp	r5, #2
 80026d4:	d005      	beq.n	80026e2 <FAC_servo_apply_settings+0x3e>
 80026d6:	bd70      	pop	{r4, r5, r6, pc}
 80026d8:	b280      	uxth	r0, r0
 80026da:	1900      	adds	r0, r0, r4
 80026dc:	4b07      	ldr	r3, [pc, #28]	@ (80026fc <FAC_servo_apply_settings+0x58>)
 80026de:	63d8      	str	r0, [r3, #60]	@ 0x3c
 80026e0:	e7f9      	b.n	80026d6 <FAC_servo_apply_settings+0x32>
 80026e2:	b280      	uxth	r0, r0
 80026e4:	1900      	adds	r0, r0, r4
 80026e6:	4b05      	ldr	r3, [pc, #20]	@ (80026fc <FAC_servo_apply_settings+0x58>)
 80026e8:	6418      	str	r0, [r3, #64]	@ 0x40
 80026ea:	e7f4      	b.n	80026d6 <FAC_servo_apply_settings+0x32>
 80026ec:	2d01      	cmp	r5, #1
 80026ee:	d0f5      	beq.n	80026dc <FAC_servo_apply_settings+0x38>
 80026f0:	2d02      	cmp	r5, #2
 80026f2:	d0f8      	beq.n	80026e6 <FAC_servo_apply_settings+0x42>
 80026f4:	e7ef      	b.n	80026d6 <FAC_servo_apply_settings+0x32>
 80026f6:	46c0      	nop			@ (mov r8, r8)
 80026f8:	2000044c 	.word	0x2000044c
 80026fc:	40000400 	.word	0x40000400

08002700 <FAC_servo_GET_is_reversed>:
 8002700:	4b02      	ldr	r3, [pc, #8]	@ (800270c <FAC_servo_GET_is_reversed+0xc>)
 8002702:	3801      	subs	r0, #1
 8002704:	0080      	lsls	r0, r0, #2
 8002706:	58c3      	ldr	r3, [r0, r3]
 8002708:	78d8      	ldrb	r0, [r3, #3]
 800270a:	4770      	bx	lr
 800270c:	2000044c 	.word	0x2000044c

08002710 <FAC_servo_set_position>:
 8002710:	23fa      	movs	r3, #250	@ 0xfa
 8002712:	b570      	push	{r4, r5, r6, lr}
 8002714:	009b      	lsls	r3, r3, #2
 8002716:	0005      	movs	r5, r0
 8002718:	1c0c      	adds	r4, r1, #0
 800271a:	4299      	cmp	r1, r3
 800271c:	d301      	bcc.n	8002722 <FAC_servo_set_position+0x12>
 800271e:	4b0a      	ldr	r3, [pc, #40]	@ (8002748 <FAC_servo_set_position+0x38>)
 8002720:	881c      	ldrh	r4, [r3, #0]
 8002722:	0028      	movs	r0, r5
 8002724:	b2a4      	uxth	r4, r4
 8002726:	f7ff ffeb 	bl	8002700 <FAC_servo_GET_is_reversed>
 800272a:	2800      	cmp	r0, #0
 800272c:	d002      	beq.n	8002734 <FAC_servo_set_position+0x24>
 800272e:	4b07      	ldr	r3, [pc, #28]	@ (800274c <FAC_servo_set_position+0x3c>)
 8002730:	1b1c      	subs	r4, r3, r4
 8002732:	b2a4      	uxth	r4, r4
 8002734:	1e6a      	subs	r2, r5, #1
 8002736:	4b06      	ldr	r3, [pc, #24]	@ (8002750 <FAC_servo_set_position+0x40>)
 8002738:	0092      	lsls	r2, r2, #2
 800273a:	58d3      	ldr	r3, [r2, r3]
 800273c:	0028      	movs	r0, r5
 800273e:	801c      	strh	r4, [r3, #0]
 8002740:	f7ff ffb0 	bl	80026a4 <FAC_servo_apply_settings>
 8002744:	bd70      	pop	{r4, r5, r6, pc}
 8002746:	46c0      	nop			@ (mov r8, r8)
 8002748:	08008662 	.word	0x08008662
 800274c:	000003e7 	.word	0x000003e7
 8002750:	2000044c 	.word	0x2000044c

08002754 <FAC_servo_enable>:
 8002754:	4b04      	ldr	r3, [pc, #16]	@ (8002768 <FAC_servo_enable+0x14>)
 8002756:	1e42      	subs	r2, r0, #1
 8002758:	0092      	lsls	r2, r2, #2
 800275a:	58d3      	ldr	r3, [r2, r3]
 800275c:	2201      	movs	r2, #1
 800275e:	b510      	push	{r4, lr}
 8002760:	709a      	strb	r2, [r3, #2]
 8002762:	f7ff ff9f 	bl	80026a4 <FAC_servo_apply_settings>
 8002766:	bd10      	pop	{r4, pc}
 8002768:	2000044c 	.word	0x2000044c

0800276c <FAC_servo_disable>:
 800276c:	4b04      	ldr	r3, [pc, #16]	@ (8002780 <FAC_servo_disable+0x14>)
 800276e:	1e42      	subs	r2, r0, #1
 8002770:	0092      	lsls	r2, r2, #2
 8002772:	58d3      	ldr	r3, [r2, r3]
 8002774:	2200      	movs	r2, #0
 8002776:	b510      	push	{r4, lr}
 8002778:	709a      	strb	r2, [r3, #2]
 800277a:	f7ff ff93 	bl	80026a4 <FAC_servo_apply_settings>
 800277e:	bd10      	pop	{r4, pc}
 8002780:	2000044c 	.word	0x2000044c

08002784 <FAC_servo_init>:
 8002784:	b570      	push	{r4, r5, r6, lr}
 8002786:	4d21      	ldr	r5, [pc, #132]	@ (800280c <FAC_servo_init+0x88>)
 8002788:	2108      	movs	r1, #8
 800278a:	0028      	movs	r0, r5
 800278c:	f004 f858 	bl	8006840 <HAL_TIM_PWM_Start>
 8002790:	210c      	movs	r1, #12
 8002792:	0028      	movs	r0, r5
 8002794:	f004 f854 	bl	8006840 <HAL_TIM_PWM_Start>
 8002798:	4c1d      	ldr	r4, [pc, #116]	@ (8002810 <FAC_servo_init+0x8c>)
 800279a:	4b1e      	ldr	r3, [pc, #120]	@ (8002814 <FAC_servo_init+0x90>)
 800279c:	200d      	movs	r0, #13
 800279e:	6023      	str	r3, [r4, #0]
 80027a0:	4b1d      	ldr	r3, [pc, #116]	@ (8002818 <FAC_servo_init+0x94>)
 80027a2:	6063      	str	r3, [r4, #4]
 80027a4:	f000 f84a 	bl	800283c <FAC_settings_GET_value>
 80027a8:	6823      	ldr	r3, [r4, #0]
 80027aa:	0001      	movs	r1, r0
 80027ac:	8098      	strh	r0, [r3, #4]
 80027ae:	6863      	ldr	r3, [r4, #4]
 80027b0:	8098      	strh	r0, [r3, #4]
 80027b2:	481a      	ldr	r0, [pc, #104]	@ (800281c <FAC_servo_init+0x98>)
 80027b4:	f7fd fd58 	bl	8000268 <__divsi3>
 80027b8:	60e8      	str	r0, [r5, #12]
 80027ba:	0028      	movs	r0, r5
 80027bc:	f003 fe40 	bl	8006440 <HAL_TIM_Base_Init>
 80027c0:	2007      	movs	r0, #7
 80027c2:	f000 f83b 	bl	800283c <FAC_settings_GET_value>
 80027c6:	6823      	ldr	r3, [r4, #0]
 80027c8:	70d8      	strb	r0, [r3, #3]
 80027ca:	2009      	movs	r0, #9
 80027cc:	f000 f836 	bl	800283c <FAC_settings_GET_value>
 80027d0:	6823      	ldr	r3, [r4, #0]
 80027d2:	8118      	strh	r0, [r3, #8]
 80027d4:	200b      	movs	r0, #11
 80027d6:	f000 f831 	bl	800283c <FAC_settings_GET_value>
 80027da:	6823      	ldr	r3, [r4, #0]
 80027dc:	8158      	strh	r0, [r3, #10]
 80027de:	2008      	movs	r0, #8
 80027e0:	f000 f82c 	bl	800283c <FAC_settings_GET_value>
 80027e4:	6863      	ldr	r3, [r4, #4]
 80027e6:	70d8      	strb	r0, [r3, #3]
 80027e8:	200a      	movs	r0, #10
 80027ea:	f000 f827 	bl	800283c <FAC_settings_GET_value>
 80027ee:	6863      	ldr	r3, [r4, #4]
 80027f0:	8118      	strh	r0, [r3, #8]
 80027f2:	200c      	movs	r0, #12
 80027f4:	f000 f822 	bl	800283c <FAC_settings_GET_value>
 80027f8:	6863      	ldr	r3, [r4, #4]
 80027fa:	8158      	strh	r0, [r3, #10]
 80027fc:	2001      	movs	r0, #1
 80027fe:	f7ff ffb5 	bl	800276c <FAC_servo_disable>
 8002802:	2002      	movs	r0, #2
 8002804:	f7ff ffb2 	bl	800276c <FAC_servo_disable>
 8002808:	bd70      	pop	{r4, r5, r6, pc}
 800280a:	46c0      	nop			@ (mov r8, r8)
 800280c:	20001700 	.word	0x20001700
 8002810:	2000044c 	.word	0x2000044c
 8002814:	20000460 	.word	0x20000460
 8002818:	20000454 	.word	0x20000454
 800281c:	000f4240 	.word	0x000f4240

08002820 <FAC_settings_STORE_ALL_to_eeprom>:
 8002820:	b570      	push	{r4, r5, r6, lr}
 8002822:	2400      	movs	r4, #0
 8002824:	4d04      	ldr	r5, [pc, #16]	@ (8002838 <FAC_settings_STORE_ALL_to_eeprom+0x18>)
 8002826:	8869      	ldrh	r1, [r5, #2]
 8002828:	b2e0      	uxtb	r0, r4
 800282a:	3401      	adds	r4, #1
 800282c:	f7ff fbb0 	bl	8001f90 <FAC_eeprom_store_value>
 8002830:	3508      	adds	r5, #8
 8002832:	2c3f      	cmp	r4, #63	@ 0x3f
 8002834:	d1f7      	bne.n	8002826 <FAC_settings_STORE_ALL_to_eeprom+0x6>
 8002836:	bd70      	pop	{r4, r5, r6, pc}
 8002838:	20000000 	.word	0x20000000

0800283c <FAC_settings_GET_value>:
 800283c:	4b02      	ldr	r3, [pc, #8]	@ (8002848 <FAC_settings_GET_value+0xc>)
 800283e:	00c0      	lsls	r0, r0, #3
 8002840:	181b      	adds	r3, r3, r0
 8002842:	8858      	ldrh	r0, [r3, #2]
 8002844:	4770      	bx	lr
 8002846:	46c0      	nop			@ (mov r8, r8)
 8002848:	20000000 	.word	0x20000000

0800284c <FAC_settings_USB_SEND_setting_value>:
 800284c:	b507      	push	{r0, r1, r2, lr}
 800284e:	2200      	movs	r2, #0
 8002850:	0003      	movs	r3, r0
 8002852:	a801      	add	r0, sp, #4
 8002854:	7002      	strb	r2, [r0, #0]
 8002856:	4a05      	ldr	r2, [pc, #20]	@ (800286c <FAC_settings_USB_SEND_setting_value+0x20>)
 8002858:	7043      	strb	r3, [r0, #1]
 800285a:	00db      	lsls	r3, r3, #3
 800285c:	189b      	adds	r3, r3, r2
 800285e:	885b      	ldrh	r3, [r3, #2]
 8002860:	2104      	movs	r1, #4
 8002862:	ba5b      	rev16	r3, r3
 8002864:	8043      	strh	r3, [r0, #2]
 8002866:	f005 fcbd 	bl	80081e4 <CDC_Transmit_FS>
 800286a:	bd07      	pop	{r0, r1, r2, pc}
 800286c:	20000000 	.word	0x20000000

08002870 <FAC_settings_USB_SEND_setting_ranges>:
 8002870:	b507      	push	{r0, r1, r2, lr}
 8002872:	2301      	movs	r3, #1
 8002874:	466a      	mov	r2, sp
 8002876:	7013      	strb	r3, [r2, #0]
 8002878:	4b07      	ldr	r3, [pc, #28]	@ (8002898 <FAC_settings_USB_SEND_setting_ranges+0x28>)
 800287a:	7050      	strb	r0, [r2, #1]
 800287c:	00c0      	lsls	r0, r0, #3
 800287e:	18c0      	adds	r0, r0, r3
 8002880:	8883      	ldrh	r3, [r0, #4]
 8002882:	2106      	movs	r1, #6
 8002884:	ba5b      	rev16	r3, r3
 8002886:	8053      	strh	r3, [r2, #2]
 8002888:	88c3      	ldrh	r3, [r0, #6]
 800288a:	4668      	mov	r0, sp
 800288c:	ba5b      	rev16	r3, r3
 800288e:	8093      	strh	r3, [r2, #4]
 8002890:	f005 fca8 	bl	80081e4 <CDC_Transmit_FS>
 8002894:	bd07      	pop	{r0, r1, r2, pc}
 8002896:	46c0      	nop			@ (mov r8, r8)
 8002898:	20000000 	.word	0x20000000

0800289c <FAC_settings_command_response>:
 800289c:	b570      	push	{r4, r5, r6, lr}
 800289e:	4b3c      	ldr	r3, [pc, #240]	@ (8002990 <FAC_settings_command_response+0xf4>)
 80028a0:	b088      	sub	sp, #32
 80028a2:	7818      	ldrb	r0, [r3, #0]
 80028a4:	785a      	ldrb	r2, [r3, #1]
 80028a6:	2807      	cmp	r0, #7
 80028a8:	d900      	bls.n	80028ac <FAC_settings_command_response+0x10>
 80028aa:	e06f      	b.n	800298c <FAC_settings_command_response+0xf0>
 80028ac:	f7fd fc3e 	bl	800012c <__gnu_thumb1_case_uqi>
 80028b0:	230e0a04 	.word	0x230e0a04
 80028b4:	6b686e2a 	.word	0x6b686e2a
 80028b8:	0010      	movs	r0, r2
 80028ba:	f7ff ffc7 	bl	800284c <FAC_settings_USB_SEND_setting_value>
 80028be:	2001      	movs	r0, #1
 80028c0:	b008      	add	sp, #32
 80028c2:	bd70      	pop	{r4, r5, r6, pc}
 80028c4:	0010      	movs	r0, r2
 80028c6:	f7ff ffd3 	bl	8002870 <FAC_settings_USB_SEND_setting_ranges>
 80028ca:	e7f8      	b.n	80028be <FAC_settings_command_response+0x22>
 80028cc:	789c      	ldrb	r4, [r3, #2]
 80028ce:	78db      	ldrb	r3, [r3, #3]
 80028d0:	4830      	ldr	r0, [pc, #192]	@ (8002994 <FAC_settings_command_response+0xf8>)
 80028d2:	00d2      	lsls	r2, r2, #3
 80028d4:	021b      	lsls	r3, r3, #8
 80028d6:	4323      	orrs	r3, r4
 80028d8:	1881      	adds	r1, r0, r2
 80028da:	ba5b      	rev16	r3, r3
 80028dc:	888c      	ldrh	r4, [r1, #4]
 80028de:	b29d      	uxth	r5, r3
 80028e0:	42a5      	cmp	r5, r4
 80028e2:	d200      	bcs.n	80028e6 <FAC_settings_command_response+0x4a>
 80028e4:	1c23      	adds	r3, r4, #0
 80028e6:	1880      	adds	r0, r0, r2
 80028e8:	88c2      	ldrh	r2, [r0, #6]
 80028ea:	b298      	uxth	r0, r3
 80028ec:	4290      	cmp	r0, r2
 80028ee:	d900      	bls.n	80028f2 <FAC_settings_command_response+0x56>
 80028f0:	1c13      	adds	r3, r2, #0
 80028f2:	804b      	strh	r3, [r1, #2]
 80028f4:	e7e3      	b.n	80028be <FAC_settings_command_response+0x22>
 80028f6:	2349      	movs	r3, #73	@ 0x49
 80028f8:	2101      	movs	r1, #1
 80028fa:	a801      	add	r0, sp, #4
 80028fc:	7003      	strb	r3, [r0, #0]
 80028fe:	f005 fc71 	bl	80081e4 <CDC_Transmit_FS>
 8002902:	e7dc      	b.n	80028be <FAC_settings_command_response+0x22>
 8002904:	ac01      	add	r4, sp, #4
 8002906:	2305      	movs	r3, #5
 8002908:	0026      	movs	r6, r4
 800290a:	2501      	movs	r5, #1
 800290c:	7023      	strb	r3, [r4, #0]
 800290e:	b2e8      	uxtb	r0, r5
 8002910:	f000 f8a6 	bl	8002a60 <FAC_std_receiver_GET_channel>
 8002914:	3501      	adds	r5, #1
 8002916:	0a03      	lsrs	r3, r0, #8
 8002918:	7073      	strb	r3, [r6, #1]
 800291a:	70b0      	strb	r0, [r6, #2]
 800291c:	3602      	adds	r6, #2
 800291e:	2d09      	cmp	r5, #9
 8002920:	d1f5      	bne.n	800290e <FAC_settings_command_response+0x72>
 8002922:	f7ff fa9f 	bl	8001e64 <FAC_battery_GET_voltage>
 8002926:	0a03      	lsrs	r3, r0, #8
 8002928:	7463      	strb	r3, [r4, #17]
 800292a:	74a0      	strb	r0, [r4, #18]
 800292c:	f7ff faac 	bl	8001e88 <FAC_battery_GET_type>
 8002930:	74e0      	strb	r0, [r4, #19]
 8002932:	f7ff f8c3 	bl	8001abc <FAC_app_GET_current_state>
 8002936:	7520      	strb	r0, [r4, #20]
 8002938:	f7ff fb6c 	bl	8002014 <FAC_IMU_GET_accel_X>
 800293c:	4916      	ldr	r1, [pc, #88]	@ (8002998 <FAC_settings_command_response+0xfc>)
 800293e:	f7fe faed 	bl	8000f1c <__aeabi_fmul>
 8002942:	f7fe fea9 	bl	8001698 <__aeabi_f2iz>
 8002946:	b283      	uxth	r3, r0
 8002948:	0a1b      	lsrs	r3, r3, #8
 800294a:	7563      	strb	r3, [r4, #21]
 800294c:	75a0      	strb	r0, [r4, #22]
 800294e:	f7ff fb6b 	bl	8002028 <FAC_IMU_GET_accel_Y>
 8002952:	4911      	ldr	r1, [pc, #68]	@ (8002998 <FAC_settings_command_response+0xfc>)
 8002954:	f7fe fae2 	bl	8000f1c <__aeabi_fmul>
 8002958:	f7fe fe9e 	bl	8001698 <__aeabi_f2iz>
 800295c:	b283      	uxth	r3, r0
 800295e:	0a1b      	lsrs	r3, r3, #8
 8002960:	75e3      	strb	r3, [r4, #23]
 8002962:	7620      	strb	r0, [r4, #24]
 8002964:	f7ff fb6a 	bl	800203c <FAC_IMU_GET_accel_Z>
 8002968:	490b      	ldr	r1, [pc, #44]	@ (8002998 <FAC_settings_command_response+0xfc>)
 800296a:	f7fe fad7 	bl	8000f1c <__aeabi_fmul>
 800296e:	f7fe fe93 	bl	8001698 <__aeabi_f2iz>
 8002972:	b283      	uxth	r3, r0
 8002974:	0a1b      	lsrs	r3, r3, #8
 8002976:	76a0      	strb	r0, [r4, #26]
 8002978:	211b      	movs	r1, #27
 800297a:	0020      	movs	r0, r4
 800297c:	7663      	strb	r3, [r4, #25]
 800297e:	e7be      	b.n	80028fe <FAC_settings_command_response+0x62>
 8002980:	f7ff ff4e 	bl	8002820 <FAC_settings_STORE_ALL_to_eeprom>
 8002984:	e79b      	b.n	80028be <FAC_settings_command_response+0x22>
 8002986:	f7ff f989 	bl	8001c9c <FAC_app_init_all_modules>
 800298a:	e798      	b.n	80028be <FAC_settings_command_response+0x22>
 800298c:	2000      	movs	r0, #0
 800298e:	e797      	b.n	80028c0 <FAC_settings_command_response+0x24>
 8002990:	2000046c 	.word	0x2000046c
 8002994:	20000000 	.word	0x20000000
 8002998:	447a0000 	.word	0x447a0000

0800299c <FAC_settings_init>:
 800299c:	23f9      	movs	r3, #249	@ 0xf9
 800299e:	b570      	push	{r4, r5, r6, lr}
 80029a0:	4d2b      	ldr	r5, [pc, #172]	@ (8002a50 <FAC_settings_init+0xb4>)
 80029a2:	005b      	lsls	r3, r3, #1
 80029a4:	492b      	ldr	r1, [pc, #172]	@ (8002a54 <FAC_settings_init+0xb8>)
 80029a6:	5aeb      	ldrh	r3, [r5, r3]
 80029a8:	0004      	movs	r4, r0
 80029aa:	428b      	cmp	r3, r1
 80029ac:	d002      	beq.n	80029b4 <FAC_settings_init+0x18>
 80029ae:	203e      	movs	r0, #62	@ 0x3e
 80029b0:	f7ff faee 	bl	8001f90 <FAC_eeprom_store_value>
 80029b4:	0020      	movs	r0, r4
 80029b6:	f7ff fb1b 	bl	8001ff0 <FAC_eeprom_init>
 80029ba:	f7ff fafd 	bl	8001fb8 <FAC_eeprom_is_first_time>
 80029be:	1e04      	subs	r4, r0, #0
 80029c0:	d01b      	beq.n	80029fa <FAC_settings_init+0x5e>
 80029c2:	2580      	movs	r5, #128	@ 0x80
 80029c4:	f7ff ff2c 	bl	8002820 <FAC_settings_STORE_ALL_to_eeprom>
 80029c8:	240a      	movs	r4, #10
 80029ca:	01ed      	lsls	r5, r5, #7
 80029cc:	4822      	ldr	r0, [pc, #136]	@ (8002a58 <FAC_settings_init+0xbc>)
 80029ce:	f002 f955 	bl	8004c7c <HAL_IWDG_Refresh>
 80029d2:	0029      	movs	r1, r5
 80029d4:	4821      	ldr	r0, [pc, #132]	@ (8002a5c <FAC_settings_init+0xc0>)
 80029d6:	f001 fd79 	bl	80044cc <HAL_GPIO_TogglePin>
 80029da:	2032      	movs	r0, #50	@ 0x32
 80029dc:	f001 f902 	bl	8003be4 <HAL_Delay>
 80029e0:	0029      	movs	r1, r5
 80029e2:	481e      	ldr	r0, [pc, #120]	@ (8002a5c <FAC_settings_init+0xc0>)
 80029e4:	f001 fd72 	bl	80044cc <HAL_GPIO_TogglePin>
 80029e8:	3c01      	subs	r4, #1
 80029ea:	2032      	movs	r0, #50	@ 0x32
 80029ec:	f001 f8fa 	bl	8003be4 <HAL_Delay>
 80029f0:	2c00      	cmp	r4, #0
 80029f2:	d1eb      	bne.n	80029cc <FAC_settings_init+0x30>
 80029f4:	f7ff fa96 	bl	8001f24 <FAC_eeprom_WRITE_frist_boot_value_in_eeprom>
 80029f8:	bd70      	pop	{r4, r5, r6, pc}
 80029fa:	b2e0      	uxtb	r0, r4
 80029fc:	f7ff fa9c 	bl	8001f38 <FAC_eeprom_read_value>
 8002a00:	88aa      	ldrh	r2, [r5, #4]
 8002a02:	1c13      	adds	r3, r2, #0
 8002a04:	4282      	cmp	r2, r0
 8002a06:	d200      	bcs.n	8002a0a <FAC_settings_init+0x6e>
 8002a08:	1c03      	adds	r3, r0, #0
 8002a0a:	88ea      	ldrh	r2, [r5, #6]
 8002a0c:	b299      	uxth	r1, r3
 8002a0e:	4291      	cmp	r1, r2
 8002a10:	d900      	bls.n	8002a14 <FAC_settings_init+0x78>
 8002a12:	1c13      	adds	r3, r2, #0
 8002a14:	3401      	adds	r4, #1
 8002a16:	806b      	strh	r3, [r5, #2]
 8002a18:	3508      	adds	r5, #8
 8002a1a:	2c3f      	cmp	r4, #63	@ 0x3f
 8002a1c:	d1ed      	bne.n	80029fa <FAC_settings_init+0x5e>
 8002a1e:	2580      	movs	r5, #128	@ 0x80
 8002a20:	3c3c      	subs	r4, #60	@ 0x3c
 8002a22:	01ed      	lsls	r5, r5, #7
 8002a24:	480c      	ldr	r0, [pc, #48]	@ (8002a58 <FAC_settings_init+0xbc>)
 8002a26:	f002 f929 	bl	8004c7c <HAL_IWDG_Refresh>
 8002a2a:	0029      	movs	r1, r5
 8002a2c:	480b      	ldr	r0, [pc, #44]	@ (8002a5c <FAC_settings_init+0xc0>)
 8002a2e:	f001 fd4d 	bl	80044cc <HAL_GPIO_TogglePin>
 8002a32:	2032      	movs	r0, #50	@ 0x32
 8002a34:	f001 f8d6 	bl	8003be4 <HAL_Delay>
 8002a38:	0029      	movs	r1, r5
 8002a3a:	4808      	ldr	r0, [pc, #32]	@ (8002a5c <FAC_settings_init+0xc0>)
 8002a3c:	f001 fd46 	bl	80044cc <HAL_GPIO_TogglePin>
 8002a40:	3c01      	subs	r4, #1
 8002a42:	2032      	movs	r0, #50	@ 0x32
 8002a44:	f001 f8ce 	bl	8003be4 <HAL_Delay>
 8002a48:	2c00      	cmp	r4, #0
 8002a4a:	d1eb      	bne.n	8002a24 <FAC_settings_init+0x88>
 8002a4c:	e7d4      	b.n	80029f8 <FAC_settings_init+0x5c>
 8002a4e:	46c0      	nop			@ (mov r8, r8)
 8002a50:	20000000 	.word	0x20000000
 8002a54:	00004e21 	.word	0x00004e21
 8002a58:	20001648 	.word	0x20001648
 8002a5c:	48000800 	.word	0x48000800

08002a60 <FAC_std_receiver_GET_channel>:
 8002a60:	b570      	push	{r4, r5, r6, lr}
 8002a62:	4d0a      	ldr	r5, [pc, #40]	@ (8002a8c <FAC_std_receiver_GET_channel+0x2c>)
 8002a64:	0004      	movs	r4, r0
 8002a66:	7c2b      	ldrb	r3, [r5, #16]
 8002a68:	2b00      	cmp	r3, #0
 8002a6a:	d005      	beq.n	8002a78 <FAC_std_receiver_GET_channel+0x18>
 8002a6c:	2b01      	cmp	r3, #1
 8002a6e:	d008      	beq.n	8002a82 <FAC_std_receiver_GET_channel+0x22>
 8002a70:	3c01      	subs	r4, #1
 8002a72:	0064      	lsls	r4, r4, #1
 8002a74:	5b28      	ldrh	r0, [r5, r4]
 8002a76:	bd70      	pop	{r4, r5, r6, pc}
 8002a78:	2804      	cmp	r0, #4
 8002a7a:	d8f9      	bhi.n	8002a70 <FAC_std_receiver_GET_channel+0x10>
 8002a7c:	f7ff fdb8 	bl	80025f0 <FAC_pwm_receiver_calculate_channel_value>
 8002a80:	e7f6      	b.n	8002a70 <FAC_std_receiver_GET_channel+0x10>
 8002a82:	2808      	cmp	r0, #8
 8002a84:	d8f4      	bhi.n	8002a70 <FAC_std_receiver_GET_channel+0x10>
 8002a86:	f7ff fd3d 	bl	8002504 <FAC_ppm_receiver_calculate_channels_values>
 8002a8a:	e7f1      	b.n	8002a70 <FAC_std_receiver_GET_channel+0x10>
 8002a8c:	200004ac 	.word	0x200004ac

08002a90 <FAC_std_receiver_new_channel_value>:
 8002a90:	b5f7      	push	{r0, r1, r2, r4, r5, r6, r7, lr}
 8002a92:	0006      	movs	r6, r0
 8002a94:	2012      	movs	r0, #18
 8002a96:	000d      	movs	r5, r1
 8002a98:	f7ff fed0 	bl	800283c <FAC_settings_GET_value>
 8002a9c:	0003      	movs	r3, r0
 8002a9e:	270a      	movs	r7, #10
 8002aa0:	b2db      	uxtb	r3, r3
 8002aa2:	435f      	muls	r7, r3
 8002aa4:	b228      	sxth	r0, r5
 8002aa6:	2e03      	cmp	r6, #3
 8002aa8:	d007      	beq.n	8002aba <FAC_std_receiver_new_channel_value+0x2a>
 8002aaa:	22fa      	movs	r2, #250	@ 0xfa
 8002aac:	0092      	lsls	r2, r2, #2
 8002aae:	2100      	movs	r1, #0
 8002ab0:	4b23      	ldr	r3, [pc, #140]	@ (8002b40 <FAC_std_receiver_new_channel_value+0xb0>)
 8002ab2:	9200      	str	r2, [sp, #0]
 8002ab4:	f7ff f95c 	bl	8001d70 <map_int32>
 8002ab8:	b200      	sxth	r0, r0
 8002aba:	23fa      	movs	r3, #250	@ 0xfa
 8002abc:	009b      	lsls	r3, r3, #2
 8002abe:	429d      	cmp	r5, r3
 8002ac0:	d900      	bls.n	8002ac4 <FAC_std_receiver_new_channel_value+0x34>
 8002ac2:	0018      	movs	r0, r3
 8002ac4:	0079      	lsls	r1, r7, #1
 8002ac6:	1842      	adds	r2, r0, r1
 8002ac8:	429a      	cmp	r2, r3
 8002aca:	da33      	bge.n	8002b34 <FAC_std_receiver_new_channel_value+0xa4>
 8002acc:	4c1d      	ldr	r4, [pc, #116]	@ (8002b44 <FAC_std_receiver_new_channel_value+0xb4>)
 8002ace:	1a42      	subs	r2, r0, r1
 8002ad0:	42a2      	cmp	r2, r4
 8002ad2:	db32      	blt.n	8002b3a <FAC_std_receiver_new_channel_value+0xaa>
 8002ad4:	427a      	negs	r2, r7
 8002ad6:	4290      	cmp	r0, r2
 8002ad8:	db26      	blt.n	8002b28 <FAC_std_receiver_new_channel_value+0x98>
 8002ada:	2400      	movs	r4, #0
 8002adc:	42b8      	cmp	r0, r7
 8002ade:	dd06      	ble.n	8002aee <FAC_std_receiver_new_channel_value+0x5e>
 8002ae0:	1a5a      	subs	r2, r3, r1
 8002ae2:	9300      	str	r3, [sp, #0]
 8002ae4:	0039      	movs	r1, r7
 8002ae6:	0023      	movs	r3, r4
 8002ae8:	f7ff f942 	bl	8001d70 <map_int32>
 8002aec:	b204      	sxth	r4, r0
 8002aee:	2e03      	cmp	r6, #3
 8002af0:	d008      	beq.n	8002b04 <FAC_std_receiver_new_channel_value+0x74>
 8002af2:	22fa      	movs	r2, #250	@ 0xfa
 8002af4:	0092      	lsls	r2, r2, #2
 8002af6:	0020      	movs	r0, r4
 8002af8:	2300      	movs	r3, #0
 8002afa:	4911      	ldr	r1, [pc, #68]	@ (8002b40 <FAC_std_receiver_new_channel_value+0xb0>)
 8002afc:	9200      	str	r2, [sp, #0]
 8002afe:	f7ff f937 	bl	8001d70 <map_int32>
 8002b02:	b204      	sxth	r4, r0
 8002b04:	23fa      	movs	r3, #250	@ 0xfa
 8002b06:	1c22      	adds	r2, r4, #0
 8002b08:	b2a4      	uxth	r4, r4
 8002b0a:	009b      	lsls	r3, r3, #2
 8002b0c:	429c      	cmp	r4, r3
 8002b0e:	d301      	bcc.n	8002b14 <FAC_std_receiver_new_channel_value+0x84>
 8002b10:	4b0d      	ldr	r3, [pc, #52]	@ (8002b48 <FAC_std_receiver_new_channel_value+0xb8>)
 8002b12:	881a      	ldrh	r2, [r3, #0]
 8002b14:	4b0d      	ldr	r3, [pc, #52]	@ (8002b4c <FAC_std_receiver_new_channel_value+0xbc>)
 8002b16:	b290      	uxth	r0, r2
 8002b18:	3e01      	subs	r6, #1
 8002b1a:	0076      	lsls	r6, r6, #1
 8002b1c:	1a28      	subs	r0, r5, r0
 8002b1e:	52f2      	strh	r2, [r6, r3]
 8002b20:	1e43      	subs	r3, r0, #1
 8002b22:	4198      	sbcs	r0, r3
 8002b24:	b2c0      	uxtb	r0, r0
 8002b26:	bdfe      	pop	{r1, r2, r3, r4, r5, r6, r7, pc}
 8002b28:	4b05      	ldr	r3, [pc, #20]	@ (8002b40 <FAC_std_receiver_new_channel_value+0xb0>)
 8002b2a:	18c9      	adds	r1, r1, r3
 8002b2c:	2300      	movs	r3, #0
 8002b2e:	9300      	str	r3, [sp, #0]
 8002b30:	4b03      	ldr	r3, [pc, #12]	@ (8002b40 <FAC_std_receiver_new_channel_value+0xb0>)
 8002b32:	e7d9      	b.n	8002ae8 <FAC_std_receiver_new_channel_value+0x58>
 8002b34:	24fa      	movs	r4, #250	@ 0xfa
 8002b36:	00a4      	lsls	r4, r4, #2
 8002b38:	e7d9      	b.n	8002aee <FAC_std_receiver_new_channel_value+0x5e>
 8002b3a:	4c01      	ldr	r4, [pc, #4]	@ (8002b40 <FAC_std_receiver_new_channel_value+0xb0>)
 8002b3c:	e7d7      	b.n	8002aee <FAC_std_receiver_new_channel_value+0x5e>
 8002b3e:	46c0      	nop			@ (mov r8, r8)
 8002b40:	fffffc18 	.word	0xfffffc18
 8002b44:	fffffc19 	.word	0xfffffc19
 8002b48:	08008662 	.word	0x08008662
 8002b4c:	200004ac 	.word	0x200004ac

08002b50 <FAC_std_reciever_init>:
 8002b50:	b570      	push	{r4, r5, r6, lr}
 8002b52:	0004      	movs	r4, r0
 8002b54:	4d12      	ldr	r5, [pc, #72]	@ (8002ba0 <FAC_std_reciever_init+0x50>)
 8002b56:	2210      	movs	r2, #16
 8002b58:	2100      	movs	r1, #0
 8002b5a:	0028      	movs	r0, r5
 8002b5c:	f005 fcff 	bl	800855e <memset>
 8002b60:	742c      	strb	r4, [r5, #16]
 8002b62:	2c00      	cmp	r4, #0
 8002b64:	d014      	beq.n	8002b90 <FAC_std_reciever_init+0x40>
 8002b66:	2c01      	cmp	r4, #1
 8002b68:	d015      	beq.n	8002b96 <FAC_std_reciever_init+0x46>
 8002b6a:	2400      	movs	r4, #0
 8002b6c:	2501      	movs	r5, #1
 8002b6e:	480d      	ldr	r0, [pc, #52]	@ (8002ba4 <FAC_std_reciever_init+0x54>)
 8002b70:	f002 f884 	bl	8004c7c <HAL_IWDG_Refresh>
 8002b74:	2c00      	cmp	r4, #0
 8002b76:	d011      	beq.n	8002b9c <FAC_std_reciever_init+0x4c>
 8002b78:	3401      	adds	r4, #1
 8002b7a:	b2e0      	uxtb	r0, r4
 8002b7c:	2109      	movs	r1, #9
 8002b7e:	f7fd fc59 	bl	8000434 <__aeabi_idivmod>
 8002b82:	b2cc      	uxtb	r4, r1
 8002b84:	0020      	movs	r0, r4
 8002b86:	f7ff ff6b 	bl	8002a60 <FAC_std_receiver_GET_channel>
 8002b8a:	2800      	cmp	r0, #0
 8002b8c:	d0ef      	beq.n	8002b6e <FAC_std_reciever_init+0x1e>
 8002b8e:	bd70      	pop	{r4, r5, r6, pc}
 8002b90:	f7ff fd6c 	bl	800266c <FAC_pwm_receiver_init>
 8002b94:	e7e9      	b.n	8002b6a <FAC_std_reciever_init+0x1a>
 8002b96:	f7ff fcdf 	bl	8002558 <FAC_ppm_receiver_init>
 8002b9a:	e7e6      	b.n	8002b6a <FAC_std_reciever_init+0x1a>
 8002b9c:	002c      	movs	r4, r5
 8002b9e:	e7f1      	b.n	8002b84 <FAC_std_reciever_init+0x34>
 8002ba0:	200004ac 	.word	0x200004ac
 8002ba4:	20001648 	.word	0x20001648

08002ba8 <HAL_GPIO_EXTI_Callback>:
 8002ba8:	2380      	movs	r3, #128	@ 0x80
 8002baa:	b510      	push	{r4, lr}
 8002bac:	0001      	movs	r1, r0
 8002bae:	0004      	movs	r4, r0
 8002bb0:	021b      	lsls	r3, r3, #8
 8002bb2:	4298      	cmp	r0, r3
 8002bb4:	d10a      	bne.n	8002bcc <HAL_GPIO_EXTI_Callback+0x24>
 8002bb6:	2090      	movs	r0, #144	@ 0x90
 8002bb8:	05c0      	lsls	r0, r0, #23
 8002bba:	f001 fc7b 	bl	80044b4 <HAL_GPIO_ReadPin>
 8002bbe:	4b09      	ldr	r3, [pc, #36]	@ (8002be4 <HAL_GPIO_EXTI_Callback+0x3c>)
 8002bc0:	7c1b      	ldrb	r3, [r3, #16]
 8002bc2:	2b00      	cmp	r3, #0
 8002bc4:	d004      	beq.n	8002bd0 <HAL_GPIO_EXTI_Callback+0x28>
 8002bc6:	2b01      	cmp	r3, #1
 8002bc8:	d006      	beq.n	8002bd8 <HAL_GPIO_EXTI_Callback+0x30>
 8002bca:	bd10      	pop	{r4, pc}
 8002bcc:	4806      	ldr	r0, [pc, #24]	@ (8002be8 <HAL_GPIO_EXTI_Callback+0x40>)
 8002bce:	e7f4      	b.n	8002bba <HAL_GPIO_EXTI_Callback+0x12>
 8002bd0:	0021      	movs	r1, r4
 8002bd2:	f7ff fcd5 	bl	8002580 <FAC_pwm_receiver_Callback>
 8002bd6:	e7f8      	b.n	8002bca <HAL_GPIO_EXTI_Callback+0x22>
 8002bd8:	2c20      	cmp	r4, #32
 8002bda:	d1f6      	bne.n	8002bca <HAL_GPIO_EXTI_Callback+0x22>
 8002bdc:	f7ff fc72 	bl	80024c4 <FAC_ppm_receiver_Callback>
 8002be0:	e7f3      	b.n	8002bca <HAL_GPIO_EXTI_Callback+0x22>
 8002be2:	46c0      	nop			@ (mov r8, r8)
 8002be4:	200004ac 	.word	0x200004ac
 8002be8:	48000400 	.word	0x48000400

08002bec <FAC_functions_GET_output>:
 8002bec:	4b02      	ldr	r3, [pc, #8]	@ (8002bf8 <FAC_functions_GET_output+0xc>)
 8002bee:	3018      	adds	r0, #24
 8002bf0:	0080      	lsls	r0, r0, #2
 8002bf2:	181b      	adds	r3, r3, r0
 8002bf4:	6858      	ldr	r0, [r3, #4]
 8002bf6:	4770      	bx	lr
 8002bf8:	200004c0 	.word	0x200004c0

08002bfc <FAC_functions_GET_input>:
 8002bfc:	4b02      	ldr	r3, [pc, #8]	@ (8002c08 <FAC_functions_GET_input+0xc>)
 8002bfe:	3004      	adds	r0, #4
 8002c00:	0080      	lsls	r0, r0, #2
 8002c02:	181b      	adds	r3, r3, r0
 8002c04:	6858      	ldr	r0, [r3, #4]
 8002c06:	4770      	bx	lr
 8002c08:	200004c0 	.word	0x200004c0

08002c0c <FAC_functions_SET_output>:
 8002c0c:	4b02      	ldr	r3, [pc, #8]	@ (8002c18 <FAC_functions_SET_output+0xc>)
 8002c0e:	3018      	adds	r0, #24
 8002c10:	0080      	lsls	r0, r0, #2
 8002c12:	181b      	adds	r3, r3, r0
 8002c14:	6059      	str	r1, [r3, #4]
 8002c16:	4770      	bx	lr
 8002c18:	200004c0 	.word	0x200004c0

08002c1c <FAC_functions_update_inputs>:
 8002c1c:	b5f7      	push	{r0, r1, r2, r4, r5, r6, r7, lr}
 8002c1e:	4d0d      	ldr	r5, [pc, #52]	@ (8002c54 <FAC_functions_update_inputs+0x38>)
 8002c20:	2400      	movs	r4, #0
 8002c22:	002f      	movs	r7, r5
 8002c24:	5d38      	ldrb	r0, [r7, r4]
 8002c26:	2800      	cmp	r0, #0
 8002c28:	d00f      	beq.n	8002c4a <FAC_functions_update_inputs+0x2e>
 8002c2a:	26fe      	movs	r6, #254	@ 0xfe
 8002c2c:	f7ff ff18 	bl	8002a60 <FAC_std_receiver_GET_channel>
 8002c30:	f7fe fda2 	bl	8001778 <__aeabi_ui2f>
 8002c34:	05b6      	lsls	r6, r6, #22
 8002c36:	4908      	ldr	r1, [pc, #32]	@ (8002c58 <FAC_functions_update_inputs+0x3c>)
 8002c38:	f7fd ffa2 	bl	8000b80 <__aeabi_fdiv>
 8002c3c:	2100      	movs	r1, #0
 8002c3e:	4b07      	ldr	r3, [pc, #28]	@ (8002c5c <FAC_functions_update_inputs+0x40>)
 8002c40:	9600      	str	r6, [sp, #0]
 8002c42:	1c32      	adds	r2, r6, #0
 8002c44:	f7ff f8a8 	bl	8001d98 <map_float>
 8002c48:	6168      	str	r0, [r5, #20]
 8002c4a:	3401      	adds	r4, #1
 8002c4c:	3504      	adds	r5, #4
 8002c4e:	2c14      	cmp	r4, #20
 8002c50:	d1e8      	bne.n	8002c24 <FAC_functions_update_inputs+0x8>
 8002c52:	bdf7      	pop	{r0, r1, r2, r4, r5, r6, r7, pc}
 8002c54:	200004c0 	.word	0x200004c0
 8002c58:	447a0000 	.word	0x447a0000
 8002c5c:	bf800000 	.word	0xbf800000

08002c60 <FAC_functions_update>:
 8002c60:	b510      	push	{r4, lr}
 8002c62:	2807      	cmp	r0, #7
 8002c64:	d801      	bhi.n	8002c6a <FAC_functions_update+0xa>
 8002c66:	f000 f88d 	bl	8002d84 <FAC_direct_link_function_update>
 8002c6a:	bd10      	pop	{r4, pc}

08002c6c <FAC_functions_init>:
 8002c6c:	b570      	push	{r4, r5, r6, lr}
 8002c6e:	4d08      	ldr	r5, [pc, #32]	@ (8002c90 <FAC_functions_init+0x24>)
 8002c70:	2400      	movs	r4, #0
 8002c72:	002e      	movs	r6, r5
 8002c74:	0020      	movs	r0, r4
 8002c76:	3025      	adds	r0, #37	@ 0x25
 8002c78:	b2c0      	uxtb	r0, r0
 8002c7a:	f7ff fddf 	bl	800283c <FAC_settings_GET_value>
 8002c7e:	2300      	movs	r3, #0
 8002c80:	5530      	strb	r0, [r6, r4]
 8002c82:	3401      	adds	r4, #1
 8002c84:	616b      	str	r3, [r5, #20]
 8002c86:	666b      	str	r3, [r5, #100]	@ 0x64
 8002c88:	3504      	adds	r5, #4
 8002c8a:	2c14      	cmp	r4, #20
 8002c8c:	d1f2      	bne.n	8002c74 <FAC_functions_init+0x8>
 8002c8e:	bd70      	pop	{r4, r5, r6, pc}
 8002c90:	200004c0 	.word	0x200004c0

08002c94 <FAC_mixes_GET_output>:
 8002c94:	4b02      	ldr	r3, [pc, #8]	@ (8002ca0 <FAC_mixes_GET_output+0xc>)
 8002c96:	300c      	adds	r0, #12
 8002c98:	0080      	lsls	r0, r0, #2
 8002c9a:	181b      	adds	r3, r3, r0
 8002c9c:	6858      	ldr	r0, [r3, #4]
 8002c9e:	4770      	bx	lr
 8002ca0:	20000574 	.word	0x20000574

08002ca4 <FAC_mixes_GET_input>:
 8002ca4:	4b02      	ldr	r3, [pc, #8]	@ (8002cb0 <FAC_mixes_GET_input+0xc>)
 8002ca6:	3002      	adds	r0, #2
 8002ca8:	0080      	lsls	r0, r0, #2
 8002caa:	181b      	adds	r3, r3, r0
 8002cac:	6858      	ldr	r0, [r3, #4]
 8002cae:	4770      	bx	lr
 8002cb0:	20000574 	.word	0x20000574

08002cb4 <FAC_mixes_update_mix_outputs>:
 8002cb4:	b510      	push	{r4, lr}
 8002cb6:	4b03      	ldr	r3, [pc, #12]	@ (8002cc4 <FAC_mixes_update_mix_outputs+0x10>)
 8002cb8:	0001      	movs	r1, r0
 8002cba:	2228      	movs	r2, #40	@ 0x28
 8002cbc:	0018      	movs	r0, r3
 8002cbe:	f005 fc7b 	bl	80085b8 <memcpy>
 8002cc2:	bd10      	pop	{r4, pc}
 8002cc4:	200005a8 	.word	0x200005a8

08002cc8 <FAC_mixes_update_mix_inputs>:
 8002cc8:	b5f7      	push	{r0, r1, r2, r4, r5, r6, r7, lr}
 8002cca:	4e13      	ldr	r6, [pc, #76]	@ (8002d18 <FAC_mixes_update_mix_inputs+0x50>)
 8002ccc:	2501      	movs	r5, #1
 8002cce:	0037      	movs	r7, r6
 8002cd0:	5d78      	ldrb	r0, [r7, r5]
 8002cd2:	2400      	movs	r4, #0
 8002cd4:	2800      	cmp	r0, #0
 8002cd6:	d019      	beq.n	8002d0c <FAC_mixes_update_mix_inputs+0x44>
 8002cd8:	24fe      	movs	r4, #254	@ 0xfe
 8002cda:	f7ff fec1 	bl	8002a60 <FAC_std_receiver_GET_channel>
 8002cde:	f7fe fd4b 	bl	8001778 <__aeabi_ui2f>
 8002ce2:	05a4      	lsls	r4, r4, #22
 8002ce4:	490d      	ldr	r1, [pc, #52]	@ (8002d1c <FAC_mixes_update_mix_inputs+0x54>)
 8002ce6:	f7fd ff4b 	bl	8000b80 <__aeabi_fdiv>
 8002cea:	9400      	str	r4, [sp, #0]
 8002cec:	1c22      	adds	r2, r4, #0
 8002cee:	2100      	movs	r1, #0
 8002cf0:	4b0b      	ldr	r3, [pc, #44]	@ (8002d20 <FAC_mixes_update_mix_inputs+0x58>)
 8002cf2:	f7ff f851 	bl	8001d98 <map_float>
 8002cf6:	1c04      	adds	r4, r0, #0
 8002cf8:	0028      	movs	r0, r5
 8002cfa:	301c      	adds	r0, #28
 8002cfc:	b2c0      	uxtb	r0, r0
 8002cfe:	f7ff fd9d 	bl	800283c <FAC_settings_GET_value>
 8002d02:	2800      	cmp	r0, #0
 8002d04:	d002      	beq.n	8002d0c <FAC_mixes_update_mix_inputs+0x44>
 8002d06:	2380      	movs	r3, #128	@ 0x80
 8002d08:	061b      	lsls	r3, r3, #24
 8002d0a:	18e4      	adds	r4, r4, r3
 8002d0c:	3501      	adds	r5, #1
 8002d0e:	60f4      	str	r4, [r6, #12]
 8002d10:	3604      	adds	r6, #4
 8002d12:	2d09      	cmp	r5, #9
 8002d14:	d1dc      	bne.n	8002cd0 <FAC_mixes_update_mix_inputs+0x8>
 8002d16:	bdf7      	pop	{r0, r1, r2, r4, r5, r6, r7, pc}
 8002d18:	20000574 	.word	0x20000574
 8002d1c:	447a0000 	.word	0x447a0000
 8002d20:	bf800000 	.word	0xbf800000

08002d24 <FAC_mix_update>:
 8002d24:	4b03      	ldr	r3, [pc, #12]	@ (8002d34 <FAC_mix_update+0x10>)
 8002d26:	b510      	push	{r4, lr}
 8002d28:	781b      	ldrb	r3, [r3, #0]
 8002d2a:	2b01      	cmp	r3, #1
 8002d2c:	d101      	bne.n	8002d32 <FAC_mix_update+0xe>
 8002d2e:	f000 f849 	bl	8002dc4 <FAC_simple_tank_mix_update>
 8002d32:	bd10      	pop	{r4, pc}
 8002d34:	20000574 	.word	0x20000574

08002d38 <FAC_mixes_init>:
 8002d38:	b570      	push	{r4, r5, r6, lr}
 8002d3a:	2014      	movs	r0, #20
 8002d3c:	f7ff fd7e 	bl	800283c <FAC_settings_GET_value>
 8002d40:	4c0e      	ldr	r4, [pc, #56]	@ (8002d7c <FAC_mixes_init+0x44>)
 8002d42:	2515      	movs	r5, #21
 8002d44:	0026      	movs	r6, r4
 8002d46:	7020      	strb	r0, [r4, #0]
 8002d48:	0028      	movs	r0, r5
 8002d4a:	f7ff fd77 	bl	800283c <FAC_settings_GET_value>
 8002d4e:	7060      	strb	r0, [r4, #1]
 8002d50:	0028      	movs	r0, r5
 8002d52:	3008      	adds	r0, #8
 8002d54:	b2c0      	uxtb	r0, r0
 8002d56:	f7ff fd71 	bl	800283c <FAC_settings_GET_value>
 8002d5a:	0023      	movs	r3, r4
 8002d5c:	332c      	adds	r3, #44	@ 0x2c
 8002d5e:	7018      	strb	r0, [r3, #0]
 8002d60:	2300      	movs	r3, #0
 8002d62:	3501      	adds	r5, #1
 8002d64:	b2ed      	uxtb	r5, r5
 8002d66:	60f3      	str	r3, [r6, #12]
 8002d68:	3401      	adds	r4, #1
 8002d6a:	3604      	adds	r6, #4
 8002d6c:	2d1d      	cmp	r5, #29
 8002d6e:	d1eb      	bne.n	8002d48 <FAC_mixes_init+0x10>
 8002d70:	2228      	movs	r2, #40	@ 0x28
 8002d72:	2100      	movs	r1, #0
 8002d74:	4802      	ldr	r0, [pc, #8]	@ (8002d80 <FAC_mixes_init+0x48>)
 8002d76:	f005 fbf2 	bl	800855e <memset>
 8002d7a:	bd70      	pop	{r4, r5, r6, pc}
 8002d7c:	20000574 	.word	0x20000574
 8002d80:	200005a8 	.word	0x200005a8

08002d84 <FAC_direct_link_function_update>:
 8002d84:	b570      	push	{r4, r5, r6, lr}
 8002d86:	0005      	movs	r5, r0
 8002d88:	f7ff ff48 	bl	8002c1c <FAC_functions_update_inputs>
 8002d8c:	0028      	movs	r0, r5
 8002d8e:	f7ff ff35 	bl	8002bfc <FAC_functions_GET_input>
 8002d92:	21fe      	movs	r1, #254	@ 0xfe
 8002d94:	0589      	lsls	r1, r1, #22
 8002d96:	1c04      	adds	r4, r0, #0
 8002d98:	f7fd fb78 	bl	800048c <__aeabi_fcmpgt>
 8002d9c:	2800      	cmp	r0, #0
 8002d9e:	d107      	bne.n	8002db0 <FAC_direct_link_function_update+0x2c>
 8002da0:	4907      	ldr	r1, [pc, #28]	@ (8002dc0 <FAC_direct_link_function_update+0x3c>)
 8002da2:	1c20      	adds	r0, r4, #0
 8002da4:	f7fd fb5e 	bl	8000464 <__aeabi_fcmplt>
 8002da8:	2800      	cmp	r0, #0
 8002daa:	d003      	beq.n	8002db4 <FAC_direct_link_function_update+0x30>
 8002dac:	4c04      	ldr	r4, [pc, #16]	@ (8002dc0 <FAC_direct_link_function_update+0x3c>)
 8002dae:	e001      	b.n	8002db4 <FAC_direct_link_function_update+0x30>
 8002db0:	24fe      	movs	r4, #254	@ 0xfe
 8002db2:	05a4      	lsls	r4, r4, #22
 8002db4:	0028      	movs	r0, r5
 8002db6:	1c21      	adds	r1, r4, #0
 8002db8:	f7ff ff28 	bl	8002c0c <FAC_functions_SET_output>
 8002dbc:	bd70      	pop	{r4, r5, r6, pc}
 8002dbe:	46c0      	nop			@ (mov r8, r8)
 8002dc0:	bf800000 	.word	0xbf800000

08002dc4 <FAC_simple_tank_mix_update>:
 8002dc4:	b5f0      	push	{r4, r5, r6, r7, lr}
 8002dc6:	b093      	sub	sp, #76	@ 0x4c
 8002dc8:	f7ff ff7e 	bl	8002cc8 <FAC_mixes_update_mix_inputs>
 8002dcc:	2228      	movs	r2, #40	@ 0x28
 8002dce:	2100      	movs	r1, #0
 8002dd0:	a808      	add	r0, sp, #32
 8002dd2:	f005 fbc4 	bl	800855e <memset>
 8002dd6:	2400      	movs	r4, #0
 8002dd8:	b2e0      	uxtb	r0, r4
 8002dda:	f7ff ff63 	bl	8002ca4 <FAC_mixes_GET_input>
 8002dde:	466a      	mov	r2, sp
 8002de0:	00a3      	lsls	r3, r4, #2
 8002de2:	3401      	adds	r4, #1
 8002de4:	50d0      	str	r0, [r2, r3]
 8002de6:	2c08      	cmp	r4, #8
 8002de8:	d1f6      	bne.n	8002dd8 <FAC_simple_tank_mix_update+0x14>
 8002dea:	492d      	ldr	r1, [pc, #180]	@ (8002ea0 <FAC_simple_tank_mix_update+0xdc>)
 8002dec:	9800      	ldr	r0, [sp, #0]
 8002dee:	f7fe f895 	bl	8000f1c <__aeabi_fmul>
 8002df2:	f7fe fc51 	bl	8001698 <__aeabi_f2iz>
 8002df6:	492a      	ldr	r1, [pc, #168]	@ (8002ea0 <FAC_simple_tank_mix_update+0xdc>)
 8002df8:	b204      	sxth	r4, r0
 8002dfa:	9801      	ldr	r0, [sp, #4]
 8002dfc:	f7fe f88e 	bl	8000f1c <__aeabi_fmul>
 8002e00:	f7fe fc4a 	bl	8001698 <__aeabi_f2iz>
 8002e04:	b2a5      	uxth	r5, r4
 8002e06:	b207      	sxth	r7, r0
 8002e08:	b280      	uxth	r0, r0
 8002e0a:	182e      	adds	r6, r5, r0
 8002e0c:	1a2d      	subs	r5, r5, r0
 8002e0e:	17e0      	asrs	r0, r4, #31
 8002e10:	1823      	adds	r3, r4, r0
 8002e12:	4043      	eors	r3, r0
 8002e14:	17f8      	asrs	r0, r7, #31
 8002e16:	183f      	adds	r7, r7, r0
 8002e18:	4047      	eors	r7, r0
 8002e1a:	1bdb      	subs	r3, r3, r7
 8002e1c:	b21b      	sxth	r3, r3
 8002e1e:	17d8      	asrs	r0, r3, #31
 8002e20:	181b      	adds	r3, r3, r0
 8002e22:	4043      	eors	r3, r0
 8002e24:	b2a9      	uxth	r1, r5
 8002e26:	b2b2      	uxth	r2, r6
 8002e28:	b22d      	sxth	r5, r5
 8002e2a:	b29b      	uxth	r3, r3
 8002e2c:	0436      	lsls	r6, r6, #16
 8002e2e:	d529      	bpl.n	8002e84 <FAC_simple_tank_mix_update+0xc0>
 8002e30:	1ad2      	subs	r2, r2, r3
 8002e32:	b210      	sxth	r0, r2
 8002e34:	2d00      	cmp	r5, #0
 8002e36:	da27      	bge.n	8002e88 <FAC_simple_tank_mix_update+0xc4>
 8002e38:	1acb      	subs	r3, r1, r3
 8002e3a:	b21c      	sxth	r4, r3
 8002e3c:	f7fe fc4c 	bl	80016d8 <__aeabi_i2f>
 8002e40:	4918      	ldr	r1, [pc, #96]	@ (8002ea4 <FAC_simple_tank_mix_update+0xe0>)
 8002e42:	f7fd fe9d 	bl	8000b80 <__aeabi_fdiv>
 8002e46:	9008      	str	r0, [sp, #32]
 8002e48:	0020      	movs	r0, r4
 8002e4a:	f7fe fc45 	bl	80016d8 <__aeabi_i2f>
 8002e4e:	4915      	ldr	r1, [pc, #84]	@ (8002ea4 <FAC_simple_tank_mix_update+0xe0>)
 8002e50:	f7fd fe96 	bl	8000b80 <__aeabi_fdiv>
 8002e54:	2500      	movs	r5, #0
 8002e56:	4f14      	ldr	r7, [pc, #80]	@ (8002ea8 <FAC_simple_tank_mix_update+0xe4>)
 8002e58:	9009      	str	r0, [sp, #36]	@ 0x24
 8002e5a:	ac08      	add	r4, sp, #32
 8002e5c:	21fe      	movs	r1, #254	@ 0xfe
 8002e5e:	6826      	ldr	r6, [r4, #0]
 8002e60:	0589      	lsls	r1, r1, #22
 8002e62:	1c30      	adds	r0, r6, #0
 8002e64:	f7fd fb12 	bl	800048c <__aeabi_fcmpgt>
 8002e68:	2800      	cmp	r0, #0
 8002e6a:	d010      	beq.n	8002e8e <FAC_simple_tank_mix_update+0xca>
 8002e6c:	23fe      	movs	r3, #254	@ 0xfe
 8002e6e:	059b      	lsls	r3, r3, #22
 8002e70:	6023      	str	r3, [r4, #0]
 8002e72:	3501      	adds	r5, #1
 8002e74:	3404      	adds	r4, #4
 8002e76:	2d0a      	cmp	r5, #10
 8002e78:	d1f0      	bne.n	8002e5c <FAC_simple_tank_mix_update+0x98>
 8002e7a:	a808      	add	r0, sp, #32
 8002e7c:	f7ff ff1a 	bl	8002cb4 <FAC_mixes_update_mix_outputs>
 8002e80:	b013      	add	sp, #76	@ 0x4c
 8002e82:	bdf0      	pop	{r4, r5, r6, r7, pc}
 8002e84:	18d2      	adds	r2, r2, r3
 8002e86:	e7d4      	b.n	8002e32 <FAC_simple_tank_mix_update+0x6e>
 8002e88:	18c9      	adds	r1, r1, r3
 8002e8a:	b20c      	sxth	r4, r1
 8002e8c:	e7d6      	b.n	8002e3c <FAC_simple_tank_mix_update+0x78>
 8002e8e:	4906      	ldr	r1, [pc, #24]	@ (8002ea8 <FAC_simple_tank_mix_update+0xe4>)
 8002e90:	1c30      	adds	r0, r6, #0
 8002e92:	f7fd fae7 	bl	8000464 <__aeabi_fcmplt>
 8002e96:	2800      	cmp	r0, #0
 8002e98:	d0eb      	beq.n	8002e72 <FAC_simple_tank_mix_update+0xae>
 8002e9a:	6027      	str	r7, [r4, #0]
 8002e9c:	e7e9      	b.n	8002e72 <FAC_simple_tank_mix_update+0xae>
 8002e9e:	46c0      	nop			@ (mov r8, r8)
 8002ea0:	447a0000 	.word	0x447a0000
 8002ea4:	44fa0000 	.word	0x44fa0000
 8002ea8:	bf800000 	.word	0xbf800000

08002eac <FAC_DMA_pwm_change_freq>:
 8002eac:	21fa      	movs	r1, #250	@ 0xfa
 8002eae:	b570      	push	{r4, r5, r6, lr}
 8002eb0:	4b07      	ldr	r3, [pc, #28]	@ (8002ed0 <FAC_DMA_pwm_change_freq+0x24>)
 8002eb2:	4c08      	ldr	r4, [pc, #32]	@ (8002ed4 <FAC_DMA_pwm_change_freq+0x28>)
 8002eb4:	0089      	lsls	r1, r1, #2
 8002eb6:	4341      	muls	r1, r0
 8002eb8:	60e3      	str	r3, [r4, #12]
 8002eba:	4807      	ldr	r0, [pc, #28]	@ (8002ed8 <FAC_DMA_pwm_change_freq+0x2c>)
 8002ebc:	f7fd f9d4 	bl	8000268 <__divsi3>
 8002ec0:	6825      	ldr	r5, [r4, #0]
 8002ec2:	3801      	subs	r0, #1
 8002ec4:	62e8      	str	r0, [r5, #44]	@ 0x2c
 8002ec6:	0020      	movs	r0, r4
 8002ec8:	f003 fa3e 	bl	8006348 <HAL_TIM_Base_Start>
 8002ecc:	bd70      	pop	{r4, r5, r6, pc}
 8002ece:	46c0      	nop			@ (mov r8, r8)
 8002ed0:	02dc6bff 	.word	0x02dc6bff
 8002ed4:	20001790 	.word	0x20001790
 8002ed8:	02dc6c00 	.word	0x02dc6c00

08002edc <initDMApwm>:
 8002edc:	b570      	push	{r4, r5, r6, lr}
 8002ede:	26fa      	movs	r6, #250	@ 0xfa
 8002ee0:	0001      	movs	r1, r0
 8002ee2:	4c11      	ldr	r4, [pc, #68]	@ (8002f28 <initDMApwm+0x4c>)
 8002ee4:	4b11      	ldr	r3, [pc, #68]	@ (8002f2c <initDMApwm+0x50>)
 8002ee6:	00b6      	lsls	r6, r6, #2
 8002ee8:	4371      	muls	r1, r6
 8002eea:	60e3      	str	r3, [r4, #12]
 8002eec:	4810      	ldr	r0, [pc, #64]	@ (8002f30 <initDMApwm+0x54>)
 8002eee:	f7fd f9bb 	bl	8000268 <__divsi3>
 8002ef2:	6825      	ldr	r5, [r4, #0]
 8002ef4:	3801      	subs	r0, #1
 8002ef6:	62e8      	str	r0, [r5, #44]	@ 0x2c
 8002ef8:	0020      	movs	r0, r4
 8002efa:	f003 fa25 	bl	8006348 <HAL_TIM_Base_Start>
 8002efe:	4d0d      	ldr	r5, [pc, #52]	@ (8002f34 <initDMApwm+0x58>)
 8002f00:	0033      	movs	r3, r6
 8002f02:	0029      	movs	r1, r5
 8002f04:	4a0c      	ldr	r2, [pc, #48]	@ (8002f38 <initDMApwm+0x5c>)
 8002f06:	480d      	ldr	r0, [pc, #52]	@ (8002f3c <initDMApwm+0x60>)
 8002f08:	f001 f962 	bl	80041d0 <HAL_DMA_Start>
 8002f0c:	2380      	movs	r3, #128	@ 0x80
 8002f0e:	6822      	ldr	r2, [r4, #0]
 8002f10:	005b      	lsls	r3, r3, #1
 8002f12:	68d1      	ldr	r1, [r2, #12]
 8002f14:	0028      	movs	r0, r5
 8002f16:	430b      	orrs	r3, r1
 8002f18:	60d3      	str	r3, [r2, #12]
 8002f1a:	22fa      	movs	r2, #250	@ 0xfa
 8002f1c:	2100      	movs	r1, #0
 8002f1e:	0112      	lsls	r2, r2, #4
 8002f20:	f005 fb1d 	bl	800855e <memset>
 8002f24:	bd70      	pop	{r4, r5, r6, pc}
 8002f26:	46c0      	nop			@ (mov r8, r8)
 8002f28:	20001790 	.word	0x20001790
 8002f2c:	02dc6bff 	.word	0x02dc6bff
 8002f30:	02dc6c00 	.word	0x02dc6c00
 8002f34:	200005d0 	.word	0x200005d0
 8002f38:	48000018 	.word	0x48000018
 8002f3c:	200016bc 	.word	0x200016bc

08002f40 <setDMApwmDuty>:
 8002f40:	2390      	movs	r3, #144	@ 0x90
 8002f42:	b5f0      	push	{r4, r5, r6, r7, lr}
 8002f44:	05db      	lsls	r3, r3, #23
 8002f46:	0004      	movs	r4, r0
 8002f48:	2000      	movs	r0, #0
 8002f4a:	429c      	cmp	r4, r3
 8002f4c:	d110      	bne.n	8002f70 <setDMApwmDuty+0x30>
 8002f4e:	43cb      	mvns	r3, r1
 8002f50:	040d      	lsls	r5, r1, #16
 8002f52:	43ef      	mvns	r7, r5
 8002f54:	469c      	mov	ip, r3
 8002f56:	4c09      	ldr	r4, [pc, #36]	@ (8002f7c <setDMApwmDuty+0x3c>)
 8002f58:	6823      	ldr	r3, [r4, #0]
 8002f5a:	4282      	cmp	r2, r0
 8002f5c:	d909      	bls.n	8002f72 <setDMApwmDuty+0x32>
 8002f5e:	403b      	ands	r3, r7
 8002f60:	430b      	orrs	r3, r1
 8002f62:	c408      	stmia	r4!, {r3}
 8002f64:	23fa      	movs	r3, #250	@ 0xfa
 8002f66:	3001      	adds	r0, #1
 8002f68:	009b      	lsls	r3, r3, #2
 8002f6a:	4298      	cmp	r0, r3
 8002f6c:	d1f4      	bne.n	8002f58 <setDMApwmDuty+0x18>
 8002f6e:	2001      	movs	r0, #1
 8002f70:	bdf0      	pop	{r4, r5, r6, r7, pc}
 8002f72:	4666      	mov	r6, ip
 8002f74:	4033      	ands	r3, r6
 8002f76:	432b      	orrs	r3, r5
 8002f78:	e7f3      	b.n	8002f62 <setDMApwmDuty+0x22>
 8002f7a:	46c0      	nop			@ (mov r8, r8)
 8002f7c:	200005d0 	.word	0x200005d0

08002f80 <read_two_consecutive_registers>:
 8002f80:	2364      	movs	r3, #100	@ 0x64
 8002f82:	b510      	push	{r4, lr}
 8002f84:	b086      	sub	sp, #24
 8002f86:	9302      	str	r3, [sp, #8]
 8002f88:	ac05      	add	r4, sp, #20
 8002f8a:	3b62      	subs	r3, #98	@ 0x62
 8002f8c:	9301      	str	r3, [sp, #4]
 8002f8e:	9400      	str	r4, [sp, #0]
 8002f90:	000a      	movs	r2, r1
 8002f92:	3b01      	subs	r3, #1
 8002f94:	216a      	movs	r1, #106	@ 0x6a
 8002f96:	6800      	ldr	r0, [r0, #0]
 8002f98:	f001 fd16 	bl	80049c8 <HAL_I2C_Mem_Read>
 8002f9c:	8820      	ldrh	r0, [r4, #0]
 8002f9e:	b006      	add	sp, #24
 8002fa0:	bd10      	pop	{r4, pc}

08002fa2 <write_register>:
 8002fa2:	b510      	push	{r4, lr}
 8002fa4:	2417      	movs	r4, #23
 8002fa6:	2364      	movs	r3, #100	@ 0x64
 8002fa8:	b086      	sub	sp, #24
 8002faa:	446c      	add	r4, sp
 8002fac:	7022      	strb	r2, [r4, #0]
 8002fae:	9302      	str	r3, [sp, #8]
 8002fb0:	3b63      	subs	r3, #99	@ 0x63
 8002fb2:	9301      	str	r3, [sp, #4]
 8002fb4:	9400      	str	r4, [sp, #0]
 8002fb6:	000a      	movs	r2, r1
 8002fb8:	6800      	ldr	r0, [r0, #0]
 8002fba:	216a      	movs	r1, #106	@ 0x6a
 8002fbc:	f001 fc2a 	bl	8004814 <HAL_I2C_Mem_Write>
 8002fc0:	b006      	add	sp, #24
 8002fc2:	bd10      	pop	{r4, pc}

08002fc4 <LSM6DS3_init>:
 8002fc4:	b5f0      	push	{r4, r5, r6, r7, lr}
 8002fc6:	000d      	movs	r5, r1
 8002fc8:	0004      	movs	r4, r0
 8002fca:	b087      	sub	sp, #28
 8002fcc:	200f      	movs	r0, #15
 8002fce:	f000 fe09 	bl	8003be4 <HAL_Delay>
 8002fd2:	2717      	movs	r7, #23
 8002fd4:	0028      	movs	r0, r5
 8002fd6:	6025      	str	r5, [r4, #0]
 8002fd8:	f001 fbbe 	bl	8004758 <HAL_I2C_Init>
 8002fdc:	2501      	movs	r5, #1
 8002fde:	2364      	movs	r3, #100	@ 0x64
 8002fe0:	2600      	movs	r6, #0
 8002fe2:	446f      	add	r7, sp
 8002fe4:	703e      	strb	r6, [r7, #0]
 8002fe6:	9302      	str	r3, [sp, #8]
 8002fe8:	9501      	str	r5, [sp, #4]
 8002fea:	9700      	str	r7, [sp, #0]
 8002fec:	002b      	movs	r3, r5
 8002fee:	220f      	movs	r2, #15
 8002ff0:	216a      	movs	r1, #106	@ 0x6a
 8002ff2:	6820      	ldr	r0, [r4, #0]
 8002ff4:	f001 fce8 	bl	80049c8 <HAL_I2C_Mem_Read>
 8002ff8:	783b      	ldrb	r3, [r7, #0]
 8002ffa:	0028      	movs	r0, r5
 8002ffc:	2b69      	cmp	r3, #105	@ 0x69
 8002ffe:	d107      	bne.n	8003010 <LSM6DS3_init+0x4c>
 8003000:	2244      	movs	r2, #68	@ 0x44
 8003002:	2112      	movs	r1, #18
 8003004:	0020      	movs	r0, r4
 8003006:	f7ff ffcc 	bl	8002fa2 <write_register>
 800300a:	0030      	movs	r0, r6
 800300c:	61e6      	str	r6, [r4, #28]
 800300e:	8426      	strh	r6, [r4, #32]
 8003010:	b007      	add	sp, #28
 8003012:	bdf0      	pop	{r4, r5, r6, r7, pc}

08003014 <LSM6DS3_init_accel>:
 8003014:	b510      	push	{r4, lr}
 8003016:	2264      	movs	r2, #100	@ 0x64
 8003018:	2110      	movs	r1, #16
 800301a:	f7ff ffc2 	bl	8002fa2 <write_register>
 800301e:	0004      	movs	r4, r0
 8003020:	2014      	movs	r0, #20
 8003022:	f000 fddf 	bl	8003be4 <HAL_Delay>
 8003026:	0020      	movs	r0, r4
 8003028:	bd10      	pop	{r4, pc}

0800302a <LSM6DS3_init_gyro>:
 800302a:	b510      	push	{r4, lr}
 800302c:	226c      	movs	r2, #108	@ 0x6c
 800302e:	2111      	movs	r1, #17
 8003030:	f7ff ffb7 	bl	8002fa2 <write_register>
 8003034:	0004      	movs	r4, r0
 8003036:	2014      	movs	r0, #20
 8003038:	f000 fdd4 	bl	8003be4 <HAL_Delay>
 800303c:	0020      	movs	r0, r4
 800303e:	bd10      	pop	{r4, pc}

08003040 <LSM6DS3_update_accelerometer_single_value>:
 8003040:	b510      	push	{r4, lr}
 8003042:	0004      	movs	r4, r0
 8003044:	2901      	cmp	r1, #1
 8003046:	d011      	beq.n	800306c <LSM6DS3_update_accelerometer_single_value+0x2c>
 8003048:	2902      	cmp	r1, #2
 800304a:	d01d      	beq.n	8003088 <LSM6DS3_update_accelerometer_single_value+0x48>
 800304c:	2900      	cmp	r1, #0
 800304e:	d10c      	bne.n	800306a <LSM6DS3_update_accelerometer_single_value+0x2a>
 8003050:	3128      	adds	r1, #40	@ 0x28
 8003052:	f7ff ff95 	bl	8002f80 <read_two_consecutive_registers>
 8003056:	b200      	sxth	r0, r0
 8003058:	f7fe fb3e 	bl	80016d8 <__aeabi_i2f>
 800305c:	4911      	ldr	r1, [pc, #68]	@ (80030a4 <LSM6DS3_update_accelerometer_single_value+0x64>)
 800305e:	f7fd ff5d 	bl	8000f1c <__aeabi_fmul>
 8003062:	4911      	ldr	r1, [pc, #68]	@ (80030a8 <LSM6DS3_update_accelerometer_single_value+0x68>)
 8003064:	f7fd fd8c 	bl	8000b80 <__aeabi_fdiv>
 8003068:	6060      	str	r0, [r4, #4]
 800306a:	bd10      	pop	{r4, pc}
 800306c:	212a      	movs	r1, #42	@ 0x2a
 800306e:	f7ff ff87 	bl	8002f80 <read_two_consecutive_registers>
 8003072:	b200      	sxth	r0, r0
 8003074:	f7fe fb30 	bl	80016d8 <__aeabi_i2f>
 8003078:	490a      	ldr	r1, [pc, #40]	@ (80030a4 <LSM6DS3_update_accelerometer_single_value+0x64>)
 800307a:	f7fd ff4f 	bl	8000f1c <__aeabi_fmul>
 800307e:	490a      	ldr	r1, [pc, #40]	@ (80030a8 <LSM6DS3_update_accelerometer_single_value+0x68>)
 8003080:	f7fd fd7e 	bl	8000b80 <__aeabi_fdiv>
 8003084:	60a0      	str	r0, [r4, #8]
 8003086:	e7f0      	b.n	800306a <LSM6DS3_update_accelerometer_single_value+0x2a>
 8003088:	212c      	movs	r1, #44	@ 0x2c
 800308a:	f7ff ff79 	bl	8002f80 <read_two_consecutive_registers>
 800308e:	b200      	sxth	r0, r0
 8003090:	f7fe fb22 	bl	80016d8 <__aeabi_i2f>
 8003094:	4903      	ldr	r1, [pc, #12]	@ (80030a4 <LSM6DS3_update_accelerometer_single_value+0x64>)
 8003096:	f7fd ff41 	bl	8000f1c <__aeabi_fmul>
 800309a:	4903      	ldr	r1, [pc, #12]	@ (80030a8 <LSM6DS3_update_accelerometer_single_value+0x68>)
 800309c:	f7fd fd70 	bl	8000b80 <__aeabi_fdiv>
 80030a0:	60e0      	str	r0, [r4, #12]
 80030a2:	e7e2      	b.n	800306a <LSM6DS3_update_accelerometer_single_value+0x2a>
 80030a4:	3ef9db23 	.word	0x3ef9db23
 80030a8:	447a0000 	.word	0x447a0000

080030ac <LSM6DS3_calculate_offset>:
 80030ac:	b5f7      	push	{r0, r1, r2, r4, r5, r6, r7, lr}
 80030ae:	2400      	movs	r4, #0
 80030b0:	0006      	movs	r6, r0
 80030b2:	27c8      	movs	r7, #200	@ 0xc8
 80030b4:	0025      	movs	r5, r4
 80030b6:	9401      	str	r4, [sp, #4]
 80030b8:	2122      	movs	r1, #34	@ 0x22
 80030ba:	0030      	movs	r0, r6
 80030bc:	f7ff ff60 	bl	8002f80 <read_two_consecutive_registers>
 80030c0:	2124      	movs	r1, #36	@ 0x24
 80030c2:	1945      	adds	r5, r0, r5
 80030c4:	0030      	movs	r0, r6
 80030c6:	f7ff ff5b 	bl	8002f80 <read_two_consecutive_registers>
 80030ca:	9b01      	ldr	r3, [sp, #4]
 80030cc:	2126      	movs	r1, #38	@ 0x26
 80030ce:	18c0      	adds	r0, r0, r3
 80030d0:	b203      	sxth	r3, r0
 80030d2:	0030      	movs	r0, r6
 80030d4:	9301      	str	r3, [sp, #4]
 80030d6:	f7ff ff53 	bl	8002f80 <read_two_consecutive_registers>
 80030da:	b22d      	sxth	r5, r5
 80030dc:	0feb      	lsrs	r3, r5, #31
 80030de:	195d      	adds	r5, r3, r5
 80030e0:	9b01      	ldr	r3, [sp, #4]
 80030e2:	9a01      	ldr	r2, [sp, #4]
 80030e4:	1900      	adds	r0, r0, r4
 80030e6:	b200      	sxth	r0, r0
 80030e8:	0fdb      	lsrs	r3, r3, #31
 80030ea:	189b      	adds	r3, r3, r2
 80030ec:	0fc4      	lsrs	r4, r0, #31
 80030ee:	105b      	asrs	r3, r3, #1
 80030f0:	1824      	adds	r4, r4, r0
 80030f2:	2005      	movs	r0, #5
 80030f4:	9301      	str	r3, [sp, #4]
 80030f6:	3f01      	subs	r7, #1
 80030f8:	f000 fd74 	bl	8003be4 <HAL_Delay>
 80030fc:	4807      	ldr	r0, [pc, #28]	@ (800311c <LSM6DS3_calculate_offset+0x70>)
 80030fe:	f001 fdbd 	bl	8004c7c <HAL_IWDG_Refresh>
 8003102:	106d      	asrs	r5, r5, #1
 8003104:	1064      	asrs	r4, r4, #1
 8003106:	2f00      	cmp	r7, #0
 8003108:	d1d6      	bne.n	80030b8 <LSM6DS3_calculate_offset+0xc>
 800310a:	9b01      	ldr	r3, [sp, #4]
 800310c:	426d      	negs	r5, r5
 800310e:	425b      	negs	r3, r3
 8003110:	4264      	negs	r4, r4
 8003112:	83b5      	strh	r5, [r6, #28]
 8003114:	83f3      	strh	r3, [r6, #30]
 8003116:	8434      	strh	r4, [r6, #32]
 8003118:	bdf7      	pop	{r0, r1, r2, r4, r5, r6, r7, pc}
 800311a:	46c0      	nop			@ (mov r8, r8)
 800311c:	20001648 	.word	0x20001648

08003120 <MX_ADC_Init>:
 8003120:	b530      	push	{r4, r5, lr}
 8003122:	b085      	sub	sp, #20
 8003124:	220c      	movs	r2, #12
 8003126:	2100      	movs	r1, #0
 8003128:	a801      	add	r0, sp, #4
 800312a:	f005 fa18 	bl	800855e <memset>
 800312e:	2208      	movs	r2, #8
 8003130:	4c1a      	ldr	r4, [pc, #104]	@ (800319c <MX_ADC_Init+0x7c>)
 8003132:	4b1b      	ldr	r3, [pc, #108]	@ (80031a0 <MX_ADC_Init+0x80>)
 8003134:	6162      	str	r2, [r4, #20]
 8003136:	2280      	movs	r2, #128	@ 0x80
 8003138:	0252      	lsls	r2, r2, #9
 800313a:	61a2      	str	r2, [r4, #24]
 800313c:	22c2      	movs	r2, #194	@ 0xc2
 800313e:	2500      	movs	r5, #0
 8003140:	6023      	str	r3, [r4, #0]
 8003142:	2301      	movs	r3, #1
 8003144:	32ff      	adds	r2, #255	@ 0xff
 8003146:	61e2      	str	r2, [r4, #28]
 8003148:	0020      	movs	r0, r4
 800314a:	1d62      	adds	r2, r4, #5
 800314c:	6065      	str	r5, [r4, #4]
 800314e:	60a5      	str	r5, [r4, #8]
 8003150:	60e5      	str	r5, [r4, #12]
 8003152:	6123      	str	r3, [r4, #16]
 8003154:	6225      	str	r5, [r4, #32]
 8003156:	77d3      	strb	r3, [r2, #31]
 8003158:	62a3      	str	r3, [r4, #40]	@ 0x28
 800315a:	f000 fda5 	bl	8003ca8 <HAL_ADC_Init>
 800315e:	42a8      	cmp	r0, r5
 8003160:	d001      	beq.n	8003166 <MX_ADC_Init+0x46>
 8003162:	f000 fa07 	bl	8003574 <Error_Handler>
 8003166:	2380      	movs	r3, #128	@ 0x80
 8003168:	015b      	lsls	r3, r3, #5
 800316a:	9302      	str	r3, [sp, #8]
 800316c:	2305      	movs	r3, #5
 800316e:	0020      	movs	r0, r4
 8003170:	a901      	add	r1, sp, #4
 8003172:	9501      	str	r5, [sp, #4]
 8003174:	9303      	str	r3, [sp, #12]
 8003176:	f000 fed1 	bl	8003f1c <HAL_ADC_ConfigChannel>
 800317a:	2800      	cmp	r0, #0
 800317c:	d001      	beq.n	8003182 <MX_ADC_Init+0x62>
 800317e:	f000 f9f9 	bl	8003574 <Error_Handler>
 8003182:	2301      	movs	r3, #1
 8003184:	0020      	movs	r0, r4
 8003186:	a901      	add	r1, sp, #4
 8003188:	9301      	str	r3, [sp, #4]
 800318a:	f000 fec7 	bl	8003f1c <HAL_ADC_ConfigChannel>
 800318e:	2800      	cmp	r0, #0
 8003190:	d001      	beq.n	8003196 <MX_ADC_Init+0x76>
 8003192:	f000 f9ef 	bl	8003574 <Error_Handler>
 8003196:	b005      	add	sp, #20
 8003198:	bd30      	pop	{r4, r5, pc}
 800319a:	46c0      	nop			@ (mov r8, r8)
 800319c:	200015b4 	.word	0x200015b4
 80031a0:	40012400 	.word	0x40012400

080031a4 <HAL_ADC_MspInit>:
 80031a4:	b530      	push	{r4, r5, lr}
 80031a6:	0005      	movs	r5, r0
 80031a8:	b089      	sub	sp, #36	@ 0x24
 80031aa:	2214      	movs	r2, #20
 80031ac:	2100      	movs	r1, #0
 80031ae:	a803      	add	r0, sp, #12
 80031b0:	f005 f9d5 	bl	800855e <memset>
 80031b4:	4b1c      	ldr	r3, [pc, #112]	@ (8003228 <HAL_ADC_MspInit+0x84>)
 80031b6:	682a      	ldr	r2, [r5, #0]
 80031b8:	429a      	cmp	r2, r3
 80031ba:	d133      	bne.n	8003224 <HAL_ADC_MspInit+0x80>
 80031bc:	2180      	movs	r1, #128	@ 0x80
 80031be:	4b1b      	ldr	r3, [pc, #108]	@ (800322c <HAL_ADC_MspInit+0x88>)
 80031c0:	0089      	lsls	r1, r1, #2
 80031c2:	699a      	ldr	r2, [r3, #24]
 80031c4:	2090      	movs	r0, #144	@ 0x90
 80031c6:	430a      	orrs	r2, r1
 80031c8:	619a      	str	r2, [r3, #24]
 80031ca:	699a      	ldr	r2, [r3, #24]
 80031cc:	05c0      	lsls	r0, r0, #23
 80031ce:	400a      	ands	r2, r1
 80031d0:	2180      	movs	r1, #128	@ 0x80
 80031d2:	9201      	str	r2, [sp, #4]
 80031d4:	9a01      	ldr	r2, [sp, #4]
 80031d6:	695a      	ldr	r2, [r3, #20]
 80031d8:	0289      	lsls	r1, r1, #10
 80031da:	430a      	orrs	r2, r1
 80031dc:	615a      	str	r2, [r3, #20]
 80031de:	695b      	ldr	r3, [r3, #20]
 80031e0:	400b      	ands	r3, r1
 80031e2:	9302      	str	r3, [sp, #8]
 80031e4:	9b02      	ldr	r3, [sp, #8]
 80031e6:	2303      	movs	r3, #3
 80031e8:	a903      	add	r1, sp, #12
 80031ea:	9303      	str	r3, [sp, #12]
 80031ec:	9304      	str	r3, [sp, #16]
 80031ee:	f001 f8a3 	bl	8004338 <HAL_GPIO_Init>
 80031f2:	2280      	movs	r2, #128	@ 0x80
 80031f4:	4c0e      	ldr	r4, [pc, #56]	@ (8003230 <HAL_ADC_MspInit+0x8c>)
 80031f6:	4b0f      	ldr	r3, [pc, #60]	@ (8003234 <HAL_ADC_MspInit+0x90>)
 80031f8:	60e2      	str	r2, [r4, #12]
 80031fa:	1892      	adds	r2, r2, r2
 80031fc:	6122      	str	r2, [r4, #16]
 80031fe:	2280      	movs	r2, #128	@ 0x80
 8003200:	00d2      	lsls	r2, r2, #3
 8003202:	6023      	str	r3, [r4, #0]
 8003204:	6162      	str	r2, [r4, #20]
 8003206:	2300      	movs	r3, #0
 8003208:	2220      	movs	r2, #32
 800320a:	0020      	movs	r0, r4
 800320c:	6063      	str	r3, [r4, #4]
 800320e:	60a3      	str	r3, [r4, #8]
 8003210:	61a2      	str	r2, [r4, #24]
 8003212:	61e3      	str	r3, [r4, #28]
 8003214:	f000 ffaa 	bl	800416c <HAL_DMA_Init>
 8003218:	2800      	cmp	r0, #0
 800321a:	d001      	beq.n	8003220 <HAL_ADC_MspInit+0x7c>
 800321c:	f000 f9aa 	bl	8003574 <Error_Handler>
 8003220:	632c      	str	r4, [r5, #48]	@ 0x30
 8003222:	6265      	str	r5, [r4, #36]	@ 0x24
 8003224:	b009      	add	sp, #36	@ 0x24
 8003226:	bd30      	pop	{r4, r5, pc}
 8003228:	40012400 	.word	0x40012400
 800322c:	40021000 	.word	0x40021000
 8003230:	20001570 	.word	0x20001570
 8003234:	40020008 	.word	0x40020008

08003238 <MX_DMA_Init>:
 8003238:	b507      	push	{r0, r1, r2, lr}
 800323a:	2101      	movs	r1, #1
 800323c:	4b0c      	ldr	r3, [pc, #48]	@ (8003270 <MX_DMA_Init+0x38>)
 800323e:	2009      	movs	r0, #9
 8003240:	695a      	ldr	r2, [r3, #20]
 8003242:	430a      	orrs	r2, r1
 8003244:	615a      	str	r2, [r3, #20]
 8003246:	2200      	movs	r2, #0
 8003248:	695b      	ldr	r3, [r3, #20]
 800324a:	400b      	ands	r3, r1
 800324c:	9301      	str	r3, [sp, #4]
 800324e:	0011      	movs	r1, r2
 8003250:	9b01      	ldr	r3, [sp, #4]
 8003252:	f000 ff3b 	bl	80040cc <HAL_NVIC_SetPriority>
 8003256:	2009      	movs	r0, #9
 8003258:	f000 ff62 	bl	8004120 <HAL_NVIC_EnableIRQ>
 800325c:	2200      	movs	r2, #0
 800325e:	200b      	movs	r0, #11
 8003260:	0011      	movs	r1, r2
 8003262:	f000 ff33 	bl	80040cc <HAL_NVIC_SetPriority>
 8003266:	200b      	movs	r0, #11
 8003268:	f000 ff5a 	bl	8004120 <HAL_NVIC_EnableIRQ>
 800326c:	bd07      	pop	{r0, r1, r2, pc}
 800326e:	46c0      	nop			@ (mov r8, r8)
 8003270:	40021000 	.word	0x40021000

08003274 <MX_GPIO_Init>:
 8003274:	b5f0      	push	{r4, r5, r6, r7, lr}
 8003276:	b08b      	sub	sp, #44	@ 0x2c
 8003278:	2214      	movs	r2, #20
 800327a:	2100      	movs	r1, #0
 800327c:	a805      	add	r0, sp, #20
 800327e:	f005 f96e 	bl	800855e <memset>
 8003282:	2180      	movs	r1, #128	@ 0x80
 8003284:	4b41      	ldr	r3, [pc, #260]	@ (800338c <MX_GPIO_Init+0x118>)
 8003286:	0309      	lsls	r1, r1, #12
 8003288:	695a      	ldr	r2, [r3, #20]
 800328a:	2480      	movs	r4, #128	@ 0x80
 800328c:	430a      	orrs	r2, r1
 800328e:	615a      	str	r2, [r3, #20]
 8003290:	695a      	ldr	r2, [r3, #20]
 8003292:	4f3f      	ldr	r7, [pc, #252]	@ (8003390 <MX_GPIO_Init+0x11c>)
 8003294:	400a      	ands	r2, r1
 8003296:	2180      	movs	r1, #128	@ 0x80
 8003298:	9201      	str	r2, [sp, #4]
 800329a:	9a01      	ldr	r2, [sp, #4]
 800329c:	695a      	ldr	r2, [r3, #20]
 800329e:	03c9      	lsls	r1, r1, #15
 80032a0:	430a      	orrs	r2, r1
 80032a2:	615a      	str	r2, [r3, #20]
 80032a4:	695a      	ldr	r2, [r3, #20]
 80032a6:	01e4      	lsls	r4, r4, #7
 80032a8:	400a      	ands	r2, r1
 80032aa:	2180      	movs	r1, #128	@ 0x80
 80032ac:	9202      	str	r2, [sp, #8]
 80032ae:	9a02      	ldr	r2, [sp, #8]
 80032b0:	695a      	ldr	r2, [r3, #20]
 80032b2:	0289      	lsls	r1, r1, #10
 80032b4:	430a      	orrs	r2, r1
 80032b6:	615a      	str	r2, [r3, #20]
 80032b8:	695a      	ldr	r2, [r3, #20]
 80032ba:	4836      	ldr	r0, [pc, #216]	@ (8003394 <MX_GPIO_Init+0x120>)
 80032bc:	400a      	ands	r2, r1
 80032be:	2180      	movs	r1, #128	@ 0x80
 80032c0:	9203      	str	r2, [sp, #12]
 80032c2:	9a03      	ldr	r2, [sp, #12]
 80032c4:	695a      	ldr	r2, [r3, #20]
 80032c6:	02c9      	lsls	r1, r1, #11
 80032c8:	430a      	orrs	r2, r1
 80032ca:	615a      	str	r2, [r3, #20]
 80032cc:	695b      	ldr	r3, [r3, #20]
 80032ce:	2200      	movs	r2, #0
 80032d0:	400b      	ands	r3, r1
 80032d2:	9304      	str	r3, [sp, #16]
 80032d4:	0021      	movs	r1, r4
 80032d6:	9b04      	ldr	r3, [sp, #16]
 80032d8:	2690      	movs	r6, #144	@ 0x90
 80032da:	f001 f8f1 	bl	80044c0 <HAL_GPIO_WritePin>
 80032de:	0038      	movs	r0, r7
 80032e0:	2200      	movs	r2, #0
 80032e2:	2101      	movs	r1, #1
 80032e4:	f001 f8ec 	bl	80044c0 <HAL_GPIO_WritePin>
 80032e8:	21fe      	movs	r1, #254	@ 0xfe
 80032ea:	05f6      	lsls	r6, r6, #23
 80032ec:	2200      	movs	r2, #0
 80032ee:	0030      	movs	r0, r6
 80032f0:	0049      	lsls	r1, r1, #1
 80032f2:	f001 f8e5 	bl	80044c0 <HAL_GPIO_WritePin>
 80032f6:	2501      	movs	r5, #1
 80032f8:	9405      	str	r4, [sp, #20]
 80032fa:	2400      	movs	r4, #0
 80032fc:	a905      	add	r1, sp, #20
 80032fe:	4825      	ldr	r0, [pc, #148]	@ (8003394 <MX_GPIO_Init+0x120>)
 8003300:	9506      	str	r5, [sp, #24]
 8003302:	9407      	str	r4, [sp, #28]
 8003304:	9408      	str	r4, [sp, #32]
 8003306:	f001 f817 	bl	8004338 <HAL_GPIO_Init>
 800330a:	0038      	movs	r0, r7
 800330c:	a905      	add	r1, sp, #20
 800330e:	9505      	str	r5, [sp, #20]
 8003310:	9506      	str	r5, [sp, #24]
 8003312:	9407      	str	r4, [sp, #28]
 8003314:	9408      	str	r4, [sp, #32]
 8003316:	f001 f80f 	bl	8004338 <HAL_GPIO_Init>
 800331a:	2302      	movs	r3, #2
 800331c:	9305      	str	r3, [sp, #20]
 800331e:	2388      	movs	r3, #136	@ 0x88
 8003320:	0038      	movs	r0, r7
 8003322:	035b      	lsls	r3, r3, #13
 8003324:	a905      	add	r1, sp, #20
 8003326:	9306      	str	r3, [sp, #24]
 8003328:	9407      	str	r4, [sp, #28]
 800332a:	f001 f805 	bl	8004338 <HAL_GPIO_Init>
 800332e:	23fe      	movs	r3, #254	@ 0xfe
 8003330:	0030      	movs	r0, r6
 8003332:	005b      	lsls	r3, r3, #1
 8003334:	a905      	add	r1, sp, #20
 8003336:	9305      	str	r3, [sp, #20]
 8003338:	9506      	str	r5, [sp, #24]
 800333a:	9407      	str	r4, [sp, #28]
 800333c:	9408      	str	r4, [sp, #32]
 800333e:	25c4      	movs	r5, #196	@ 0xc4
 8003340:	f000 fffa 	bl	8004338 <HAL_GPIO_Init>
 8003344:	2380      	movs	r3, #128	@ 0x80
 8003346:	0030      	movs	r0, r6
 8003348:	021b      	lsls	r3, r3, #8
 800334a:	03ad      	lsls	r5, r5, #14
 800334c:	a905      	add	r1, sp, #20
 800334e:	9305      	str	r3, [sp, #20]
 8003350:	9506      	str	r5, [sp, #24]
 8003352:	9407      	str	r4, [sp, #28]
 8003354:	f000 fff0 	bl	8004338 <HAL_GPIO_Init>
 8003358:	2338      	movs	r3, #56	@ 0x38
 800335a:	a905      	add	r1, sp, #20
 800335c:	480e      	ldr	r0, [pc, #56]	@ (8003398 <MX_GPIO_Init+0x124>)
 800335e:	9305      	str	r3, [sp, #20]
 8003360:	9506      	str	r5, [sp, #24]
 8003362:	9407      	str	r4, [sp, #28]
 8003364:	f000 ffe8 	bl	8004338 <HAL_GPIO_Init>
 8003368:	0022      	movs	r2, r4
 800336a:	0021      	movs	r1, r4
 800336c:	2006      	movs	r0, #6
 800336e:	f000 fead 	bl	80040cc <HAL_NVIC_SetPriority>
 8003372:	2006      	movs	r0, #6
 8003374:	f000 fed4 	bl	8004120 <HAL_NVIC_EnableIRQ>
 8003378:	0022      	movs	r2, r4
 800337a:	0021      	movs	r1, r4
 800337c:	2007      	movs	r0, #7
 800337e:	f000 fea5 	bl	80040cc <HAL_NVIC_SetPriority>
 8003382:	2007      	movs	r0, #7
 8003384:	f000 fecc 	bl	8004120 <HAL_NVIC_EnableIRQ>
 8003388:	b00b      	add	sp, #44	@ 0x2c
 800338a:	bdf0      	pop	{r4, r5, r6, r7, pc}
 800338c:	40021000 	.word	0x40021000
 8003390:	48001400 	.word	0x48001400
 8003394:	48000800 	.word	0x48000800
 8003398:	48000400 	.word	0x48000400

0800339c <MX_I2C1_Init>:
 800339c:	b510      	push	{r4, lr}
 800339e:	4b16      	ldr	r3, [pc, #88]	@ (80033f8 <MX_I2C1_Init+0x5c>)
 80033a0:	4c16      	ldr	r4, [pc, #88]	@ (80033fc <MX_I2C1_Init+0x60>)
 80033a2:	2201      	movs	r2, #1
 80033a4:	6023      	str	r3, [r4, #0]
 80033a6:	4b16      	ldr	r3, [pc, #88]	@ (8003400 <MX_I2C1_Init+0x64>)
 80033a8:	0020      	movs	r0, r4
 80033aa:	6063      	str	r3, [r4, #4]
 80033ac:	2300      	movs	r3, #0
 80033ae:	60e2      	str	r2, [r4, #12]
 80033b0:	60a3      	str	r3, [r4, #8]
 80033b2:	6123      	str	r3, [r4, #16]
 80033b4:	6163      	str	r3, [r4, #20]
 80033b6:	61a3      	str	r3, [r4, #24]
 80033b8:	61e3      	str	r3, [r4, #28]
 80033ba:	6223      	str	r3, [r4, #32]
 80033bc:	f001 f9cc 	bl	8004758 <HAL_I2C_Init>
 80033c0:	2800      	cmp	r0, #0
 80033c2:	d001      	beq.n	80033c8 <MX_I2C1_Init+0x2c>
 80033c4:	f000 f8d6 	bl	8003574 <Error_Handler>
 80033c8:	2100      	movs	r1, #0
 80033ca:	0020      	movs	r0, r4
 80033cc:	f001 fbda 	bl	8004b84 <HAL_I2CEx_ConfigAnalogFilter>
 80033d0:	2800      	cmp	r0, #0
 80033d2:	d001      	beq.n	80033d8 <MX_I2C1_Init+0x3c>
 80033d4:	f000 f8ce 	bl	8003574 <Error_Handler>
 80033d8:	2100      	movs	r1, #0
 80033da:	0020      	movs	r0, r4
 80033dc:	f001 fbf8 	bl	8004bd0 <HAL_I2CEx_ConfigDigitalFilter>
 80033e0:	2800      	cmp	r0, #0
 80033e2:	d001      	beq.n	80033e8 <MX_I2C1_Init+0x4c>
 80033e4:	f000 f8c6 	bl	8003574 <Error_Handler>
 80033e8:	2380      	movs	r3, #128	@ 0x80
 80033ea:	4a06      	ldr	r2, [pc, #24]	@ (8003404 <MX_I2C1_Init+0x68>)
 80033ec:	035b      	lsls	r3, r3, #13
 80033ee:	6811      	ldr	r1, [r2, #0]
 80033f0:	430b      	orrs	r3, r1
 80033f2:	6013      	str	r3, [r2, #0]
 80033f4:	bd10      	pop	{r4, pc}
 80033f6:	46c0      	nop			@ (mov r8, r8)
 80033f8:	40005400 	.word	0x40005400
 80033fc:	200015f4 	.word	0x200015f4
 8003400:	00100001 	.word	0x00100001
 8003404:	40010000 	.word	0x40010000

08003408 <HAL_I2C_MspInit>:
 8003408:	b510      	push	{r4, lr}
 800340a:	0004      	movs	r4, r0
 800340c:	b088      	sub	sp, #32
 800340e:	2214      	movs	r2, #20
 8003410:	2100      	movs	r1, #0
 8003412:	a803      	add	r0, sp, #12
 8003414:	f005 f8a3 	bl	800855e <memset>
 8003418:	4b12      	ldr	r3, [pc, #72]	@ (8003464 <HAL_I2C_MspInit+0x5c>)
 800341a:	6822      	ldr	r2, [r4, #0]
 800341c:	429a      	cmp	r2, r3
 800341e:	d11f      	bne.n	8003460 <HAL_I2C_MspInit+0x58>
 8003420:	2280      	movs	r2, #128	@ 0x80
 8003422:	4c11      	ldr	r4, [pc, #68]	@ (8003468 <HAL_I2C_MspInit+0x60>)
 8003424:	02d2      	lsls	r2, r2, #11
 8003426:	6963      	ldr	r3, [r4, #20]
 8003428:	4810      	ldr	r0, [pc, #64]	@ (800346c <HAL_I2C_MspInit+0x64>)
 800342a:	4313      	orrs	r3, r2
 800342c:	6163      	str	r3, [r4, #20]
 800342e:	6963      	ldr	r3, [r4, #20]
 8003430:	a903      	add	r1, sp, #12
 8003432:	4013      	ands	r3, r2
 8003434:	9301      	str	r3, [sp, #4]
 8003436:	9b01      	ldr	r3, [sp, #4]
 8003438:	23c0      	movs	r3, #192	@ 0xc0
 800343a:	009b      	lsls	r3, r3, #2
 800343c:	9303      	str	r3, [sp, #12]
 800343e:	2312      	movs	r3, #18
 8003440:	9304      	str	r3, [sp, #16]
 8003442:	3b0f      	subs	r3, #15
 8003444:	9306      	str	r3, [sp, #24]
 8003446:	3b02      	subs	r3, #2
 8003448:	9307      	str	r3, [sp, #28]
 800344a:	f000 ff75 	bl	8004338 <HAL_GPIO_Init>
 800344e:	2280      	movs	r2, #128	@ 0x80
 8003450:	69e3      	ldr	r3, [r4, #28]
 8003452:	0392      	lsls	r2, r2, #14
 8003454:	4313      	orrs	r3, r2
 8003456:	61e3      	str	r3, [r4, #28]
 8003458:	69e3      	ldr	r3, [r4, #28]
 800345a:	4013      	ands	r3, r2
 800345c:	9302      	str	r3, [sp, #8]
 800345e:	9b02      	ldr	r3, [sp, #8]
 8003460:	b008      	add	sp, #32
 8003462:	bd10      	pop	{r4, pc}
 8003464:	40005400 	.word	0x40005400
 8003468:	40021000 	.word	0x40021000
 800346c:	48000400 	.word	0x48000400

08003470 <MX_IWDG_Init>:
 8003470:	4808      	ldr	r0, [pc, #32]	@ (8003494 <MX_IWDG_Init+0x24>)
 8003472:	4b09      	ldr	r3, [pc, #36]	@ (8003498 <MX_IWDG_Init+0x28>)
 8003474:	b510      	push	{r4, lr}
 8003476:	6003      	str	r3, [r0, #0]
 8003478:	2303      	movs	r3, #3
 800347a:	6043      	str	r3, [r0, #4]
 800347c:	4b07      	ldr	r3, [pc, #28]	@ (800349c <MX_IWDG_Init+0x2c>)
 800347e:	60c3      	str	r3, [r0, #12]
 8003480:	23f4      	movs	r3, #244	@ 0xf4
 8003482:	33ff      	adds	r3, #255	@ 0xff
 8003484:	6083      	str	r3, [r0, #8]
 8003486:	f001 fbc7 	bl	8004c18 <HAL_IWDG_Init>
 800348a:	2800      	cmp	r0, #0
 800348c:	d001      	beq.n	8003492 <MX_IWDG_Init+0x22>
 800348e:	f000 f871 	bl	8003574 <Error_Handler>
 8003492:	bd10      	pop	{r4, pc}
 8003494:	20001648 	.word	0x20001648
 8003498:	40003000 	.word	0x40003000
 800349c:	00000fff 	.word	0x00000fff

080034a0 <SystemClock_Config>:
 80034a0:	b530      	push	{r4, r5, lr}
 80034a2:	2510      	movs	r5, #16
 80034a4:	b099      	sub	sp, #100	@ 0x64
 80034a6:	2230      	movs	r2, #48	@ 0x30
 80034a8:	2100      	movs	r1, #0
 80034aa:	a80c      	add	r0, sp, #48	@ 0x30
 80034ac:	f005 f857 	bl	800855e <memset>
 80034b0:	002a      	movs	r2, r5
 80034b2:	2100      	movs	r1, #0
 80034b4:	4668      	mov	r0, sp
 80034b6:	f005 f852 	bl	800855e <memset>
 80034ba:	221c      	movs	r2, #28
 80034bc:	2100      	movs	r1, #0
 80034be:	a804      	add	r0, sp, #16
 80034c0:	f005 f84d 	bl	800855e <memset>
 80034c4:	233a      	movs	r3, #58	@ 0x3a
 80034c6:	930b      	str	r3, [sp, #44]	@ 0x2c
 80034c8:	2380      	movs	r3, #128	@ 0x80
 80034ca:	021b      	lsls	r3, r3, #8
 80034cc:	9315      	str	r3, [sp, #84]	@ 0x54
 80034ce:	2380      	movs	r3, #128	@ 0x80
 80034d0:	2401      	movs	r4, #1
 80034d2:	950f      	str	r5, [sp, #60]	@ 0x3c
 80034d4:	9511      	str	r5, [sp, #68]	@ 0x44
 80034d6:	035b      	lsls	r3, r3, #13
 80034d8:	3d0e      	subs	r5, #14
 80034da:	a80b      	add	r0, sp, #44	@ 0x2c
 80034dc:	940e      	str	r4, [sp, #56]	@ 0x38
 80034de:	9413      	str	r4, [sp, #76]	@ 0x4c
 80034e0:	9410      	str	r4, [sp, #64]	@ 0x40
 80034e2:	9412      	str	r4, [sp, #72]	@ 0x48
 80034e4:	9514      	str	r5, [sp, #80]	@ 0x50
 80034e6:	9316      	str	r3, [sp, #88]	@ 0x58
 80034e8:	f002 fa3c 	bl	8005964 <HAL_RCC_OscConfig>
 80034ec:	2800      	cmp	r0, #0
 80034ee:	d001      	beq.n	80034f4 <SystemClock_Config+0x54>
 80034f0:	b672      	cpsid	i
 80034f2:	e7fe      	b.n	80034f2 <SystemClock_Config+0x52>
 80034f4:	2307      	movs	r3, #7
 80034f6:	9300      	str	r3, [sp, #0]
 80034f8:	2380      	movs	r3, #128	@ 0x80
 80034fa:	9002      	str	r0, [sp, #8]
 80034fc:	00db      	lsls	r3, r3, #3
 80034fe:	0021      	movs	r1, r4
 8003500:	4668      	mov	r0, sp
 8003502:	9501      	str	r5, [sp, #4]
 8003504:	9303      	str	r3, [sp, #12]
 8003506:	f002 fcb3 	bl	8005e70 <HAL_RCC_ClockConfig>
 800350a:	2800      	cmp	r0, #0
 800350c:	d001      	beq.n	8003512 <SystemClock_Config+0x72>
 800350e:	b672      	cpsid	i
 8003510:	e7fe      	b.n	8003510 <SystemClock_Config+0x70>
 8003512:	4b07      	ldr	r3, [pc, #28]	@ (8003530 <SystemClock_Config+0x90>)
 8003514:	9006      	str	r0, [sp, #24]
 8003516:	9008      	str	r0, [sp, #32]
 8003518:	900a      	str	r0, [sp, #40]	@ 0x28
 800351a:	a804      	add	r0, sp, #16
 800351c:	9304      	str	r3, [sp, #16]
 800351e:	f002 fd41 	bl	8005fa4 <HAL_RCCEx_PeriphCLKConfig>
 8003522:	2800      	cmp	r0, #0
 8003524:	d001      	beq.n	800352a <SystemClock_Config+0x8a>
 8003526:	b672      	cpsid	i
 8003528:	e7fe      	b.n	8003528 <SystemClock_Config+0x88>
 800352a:	b019      	add	sp, #100	@ 0x64
 800352c:	bd30      	pop	{r4, r5, pc}
 800352e:	46c0      	nop			@ (mov r8, r8)
 8003530:	00020021 	.word	0x00020021

08003534 <main>:
 8003534:	b510      	push	{r4, lr}
 8003536:	f000 fb33 	bl	8003ba0 <HAL_Init>
 800353a:	f7ff ffb1 	bl	80034a0 <SystemClock_Config>
 800353e:	f7ff fe99 	bl	8003274 <MX_GPIO_Init>
 8003542:	f7ff fe79 	bl	8003238 <MX_DMA_Init>
 8003546:	f7ff fdeb 	bl	8003120 <MX_ADC_Init>
 800354a:	f7ff ff27 	bl	800339c <MX_I2C1_Init>
 800354e:	f000 f813 	bl	8003578 <MX_SPI2_Init>
 8003552:	f000 fa13 	bl	800397c <MX_USART1_UART_Init>
 8003556:	f000 f8b3 	bl	80036c0 <MX_TIM1_Init>
 800355a:	f000 f9ab 	bl	80038b4 <MX_TIM3_Init>
 800355e:	f000 f8ed 	bl	800373c <MX_TIM2_Init>
 8003562:	f004 fdd3 	bl	800810c <MX_USB_DEVICE_Init>
 8003566:	f7ff ff83 	bl	8003470 <MX_IWDG_Init>
 800356a:	f7fe fba7 	bl	8001cbc <FAC_app_init>
 800356e:	f7fe faab 	bl	8001ac8 <FAC_app_main_loop>
 8003572:	e7fc      	b.n	800356e <main+0x3a>

08003574 <Error_Handler>:
 8003574:	b672      	cpsid	i
 8003576:	e7fe      	b.n	8003576 <Error_Handler+0x2>

08003578 <MX_SPI2_Init>:
 8003578:	22c0      	movs	r2, #192	@ 0xc0
 800357a:	4810      	ldr	r0, [pc, #64]	@ (80035bc <MX_SPI2_Init+0x44>)
 800357c:	4b10      	ldr	r3, [pc, #64]	@ (80035c0 <MX_SPI2_Init+0x48>)
 800357e:	0092      	lsls	r2, r2, #2
 8003580:	b510      	push	{r4, lr}
 8003582:	6003      	str	r3, [r0, #0]
 8003584:	60c2      	str	r2, [r0, #12]
 8003586:	2382      	movs	r3, #130	@ 0x82
 8003588:	2280      	movs	r2, #128	@ 0x80
 800358a:	005b      	lsls	r3, r3, #1
 800358c:	02d2      	lsls	r2, r2, #11
 800358e:	6043      	str	r3, [r0, #4]
 8003590:	6182      	str	r2, [r0, #24]
 8003592:	2300      	movs	r3, #0
 8003594:	2228      	movs	r2, #40	@ 0x28
 8003596:	6083      	str	r3, [r0, #8]
 8003598:	6103      	str	r3, [r0, #16]
 800359a:	6143      	str	r3, [r0, #20]
 800359c:	61c2      	str	r2, [r0, #28]
 800359e:	6203      	str	r3, [r0, #32]
 80035a0:	6243      	str	r3, [r0, #36]	@ 0x24
 80035a2:	6283      	str	r3, [r0, #40]	@ 0x28
 80035a4:	3a21      	subs	r2, #33	@ 0x21
 80035a6:	6303      	str	r3, [r0, #48]	@ 0x30
 80035a8:	3308      	adds	r3, #8
 80035aa:	62c2      	str	r2, [r0, #44]	@ 0x2c
 80035ac:	6343      	str	r3, [r0, #52]	@ 0x34
 80035ae:	f002 fd9d 	bl	80060ec <HAL_SPI_Init>
 80035b2:	2800      	cmp	r0, #0
 80035b4:	d001      	beq.n	80035ba <MX_SPI2_Init+0x42>
 80035b6:	f7ff ffdd 	bl	8003574 <Error_Handler>
 80035ba:	bd10      	pop	{r4, pc}
 80035bc:	20001658 	.word	0x20001658
 80035c0:	40003800 	.word	0x40003800

080035c4 <HAL_SPI_MspInit>:
 80035c4:	b510      	push	{r4, lr}
 80035c6:	0004      	movs	r4, r0
 80035c8:	b088      	sub	sp, #32
 80035ca:	2214      	movs	r2, #20
 80035cc:	2100      	movs	r1, #0
 80035ce:	a803      	add	r0, sp, #12
 80035d0:	f004 ffc5 	bl	800855e <memset>
 80035d4:	4b11      	ldr	r3, [pc, #68]	@ (800361c <HAL_SPI_MspInit+0x58>)
 80035d6:	6822      	ldr	r2, [r4, #0]
 80035d8:	429a      	cmp	r2, r3
 80035da:	d11d      	bne.n	8003618 <HAL_SPI_MspInit+0x54>
 80035dc:	2180      	movs	r1, #128	@ 0x80
 80035de:	4b10      	ldr	r3, [pc, #64]	@ (8003620 <HAL_SPI_MspInit+0x5c>)
 80035e0:	01c9      	lsls	r1, r1, #7
 80035e2:	69da      	ldr	r2, [r3, #28]
 80035e4:	480f      	ldr	r0, [pc, #60]	@ (8003624 <HAL_SPI_MspInit+0x60>)
 80035e6:	430a      	orrs	r2, r1
 80035e8:	61da      	str	r2, [r3, #28]
 80035ea:	69da      	ldr	r2, [r3, #28]
 80035ec:	400a      	ands	r2, r1
 80035ee:	2180      	movs	r1, #128	@ 0x80
 80035f0:	9201      	str	r2, [sp, #4]
 80035f2:	9a01      	ldr	r2, [sp, #4]
 80035f4:	695a      	ldr	r2, [r3, #20]
 80035f6:	02c9      	lsls	r1, r1, #11
 80035f8:	430a      	orrs	r2, r1
 80035fa:	615a      	str	r2, [r3, #20]
 80035fc:	695b      	ldr	r3, [r3, #20]
 80035fe:	400b      	ands	r3, r1
 8003600:	9302      	str	r3, [sp, #8]
 8003602:	9b02      	ldr	r3, [sp, #8]
 8003604:	23f0      	movs	r3, #240	@ 0xf0
 8003606:	021b      	lsls	r3, r3, #8
 8003608:	9303      	str	r3, [sp, #12]
 800360a:	2302      	movs	r3, #2
 800360c:	a903      	add	r1, sp, #12
 800360e:	9304      	str	r3, [sp, #16]
 8003610:	3301      	adds	r3, #1
 8003612:	9306      	str	r3, [sp, #24]
 8003614:	f000 fe90 	bl	8004338 <HAL_GPIO_Init>
 8003618:	b008      	add	sp, #32
 800361a:	bd10      	pop	{r4, pc}
 800361c:	40003800 	.word	0x40003800
 8003620:	40021000 	.word	0x40021000
 8003624:	48000400 	.word	0x48000400

08003628 <HAL_MspInit>:
 8003628:	2101      	movs	r1, #1
 800362a:	4b0a      	ldr	r3, [pc, #40]	@ (8003654 <HAL_MspInit+0x2c>)
 800362c:	b082      	sub	sp, #8
 800362e:	699a      	ldr	r2, [r3, #24]
 8003630:	430a      	orrs	r2, r1
 8003632:	619a      	str	r2, [r3, #24]
 8003634:	699a      	ldr	r2, [r3, #24]
 8003636:	400a      	ands	r2, r1
 8003638:	2180      	movs	r1, #128	@ 0x80
 800363a:	9200      	str	r2, [sp, #0]
 800363c:	9a00      	ldr	r2, [sp, #0]
 800363e:	69da      	ldr	r2, [r3, #28]
 8003640:	0549      	lsls	r1, r1, #21
 8003642:	430a      	orrs	r2, r1
 8003644:	61da      	str	r2, [r3, #28]
 8003646:	69db      	ldr	r3, [r3, #28]
 8003648:	400b      	ands	r3, r1
 800364a:	9301      	str	r3, [sp, #4]
 800364c:	9b01      	ldr	r3, [sp, #4]
 800364e:	b002      	add	sp, #8
 8003650:	4770      	bx	lr
 8003652:	46c0      	nop			@ (mov r8, r8)
 8003654:	40021000 	.word	0x40021000

08003658 <NMI_Handler>:
 8003658:	e7fe      	b.n	8003658 <NMI_Handler>

0800365a <HardFault_Handler>:
 800365a:	e7fe      	b.n	800365a <HardFault_Handler>

0800365c <SVC_Handler>:
 800365c:	4770      	bx	lr

0800365e <PendSV_Handler>:
 800365e:	4770      	bx	lr

08003660 <SysTick_Handler>:
 8003660:	b510      	push	{r4, lr}
 8003662:	f000 faad 	bl	8003bc0 <HAL_IncTick>
 8003666:	bd10      	pop	{r4, pc}

08003668 <EXTI2_3_IRQHandler>:
 8003668:	b510      	push	{r4, lr}
 800366a:	2008      	movs	r0, #8
 800366c:	f000 ff36 	bl	80044dc <HAL_GPIO_EXTI_IRQHandler>
 8003670:	bd10      	pop	{r4, pc}

08003672 <EXTI4_15_IRQHandler>:
 8003672:	b510      	push	{r4, lr}
 8003674:	2010      	movs	r0, #16
 8003676:	f000 ff31 	bl	80044dc <HAL_GPIO_EXTI_IRQHandler>
 800367a:	2020      	movs	r0, #32
 800367c:	f000 ff2e 	bl	80044dc <HAL_GPIO_EXTI_IRQHandler>
 8003680:	2080      	movs	r0, #128	@ 0x80
 8003682:	0200      	lsls	r0, r0, #8
 8003684:	f000 ff2a 	bl	80044dc <HAL_GPIO_EXTI_IRQHandler>
 8003688:	bd10      	pop	{r4, pc}
	...

0800368c <DMA1_Channel1_IRQHandler>:
 800368c:	b510      	push	{r4, lr}
 800368e:	4802      	ldr	r0, [pc, #8]	@ (8003698 <DMA1_Channel1_IRQHandler+0xc>)
 8003690:	f000 fe08 	bl	80042a4 <HAL_DMA_IRQHandler>
 8003694:	bd10      	pop	{r4, pc}
 8003696:	46c0      	nop			@ (mov r8, r8)
 8003698:	20001570 	.word	0x20001570

0800369c <DMA1_Channel4_5_6_7_IRQHandler>:
 800369c:	b510      	push	{r4, lr}
 800369e:	4802      	ldr	r0, [pc, #8]	@ (80036a8 <DMA1_Channel4_5_6_7_IRQHandler+0xc>)
 80036a0:	f000 fe00 	bl	80042a4 <HAL_DMA_IRQHandler>
 80036a4:	bd10      	pop	{r4, pc}
 80036a6:	46c0      	nop			@ (mov r8, r8)
 80036a8:	200016bc 	.word	0x200016bc

080036ac <USB_IRQHandler>:
 80036ac:	b510      	push	{r4, lr}
 80036ae:	4802      	ldr	r0, [pc, #8]	@ (80036b8 <USB_IRQHandler+0xc>)
 80036b0:	f001 fb5c 	bl	8004d6c <HAL_PCD_IRQHandler>
 80036b4:	bd10      	pop	{r4, pc}
 80036b6:	46c0      	nop			@ (mov r8, r8)
 80036b8:	2000274c 	.word	0x2000274c

080036bc <SystemInit>:
 80036bc:	4770      	bx	lr
	...

080036c0 <MX_TIM1_Init>:
 80036c0:	b510      	push	{r4, lr}
 80036c2:	b086      	sub	sp, #24
 80036c4:	2210      	movs	r2, #16
 80036c6:	2100      	movs	r1, #0
 80036c8:	a802      	add	r0, sp, #8
 80036ca:	f004 ff48 	bl	800855e <memset>
 80036ce:	2208      	movs	r2, #8
 80036d0:	2100      	movs	r1, #0
 80036d2:	4668      	mov	r0, sp
 80036d4:	f004 ff43 	bl	800855e <memset>
 80036d8:	4c15      	ldr	r4, [pc, #84]	@ (8003730 <MX_TIM1_Init+0x70>)
 80036da:	4b16      	ldr	r3, [pc, #88]	@ (8003734 <MX_TIM1_Init+0x74>)
 80036dc:	4a16      	ldr	r2, [pc, #88]	@ (8003738 <MX_TIM1_Init+0x78>)
 80036de:	6023      	str	r3, [r4, #0]
 80036e0:	2300      	movs	r3, #0
 80036e2:	0020      	movs	r0, r4
 80036e4:	6063      	str	r3, [r4, #4]
 80036e6:	60a3      	str	r3, [r4, #8]
 80036e8:	60e2      	str	r2, [r4, #12]
 80036ea:	6123      	str	r3, [r4, #16]
 80036ec:	6163      	str	r3, [r4, #20]
 80036ee:	61a3      	str	r3, [r4, #24]
 80036f0:	f002 fea6 	bl	8006440 <HAL_TIM_Base_Init>
 80036f4:	2800      	cmp	r0, #0
 80036f6:	d001      	beq.n	80036fc <MX_TIM1_Init+0x3c>
 80036f8:	f7ff ff3c 	bl	8003574 <Error_Handler>
 80036fc:	2380      	movs	r3, #128	@ 0x80
 80036fe:	0020      	movs	r0, r4
 8003700:	015b      	lsls	r3, r3, #5
 8003702:	a902      	add	r1, sp, #8
 8003704:	9302      	str	r3, [sp, #8]
 8003706:	f002 ff97 	bl	8006638 <HAL_TIM_ConfigClockSource>
 800370a:	2800      	cmp	r0, #0
 800370c:	d001      	beq.n	8003712 <MX_TIM1_Init+0x52>
 800370e:	f7ff ff31 	bl	8003574 <Error_Handler>
 8003712:	2320      	movs	r3, #32
 8003714:	9300      	str	r3, [sp, #0]
 8003716:	2300      	movs	r3, #0
 8003718:	4669      	mov	r1, sp
 800371a:	0020      	movs	r0, r4
 800371c:	9301      	str	r3, [sp, #4]
 800371e:	f003 f893 	bl	8006848 <HAL_TIMEx_MasterConfigSynchronization>
 8003722:	2800      	cmp	r0, #0
 8003724:	d001      	beq.n	800372a <MX_TIM1_Init+0x6a>
 8003726:	f7ff ff25 	bl	8003574 <Error_Handler>
 800372a:	b006      	add	sp, #24
 800372c:	bd10      	pop	{r4, pc}
 800372e:	46c0      	nop			@ (mov r8, r8)
 8003730:	20001790 	.word	0x20001790
 8003734:	40012c00 	.word	0x40012c00
 8003738:	0000ffff 	.word	0x0000ffff

0800373c <MX_TIM2_Init>:
 800373c:	b510      	push	{r4, lr}
 800373e:	b086      	sub	sp, #24
 8003740:	2210      	movs	r2, #16
 8003742:	2100      	movs	r1, #0
 8003744:	a802      	add	r0, sp, #8
 8003746:	f004 ff0a 	bl	800855e <memset>
 800374a:	2208      	movs	r2, #8
 800374c:	2100      	movs	r1, #0
 800374e:	4668      	mov	r0, sp
 8003750:	f004 ff05 	bl	800855e <memset>
 8003754:	2380      	movs	r3, #128	@ 0x80
 8003756:	4c15      	ldr	r4, [pc, #84]	@ (80037ac <MX_TIM2_Init+0x70>)
 8003758:	05db      	lsls	r3, r3, #23
 800375a:	6023      	str	r3, [r4, #0]
 800375c:	2317      	movs	r3, #23
 800375e:	2201      	movs	r2, #1
 8003760:	6063      	str	r3, [r4, #4]
 8003762:	2300      	movs	r3, #0
 8003764:	4252      	negs	r2, r2
 8003766:	0020      	movs	r0, r4
 8003768:	60a3      	str	r3, [r4, #8]
 800376a:	60e2      	str	r2, [r4, #12]
 800376c:	6123      	str	r3, [r4, #16]
 800376e:	61a3      	str	r3, [r4, #24]
 8003770:	f002 fe66 	bl	8006440 <HAL_TIM_Base_Init>
 8003774:	2800      	cmp	r0, #0
 8003776:	d001      	beq.n	800377c <MX_TIM2_Init+0x40>
 8003778:	f7ff fefc 	bl	8003574 <Error_Handler>
 800377c:	2380      	movs	r3, #128	@ 0x80
 800377e:	0020      	movs	r0, r4
 8003780:	015b      	lsls	r3, r3, #5
 8003782:	a902      	add	r1, sp, #8
 8003784:	9302      	str	r3, [sp, #8]
 8003786:	f002 ff57 	bl	8006638 <HAL_TIM_ConfigClockSource>
 800378a:	2800      	cmp	r0, #0
 800378c:	d001      	beq.n	8003792 <MX_TIM2_Init+0x56>
 800378e:	f7ff fef1 	bl	8003574 <Error_Handler>
 8003792:	2300      	movs	r3, #0
 8003794:	4669      	mov	r1, sp
 8003796:	0020      	movs	r0, r4
 8003798:	9300      	str	r3, [sp, #0]
 800379a:	9301      	str	r3, [sp, #4]
 800379c:	f003 f854 	bl	8006848 <HAL_TIMEx_MasterConfigSynchronization>
 80037a0:	2800      	cmp	r0, #0
 80037a2:	d001      	beq.n	80037a8 <MX_TIM2_Init+0x6c>
 80037a4:	f7ff fee6 	bl	8003574 <Error_Handler>
 80037a8:	b006      	add	sp, #24
 80037aa:	bd10      	pop	{r4, pc}
 80037ac:	20001748 	.word	0x20001748

080037b0 <HAL_TIM_Base_MspInit>:
 80037b0:	b530      	push	{r4, r5, lr}
 80037b2:	6803      	ldr	r3, [r0, #0]
 80037b4:	4a25      	ldr	r2, [pc, #148]	@ (800384c <HAL_TIM_Base_MspInit+0x9c>)
 80037b6:	0005      	movs	r5, r0
 80037b8:	b085      	sub	sp, #20
 80037ba:	4293      	cmp	r3, r2
 80037bc:	d12a      	bne.n	8003814 <HAL_TIM_Base_MspInit+0x64>
 80037be:	2380      	movs	r3, #128	@ 0x80
 80037c0:	4a23      	ldr	r2, [pc, #140]	@ (8003850 <HAL_TIM_Base_MspInit+0xa0>)
 80037c2:	011b      	lsls	r3, r3, #4
 80037c4:	6991      	ldr	r1, [r2, #24]
 80037c6:	4c23      	ldr	r4, [pc, #140]	@ (8003854 <HAL_TIM_Base_MspInit+0xa4>)
 80037c8:	4319      	orrs	r1, r3
 80037ca:	6191      	str	r1, [r2, #24]
 80037cc:	6992      	ldr	r2, [r2, #24]
 80037ce:	2180      	movs	r1, #128	@ 0x80
 80037d0:	401a      	ands	r2, r3
 80037d2:	9201      	str	r2, [sp, #4]
 80037d4:	9a01      	ldr	r2, [sp, #4]
 80037d6:	4a20      	ldr	r2, [pc, #128]	@ (8003858 <HAL_TIM_Base_MspInit+0xa8>)
 80037d8:	6163      	str	r3, [r4, #20]
 80037da:	6022      	str	r2, [r4, #0]
 80037dc:	2210      	movs	r2, #16
 80037de:	2320      	movs	r3, #32
 80037e0:	6062      	str	r2, [r4, #4]
 80037e2:	2200      	movs	r2, #0
 80037e4:	60e1      	str	r1, [r4, #12]
 80037e6:	3181      	adds	r1, #129	@ 0x81
 80037e8:	31ff      	adds	r1, #255	@ 0xff
 80037ea:	0020      	movs	r0, r4
 80037ec:	60a2      	str	r2, [r4, #8]
 80037ee:	6121      	str	r1, [r4, #16]
 80037f0:	61a3      	str	r3, [r4, #24]
 80037f2:	61e2      	str	r2, [r4, #28]
 80037f4:	f000 fcba 	bl	800416c <HAL_DMA_Init>
 80037f8:	2800      	cmp	r0, #0
 80037fa:	d001      	beq.n	8003800 <HAL_TIM_Base_MspInit+0x50>
 80037fc:	f7ff feba 	bl	8003574 <Error_Handler>
 8003800:	2380      	movs	r3, #128	@ 0x80
 8003802:	4a16      	ldr	r2, [pc, #88]	@ (800385c <HAL_TIM_Base_MspInit+0xac>)
 8003804:	055b      	lsls	r3, r3, #21
 8003806:	6811      	ldr	r1, [r2, #0]
 8003808:	430b      	orrs	r3, r1
 800380a:	6013      	str	r3, [r2, #0]
 800380c:	622c      	str	r4, [r5, #32]
 800380e:	6265      	str	r5, [r4, #36]	@ 0x24
 8003810:	b005      	add	sp, #20
 8003812:	bd30      	pop	{r4, r5, pc}
 8003814:	2280      	movs	r2, #128	@ 0x80
 8003816:	05d2      	lsls	r2, r2, #23
 8003818:	4293      	cmp	r3, r2
 800381a:	d109      	bne.n	8003830 <HAL_TIM_Base_MspInit+0x80>
 800381c:	2101      	movs	r1, #1
 800381e:	4b0c      	ldr	r3, [pc, #48]	@ (8003850 <HAL_TIM_Base_MspInit+0xa0>)
 8003820:	69da      	ldr	r2, [r3, #28]
 8003822:	430a      	orrs	r2, r1
 8003824:	61da      	str	r2, [r3, #28]
 8003826:	69db      	ldr	r3, [r3, #28]
 8003828:	400b      	ands	r3, r1
 800382a:	9302      	str	r3, [sp, #8]
 800382c:	9b02      	ldr	r3, [sp, #8]
 800382e:	e7ef      	b.n	8003810 <HAL_TIM_Base_MspInit+0x60>
 8003830:	4a0b      	ldr	r2, [pc, #44]	@ (8003860 <HAL_TIM_Base_MspInit+0xb0>)
 8003832:	4293      	cmp	r3, r2
 8003834:	d1ec      	bne.n	8003810 <HAL_TIM_Base_MspInit+0x60>
 8003836:	2102      	movs	r1, #2
 8003838:	4b05      	ldr	r3, [pc, #20]	@ (8003850 <HAL_TIM_Base_MspInit+0xa0>)
 800383a:	69da      	ldr	r2, [r3, #28]
 800383c:	430a      	orrs	r2, r1
 800383e:	61da      	str	r2, [r3, #28]
 8003840:	69db      	ldr	r3, [r3, #28]
 8003842:	400b      	ands	r3, r1
 8003844:	9303      	str	r3, [sp, #12]
 8003846:	9b03      	ldr	r3, [sp, #12]
 8003848:	e7e2      	b.n	8003810 <HAL_TIM_Base_MspInit+0x60>
 800384a:	46c0      	nop			@ (mov r8, r8)
 800384c:	40012c00 	.word	0x40012c00
 8003850:	40021000 	.word	0x40021000
 8003854:	200016bc 	.word	0x200016bc
 8003858:	40020058 	.word	0x40020058
 800385c:	40010000 	.word	0x40010000
 8003860:	40000400 	.word	0x40000400

08003864 <HAL_TIM_MspPostInit>:
 8003864:	b510      	push	{r4, lr}
 8003866:	0004      	movs	r4, r0
 8003868:	b086      	sub	sp, #24
 800386a:	2214      	movs	r2, #20
 800386c:	2100      	movs	r1, #0
 800386e:	a801      	add	r0, sp, #4
 8003870:	f004 fe75 	bl	800855e <memset>
 8003874:	4b0c      	ldr	r3, [pc, #48]	@ (80038a8 <HAL_TIM_MspPostInit+0x44>)
 8003876:	6822      	ldr	r2, [r4, #0]
 8003878:	429a      	cmp	r2, r3
 800387a:	d113      	bne.n	80038a4 <HAL_TIM_MspPostInit+0x40>
 800387c:	2180      	movs	r1, #128	@ 0x80
 800387e:	4b0b      	ldr	r3, [pc, #44]	@ (80038ac <HAL_TIM_MspPostInit+0x48>)
 8003880:	02c9      	lsls	r1, r1, #11
 8003882:	695a      	ldr	r2, [r3, #20]
 8003884:	480a      	ldr	r0, [pc, #40]	@ (80038b0 <HAL_TIM_MspPostInit+0x4c>)
 8003886:	430a      	orrs	r2, r1
 8003888:	615a      	str	r2, [r3, #20]
 800388a:	695b      	ldr	r3, [r3, #20]
 800388c:	400b      	ands	r3, r1
 800388e:	9300      	str	r3, [sp, #0]
 8003890:	9b00      	ldr	r3, [sp, #0]
 8003892:	2303      	movs	r3, #3
 8003894:	9301      	str	r3, [sp, #4]
 8003896:	3b01      	subs	r3, #1
 8003898:	9302      	str	r3, [sp, #8]
 800389a:	a901      	add	r1, sp, #4
 800389c:	3b01      	subs	r3, #1
 800389e:	9305      	str	r3, [sp, #20]
 80038a0:	f000 fd4a 	bl	8004338 <HAL_GPIO_Init>
 80038a4:	b006      	add	sp, #24
 80038a6:	bd10      	pop	{r4, pc}
 80038a8:	40000400 	.word	0x40000400
 80038ac:	40021000 	.word	0x40021000
 80038b0:	48000400 	.word	0x48000400

080038b4 <MX_TIM3_Init>:
 80038b4:	b510      	push	{r4, lr}
 80038b6:	b08e      	sub	sp, #56	@ 0x38
 80038b8:	2210      	movs	r2, #16
 80038ba:	2100      	movs	r1, #0
 80038bc:	a803      	add	r0, sp, #12
 80038be:	f004 fe4e 	bl	800855e <memset>
 80038c2:	2208      	movs	r2, #8
 80038c4:	2100      	movs	r1, #0
 80038c6:	a801      	add	r0, sp, #4
 80038c8:	f004 fe49 	bl	800855e <memset>
 80038cc:	221c      	movs	r2, #28
 80038ce:	2100      	movs	r1, #0
 80038d0:	a807      	add	r0, sp, #28
 80038d2:	f004 fe44 	bl	800855e <memset>
 80038d6:	4c26      	ldr	r4, [pc, #152]	@ (8003970 <MX_TIM3_Init+0xbc>)
 80038d8:	4b26      	ldr	r3, [pc, #152]	@ (8003974 <MX_TIM3_Init+0xc0>)
 80038da:	4a27      	ldr	r2, [pc, #156]	@ (8003978 <MX_TIM3_Init+0xc4>)
 80038dc:	6023      	str	r3, [r4, #0]
 80038de:	232f      	movs	r3, #47	@ 0x2f
 80038e0:	6063      	str	r3, [r4, #4]
 80038e2:	2300      	movs	r3, #0
 80038e4:	0020      	movs	r0, r4
 80038e6:	60a3      	str	r3, [r4, #8]
 80038e8:	60e2      	str	r2, [r4, #12]
 80038ea:	6123      	str	r3, [r4, #16]
 80038ec:	61a3      	str	r3, [r4, #24]
 80038ee:	f002 fda7 	bl	8006440 <HAL_TIM_Base_Init>
 80038f2:	2800      	cmp	r0, #0
 80038f4:	d001      	beq.n	80038fa <MX_TIM3_Init+0x46>
 80038f6:	f7ff fe3d 	bl	8003574 <Error_Handler>
 80038fa:	2380      	movs	r3, #128	@ 0x80
 80038fc:	0020      	movs	r0, r4
 80038fe:	015b      	lsls	r3, r3, #5
 8003900:	a903      	add	r1, sp, #12
 8003902:	9303      	str	r3, [sp, #12]
 8003904:	f002 fe98 	bl	8006638 <HAL_TIM_ConfigClockSource>
 8003908:	2800      	cmp	r0, #0
 800390a:	d001      	beq.n	8003910 <MX_TIM3_Init+0x5c>
 800390c:	f7ff fe32 	bl	8003574 <Error_Handler>
 8003910:	0020      	movs	r0, r4
 8003912:	f002 fdbd 	bl	8006490 <HAL_TIM_PWM_Init>
 8003916:	2800      	cmp	r0, #0
 8003918:	d001      	beq.n	800391e <MX_TIM3_Init+0x6a>
 800391a:	f7ff fe2b 	bl	8003574 <Error_Handler>
 800391e:	2300      	movs	r3, #0
 8003920:	0020      	movs	r0, r4
 8003922:	a901      	add	r1, sp, #4
 8003924:	9301      	str	r3, [sp, #4]
 8003926:	9302      	str	r3, [sp, #8]
 8003928:	f002 ff8e 	bl	8006848 <HAL_TIMEx_MasterConfigSynchronization>
 800392c:	2800      	cmp	r0, #0
 800392e:	d001      	beq.n	8003934 <MX_TIM3_Init+0x80>
 8003930:	f7ff fe20 	bl	8003574 <Error_Handler>
 8003934:	2360      	movs	r3, #96	@ 0x60
 8003936:	9307      	str	r3, [sp, #28]
 8003938:	2300      	movs	r3, #0
 800393a:	2208      	movs	r2, #8
 800393c:	0020      	movs	r0, r4
 800393e:	a907      	add	r1, sp, #28
 8003940:	9308      	str	r3, [sp, #32]
 8003942:	9309      	str	r3, [sp, #36]	@ 0x24
 8003944:	930b      	str	r3, [sp, #44]	@ 0x2c
 8003946:	f002 fe0b 	bl	8006560 <HAL_TIM_PWM_ConfigChannel>
 800394a:	2800      	cmp	r0, #0
 800394c:	d001      	beq.n	8003952 <MX_TIM3_Init+0x9e>
 800394e:	f7ff fe11 	bl	8003574 <Error_Handler>
 8003952:	220c      	movs	r2, #12
 8003954:	0020      	movs	r0, r4
 8003956:	a907      	add	r1, sp, #28
 8003958:	f002 fe02 	bl	8006560 <HAL_TIM_PWM_ConfigChannel>
 800395c:	2800      	cmp	r0, #0
 800395e:	d001      	beq.n	8003964 <MX_TIM3_Init+0xb0>
 8003960:	f7ff fe08 	bl	8003574 <Error_Handler>
 8003964:	0020      	movs	r0, r4
 8003966:	f7ff ff7d 	bl	8003864 <HAL_TIM_MspPostInit>
 800396a:	b00e      	add	sp, #56	@ 0x38
 800396c:	bd10      	pop	{r4, pc}
 800396e:	46c0      	nop			@ (mov r8, r8)
 8003970:	20001700 	.word	0x20001700
 8003974:	40000400 	.word	0x40000400
 8003978:	00004e1f 	.word	0x00004e1f

0800397c <MX_USART1_UART_Init>:
 800397c:	480b      	ldr	r0, [pc, #44]	@ (80039ac <MX_USART1_UART_Init+0x30>)
 800397e:	4b0c      	ldr	r3, [pc, #48]	@ (80039b0 <MX_USART1_UART_Init+0x34>)
 8003980:	b510      	push	{r4, lr}
 8003982:	6003      	str	r3, [r0, #0]
 8003984:	2396      	movs	r3, #150	@ 0x96
 8003986:	021b      	lsls	r3, r3, #8
 8003988:	220c      	movs	r2, #12
 800398a:	6043      	str	r3, [r0, #4]
 800398c:	2300      	movs	r3, #0
 800398e:	6142      	str	r2, [r0, #20]
 8003990:	6083      	str	r3, [r0, #8]
 8003992:	60c3      	str	r3, [r0, #12]
 8003994:	6103      	str	r3, [r0, #16]
 8003996:	6183      	str	r3, [r0, #24]
 8003998:	61c3      	str	r3, [r0, #28]
 800399a:	6203      	str	r3, [r0, #32]
 800399c:	6243      	str	r3, [r0, #36]	@ 0x24
 800399e:	f003 f985 	bl	8006cac <HAL_UART_Init>
 80039a2:	2800      	cmp	r0, #0
 80039a4:	d001      	beq.n	80039aa <MX_USART1_UART_Init+0x2e>
 80039a6:	f7ff fde5 	bl	8003574 <Error_Handler>
 80039aa:	bd10      	pop	{r4, pc}
 80039ac:	200017d8 	.word	0x200017d8
 80039b0:	40013800 	.word	0x40013800

080039b4 <HAL_UART_MspInit>:
 80039b4:	b510      	push	{r4, lr}
 80039b6:	0004      	movs	r4, r0
 80039b8:	b088      	sub	sp, #32
 80039ba:	2214      	movs	r2, #20
 80039bc:	2100      	movs	r1, #0
 80039be:	a803      	add	r0, sp, #12
 80039c0:	f004 fdcd 	bl	800855e <memset>
 80039c4:	4b11      	ldr	r3, [pc, #68]	@ (8003a0c <HAL_UART_MspInit+0x58>)
 80039c6:	6822      	ldr	r2, [r4, #0]
 80039c8:	429a      	cmp	r2, r3
 80039ca:	d11c      	bne.n	8003a06 <HAL_UART_MspInit+0x52>
 80039cc:	2180      	movs	r1, #128	@ 0x80
 80039ce:	4b10      	ldr	r3, [pc, #64]	@ (8003a10 <HAL_UART_MspInit+0x5c>)
 80039d0:	01c9      	lsls	r1, r1, #7
 80039d2:	699a      	ldr	r2, [r3, #24]
 80039d4:	480f      	ldr	r0, [pc, #60]	@ (8003a14 <HAL_UART_MspInit+0x60>)
 80039d6:	430a      	orrs	r2, r1
 80039d8:	619a      	str	r2, [r3, #24]
 80039da:	699a      	ldr	r2, [r3, #24]
 80039dc:	400a      	ands	r2, r1
 80039de:	2180      	movs	r1, #128	@ 0x80
 80039e0:	9201      	str	r2, [sp, #4]
 80039e2:	9a01      	ldr	r2, [sp, #4]
 80039e4:	695a      	ldr	r2, [r3, #20]
 80039e6:	02c9      	lsls	r1, r1, #11
 80039e8:	430a      	orrs	r2, r1
 80039ea:	615a      	str	r2, [r3, #20]
 80039ec:	695b      	ldr	r3, [r3, #20]
 80039ee:	400b      	ands	r3, r1
 80039f0:	9302      	str	r3, [sp, #8]
 80039f2:	9b02      	ldr	r3, [sp, #8]
 80039f4:	23c0      	movs	r3, #192	@ 0xc0
 80039f6:	9303      	str	r3, [sp, #12]
 80039f8:	3bbe      	subs	r3, #190	@ 0xbe
 80039fa:	9304      	str	r3, [sp, #16]
 80039fc:	a903      	add	r1, sp, #12
 80039fe:	3301      	adds	r3, #1
 8003a00:	9306      	str	r3, [sp, #24]
 8003a02:	f000 fc99 	bl	8004338 <HAL_GPIO_Init>
 8003a06:	b008      	add	sp, #32
 8003a08:	bd10      	pop	{r4, pc}
 8003a0a:	46c0      	nop			@ (mov r8, r8)
 8003a0c:	40013800 	.word	0x40013800
 8003a10:	40021000 	.word	0x40021000
 8003a14:	48000400 	.word	0x48000400

08003a18 <FAC_jingles_delay>:
 8003a18:	b570      	push	{r4, r5, r6, lr}
 8003a1a:	210a      	movs	r1, #10
 8003a1c:	f7fc fb9a 	bl	8000154 <__udivsi3>
 8003a20:	2400      	movs	r4, #0
 8003a22:	b285      	uxth	r5, r0
 8003a24:	200a      	movs	r0, #10
 8003a26:	3401      	adds	r4, #1
 8003a28:	f000 f8dc 	bl	8003be4 <HAL_Delay>
 8003a2c:	b2a4      	uxth	r4, r4
 8003a2e:	4803      	ldr	r0, [pc, #12]	@ (8003a3c <FAC_jingles_delay+0x24>)
 8003a30:	f001 f924 	bl	8004c7c <HAL_IWDG_Refresh>
 8003a34:	42a5      	cmp	r5, r4
 8003a36:	d1f5      	bne.n	8003a24 <FAC_jingles_delay+0xc>
 8003a38:	bd70      	pop	{r4, r5, r6, pc}
 8003a3a:	46c0      	nop			@ (mov r8, r8)
 8003a3c:	20001648 	.word	0x20001648

08003a40 <FAC_jingle_Tequila>:
 8003a40:	b5f8      	push	{r3, r4, r5, r6, r7, lr}
 8003a42:	27c4      	movs	r7, #196	@ 0xc4
 8003a44:	4e2b      	ldr	r6, [pc, #172]	@ (8003af4 <FAC_jingle_Tequila+0xb4>)
 8003a46:	4c2c      	ldr	r4, [pc, #176]	@ (8003af8 <FAC_jingle_Tequila+0xb8>)
 8003a48:	0030      	movs	r0, r6
 8003a4a:	217d      	movs	r1, #125	@ 0x7d
 8003a4c:	f7fe fca8 	bl	80023a0 <FAC_motor_make_noise>
 8003a50:	217d      	movs	r1, #125	@ 0x7d
 8003a52:	0020      	movs	r0, r4
 8003a54:	4d29      	ldr	r5, [pc, #164]	@ (8003afc <FAC_jingle_Tequila+0xbc>)
 8003a56:	f7fe fca3 	bl	80023a0 <FAC_motor_make_noise>
 8003a5a:	207d      	movs	r0, #125	@ 0x7d
 8003a5c:	f7ff ffdc 	bl	8003a18 <FAC_jingles_delay>
 8003a60:	217d      	movs	r1, #125	@ 0x7d
 8003a62:	0020      	movs	r0, r4
 8003a64:	f7fe fc9c 	bl	80023a0 <FAC_motor_make_noise>
 8003a68:	00ff      	lsls	r7, r7, #3
 8003a6a:	0028      	movs	r0, r5
 8003a6c:	217d      	movs	r1, #125	@ 0x7d
 8003a6e:	f7fe fc97 	bl	80023a0 <FAC_motor_make_noise>
 8003a72:	217d      	movs	r1, #125	@ 0x7d
 8003a74:	0038      	movs	r0, r7
 8003a76:	f7fe fc93 	bl	80023a0 <FAC_motor_make_noise>
 8003a7a:	207d      	movs	r0, #125	@ 0x7d
 8003a7c:	f7ff ffcc 	bl	8003a18 <FAC_jingles_delay>
 8003a80:	0028      	movs	r0, r5
 8003a82:	217d      	movs	r1, #125	@ 0x7d
 8003a84:	f7fe fc8c 	bl	80023a0 <FAC_motor_make_noise>
 8003a88:	217d      	movs	r1, #125	@ 0x7d
 8003a8a:	0020      	movs	r0, r4
 8003a8c:	f7fe fc88 	bl	80023a0 <FAC_motor_make_noise>
 8003a90:	207d      	movs	r0, #125	@ 0x7d
 8003a92:	f7ff ffc1 	bl	8003a18 <FAC_jingles_delay>
 8003a96:	217d      	movs	r1, #125	@ 0x7d
 8003a98:	0030      	movs	r0, r6
 8003a9a:	f7fe fc81 	bl	80023a0 <FAC_motor_make_noise>
 8003a9e:	4818      	ldr	r0, [pc, #96]	@ (8003b00 <FAC_jingle_Tequila+0xc0>)
 8003aa0:	f7ff ffba 	bl	8003a18 <FAC_jingles_delay>
 8003aa4:	0030      	movs	r0, r6
 8003aa6:	217d      	movs	r1, #125	@ 0x7d
 8003aa8:	f7fe fc7a 	bl	80023a0 <FAC_motor_make_noise>
 8003aac:	217d      	movs	r1, #125	@ 0x7d
 8003aae:	0020      	movs	r0, r4
 8003ab0:	f7fe fc76 	bl	80023a0 <FAC_motor_make_noise>
 8003ab4:	207d      	movs	r0, #125	@ 0x7d
 8003ab6:	f7ff ffaf 	bl	8003a18 <FAC_jingles_delay>
 8003aba:	217d      	movs	r1, #125	@ 0x7d
 8003abc:	0020      	movs	r0, r4
 8003abe:	f7fe fc6f 	bl	80023a0 <FAC_motor_make_noise>
 8003ac2:	0028      	movs	r0, r5
 8003ac4:	217d      	movs	r1, #125	@ 0x7d
 8003ac6:	f7fe fc6b 	bl	80023a0 <FAC_motor_make_noise>
 8003aca:	217d      	movs	r1, #125	@ 0x7d
 8003acc:	0038      	movs	r0, r7
 8003ace:	f7fe fc67 	bl	80023a0 <FAC_motor_make_noise>
 8003ad2:	207d      	movs	r0, #125	@ 0x7d
 8003ad4:	f7ff ffa0 	bl	8003a18 <FAC_jingles_delay>
 8003ad8:	0028      	movs	r0, r5
 8003ada:	217d      	movs	r1, #125	@ 0x7d
 8003adc:	f7fe fc60 	bl	80023a0 <FAC_motor_make_noise>
 8003ae0:	217d      	movs	r1, #125	@ 0x7d
 8003ae2:	0020      	movs	r0, r4
 8003ae4:	f7fe fc5c 	bl	80023a0 <FAC_motor_make_noise>
 8003ae8:	20c8      	movs	r0, #200	@ 0xc8
 8003aea:	0080      	lsls	r0, r0, #2
 8003aec:	f7ff ff94 	bl	8003a18 <FAC_jingles_delay>
 8003af0:	bdf8      	pop	{r3, r4, r5, r6, r7, pc}
 8003af2:	46c0      	nop			@ (mov r8, r8)
 8003af4:	00000417 	.word	0x00000417
 8003af8:	00000575 	.word	0x00000575
 8003afc:	000004dd 	.word	0x000004dd
 8003b00:	00000271 	.word	0x00000271

08003b04 <Reset_Handler>:
 8003b04:	480d      	ldr	r0, [pc, #52]	@ (8003b3c <LoopForever+0x2>)
 8003b06:	4685      	mov	sp, r0
 8003b08:	f7ff fdd8 	bl	80036bc <SystemInit>
 8003b0c:	480c      	ldr	r0, [pc, #48]	@ (8003b40 <LoopForever+0x6>)
 8003b0e:	490d      	ldr	r1, [pc, #52]	@ (8003b44 <LoopForever+0xa>)
 8003b10:	4a0d      	ldr	r2, [pc, #52]	@ (8003b48 <LoopForever+0xe>)
 8003b12:	2300      	movs	r3, #0
 8003b14:	e002      	b.n	8003b1c <LoopCopyDataInit>

08003b16 <CopyDataInit>:
 8003b16:	58d4      	ldr	r4, [r2, r3]
 8003b18:	50c4      	str	r4, [r0, r3]
 8003b1a:	3304      	adds	r3, #4

08003b1c <LoopCopyDataInit>:
 8003b1c:	18c4      	adds	r4, r0, r3
 8003b1e:	428c      	cmp	r4, r1
 8003b20:	d3f9      	bcc.n	8003b16 <CopyDataInit>
 8003b22:	4a0a      	ldr	r2, [pc, #40]	@ (8003b4c <LoopForever+0x12>)
 8003b24:	4c0a      	ldr	r4, [pc, #40]	@ (8003b50 <LoopForever+0x16>)
 8003b26:	2300      	movs	r3, #0
 8003b28:	e001      	b.n	8003b2e <LoopFillZerobss>

08003b2a <FillZerobss>:
 8003b2a:	6013      	str	r3, [r2, #0]
 8003b2c:	3204      	adds	r2, #4

08003b2e <LoopFillZerobss>:
 8003b2e:	42a2      	cmp	r2, r4
 8003b30:	d3fb      	bcc.n	8003b2a <FillZerobss>
 8003b32:	f004 fd1d 	bl	8008570 <__libc_init_array>
 8003b36:	f7ff fcfd 	bl	8003534 <main>

08003b3a <LoopForever>:
 8003b3a:	e7fe      	b.n	8003b3a <LoopForever>
 8003b3c:	20004000 	.word	0x20004000
 8003b40:	20000000 	.word	0x20000000
 8003b44:	20000374 	.word	0x20000374
 8003b48:	080086d8 	.word	0x080086d8
 8003b4c:	20000374 	.word	0x20000374
 8003b50:	20002a28 	.word	0x20002a28

08003b54 <ADC1_COMP_IRQHandler>:
 8003b54:	e7fe      	b.n	8003b54 <ADC1_COMP_IRQHandler>
	...

08003b58 <HAL_InitTick>:
 8003b58:	b570      	push	{r4, r5, r6, lr}
 8003b5a:	0005      	movs	r5, r0
 8003b5c:	20fa      	movs	r0, #250	@ 0xfa
 8003b5e:	4b0d      	ldr	r3, [pc, #52]	@ (8003b94 <HAL_InitTick+0x3c>)
 8003b60:	0080      	lsls	r0, r0, #2
 8003b62:	7819      	ldrb	r1, [r3, #0]
 8003b64:	f7fc faf6 	bl	8000154 <__udivsi3>
 8003b68:	4c0b      	ldr	r4, [pc, #44]	@ (8003b98 <HAL_InitTick+0x40>)
 8003b6a:	0001      	movs	r1, r0
 8003b6c:	6820      	ldr	r0, [r4, #0]
 8003b6e:	f7fc faf1 	bl	8000154 <__udivsi3>
 8003b72:	f000 fae1 	bl	8004138 <HAL_SYSTICK_Config>
 8003b76:	0004      	movs	r4, r0
 8003b78:	2001      	movs	r0, #1
 8003b7a:	2c00      	cmp	r4, #0
 8003b7c:	d109      	bne.n	8003b92 <HAL_InitTick+0x3a>
 8003b7e:	2d03      	cmp	r5, #3
 8003b80:	d807      	bhi.n	8003b92 <HAL_InitTick+0x3a>
 8003b82:	3802      	subs	r0, #2
 8003b84:	0022      	movs	r2, r4
 8003b86:	0029      	movs	r1, r5
 8003b88:	f000 faa0 	bl	80040cc <HAL_NVIC_SetPriority>
 8003b8c:	0020      	movs	r0, r4
 8003b8e:	4b03      	ldr	r3, [pc, #12]	@ (8003b9c <HAL_InitTick+0x44>)
 8003b90:	601d      	str	r5, [r3, #0]
 8003b92:	bd70      	pop	{r4, r5, r6, pc}
 8003b94:	200001fc 	.word	0x200001fc
 8003b98:	200001f8 	.word	0x200001f8
 8003b9c:	20000200 	.word	0x20000200

08003ba0 <HAL_Init>:
 8003ba0:	2310      	movs	r3, #16
 8003ba2:	4a06      	ldr	r2, [pc, #24]	@ (8003bbc <HAL_Init+0x1c>)
 8003ba4:	b510      	push	{r4, lr}
 8003ba6:	6811      	ldr	r1, [r2, #0]
 8003ba8:	2003      	movs	r0, #3
 8003baa:	430b      	orrs	r3, r1
 8003bac:	6013      	str	r3, [r2, #0]
 8003bae:	f7ff ffd3 	bl	8003b58 <HAL_InitTick>
 8003bb2:	f7ff fd39 	bl	8003628 <HAL_MspInit>
 8003bb6:	2000      	movs	r0, #0
 8003bb8:	bd10      	pop	{r4, pc}
 8003bba:	46c0      	nop			@ (mov r8, r8)
 8003bbc:	40022000 	.word	0x40022000

08003bc0 <HAL_IncTick>:
 8003bc0:	4a03      	ldr	r2, [pc, #12]	@ (8003bd0 <HAL_IncTick+0x10>)
 8003bc2:	4b04      	ldr	r3, [pc, #16]	@ (8003bd4 <HAL_IncTick+0x14>)
 8003bc4:	6811      	ldr	r1, [r2, #0]
 8003bc6:	781b      	ldrb	r3, [r3, #0]
 8003bc8:	185b      	adds	r3, r3, r1
 8003bca:	6013      	str	r3, [r2, #0]
 8003bcc:	4770      	bx	lr
 8003bce:	46c0      	nop			@ (mov r8, r8)
 8003bd0:	20001860 	.word	0x20001860
 8003bd4:	200001fc 	.word	0x200001fc

08003bd8 <HAL_GetTick>:
 8003bd8:	4b01      	ldr	r3, [pc, #4]	@ (8003be0 <HAL_GetTick+0x8>)
 8003bda:	6818      	ldr	r0, [r3, #0]
 8003bdc:	4770      	bx	lr
 8003bde:	46c0      	nop			@ (mov r8, r8)
 8003be0:	20001860 	.word	0x20001860

08003be4 <HAL_Delay>:
 8003be4:	b570      	push	{r4, r5, r6, lr}
 8003be6:	0004      	movs	r4, r0
 8003be8:	f7ff fff6 	bl	8003bd8 <HAL_GetTick>
 8003bec:	0005      	movs	r5, r0
 8003bee:	1c63      	adds	r3, r4, #1
 8003bf0:	d002      	beq.n	8003bf8 <HAL_Delay+0x14>
 8003bf2:	4b04      	ldr	r3, [pc, #16]	@ (8003c04 <HAL_Delay+0x20>)
 8003bf4:	781b      	ldrb	r3, [r3, #0]
 8003bf6:	18e4      	adds	r4, r4, r3
 8003bf8:	f7ff ffee 	bl	8003bd8 <HAL_GetTick>
 8003bfc:	1b40      	subs	r0, r0, r5
 8003bfe:	42a0      	cmp	r0, r4
 8003c00:	d3fa      	bcc.n	8003bf8 <HAL_Delay+0x14>
 8003c02:	bd70      	pop	{r4, r5, r6, pc}
 8003c04:	200001fc 	.word	0x200001fc

08003c08 <ADC_Enable.constprop.0>:
 8003c08:	2300      	movs	r3, #0
 8003c0a:	b573      	push	{r0, r1, r4, r5, r6, lr}
 8003c0c:	2103      	movs	r1, #3
 8003c0e:	9301      	str	r3, [sp, #4]
 8003c10:	6803      	ldr	r3, [r0, #0]
 8003c12:	0004      	movs	r4, r0
 8003c14:	689a      	ldr	r2, [r3, #8]
 8003c16:	400a      	ands	r2, r1
 8003c18:	2a01      	cmp	r2, #1
 8003c1a:	d107      	bne.n	8003c2c <ADC_Enable.constprop.0+0x24>
 8003c1c:	6819      	ldr	r1, [r3, #0]
 8003c1e:	4211      	tst	r1, r2
 8003c20:	d001      	beq.n	8003c26 <ADC_Enable.constprop.0+0x1e>
 8003c22:	2000      	movs	r0, #0
 8003c24:	bd76      	pop	{r1, r2, r4, r5, r6, pc}
 8003c26:	68da      	ldr	r2, [r3, #12]
 8003c28:	0412      	lsls	r2, r2, #16
 8003c2a:	d4fa      	bmi.n	8003c22 <ADC_Enable.constprop.0+0x1a>
 8003c2c:	6899      	ldr	r1, [r3, #8]
 8003c2e:	4a1b      	ldr	r2, [pc, #108]	@ (8003c9c <ADC_Enable.constprop.0+0x94>)
 8003c30:	4211      	tst	r1, r2
 8003c32:	d009      	beq.n	8003c48 <ADC_Enable.constprop.0+0x40>
 8003c34:	2310      	movs	r3, #16
 8003c36:	6ba2      	ldr	r2, [r4, #56]	@ 0x38
 8003c38:	4313      	orrs	r3, r2
 8003c3a:	63a3      	str	r3, [r4, #56]	@ 0x38
 8003c3c:	2301      	movs	r3, #1
 8003c3e:	6be2      	ldr	r2, [r4, #60]	@ 0x3c
 8003c40:	4313      	orrs	r3, r2
 8003c42:	2001      	movs	r0, #1
 8003c44:	63e3      	str	r3, [r4, #60]	@ 0x3c
 8003c46:	e7ed      	b.n	8003c24 <ADC_Enable.constprop.0+0x1c>
 8003c48:	2201      	movs	r2, #1
 8003c4a:	6899      	ldr	r1, [r3, #8]
 8003c4c:	430a      	orrs	r2, r1
 8003c4e:	609a      	str	r2, [r3, #8]
 8003c50:	4b13      	ldr	r3, [pc, #76]	@ (8003ca0 <ADC_Enable.constprop.0+0x98>)
 8003c52:	4914      	ldr	r1, [pc, #80]	@ (8003ca4 <ADC_Enable.constprop.0+0x9c>)
 8003c54:	6818      	ldr	r0, [r3, #0]
 8003c56:	f7fc fa7d 	bl	8000154 <__udivsi3>
 8003c5a:	9001      	str	r0, [sp, #4]
 8003c5c:	9b01      	ldr	r3, [sp, #4]
 8003c5e:	2b00      	cmp	r3, #0
 8003c60:	d117      	bne.n	8003c92 <ADC_Enable.constprop.0+0x8a>
 8003c62:	f7ff ffb9 	bl	8003bd8 <HAL_GetTick>
 8003c66:	2501      	movs	r5, #1
 8003c68:	0006      	movs	r6, r0
 8003c6a:	6823      	ldr	r3, [r4, #0]
 8003c6c:	681b      	ldr	r3, [r3, #0]
 8003c6e:	422b      	tst	r3, r5
 8003c70:	d1d7      	bne.n	8003c22 <ADC_Enable.constprop.0+0x1a>
 8003c72:	f7ff ffb1 	bl	8003bd8 <HAL_GetTick>
 8003c76:	1b80      	subs	r0, r0, r6
 8003c78:	2802      	cmp	r0, #2
 8003c7a:	d9f6      	bls.n	8003c6a <ADC_Enable.constprop.0+0x62>
 8003c7c:	6823      	ldr	r3, [r4, #0]
 8003c7e:	681b      	ldr	r3, [r3, #0]
 8003c80:	422b      	tst	r3, r5
 8003c82:	d1f2      	bne.n	8003c6a <ADC_Enable.constprop.0+0x62>
 8003c84:	2310      	movs	r3, #16
 8003c86:	6ba2      	ldr	r2, [r4, #56]	@ 0x38
 8003c88:	4313      	orrs	r3, r2
 8003c8a:	63a3      	str	r3, [r4, #56]	@ 0x38
 8003c8c:	6be3      	ldr	r3, [r4, #60]	@ 0x3c
 8003c8e:	432b      	orrs	r3, r5
 8003c90:	e7d7      	b.n	8003c42 <ADC_Enable.constprop.0+0x3a>
 8003c92:	9b01      	ldr	r3, [sp, #4]
 8003c94:	3b01      	subs	r3, #1
 8003c96:	9301      	str	r3, [sp, #4]
 8003c98:	e7e0      	b.n	8003c5c <ADC_Enable.constprop.0+0x54>
 8003c9a:	46c0      	nop			@ (mov r8, r8)
 8003c9c:	80000017 	.word	0x80000017
 8003ca0:	200001f8 	.word	0x200001f8
 8003ca4:	000f4240 	.word	0x000f4240

08003ca8 <HAL_ADC_Init>:
 8003ca8:	b570      	push	{r4, r5, r6, lr}
 8003caa:	1e04      	subs	r4, r0, #0
 8003cac:	d100      	bne.n	8003cb0 <HAL_ADC_Init+0x8>
 8003cae:	e090      	b.n	8003dd2 <HAL_ADC_Init+0x12a>
 8003cb0:	6b83      	ldr	r3, [r0, #56]	@ 0x38
 8003cb2:	2b00      	cmp	r3, #0
 8003cb4:	d105      	bne.n	8003cc2 <HAL_ADC_Init+0x1a>
 8003cb6:	0002      	movs	r2, r0
 8003cb8:	3234      	adds	r2, #52	@ 0x34
 8003cba:	63c3      	str	r3, [r0, #60]	@ 0x3c
 8003cbc:	7013      	strb	r3, [r2, #0]
 8003cbe:	f7ff fa71 	bl	80031a4 <HAL_ADC_MspInit>
 8003cc2:	6ba3      	ldr	r3, [r4, #56]	@ 0x38
 8003cc4:	06db      	lsls	r3, r3, #27
 8003cc6:	d500      	bpl.n	8003cca <HAL_ADC_Init+0x22>
 8003cc8:	e085      	b.n	8003dd6 <HAL_ADC_Init+0x12e>
 8003cca:	6822      	ldr	r2, [r4, #0]
 8003ccc:	6893      	ldr	r3, [r2, #8]
 8003cce:	075b      	lsls	r3, r3, #29
 8003cd0:	d500      	bpl.n	8003cd4 <HAL_ADC_Init+0x2c>
 8003cd2:	e080      	b.n	8003dd6 <HAL_ADC_Init+0x12e>
 8003cd4:	6ba1      	ldr	r1, [r4, #56]	@ 0x38
 8003cd6:	4b42      	ldr	r3, [pc, #264]	@ (8003de0 <HAL_ADC_Init+0x138>)
 8003cd8:	4019      	ands	r1, r3
 8003cda:	3306      	adds	r3, #6
 8003cdc:	33ff      	adds	r3, #255	@ 0xff
 8003cde:	430b      	orrs	r3, r1
 8003ce0:	2103      	movs	r1, #3
 8003ce2:	63a3      	str	r3, [r4, #56]	@ 0x38
 8003ce4:	6893      	ldr	r3, [r2, #8]
 8003ce6:	400b      	ands	r3, r1
 8003ce8:	2b01      	cmp	r3, #1
 8003cea:	d105      	bne.n	8003cf8 <HAL_ADC_Init+0x50>
 8003cec:	6811      	ldr	r1, [r2, #0]
 8003cee:	4219      	tst	r1, r3
 8003cf0:	d10e      	bne.n	8003d10 <HAL_ADC_Init+0x68>
 8003cf2:	68d3      	ldr	r3, [r2, #12]
 8003cf4:	041b      	lsls	r3, r3, #16
 8003cf6:	d40b      	bmi.n	8003d10 <HAL_ADC_Init+0x68>
 8003cf8:	2118      	movs	r1, #24
 8003cfa:	68d3      	ldr	r3, [r2, #12]
 8003cfc:	438b      	bics	r3, r1
 8003cfe:	68a1      	ldr	r1, [r4, #8]
 8003d00:	430b      	orrs	r3, r1
 8003d02:	60d3      	str	r3, [r2, #12]
 8003d04:	6913      	ldr	r3, [r2, #16]
 8003d06:	6861      	ldr	r1, [r4, #4]
 8003d08:	009b      	lsls	r3, r3, #2
 8003d0a:	089b      	lsrs	r3, r3, #2
 8003d0c:	430b      	orrs	r3, r1
 8003d0e:	6113      	str	r3, [r2, #16]
 8003d10:	68d3      	ldr	r3, [r2, #12]
 8003d12:	4934      	ldr	r1, [pc, #208]	@ (8003de4 <HAL_ADC_Init+0x13c>)
 8003d14:	400b      	ands	r3, r1
 8003d16:	60d3      	str	r3, [r2, #12]
 8003d18:	7e23      	ldrb	r3, [r4, #24]
 8003d1a:	7e60      	ldrb	r0, [r4, #25]
 8003d1c:	039b      	lsls	r3, r3, #14
 8003d1e:	03c0      	lsls	r0, r0, #15
 8003d20:	4303      	orrs	r3, r0
 8003d22:	7ea1      	ldrb	r1, [r4, #26]
 8003d24:	68e0      	ldr	r0, [r4, #12]
 8003d26:	4303      	orrs	r3, r0
 8003d28:	0348      	lsls	r0, r1, #13
 8003d2a:	4303      	orrs	r3, r0
 8003d2c:	1d60      	adds	r0, r4, #5
 8003d2e:	7fc0      	ldrb	r0, [r0, #31]
 8003d30:	0040      	lsls	r0, r0, #1
 8003d32:	4303      	orrs	r3, r0
 8003d34:	6aa0      	ldr	r0, [r4, #40]	@ 0x28
 8003d36:	3801      	subs	r0, #1
 8003d38:	1e45      	subs	r5, r0, #1
 8003d3a:	41a8      	sbcs	r0, r5
 8003d3c:	0300      	lsls	r0, r0, #12
 8003d3e:	4303      	orrs	r3, r0
 8003d40:	6920      	ldr	r0, [r4, #16]
 8003d42:	3802      	subs	r0, #2
 8003d44:	4245      	negs	r5, r0
 8003d46:	4168      	adcs	r0, r5
 8003d48:	0080      	lsls	r0, r0, #2
 8003d4a:	4303      	orrs	r3, r0
 8003d4c:	7ee0      	ldrb	r0, [r4, #27]
 8003d4e:	2801      	cmp	r0, #1
 8003d50:	d104      	bne.n	8003d5c <HAL_ADC_Init+0xb4>
 8003d52:	2900      	cmp	r1, #0
 8003d54:	d12b      	bne.n	8003dae <HAL_ADC_Init+0x106>
 8003d56:	2180      	movs	r1, #128	@ 0x80
 8003d58:	0249      	lsls	r1, r1, #9
 8003d5a:	430b      	orrs	r3, r1
 8003d5c:	20c2      	movs	r0, #194	@ 0xc2
 8003d5e:	69e1      	ldr	r1, [r4, #28]
 8003d60:	30ff      	adds	r0, #255	@ 0xff
 8003d62:	4281      	cmp	r1, r0
 8003d64:	d002      	beq.n	8003d6c <HAL_ADC_Init+0xc4>
 8003d66:	6a20      	ldr	r0, [r4, #32]
 8003d68:	4301      	orrs	r1, r0
 8003d6a:	430b      	orrs	r3, r1
 8003d6c:	2080      	movs	r0, #128	@ 0x80
 8003d6e:	68d1      	ldr	r1, [r2, #12]
 8003d70:	0540      	lsls	r0, r0, #21
 8003d72:	4319      	orrs	r1, r3
 8003d74:	60d1      	str	r1, [r2, #12]
 8003d76:	6ae1      	ldr	r1, [r4, #44]	@ 0x2c
 8003d78:	4281      	cmp	r1, r0
 8003d7a:	d002      	beq.n	8003d82 <HAL_ADC_Init+0xda>
 8003d7c:	1e48      	subs	r0, r1, #1
 8003d7e:	2806      	cmp	r0, #6
 8003d80:	d807      	bhi.n	8003d92 <HAL_ADC_Init+0xea>
 8003d82:	2507      	movs	r5, #7
 8003d84:	6950      	ldr	r0, [r2, #20]
 8003d86:	4029      	ands	r1, r5
 8003d88:	43a8      	bics	r0, r5
 8003d8a:	6150      	str	r0, [r2, #20]
 8003d8c:	6950      	ldr	r0, [r2, #20]
 8003d8e:	4301      	orrs	r1, r0
 8003d90:	6151      	str	r1, [r2, #20]
 8003d92:	68d2      	ldr	r2, [r2, #12]
 8003d94:	4914      	ldr	r1, [pc, #80]	@ (8003de8 <HAL_ADC_Init+0x140>)
 8003d96:	400a      	ands	r2, r1
 8003d98:	429a      	cmp	r2, r3
 8003d9a:	d110      	bne.n	8003dbe <HAL_ADC_Init+0x116>
 8003d9c:	2000      	movs	r0, #0
 8003d9e:	2303      	movs	r3, #3
 8003da0:	63e0      	str	r0, [r4, #60]	@ 0x3c
 8003da2:	6ba2      	ldr	r2, [r4, #56]	@ 0x38
 8003da4:	439a      	bics	r2, r3
 8003da6:	3b02      	subs	r3, #2
 8003da8:	4313      	orrs	r3, r2
 8003daa:	63a3      	str	r3, [r4, #56]	@ 0x38
 8003dac:	bd70      	pop	{r4, r5, r6, pc}
 8003dae:	2120      	movs	r1, #32
 8003db0:	6ba5      	ldr	r5, [r4, #56]	@ 0x38
 8003db2:	4329      	orrs	r1, r5
 8003db4:	63a1      	str	r1, [r4, #56]	@ 0x38
 8003db6:	6be1      	ldr	r1, [r4, #60]	@ 0x3c
 8003db8:	4308      	orrs	r0, r1
 8003dba:	63e0      	str	r0, [r4, #60]	@ 0x3c
 8003dbc:	e7ce      	b.n	8003d5c <HAL_ADC_Init+0xb4>
 8003dbe:	2312      	movs	r3, #18
 8003dc0:	6ba2      	ldr	r2, [r4, #56]	@ 0x38
 8003dc2:	439a      	bics	r2, r3
 8003dc4:	3b02      	subs	r3, #2
 8003dc6:	4313      	orrs	r3, r2
 8003dc8:	63a3      	str	r3, [r4, #56]	@ 0x38
 8003dca:	2301      	movs	r3, #1
 8003dcc:	6be2      	ldr	r2, [r4, #60]	@ 0x3c
 8003dce:	4313      	orrs	r3, r2
 8003dd0:	63e3      	str	r3, [r4, #60]	@ 0x3c
 8003dd2:	2001      	movs	r0, #1
 8003dd4:	e7ea      	b.n	8003dac <HAL_ADC_Init+0x104>
 8003dd6:	2310      	movs	r3, #16
 8003dd8:	6ba2      	ldr	r2, [r4, #56]	@ 0x38
 8003dda:	4313      	orrs	r3, r2
 8003ddc:	63a3      	str	r3, [r4, #56]	@ 0x38
 8003dde:	e7f8      	b.n	8003dd2 <HAL_ADC_Init+0x12a>
 8003de0:	fffffefd 	.word	0xfffffefd
 8003de4:	fffe0219 	.word	0xfffe0219
 8003de8:	833fffe7 	.word	0x833fffe7

08003dec <HAL_ADC_Start_DMA>:
 8003dec:	b5f7      	push	{r0, r1, r2, r4, r5, r6, r7, lr}
 8003dee:	6803      	ldr	r3, [r0, #0]
 8003df0:	0004      	movs	r4, r0
 8003df2:	689b      	ldr	r3, [r3, #8]
 8003df4:	000e      	movs	r6, r1
 8003df6:	2002      	movs	r0, #2
 8003df8:	9201      	str	r2, [sp, #4]
 8003dfa:	075b      	lsls	r3, r3, #29
 8003dfc:	d430      	bmi.n	8003e60 <HAL_ADC_Start_DMA+0x74>
 8003dfe:	0027      	movs	r7, r4
 8003e00:	3734      	adds	r7, #52	@ 0x34
 8003e02:	783b      	ldrb	r3, [r7, #0]
 8003e04:	2b01      	cmp	r3, #1
 8003e06:	d02b      	beq.n	8003e60 <HAL_ADC_Start_DMA+0x74>
 8003e08:	2301      	movs	r3, #1
 8003e0a:	703b      	strb	r3, [r7, #0]
 8003e0c:	7e63      	ldrb	r3, [r4, #25]
 8003e0e:	2b01      	cmp	r3, #1
 8003e10:	d127      	bne.n	8003e62 <HAL_ADC_Start_DMA+0x76>
 8003e12:	6ba2      	ldr	r2, [r4, #56]	@ 0x38
 8003e14:	4b16      	ldr	r3, [pc, #88]	@ (8003e70 <HAL_ADC_Start_DMA+0x84>)
 8003e16:	2500      	movs	r5, #0
 8003e18:	401a      	ands	r2, r3
 8003e1a:	2380      	movs	r3, #128	@ 0x80
 8003e1c:	005b      	lsls	r3, r3, #1
 8003e1e:	4313      	orrs	r3, r2
 8003e20:	63a3      	str	r3, [r4, #56]	@ 0x38
 8003e22:	63e5      	str	r5, [r4, #60]	@ 0x3c
 8003e24:	703d      	strb	r5, [r7, #0]
 8003e26:	6b20      	ldr	r0, [r4, #48]	@ 0x30
 8003e28:	4b12      	ldr	r3, [pc, #72]	@ (8003e74 <HAL_ADC_Start_DMA+0x88>)
 8003e2a:	6821      	ldr	r1, [r4, #0]
 8003e2c:	6283      	str	r3, [r0, #40]	@ 0x28
 8003e2e:	4b12      	ldr	r3, [pc, #72]	@ (8003e78 <HAL_ADC_Start_DMA+0x8c>)
 8003e30:	62c3      	str	r3, [r0, #44]	@ 0x2c
 8003e32:	4b12      	ldr	r3, [pc, #72]	@ (8003e7c <HAL_ADC_Start_DMA+0x90>)
 8003e34:	6303      	str	r3, [r0, #48]	@ 0x30
 8003e36:	231c      	movs	r3, #28
 8003e38:	600b      	str	r3, [r1, #0]
 8003e3a:	684a      	ldr	r2, [r1, #4]
 8003e3c:	3b0c      	subs	r3, #12
 8003e3e:	4313      	orrs	r3, r2
 8003e40:	604b      	str	r3, [r1, #4]
 8003e42:	2301      	movs	r3, #1
 8003e44:	68ca      	ldr	r2, [r1, #12]
 8003e46:	4313      	orrs	r3, r2
 8003e48:	60cb      	str	r3, [r1, #12]
 8003e4a:	0032      	movs	r2, r6
 8003e4c:	9b01      	ldr	r3, [sp, #4]
 8003e4e:	3140      	adds	r1, #64	@ 0x40
 8003e50:	f000 f9ec 	bl	800422c <HAL_DMA_Start_IT>
 8003e54:	2304      	movs	r3, #4
 8003e56:	0028      	movs	r0, r5
 8003e58:	6822      	ldr	r2, [r4, #0]
 8003e5a:	6891      	ldr	r1, [r2, #8]
 8003e5c:	430b      	orrs	r3, r1
 8003e5e:	6093      	str	r3, [r2, #8]
 8003e60:	bdfe      	pop	{r1, r2, r3, r4, r5, r6, r7, pc}
 8003e62:	0020      	movs	r0, r4
 8003e64:	f7ff fed0 	bl	8003c08 <ADC_Enable.constprop.0>
 8003e68:	2800      	cmp	r0, #0
 8003e6a:	d0d2      	beq.n	8003e12 <HAL_ADC_Start_DMA+0x26>
 8003e6c:	e7f8      	b.n	8003e60 <HAL_ADC_Start_DMA+0x74>
 8003e6e:	46c0      	nop			@ (mov r8, r8)
 8003e70:	fffff0fe 	.word	0xfffff0fe
 8003e74:	08003e85 	.word	0x08003e85
 8003e78:	08003ef7 	.word	0x08003ef7
 8003e7c:	08003f03 	.word	0x08003f03

08003e80 <HAL_ADC_ConvCpltCallback>:
 8003e80:	4770      	bx	lr
	...

08003e84 <ADC_DMAConvCplt>:
 8003e84:	2250      	movs	r2, #80	@ 0x50
 8003e86:	6a43      	ldr	r3, [r0, #36]	@ 0x24
 8003e88:	b510      	push	{r4, lr}
 8003e8a:	6b99      	ldr	r1, [r3, #56]	@ 0x38
 8003e8c:	4211      	tst	r1, r2
 8003e8e:	d12b      	bne.n	8003ee8 <ADC_DMAConvCplt+0x64>
 8003e90:	6b99      	ldr	r1, [r3, #56]	@ 0x38
 8003e92:	32b1      	adds	r2, #177	@ 0xb1
 8003e94:	32ff      	adds	r2, #255	@ 0xff
 8003e96:	430a      	orrs	r2, r1
 8003e98:	21c0      	movs	r1, #192	@ 0xc0
 8003e9a:	639a      	str	r2, [r3, #56]	@ 0x38
 8003e9c:	681a      	ldr	r2, [r3, #0]
 8003e9e:	0109      	lsls	r1, r1, #4
 8003ea0:	68d0      	ldr	r0, [r2, #12]
 8003ea2:	4208      	tst	r0, r1
 8003ea4:	d113      	bne.n	8003ece <ADC_DMAConvCplt+0x4a>
 8003ea6:	7e99      	ldrb	r1, [r3, #26]
 8003ea8:	2900      	cmp	r1, #0
 8003eaa:	d110      	bne.n	8003ece <ADC_DMAConvCplt+0x4a>
 8003eac:	6811      	ldr	r1, [r2, #0]
 8003eae:	0709      	lsls	r1, r1, #28
 8003eb0:	d50d      	bpl.n	8003ece <ADC_DMAConvCplt+0x4a>
 8003eb2:	6891      	ldr	r1, [r2, #8]
 8003eb4:	0749      	lsls	r1, r1, #29
 8003eb6:	d40e      	bmi.n	8003ed6 <ADC_DMAConvCplt+0x52>
 8003eb8:	200c      	movs	r0, #12
 8003eba:	6851      	ldr	r1, [r2, #4]
 8003ebc:	4381      	bics	r1, r0
 8003ebe:	6051      	str	r1, [r2, #4]
 8003ec0:	6b99      	ldr	r1, [r3, #56]	@ 0x38
 8003ec2:	4a0b      	ldr	r2, [pc, #44]	@ (8003ef0 <ADC_DMAConvCplt+0x6c>)
 8003ec4:	4011      	ands	r1, r2
 8003ec6:	3204      	adds	r2, #4
 8003ec8:	32ff      	adds	r2, #255	@ 0xff
 8003eca:	430a      	orrs	r2, r1
 8003ecc:	639a      	str	r2, [r3, #56]	@ 0x38
 8003ece:	0018      	movs	r0, r3
 8003ed0:	f7ff ffd6 	bl	8003e80 <HAL_ADC_ConvCpltCallback>
 8003ed4:	bd10      	pop	{r4, pc}
 8003ed6:	2220      	movs	r2, #32
 8003ed8:	6b99      	ldr	r1, [r3, #56]	@ 0x38
 8003eda:	430a      	orrs	r2, r1
 8003edc:	639a      	str	r2, [r3, #56]	@ 0x38
 8003ede:	2201      	movs	r2, #1
 8003ee0:	6bd9      	ldr	r1, [r3, #60]	@ 0x3c
 8003ee2:	430a      	orrs	r2, r1
 8003ee4:	63da      	str	r2, [r3, #60]	@ 0x3c
 8003ee6:	e7f2      	b.n	8003ece <ADC_DMAConvCplt+0x4a>
 8003ee8:	6b1b      	ldr	r3, [r3, #48]	@ 0x30
 8003eea:	6b1b      	ldr	r3, [r3, #48]	@ 0x30
 8003eec:	4798      	blx	r3
 8003eee:	e7f1      	b.n	8003ed4 <ADC_DMAConvCplt+0x50>
 8003ef0:	fffffefe 	.word	0xfffffefe

08003ef4 <HAL_ADC_ConvHalfCpltCallback>:
 8003ef4:	4770      	bx	lr

08003ef6 <ADC_DMAHalfConvCplt>:
 8003ef6:	b510      	push	{r4, lr}
 8003ef8:	6a40      	ldr	r0, [r0, #36]	@ 0x24
 8003efa:	f7ff fffb 	bl	8003ef4 <HAL_ADC_ConvHalfCpltCallback>
 8003efe:	bd10      	pop	{r4, pc}

08003f00 <HAL_ADC_ErrorCallback>:
 8003f00:	4770      	bx	lr

08003f02 <ADC_DMAError>:
 8003f02:	2340      	movs	r3, #64	@ 0x40
 8003f04:	6a40      	ldr	r0, [r0, #36]	@ 0x24
 8003f06:	b510      	push	{r4, lr}
 8003f08:	6b82      	ldr	r2, [r0, #56]	@ 0x38
 8003f0a:	4313      	orrs	r3, r2
 8003f0c:	6383      	str	r3, [r0, #56]	@ 0x38
 8003f0e:	2304      	movs	r3, #4
 8003f10:	6bc2      	ldr	r2, [r0, #60]	@ 0x3c
 8003f12:	4313      	orrs	r3, r2
 8003f14:	63c3      	str	r3, [r0, #60]	@ 0x3c
 8003f16:	f7ff fff3 	bl	8003f00 <HAL_ADC_ErrorCallback>
 8003f1a:	bd10      	pop	{r4, pc}

08003f1c <HAL_ADC_ConfigChannel>:
 8003f1c:	b5f7      	push	{r0, r1, r2, r4, r5, r6, r7, lr}
 8003f1e:	2200      	movs	r2, #0
 8003f20:	0004      	movs	r4, r0
 8003f22:	9201      	str	r2, [sp, #4]
 8003f24:	3434      	adds	r4, #52	@ 0x34
 8003f26:	7822      	ldrb	r2, [r4, #0]
 8003f28:	0003      	movs	r3, r0
 8003f2a:	6ac6      	ldr	r6, [r0, #44]	@ 0x2c
 8003f2c:	2002      	movs	r0, #2
 8003f2e:	2a01      	cmp	r2, #1
 8003f30:	d02c      	beq.n	8003f8c <HAL_ADC_ConfigChannel+0x70>
 8003f32:	3801      	subs	r0, #1
 8003f34:	7020      	strb	r0, [r4, #0]
 8003f36:	681a      	ldr	r2, [r3, #0]
 8003f38:	6895      	ldr	r5, [r2, #8]
 8003f3a:	076d      	lsls	r5, r5, #29
 8003f3c:	d45b      	bmi.n	8003ff6 <HAL_ADC_ConfigChannel+0xda>
 8003f3e:	680b      	ldr	r3, [r1, #0]
 8003f40:	684f      	ldr	r7, [r1, #4]
 8003f42:	001d      	movs	r5, r3
 8003f44:	46bc      	mov	ip, r7
 8003f46:	4f2e      	ldr	r7, [pc, #184]	@ (8004000 <HAL_ADC_ConfigChannel+0xe4>)
 8003f48:	4098      	lsls	r0, r3
 8003f4a:	3d10      	subs	r5, #16
 8003f4c:	45bc      	cmp	ip, r7
 8003f4e:	d03c      	beq.n	8003fca <HAL_ADC_ConfigChannel+0xae>
 8003f50:	6a97      	ldr	r7, [r2, #40]	@ 0x28
 8003f52:	4338      	orrs	r0, r7
 8003f54:	6290      	str	r0, [r2, #40]	@ 0x28
 8003f56:	2e07      	cmp	r6, #7
 8003f58:	d80f      	bhi.n	8003f7a <HAL_ADC_ConfigChannel+0x5e>
 8003f5a:	2e00      	cmp	r6, #0
 8003f5c:	d111      	bne.n	8003f82 <HAL_ADC_ConfigChannel+0x66>
 8003f5e:	2007      	movs	r0, #7
 8003f60:	6956      	ldr	r6, [r2, #20]
 8003f62:	6889      	ldr	r1, [r1, #8]
 8003f64:	4006      	ands	r6, r0
 8003f66:	42b1      	cmp	r1, r6
 8003f68:	d00b      	beq.n	8003f82 <HAL_ADC_ConfigChannel+0x66>
 8003f6a:	6956      	ldr	r6, [r2, #20]
 8003f6c:	4001      	ands	r1, r0
 8003f6e:	4386      	bics	r6, r0
 8003f70:	6156      	str	r6, [r2, #20]
 8003f72:	6956      	ldr	r6, [r2, #20]
 8003f74:	4331      	orrs	r1, r6
 8003f76:	6151      	str	r1, [r2, #20]
 8003f78:	e003      	b.n	8003f82 <HAL_ADC_ConfigChannel+0x66>
 8003f7a:	2080      	movs	r0, #128	@ 0x80
 8003f7c:	0540      	lsls	r0, r0, #21
 8003f7e:	4286      	cmp	r6, r0
 8003f80:	d1ed      	bne.n	8003f5e <HAL_ADC_ConfigChannel+0x42>
 8003f82:	2d02      	cmp	r5, #2
 8003f84:	d903      	bls.n	8003f8e <HAL_ADC_ConfigChannel+0x72>
 8003f86:	2000      	movs	r0, #0
 8003f88:	2300      	movs	r3, #0
 8003f8a:	7023      	strb	r3, [r4, #0]
 8003f8c:	bdfe      	pop	{r1, r2, r3, r4, r5, r6, r7, pc}
 8003f8e:	481d      	ldr	r0, [pc, #116]	@ (8004004 <HAL_ADC_ConfigChannel+0xe8>)
 8003f90:	2180      	movs	r1, #128	@ 0x80
 8003f92:	6802      	ldr	r2, [r0, #0]
 8003f94:	2b10      	cmp	r3, #16
 8003f96:	d014      	beq.n	8003fc2 <HAL_ADC_ConfigChannel+0xa6>
 8003f98:	2b11      	cmp	r3, #17
 8003f9a:	d114      	bne.n	8003fc6 <HAL_ADC_ConfigChannel+0xaa>
 8003f9c:	03c9      	lsls	r1, r1, #15
 8003f9e:	430a      	orrs	r2, r1
 8003fa0:	6002      	str	r2, [r0, #0]
 8003fa2:	2b10      	cmp	r3, #16
 8003fa4:	d1ef      	bne.n	8003f86 <HAL_ADC_ConfigChannel+0x6a>
 8003fa6:	4b18      	ldr	r3, [pc, #96]	@ (8004008 <HAL_ADC_ConfigChannel+0xec>)
 8003fa8:	4918      	ldr	r1, [pc, #96]	@ (800400c <HAL_ADC_ConfigChannel+0xf0>)
 8003faa:	6818      	ldr	r0, [r3, #0]
 8003fac:	f7fc f8d2 	bl	8000154 <__udivsi3>
 8003fb0:	230a      	movs	r3, #10
 8003fb2:	4343      	muls	r3, r0
 8003fb4:	9301      	str	r3, [sp, #4]
 8003fb6:	9b01      	ldr	r3, [sp, #4]
 8003fb8:	2b00      	cmp	r3, #0
 8003fba:	d0e4      	beq.n	8003f86 <HAL_ADC_ConfigChannel+0x6a>
 8003fbc:	9b01      	ldr	r3, [sp, #4]
 8003fbe:	3b01      	subs	r3, #1
 8003fc0:	e7f8      	b.n	8003fb4 <HAL_ADC_ConfigChannel+0x98>
 8003fc2:	0409      	lsls	r1, r1, #16
 8003fc4:	e7eb      	b.n	8003f9e <HAL_ADC_ConfigChannel+0x82>
 8003fc6:	0449      	lsls	r1, r1, #17
 8003fc8:	e7e9      	b.n	8003f9e <HAL_ADC_ConfigChannel+0x82>
 8003fca:	6a91      	ldr	r1, [r2, #40]	@ 0x28
 8003fcc:	4381      	bics	r1, r0
 8003fce:	6291      	str	r1, [r2, #40]	@ 0x28
 8003fd0:	2d02      	cmp	r5, #2
 8003fd2:	d8d8      	bhi.n	8003f86 <HAL_ADC_ConfigChannel+0x6a>
 8003fd4:	4a0b      	ldr	r2, [pc, #44]	@ (8004004 <HAL_ADC_ConfigChannel+0xe8>)
 8003fd6:	6811      	ldr	r1, [r2, #0]
 8003fd8:	2b10      	cmp	r3, #16
 8003fda:	d00a      	beq.n	8003ff2 <HAL_ADC_ConfigChannel+0xd6>
 8003fdc:	3b11      	subs	r3, #17
 8003fde:	1e58      	subs	r0, r3, #1
 8003fe0:	4183      	sbcs	r3, r0
 8003fe2:	480b      	ldr	r0, [pc, #44]	@ (8004010 <HAL_ADC_ConfigChannel+0xf4>)
 8003fe4:	425b      	negs	r3, r3
 8003fe6:	4003      	ands	r3, r0
 8003fe8:	480a      	ldr	r0, [pc, #40]	@ (8004014 <HAL_ADC_ConfigChannel+0xf8>)
 8003fea:	181b      	adds	r3, r3, r0
 8003fec:	400b      	ands	r3, r1
 8003fee:	6013      	str	r3, [r2, #0]
 8003ff0:	e7c9      	b.n	8003f86 <HAL_ADC_ConfigChannel+0x6a>
 8003ff2:	4b09      	ldr	r3, [pc, #36]	@ (8004018 <HAL_ADC_ConfigChannel+0xfc>)
 8003ff4:	e7fa      	b.n	8003fec <HAL_ADC_ConfigChannel+0xd0>
 8003ff6:	2220      	movs	r2, #32
 8003ff8:	6b99      	ldr	r1, [r3, #56]	@ 0x38
 8003ffa:	430a      	orrs	r2, r1
 8003ffc:	639a      	str	r2, [r3, #56]	@ 0x38
 8003ffe:	e7c3      	b.n	8003f88 <HAL_ADC_ConfigChannel+0x6c>
 8004000:	00001001 	.word	0x00001001
 8004004:	40012708 	.word	0x40012708
 8004008:	200001f8 	.word	0x200001f8
 800400c:	000f4240 	.word	0x000f4240
 8004010:	ff400000 	.word	0xff400000
 8004014:	ffbfffff 	.word	0xffbfffff
 8004018:	ff7fffff 	.word	0xff7fffff

0800401c <HAL_ADCEx_Calibration_Start>:
 800401c:	b5f8      	push	{r3, r4, r5, r6, r7, lr}
 800401e:	0006      	movs	r6, r0
 8004020:	3634      	adds	r6, #52	@ 0x34
 8004022:	7833      	ldrb	r3, [r6, #0]
 8004024:	0004      	movs	r4, r0
 8004026:	2002      	movs	r0, #2
 8004028:	2b01      	cmp	r3, #1
 800402a:	d045      	beq.n	80040b8 <HAL_ADCEx_Calibration_Start+0x9c>
 800402c:	2301      	movs	r3, #1
 800402e:	2103      	movs	r1, #3
 8004030:	7033      	strb	r3, [r6, #0]
 8004032:	6823      	ldr	r3, [r4, #0]
 8004034:	689a      	ldr	r2, [r3, #8]
 8004036:	400a      	ands	r2, r1
 8004038:	2a01      	cmp	r2, #1
 800403a:	d105      	bne.n	8004048 <HAL_ADCEx_Calibration_Start+0x2c>
 800403c:	6819      	ldr	r1, [r3, #0]
 800403e:	4211      	tst	r1, r2
 8004040:	d13b      	bne.n	80040ba <HAL_ADCEx_Calibration_Start+0x9e>
 8004042:	68da      	ldr	r2, [r3, #12]
 8004044:	0412      	lsls	r2, r2, #16
 8004046:	d438      	bmi.n	80040ba <HAL_ADCEx_Calibration_Start+0x9e>
 8004048:	6ba1      	ldr	r1, [r4, #56]	@ 0x38
 800404a:	4a1f      	ldr	r2, [pc, #124]	@ (80040c8 <HAL_ADCEx_Calibration_Start+0xac>)
 800404c:	4011      	ands	r1, r2
 800404e:	3206      	adds	r2, #6
 8004050:	32ff      	adds	r2, #255	@ 0xff
 8004052:	430a      	orrs	r2, r1
 8004054:	2103      	movs	r1, #3
 8004056:	63a2      	str	r2, [r4, #56]	@ 0x38
 8004058:	68dd      	ldr	r5, [r3, #12]
 800405a:	68da      	ldr	r2, [r3, #12]
 800405c:	438a      	bics	r2, r1
 800405e:	60da      	str	r2, [r3, #12]
 8004060:	2280      	movs	r2, #128	@ 0x80
 8004062:	6899      	ldr	r1, [r3, #8]
 8004064:	0612      	lsls	r2, r2, #24
 8004066:	430a      	orrs	r2, r1
 8004068:	609a      	str	r2, [r3, #8]
 800406a:	f7ff fdb5 	bl	8003bd8 <HAL_GetTick>
 800406e:	0007      	movs	r7, r0
 8004070:	6823      	ldr	r3, [r4, #0]
 8004072:	689a      	ldr	r2, [r3, #8]
 8004074:	2a00      	cmp	r2, #0
 8004076:	db0d      	blt.n	8004094 <HAL_ADCEx_Calibration_Start+0x78>
 8004078:	2103      	movs	r1, #3
 800407a:	68da      	ldr	r2, [r3, #12]
 800407c:	400d      	ands	r5, r1
 800407e:	4315      	orrs	r5, r2
 8004080:	60dd      	str	r5, [r3, #12]
 8004082:	2301      	movs	r3, #1
 8004084:	2000      	movs	r0, #0
 8004086:	6ba2      	ldr	r2, [r4, #56]	@ 0x38
 8004088:	438a      	bics	r2, r1
 800408a:	4313      	orrs	r3, r2
 800408c:	63a3      	str	r3, [r4, #56]	@ 0x38
 800408e:	2300      	movs	r3, #0
 8004090:	7033      	strb	r3, [r6, #0]
 8004092:	e011      	b.n	80040b8 <HAL_ADCEx_Calibration_Start+0x9c>
 8004094:	f7ff fda0 	bl	8003bd8 <HAL_GetTick>
 8004098:	1bc0      	subs	r0, r0, r7
 800409a:	2802      	cmp	r0, #2
 800409c:	d9e8      	bls.n	8004070 <HAL_ADCEx_Calibration_Start+0x54>
 800409e:	6823      	ldr	r3, [r4, #0]
 80040a0:	689b      	ldr	r3, [r3, #8]
 80040a2:	2b00      	cmp	r3, #0
 80040a4:	dae4      	bge.n	8004070 <HAL_ADCEx_Calibration_Start+0x54>
 80040a6:	2312      	movs	r3, #18
 80040a8:	6ba2      	ldr	r2, [r4, #56]	@ 0x38
 80040aa:	2001      	movs	r0, #1
 80040ac:	439a      	bics	r2, r3
 80040ae:	3b02      	subs	r3, #2
 80040b0:	4313      	orrs	r3, r2
 80040b2:	63a3      	str	r3, [r4, #56]	@ 0x38
 80040b4:	2300      	movs	r3, #0
 80040b6:	7033      	strb	r3, [r6, #0]
 80040b8:	bdf8      	pop	{r3, r4, r5, r6, r7, pc}
 80040ba:	2320      	movs	r3, #32
 80040bc:	6ba2      	ldr	r2, [r4, #56]	@ 0x38
 80040be:	2001      	movs	r0, #1
 80040c0:	4313      	orrs	r3, r2
 80040c2:	63a3      	str	r3, [r4, #56]	@ 0x38
 80040c4:	e7e3      	b.n	800408e <HAL_ADCEx_Calibration_Start+0x72>
 80040c6:	46c0      	nop			@ (mov r8, r8)
 80040c8:	fffffefd 	.word	0xfffffefd

080040cc <HAL_NVIC_SetPriority>:
 80040cc:	b510      	push	{r4, lr}
 80040ce:	24ff      	movs	r4, #255	@ 0xff
 80040d0:	2203      	movs	r2, #3
 80040d2:	000b      	movs	r3, r1
 80040d4:	0021      	movs	r1, r4
 80040d6:	4002      	ands	r2, r0
 80040d8:	00d2      	lsls	r2, r2, #3
 80040da:	4091      	lsls	r1, r2
 80040dc:	019b      	lsls	r3, r3, #6
 80040de:	4023      	ands	r3, r4
 80040e0:	43c9      	mvns	r1, r1
 80040e2:	4093      	lsls	r3, r2
 80040e4:	2800      	cmp	r0, #0
 80040e6:	db0a      	blt.n	80040fe <HAL_NVIC_SetPriority+0x32>
 80040e8:	24c0      	movs	r4, #192	@ 0xc0
 80040ea:	4a0b      	ldr	r2, [pc, #44]	@ (8004118 <HAL_NVIC_SetPriority+0x4c>)
 80040ec:	0880      	lsrs	r0, r0, #2
 80040ee:	0080      	lsls	r0, r0, #2
 80040f0:	1880      	adds	r0, r0, r2
 80040f2:	00a4      	lsls	r4, r4, #2
 80040f4:	5902      	ldr	r2, [r0, r4]
 80040f6:	400a      	ands	r2, r1
 80040f8:	4313      	orrs	r3, r2
 80040fa:	5103      	str	r3, [r0, r4]
 80040fc:	bd10      	pop	{r4, pc}
 80040fe:	220f      	movs	r2, #15
 8004100:	4010      	ands	r0, r2
 8004102:	3808      	subs	r0, #8
 8004104:	4a05      	ldr	r2, [pc, #20]	@ (800411c <HAL_NVIC_SetPriority+0x50>)
 8004106:	0880      	lsrs	r0, r0, #2
 8004108:	0080      	lsls	r0, r0, #2
 800410a:	1880      	adds	r0, r0, r2
 800410c:	69c2      	ldr	r2, [r0, #28]
 800410e:	4011      	ands	r1, r2
 8004110:	4319      	orrs	r1, r3
 8004112:	61c1      	str	r1, [r0, #28]
 8004114:	e7f2      	b.n	80040fc <HAL_NVIC_SetPriority+0x30>
 8004116:	46c0      	nop			@ (mov r8, r8)
 8004118:	e000e100 	.word	0xe000e100
 800411c:	e000ed00 	.word	0xe000ed00

08004120 <HAL_NVIC_EnableIRQ>:
 8004120:	2800      	cmp	r0, #0
 8004122:	db05      	blt.n	8004130 <HAL_NVIC_EnableIRQ+0x10>
 8004124:	231f      	movs	r3, #31
 8004126:	4018      	ands	r0, r3
 8004128:	3b1e      	subs	r3, #30
 800412a:	4083      	lsls	r3, r0
 800412c:	4a01      	ldr	r2, [pc, #4]	@ (8004134 <HAL_NVIC_EnableIRQ+0x14>)
 800412e:	6013      	str	r3, [r2, #0]
 8004130:	4770      	bx	lr
 8004132:	46c0      	nop			@ (mov r8, r8)
 8004134:	e000e100 	.word	0xe000e100

08004138 <HAL_SYSTICK_Config>:
 8004138:	2280      	movs	r2, #128	@ 0x80
 800413a:	1e43      	subs	r3, r0, #1
 800413c:	0452      	lsls	r2, r2, #17
 800413e:	2001      	movs	r0, #1
 8004140:	4293      	cmp	r3, r2
 8004142:	d20d      	bcs.n	8004160 <HAL_SYSTICK_Config+0x28>
 8004144:	21c0      	movs	r1, #192	@ 0xc0
 8004146:	4a07      	ldr	r2, [pc, #28]	@ (8004164 <HAL_SYSTICK_Config+0x2c>)
 8004148:	4807      	ldr	r0, [pc, #28]	@ (8004168 <HAL_SYSTICK_Config+0x30>)
 800414a:	6053      	str	r3, [r2, #4]
 800414c:	6a03      	ldr	r3, [r0, #32]
 800414e:	0609      	lsls	r1, r1, #24
 8004150:	021b      	lsls	r3, r3, #8
 8004152:	0a1b      	lsrs	r3, r3, #8
 8004154:	430b      	orrs	r3, r1
 8004156:	6203      	str	r3, [r0, #32]
 8004158:	2000      	movs	r0, #0
 800415a:	2307      	movs	r3, #7
 800415c:	6090      	str	r0, [r2, #8]
 800415e:	6013      	str	r3, [r2, #0]
 8004160:	4770      	bx	lr
 8004162:	46c0      	nop			@ (mov r8, r8)
 8004164:	e000e010 	.word	0xe000e010
 8004168:	e000ed00 	.word	0xe000ed00

0800416c <HAL_DMA_Init>:
 800416c:	b570      	push	{r4, r5, r6, lr}
 800416e:	0004      	movs	r4, r0
 8004170:	2001      	movs	r0, #1
 8004172:	2c00      	cmp	r4, #0
 8004174:	d024      	beq.n	80041c0 <HAL_DMA_Init+0x54>
 8004176:	2302      	movs	r3, #2
 8004178:	1ca5      	adds	r5, r4, #2
 800417a:	77eb      	strb	r3, [r5, #31]
 800417c:	6820      	ldr	r0, [r4, #0]
 800417e:	4b11      	ldr	r3, [pc, #68]	@ (80041c4 <HAL_DMA_Init+0x58>)
 8004180:	6802      	ldr	r2, [r0, #0]
 8004182:	68a1      	ldr	r1, [r4, #8]
 8004184:	401a      	ands	r2, r3
 8004186:	6863      	ldr	r3, [r4, #4]
 8004188:	430b      	orrs	r3, r1
 800418a:	68e1      	ldr	r1, [r4, #12]
 800418c:	430b      	orrs	r3, r1
 800418e:	6921      	ldr	r1, [r4, #16]
 8004190:	430b      	orrs	r3, r1
 8004192:	6961      	ldr	r1, [r4, #20]
 8004194:	430b      	orrs	r3, r1
 8004196:	69a1      	ldr	r1, [r4, #24]
 8004198:	430b      	orrs	r3, r1
 800419a:	69e1      	ldr	r1, [r4, #28]
 800419c:	430b      	orrs	r3, r1
 800419e:	4313      	orrs	r3, r2
 80041a0:	6003      	str	r3, [r0, #0]
 80041a2:	4b09      	ldr	r3, [pc, #36]	@ (80041c8 <HAL_DMA_Init+0x5c>)
 80041a4:	2114      	movs	r1, #20
 80041a6:	18c0      	adds	r0, r0, r3
 80041a8:	f7fb ffd4 	bl	8000154 <__udivsi3>
 80041ac:	4b07      	ldr	r3, [pc, #28]	@ (80041cc <HAL_DMA_Init+0x60>)
 80041ae:	0080      	lsls	r0, r0, #2
 80041b0:	6420      	str	r0, [r4, #64]	@ 0x40
 80041b2:	63e3      	str	r3, [r4, #60]	@ 0x3c
 80041b4:	2000      	movs	r0, #0
 80041b6:	2301      	movs	r3, #1
 80041b8:	63a0      	str	r0, [r4, #56]	@ 0x38
 80041ba:	18e4      	adds	r4, r4, r3
 80041bc:	77eb      	strb	r3, [r5, #31]
 80041be:	77e0      	strb	r0, [r4, #31]
 80041c0:	bd70      	pop	{r4, r5, r6, pc}
 80041c2:	46c0      	nop			@ (mov r8, r8)
 80041c4:	ffffc00f 	.word	0xffffc00f
 80041c8:	bffdfff8 	.word	0xbffdfff8
 80041cc:	40020000 	.word	0x40020000

080041d0 <HAL_DMA_Start>:
 80041d0:	b5f7      	push	{r0, r1, r2, r4, r5, r6, r7, lr}
 80041d2:	1c44      	adds	r4, r0, #1
 80041d4:	9301      	str	r3, [sp, #4]
 80041d6:	7fe5      	ldrb	r5, [r4, #31]
 80041d8:	2d01      	cmp	r5, #1
 80041da:	d025      	beq.n	8004228 <HAL_DMA_Start+0x58>
 80041dc:	2501      	movs	r5, #1
 80041de:	1c87      	adds	r7, r0, #2
 80041e0:	77e5      	strb	r5, [r4, #31]
 80041e2:	7ffd      	ldrb	r5, [r7, #31]
 80041e4:	2600      	movs	r6, #0
 80041e6:	46ac      	mov	ip, r5
 80041e8:	4663      	mov	r3, ip
 80041ea:	b2ed      	uxtb	r5, r5
 80041ec:	2b01      	cmp	r3, #1
 80041ee:	d11a      	bne.n	8004226 <HAL_DMA_Start+0x56>
 80041f0:	2402      	movs	r4, #2
 80041f2:	77fc      	strb	r4, [r7, #31]
 80041f4:	6804      	ldr	r4, [r0, #0]
 80041f6:	6386      	str	r6, [r0, #56]	@ 0x38
 80041f8:	6826      	ldr	r6, [r4, #0]
 80041fa:	6c07      	ldr	r7, [r0, #64]	@ 0x40
 80041fc:	43ae      	bics	r6, r5
 80041fe:	40bd      	lsls	r5, r7
 8004200:	6026      	str	r6, [r4, #0]
 8004202:	9b01      	ldr	r3, [sp, #4]
 8004204:	6bc6      	ldr	r6, [r0, #60]	@ 0x3c
 8004206:	6075      	str	r5, [r6, #4]
 8004208:	6063      	str	r3, [r4, #4]
 800420a:	6843      	ldr	r3, [r0, #4]
 800420c:	2b10      	cmp	r3, #16
 800420e:	d107      	bne.n	8004220 <HAL_DMA_Start+0x50>
 8004210:	60a2      	str	r2, [r4, #8]
 8004212:	60e1      	str	r1, [r4, #12]
 8004214:	2301      	movs	r3, #1
 8004216:	2000      	movs	r0, #0
 8004218:	6822      	ldr	r2, [r4, #0]
 800421a:	4313      	orrs	r3, r2
 800421c:	6023      	str	r3, [r4, #0]
 800421e:	bdfe      	pop	{r1, r2, r3, r4, r5, r6, r7, pc}
 8004220:	60a1      	str	r1, [r4, #8]
 8004222:	60e2      	str	r2, [r4, #12]
 8004224:	e7f6      	b.n	8004214 <HAL_DMA_Start+0x44>
 8004226:	77e6      	strb	r6, [r4, #31]
 8004228:	2002      	movs	r0, #2
 800422a:	e7f8      	b.n	800421e <HAL_DMA_Start+0x4e>

0800422c <HAL_DMA_Start_IT>:
 800422c:	b5f7      	push	{r0, r1, r2, r4, r5, r6, r7, lr}
 800422e:	1c44      	adds	r4, r0, #1
 8004230:	9301      	str	r3, [sp, #4]
 8004232:	7fe5      	ldrb	r5, [r4, #31]
 8004234:	2d01      	cmp	r5, #1
 8004236:	d033      	beq.n	80042a0 <HAL_DMA_Start_IT+0x74>
 8004238:	2501      	movs	r5, #1
 800423a:	1c87      	adds	r7, r0, #2
 800423c:	77e5      	strb	r5, [r4, #31]
 800423e:	7ffd      	ldrb	r5, [r7, #31]
 8004240:	2600      	movs	r6, #0
 8004242:	46ac      	mov	ip, r5
 8004244:	4663      	mov	r3, ip
 8004246:	b2ed      	uxtb	r5, r5
 8004248:	2b01      	cmp	r3, #1
 800424a:	d128      	bne.n	800429e <HAL_DMA_Start_IT+0x72>
 800424c:	2402      	movs	r4, #2
 800424e:	77fc      	strb	r4, [r7, #31]
 8004250:	6804      	ldr	r4, [r0, #0]
 8004252:	6386      	str	r6, [r0, #56]	@ 0x38
 8004254:	6826      	ldr	r6, [r4, #0]
 8004256:	6c07      	ldr	r7, [r0, #64]	@ 0x40
 8004258:	43ae      	bics	r6, r5
 800425a:	40bd      	lsls	r5, r7
 800425c:	6026      	str	r6, [r4, #0]
 800425e:	9b01      	ldr	r3, [sp, #4]
 8004260:	6bc6      	ldr	r6, [r0, #60]	@ 0x3c
 8004262:	6075      	str	r5, [r6, #4]
 8004264:	6063      	str	r3, [r4, #4]
 8004266:	6843      	ldr	r3, [r0, #4]
 8004268:	2b10      	cmp	r3, #16
 800426a:	d10e      	bne.n	800428a <HAL_DMA_Start_IT+0x5e>
 800426c:	60a2      	str	r2, [r4, #8]
 800426e:	60e1      	str	r1, [r4, #12]
 8004270:	6ac3      	ldr	r3, [r0, #44]	@ 0x2c
 8004272:	6822      	ldr	r2, [r4, #0]
 8004274:	2b00      	cmp	r3, #0
 8004276:	d00b      	beq.n	8004290 <HAL_DMA_Start_IT+0x64>
 8004278:	230e      	movs	r3, #14
 800427a:	4313      	orrs	r3, r2
 800427c:	6023      	str	r3, [r4, #0]
 800427e:	2301      	movs	r3, #1
 8004280:	2000      	movs	r0, #0
 8004282:	6822      	ldr	r2, [r4, #0]
 8004284:	4313      	orrs	r3, r2
 8004286:	6023      	str	r3, [r4, #0]
 8004288:	bdfe      	pop	{r1, r2, r3, r4, r5, r6, r7, pc}
 800428a:	60a1      	str	r1, [r4, #8]
 800428c:	60e2      	str	r2, [r4, #12]
 800428e:	e7ef      	b.n	8004270 <HAL_DMA_Start_IT+0x44>
 8004290:	230a      	movs	r3, #10
 8004292:	4313      	orrs	r3, r2
 8004294:	2204      	movs	r2, #4
 8004296:	6023      	str	r3, [r4, #0]
 8004298:	6823      	ldr	r3, [r4, #0]
 800429a:	4393      	bics	r3, r2
 800429c:	e7ee      	b.n	800427c <HAL_DMA_Start_IT+0x50>
 800429e:	77e6      	strb	r6, [r4, #31]
 80042a0:	2002      	movs	r0, #2
 80042a2:	e7f1      	b.n	8004288 <HAL_DMA_Start_IT+0x5c>

080042a4 <HAL_DMA_IRQHandler>:
 80042a4:	b5f8      	push	{r3, r4, r5, r6, r7, lr}
 80042a6:	2704      	movs	r7, #4
 80042a8:	003e      	movs	r6, r7
 80042aa:	6c01      	ldr	r1, [r0, #64]	@ 0x40
 80042ac:	6bc2      	ldr	r2, [r0, #60]	@ 0x3c
 80042ae:	408e      	lsls	r6, r1
 80042b0:	6815      	ldr	r5, [r2, #0]
 80042b2:	6803      	ldr	r3, [r0, #0]
 80042b4:	681c      	ldr	r4, [r3, #0]
 80042b6:	4235      	tst	r5, r6
 80042b8:	d00d      	beq.n	80042d6 <HAL_DMA_IRQHandler+0x32>
 80042ba:	423c      	tst	r4, r7
 80042bc:	d00b      	beq.n	80042d6 <HAL_DMA_IRQHandler+0x32>
 80042be:	6819      	ldr	r1, [r3, #0]
 80042c0:	0689      	lsls	r1, r1, #26
 80042c2:	d402      	bmi.n	80042ca <HAL_DMA_IRQHandler+0x26>
 80042c4:	6819      	ldr	r1, [r3, #0]
 80042c6:	43b9      	bics	r1, r7
 80042c8:	6019      	str	r1, [r3, #0]
 80042ca:	6ac3      	ldr	r3, [r0, #44]	@ 0x2c
 80042cc:	6056      	str	r6, [r2, #4]
 80042ce:	2b00      	cmp	r3, #0
 80042d0:	d019      	beq.n	8004306 <HAL_DMA_IRQHandler+0x62>
 80042d2:	4798      	blx	r3
 80042d4:	e017      	b.n	8004306 <HAL_DMA_IRQHandler+0x62>
 80042d6:	2702      	movs	r7, #2
 80042d8:	003e      	movs	r6, r7
 80042da:	408e      	lsls	r6, r1
 80042dc:	4235      	tst	r5, r6
 80042de:	d013      	beq.n	8004308 <HAL_DMA_IRQHandler+0x64>
 80042e0:	423c      	tst	r4, r7
 80042e2:	d011      	beq.n	8004308 <HAL_DMA_IRQHandler+0x64>
 80042e4:	6819      	ldr	r1, [r3, #0]
 80042e6:	0689      	lsls	r1, r1, #26
 80042e8:	d406      	bmi.n	80042f8 <HAL_DMA_IRQHandler+0x54>
 80042ea:	240a      	movs	r4, #10
 80042ec:	6819      	ldr	r1, [r3, #0]
 80042ee:	43a1      	bics	r1, r4
 80042f0:	6019      	str	r1, [r3, #0]
 80042f2:	2101      	movs	r1, #1
 80042f4:	19c3      	adds	r3, r0, r7
 80042f6:	77d9      	strb	r1, [r3, #31]
 80042f8:	6056      	str	r6, [r2, #4]
 80042fa:	2200      	movs	r2, #0
 80042fc:	1c43      	adds	r3, r0, #1
 80042fe:	77da      	strb	r2, [r3, #31]
 8004300:	6a83      	ldr	r3, [r0, #40]	@ 0x28
 8004302:	4293      	cmp	r3, r2
 8004304:	d1e5      	bne.n	80042d2 <HAL_DMA_IRQHandler+0x2e>
 8004306:	bdf8      	pop	{r3, r4, r5, r6, r7, pc}
 8004308:	2608      	movs	r6, #8
 800430a:	0037      	movs	r7, r6
 800430c:	408f      	lsls	r7, r1
 800430e:	423d      	tst	r5, r7
 8004310:	d0f9      	beq.n	8004306 <HAL_DMA_IRQHandler+0x62>
 8004312:	4234      	tst	r4, r6
 8004314:	d0f7      	beq.n	8004306 <HAL_DMA_IRQHandler+0x62>
 8004316:	250e      	movs	r5, #14
 8004318:	681c      	ldr	r4, [r3, #0]
 800431a:	43ac      	bics	r4, r5
 800431c:	601c      	str	r4, [r3, #0]
 800431e:	2301      	movs	r3, #1
 8004320:	001c      	movs	r4, r3
 8004322:	408c      	lsls	r4, r1
 8004324:	6054      	str	r4, [r2, #4]
 8004326:	1c82      	adds	r2, r0, #2
 8004328:	6383      	str	r3, [r0, #56]	@ 0x38
 800432a:	77d3      	strb	r3, [r2, #31]
 800432c:	2200      	movs	r2, #0
 800432e:	18c3      	adds	r3, r0, r3
 8004330:	77da      	strb	r2, [r3, #31]
 8004332:	6b03      	ldr	r3, [r0, #48]	@ 0x30
 8004334:	e7e5      	b.n	8004302 <HAL_DMA_IRQHandler+0x5e>
	...

08004338 <HAL_GPIO_Init>:
 8004338:	2300      	movs	r3, #0
 800433a:	b5f0      	push	{r4, r5, r6, r7, lr}
 800433c:	b087      	sub	sp, #28
 800433e:	680a      	ldr	r2, [r1, #0]
 8004340:	0014      	movs	r4, r2
 8004342:	40dc      	lsrs	r4, r3
 8004344:	d101      	bne.n	800434a <HAL_GPIO_Init+0x12>
 8004346:	b007      	add	sp, #28
 8004348:	bdf0      	pop	{r4, r5, r6, r7, pc}
 800434a:	2501      	movs	r5, #1
 800434c:	0014      	movs	r4, r2
 800434e:	409d      	lsls	r5, r3
 8004350:	402c      	ands	r4, r5
 8004352:	9400      	str	r4, [sp, #0]
 8004354:	422a      	tst	r2, r5
 8004356:	d100      	bne.n	800435a <HAL_GPIO_Init+0x22>
 8004358:	e09c      	b.n	8004494 <HAL_GPIO_Init+0x15c>
 800435a:	684a      	ldr	r2, [r1, #4]
 800435c:	005f      	lsls	r7, r3, #1
 800435e:	4694      	mov	ip, r2
 8004360:	2203      	movs	r2, #3
 8004362:	4664      	mov	r4, ip
 8004364:	4022      	ands	r2, r4
 8004366:	2403      	movs	r4, #3
 8004368:	40bc      	lsls	r4, r7
 800436a:	43e4      	mvns	r4, r4
 800436c:	9401      	str	r4, [sp, #4]
 800436e:	1e54      	subs	r4, r2, #1
 8004370:	2c01      	cmp	r4, #1
 8004372:	d82e      	bhi.n	80043d2 <HAL_GPIO_Init+0x9a>
 8004374:	6886      	ldr	r6, [r0, #8]
 8004376:	9c01      	ldr	r4, [sp, #4]
 8004378:	4026      	ands	r6, r4
 800437a:	68cc      	ldr	r4, [r1, #12]
 800437c:	40bc      	lsls	r4, r7
 800437e:	4334      	orrs	r4, r6
 8004380:	6084      	str	r4, [r0, #8]
 8004382:	6844      	ldr	r4, [r0, #4]
 8004384:	2601      	movs	r6, #1
 8004386:	43ac      	bics	r4, r5
 8004388:	0025      	movs	r5, r4
 800438a:	4664      	mov	r4, ip
 800438c:	0924      	lsrs	r4, r4, #4
 800438e:	4034      	ands	r4, r6
 8004390:	409c      	lsls	r4, r3
 8004392:	432c      	orrs	r4, r5
 8004394:	6044      	str	r4, [r0, #4]
 8004396:	68c5      	ldr	r5, [r0, #12]
 8004398:	9c01      	ldr	r4, [sp, #4]
 800439a:	4025      	ands	r5, r4
 800439c:	688c      	ldr	r4, [r1, #8]
 800439e:	40bc      	lsls	r4, r7
 80043a0:	432c      	orrs	r4, r5
 80043a2:	60c4      	str	r4, [r0, #12]
 80043a4:	2a02      	cmp	r2, #2
 80043a6:	d116      	bne.n	80043d6 <HAL_GPIO_Init+0x9e>
 80043a8:	2507      	movs	r5, #7
 80043aa:	260f      	movs	r6, #15
 80043ac:	401d      	ands	r5, r3
 80043ae:	00ad      	lsls	r5, r5, #2
 80043b0:	40ae      	lsls	r6, r5
 80043b2:	08dc      	lsrs	r4, r3, #3
 80043b4:	00a4      	lsls	r4, r4, #2
 80043b6:	1904      	adds	r4, r0, r4
 80043b8:	9402      	str	r4, [sp, #8]
 80043ba:	6a24      	ldr	r4, [r4, #32]
 80043bc:	9603      	str	r6, [sp, #12]
 80043be:	0026      	movs	r6, r4
 80043c0:	9c03      	ldr	r4, [sp, #12]
 80043c2:	43a6      	bics	r6, r4
 80043c4:	0034      	movs	r4, r6
 80043c6:	690e      	ldr	r6, [r1, #16]
 80043c8:	40ae      	lsls	r6, r5
 80043ca:	4326      	orrs	r6, r4
 80043cc:	9c02      	ldr	r4, [sp, #8]
 80043ce:	6226      	str	r6, [r4, #32]
 80043d0:	e001      	b.n	80043d6 <HAL_GPIO_Init+0x9e>
 80043d2:	2a03      	cmp	r2, #3
 80043d4:	d1df      	bne.n	8004396 <HAL_GPIO_Init+0x5e>
 80043d6:	40ba      	lsls	r2, r7
 80043d8:	6804      	ldr	r4, [r0, #0]
 80043da:	9d01      	ldr	r5, [sp, #4]
 80043dc:	4025      	ands	r5, r4
 80043de:	432a      	orrs	r2, r5
 80043e0:	24c0      	movs	r4, #192	@ 0xc0
 80043e2:	6002      	str	r2, [r0, #0]
 80043e4:	4662      	mov	r2, ip
 80043e6:	02a4      	lsls	r4, r4, #10
 80043e8:	4222      	tst	r2, r4
 80043ea:	d053      	beq.n	8004494 <HAL_GPIO_Init+0x15c>
 80043ec:	2501      	movs	r5, #1
 80043ee:	4a2a      	ldr	r2, [pc, #168]	@ (8004498 <HAL_GPIO_Init+0x160>)
 80043f0:	2790      	movs	r7, #144	@ 0x90
 80043f2:	6994      	ldr	r4, [r2, #24]
 80043f4:	05ff      	lsls	r7, r7, #23
 80043f6:	432c      	orrs	r4, r5
 80043f8:	6194      	str	r4, [r2, #24]
 80043fa:	6992      	ldr	r2, [r2, #24]
 80043fc:	089c      	lsrs	r4, r3, #2
 80043fe:	402a      	ands	r2, r5
 8004400:	9205      	str	r2, [sp, #20]
 8004402:	9a05      	ldr	r2, [sp, #20]
 8004404:	4a25      	ldr	r2, [pc, #148]	@ (800449c <HAL_GPIO_Init+0x164>)
 8004406:	00a4      	lsls	r4, r4, #2
 8004408:	18a4      	adds	r4, r4, r2
 800440a:	220f      	movs	r2, #15
 800440c:	3502      	adds	r5, #2
 800440e:	401d      	ands	r5, r3
 8004410:	00ad      	lsls	r5, r5, #2
 8004412:	40aa      	lsls	r2, r5
 8004414:	68a6      	ldr	r6, [r4, #8]
 8004416:	4396      	bics	r6, r2
 8004418:	2200      	movs	r2, #0
 800441a:	42b8      	cmp	r0, r7
 800441c:	d010      	beq.n	8004440 <HAL_GPIO_Init+0x108>
 800441e:	4f20      	ldr	r7, [pc, #128]	@ (80044a0 <HAL_GPIO_Init+0x168>)
 8004420:	3201      	adds	r2, #1
 8004422:	42b8      	cmp	r0, r7
 8004424:	d00c      	beq.n	8004440 <HAL_GPIO_Init+0x108>
 8004426:	4f1f      	ldr	r7, [pc, #124]	@ (80044a4 <HAL_GPIO_Init+0x16c>)
 8004428:	3201      	adds	r2, #1
 800442a:	42b8      	cmp	r0, r7
 800442c:	d008      	beq.n	8004440 <HAL_GPIO_Init+0x108>
 800442e:	4f1e      	ldr	r7, [pc, #120]	@ (80044a8 <HAL_GPIO_Init+0x170>)
 8004430:	3201      	adds	r2, #1
 8004432:	42b8      	cmp	r0, r7
 8004434:	d004      	beq.n	8004440 <HAL_GPIO_Init+0x108>
 8004436:	4a1d      	ldr	r2, [pc, #116]	@ (80044ac <HAL_GPIO_Init+0x174>)
 8004438:	1882      	adds	r2, r0, r2
 800443a:	1e57      	subs	r7, r2, #1
 800443c:	41ba      	sbcs	r2, r7
 800443e:	3204      	adds	r2, #4
 8004440:	40aa      	lsls	r2, r5
 8004442:	4667      	mov	r7, ip
 8004444:	4332      	orrs	r2, r6
 8004446:	60a2      	str	r2, [r4, #8]
 8004448:	4a19      	ldr	r2, [pc, #100]	@ (80044b0 <HAL_GPIO_Init+0x178>)
 800444a:	9c00      	ldr	r4, [sp, #0]
 800444c:	6896      	ldr	r6, [r2, #8]
 800444e:	9d00      	ldr	r5, [sp, #0]
 8004450:	43e4      	mvns	r4, r4
 8004452:	4335      	orrs	r5, r6
 8004454:	02ff      	lsls	r7, r7, #11
 8004456:	d401      	bmi.n	800445c <HAL_GPIO_Init+0x124>
 8004458:	0035      	movs	r5, r6
 800445a:	4025      	ands	r5, r4
 800445c:	4667      	mov	r7, ip
 800445e:	6095      	str	r5, [r2, #8]
 8004460:	68d6      	ldr	r6, [r2, #12]
 8004462:	9d00      	ldr	r5, [sp, #0]
 8004464:	4335      	orrs	r5, r6
 8004466:	02bf      	lsls	r7, r7, #10
 8004468:	d401      	bmi.n	800446e <HAL_GPIO_Init+0x136>
 800446a:	0035      	movs	r5, r6
 800446c:	4025      	ands	r5, r4
 800446e:	4667      	mov	r7, ip
 8004470:	60d5      	str	r5, [r2, #12]
 8004472:	6856      	ldr	r6, [r2, #4]
 8004474:	9d00      	ldr	r5, [sp, #0]
 8004476:	4335      	orrs	r5, r6
 8004478:	03bf      	lsls	r7, r7, #14
 800447a:	d401      	bmi.n	8004480 <HAL_GPIO_Init+0x148>
 800447c:	0035      	movs	r5, r6
 800447e:	4025      	ands	r5, r4
 8004480:	4667      	mov	r7, ip
 8004482:	6055      	str	r5, [r2, #4]
 8004484:	6815      	ldr	r5, [r2, #0]
 8004486:	9e00      	ldr	r6, [sp, #0]
 8004488:	432e      	orrs	r6, r5
 800448a:	03ff      	lsls	r7, r7, #15
 800448c:	d401      	bmi.n	8004492 <HAL_GPIO_Init+0x15a>
 800448e:	4025      	ands	r5, r4
 8004490:	002e      	movs	r6, r5
 8004492:	6016      	str	r6, [r2, #0]
 8004494:	3301      	adds	r3, #1
 8004496:	e752      	b.n	800433e <HAL_GPIO_Init+0x6>
 8004498:	40021000 	.word	0x40021000
 800449c:	40010000 	.word	0x40010000
 80044a0:	48000400 	.word	0x48000400
 80044a4:	48000800 	.word	0x48000800
 80044a8:	48000c00 	.word	0x48000c00
 80044ac:	b7fff000 	.word	0xb7fff000
 80044b0:	40010400 	.word	0x40010400

080044b4 <HAL_GPIO_ReadPin>:
 80044b4:	6900      	ldr	r0, [r0, #16]
 80044b6:	4008      	ands	r0, r1
 80044b8:	1e43      	subs	r3, r0, #1
 80044ba:	4198      	sbcs	r0, r3
 80044bc:	b2c0      	uxtb	r0, r0
 80044be:	4770      	bx	lr

080044c0 <HAL_GPIO_WritePin>:
 80044c0:	2a00      	cmp	r2, #0
 80044c2:	d001      	beq.n	80044c8 <HAL_GPIO_WritePin+0x8>
 80044c4:	6181      	str	r1, [r0, #24]
 80044c6:	4770      	bx	lr
 80044c8:	6281      	str	r1, [r0, #40]	@ 0x28
 80044ca:	e7fc      	b.n	80044c6 <HAL_GPIO_WritePin+0x6>

080044cc <HAL_GPIO_TogglePin>:
 80044cc:	6942      	ldr	r2, [r0, #20]
 80044ce:	0013      	movs	r3, r2
 80044d0:	400b      	ands	r3, r1
 80044d2:	041b      	lsls	r3, r3, #16
 80044d4:	4391      	bics	r1, r2
 80044d6:	430b      	orrs	r3, r1
 80044d8:	6183      	str	r3, [r0, #24]
 80044da:	4770      	bx	lr

080044dc <HAL_GPIO_EXTI_IRQHandler>:
 80044dc:	4b04      	ldr	r3, [pc, #16]	@ (80044f0 <HAL_GPIO_EXTI_IRQHandler+0x14>)
 80044de:	b510      	push	{r4, lr}
 80044e0:	695a      	ldr	r2, [r3, #20]
 80044e2:	4210      	tst	r0, r2
 80044e4:	d002      	beq.n	80044ec <HAL_GPIO_EXTI_IRQHandler+0x10>
 80044e6:	6158      	str	r0, [r3, #20]
 80044e8:	f7fe fb5e 	bl	8002ba8 <HAL_GPIO_EXTI_Callback>
 80044ec:	bd10      	pop	{r4, pc}
 80044ee:	46c0      	nop			@ (mov r8, r8)
 80044f0:	40010400 	.word	0x40010400

080044f4 <I2C_Flush_TXDR>:
 80044f4:	6803      	ldr	r3, [r0, #0]
 80044f6:	699a      	ldr	r2, [r3, #24]
 80044f8:	0792      	lsls	r2, r2, #30
 80044fa:	d501      	bpl.n	8004500 <I2C_Flush_TXDR+0xc>
 80044fc:	2200      	movs	r2, #0
 80044fe:	629a      	str	r2, [r3, #40]	@ 0x28
 8004500:	2201      	movs	r2, #1
 8004502:	6999      	ldr	r1, [r3, #24]
 8004504:	4211      	tst	r1, r2
 8004506:	d102      	bne.n	800450e <I2C_Flush_TXDR+0x1a>
 8004508:	6999      	ldr	r1, [r3, #24]
 800450a:	430a      	orrs	r2, r1
 800450c:	619a      	str	r2, [r3, #24]
 800450e:	4770      	bx	lr

08004510 <I2C_TransferConfig>:
 8004510:	b530      	push	{r4, r5, lr}
 8004512:	9c03      	ldr	r4, [sp, #12]
 8004514:	6800      	ldr	r0, [r0, #0]
 8004516:	4323      	orrs	r3, r4
 8004518:	0412      	lsls	r2, r2, #16
 800451a:	0589      	lsls	r1, r1, #22
 800451c:	431a      	orrs	r2, r3
 800451e:	0d89      	lsrs	r1, r1, #22
 8004520:	4b05      	ldr	r3, [pc, #20]	@ (8004538 <I2C_TransferConfig+0x28>)
 8004522:	6845      	ldr	r5, [r0, #4]
 8004524:	430a      	orrs	r2, r1
 8004526:	0d64      	lsrs	r4, r4, #21
 8004528:	4323      	orrs	r3, r4
 800452a:	0052      	lsls	r2, r2, #1
 800452c:	439d      	bics	r5, r3
 800452e:	0852      	lsrs	r2, r2, #1
 8004530:	432a      	orrs	r2, r5
 8004532:	6042      	str	r2, [r0, #4]
 8004534:	bd30      	pop	{r4, r5, pc}
 8004536:	46c0      	nop			@ (mov r8, r8)
 8004538:	03ff63ff 	.word	0x03ff63ff

0800453c <I2C_IsErrorOccurred>:
 800453c:	b5f7      	push	{r0, r1, r2, r4, r5, r6, r7, lr}
 800453e:	0015      	movs	r5, r2
 8004540:	6802      	ldr	r2, [r0, #0]
 8004542:	000e      	movs	r6, r1
 8004544:	6991      	ldr	r1, [r2, #24]
 8004546:	2310      	movs	r3, #16
 8004548:	000f      	movs	r7, r1
 800454a:	0004      	movs	r4, r0
 800454c:	401f      	ands	r7, r3
 800454e:	2000      	movs	r0, #0
 8004550:	4219      	tst	r1, r3
 8004552:	d00d      	beq.n	8004570 <I2C_IsErrorOccurred+0x34>
 8004554:	0007      	movs	r7, r0
 8004556:	61d3      	str	r3, [r2, #28]
 8004558:	9001      	str	r0, [sp, #4]
 800455a:	6823      	ldr	r3, [r4, #0]
 800455c:	2120      	movs	r1, #32
 800455e:	699a      	ldr	r2, [r3, #24]
 8004560:	420a      	tst	r2, r1
 8004562:	d15f      	bne.n	8004624 <I2C_IsErrorOccurred+0xe8>
 8004564:	2f00      	cmp	r7, #0
 8004566:	d031      	beq.n	80045cc <I2C_IsErrorOccurred+0x90>
 8004568:	2704      	movs	r7, #4
 800456a:	2001      	movs	r0, #1
 800456c:	9b01      	ldr	r3, [sp, #4]
 800456e:	431f      	orrs	r7, r3
 8004570:	2280      	movs	r2, #128	@ 0x80
 8004572:	6825      	ldr	r5, [r4, #0]
 8004574:	0052      	lsls	r2, r2, #1
 8004576:	69ab      	ldr	r3, [r5, #24]
 8004578:	4213      	tst	r3, r2
 800457a:	d002      	beq.n	8004582 <I2C_IsErrorOccurred+0x46>
 800457c:	2001      	movs	r0, #1
 800457e:	61ea      	str	r2, [r5, #28]
 8004580:	4307      	orrs	r7, r0
 8004582:	2280      	movs	r2, #128	@ 0x80
 8004584:	00d2      	lsls	r2, r2, #3
 8004586:	4213      	tst	r3, r2
 8004588:	d003      	beq.n	8004592 <I2C_IsErrorOccurred+0x56>
 800458a:	2108      	movs	r1, #8
 800458c:	2001      	movs	r0, #1
 800458e:	430f      	orrs	r7, r1
 8004590:	61ea      	str	r2, [r5, #28]
 8004592:	2280      	movs	r2, #128	@ 0x80
 8004594:	0092      	lsls	r2, r2, #2
 8004596:	4213      	tst	r3, r2
 8004598:	d049      	beq.n	800462e <I2C_IsErrorOccurred+0xf2>
 800459a:	2302      	movs	r3, #2
 800459c:	61ea      	str	r2, [r5, #28]
 800459e:	431f      	orrs	r7, r3
 80045a0:	0020      	movs	r0, r4
 80045a2:	f7ff ffa7 	bl	80044f4 <I2C_Flush_TXDR>
 80045a6:	686b      	ldr	r3, [r5, #4]
 80045a8:	4a22      	ldr	r2, [pc, #136]	@ (8004634 <I2C_IsErrorOccurred+0xf8>)
 80045aa:	2001      	movs	r0, #1
 80045ac:	4013      	ands	r3, r2
 80045ae:	606b      	str	r3, [r5, #4]
 80045b0:	6c63      	ldr	r3, [r4, #68]	@ 0x44
 80045b2:	2220      	movs	r2, #32
 80045b4:	433b      	orrs	r3, r7
 80045b6:	6463      	str	r3, [r4, #68]	@ 0x44
 80045b8:	0023      	movs	r3, r4
 80045ba:	3341      	adds	r3, #65	@ 0x41
 80045bc:	701a      	strb	r2, [r3, #0]
 80045be:	0022      	movs	r2, r4
 80045c0:	2300      	movs	r3, #0
 80045c2:	3242      	adds	r2, #66	@ 0x42
 80045c4:	3440      	adds	r4, #64	@ 0x40
 80045c6:	7013      	strb	r3, [r2, #0]
 80045c8:	7023      	strb	r3, [r4, #0]
 80045ca:	e032      	b.n	8004632 <I2C_IsErrorOccurred+0xf6>
 80045cc:	1c72      	adds	r2, r6, #1
 80045ce:	d0c5      	beq.n	800455c <I2C_IsErrorOccurred+0x20>
 80045d0:	f7ff fb02 	bl	8003bd8 <HAL_GetTick>
 80045d4:	1b40      	subs	r0, r0, r5
 80045d6:	42b0      	cmp	r0, r6
 80045d8:	d801      	bhi.n	80045de <I2C_IsErrorOccurred+0xa2>
 80045da:	2e00      	cmp	r6, #0
 80045dc:	d1bd      	bne.n	800455a <I2C_IsErrorOccurred+0x1e>
 80045de:	0022      	movs	r2, r4
 80045e0:	6823      	ldr	r3, [r4, #0]
 80045e2:	3242      	adds	r2, #66	@ 0x42
 80045e4:	6858      	ldr	r0, [r3, #4]
 80045e6:	7811      	ldrb	r1, [r2, #0]
 80045e8:	699a      	ldr	r2, [r3, #24]
 80045ea:	b2c9      	uxtb	r1, r1
 80045ec:	0412      	lsls	r2, r2, #16
 80045ee:	d50b      	bpl.n	8004608 <I2C_IsErrorOccurred+0xcc>
 80045f0:	2280      	movs	r2, #128	@ 0x80
 80045f2:	01d2      	lsls	r2, r2, #7
 80045f4:	4210      	tst	r0, r2
 80045f6:	d107      	bne.n	8004608 <I2C_IsErrorOccurred+0xcc>
 80045f8:	2920      	cmp	r1, #32
 80045fa:	d005      	beq.n	8004608 <I2C_IsErrorOccurred+0xcc>
 80045fc:	6859      	ldr	r1, [r3, #4]
 80045fe:	430a      	orrs	r2, r1
 8004600:	605a      	str	r2, [r3, #4]
 8004602:	f7ff fae9 	bl	8003bd8 <HAL_GetTick>
 8004606:	0005      	movs	r5, r0
 8004608:	2220      	movs	r2, #32
 800460a:	6823      	ldr	r3, [r4, #0]
 800460c:	699b      	ldr	r3, [r3, #24]
 800460e:	4213      	tst	r3, r2
 8004610:	d1a3      	bne.n	800455a <I2C_IsErrorOccurred+0x1e>
 8004612:	f7ff fae1 	bl	8003bd8 <HAL_GetTick>
 8004616:	1b40      	subs	r0, r0, r5
 8004618:	2819      	cmp	r0, #25
 800461a:	d9f5      	bls.n	8004608 <I2C_IsErrorOccurred+0xcc>
 800461c:	2320      	movs	r3, #32
 800461e:	2701      	movs	r7, #1
 8004620:	9301      	str	r3, [sp, #4]
 8004622:	e79a      	b.n	800455a <I2C_IsErrorOccurred+0x1e>
 8004624:	2f00      	cmp	r7, #0
 8004626:	d19f      	bne.n	8004568 <I2C_IsErrorOccurred+0x2c>
 8004628:	2220      	movs	r2, #32
 800462a:	61da      	str	r2, [r3, #28]
 800462c:	e79c      	b.n	8004568 <I2C_IsErrorOccurred+0x2c>
 800462e:	2800      	cmp	r0, #0
 8004630:	d1b6      	bne.n	80045a0 <I2C_IsErrorOccurred+0x64>
 8004632:	bdfe      	pop	{r1, r2, r3, r4, r5, r6, r7, pc}
 8004634:	fe00e800 	.word	0xfe00e800

08004638 <I2C_WaitOnTXISFlagUntilTimeout>:
 8004638:	b5f8      	push	{r3, r4, r5, r6, r7, lr}
 800463a:	0004      	movs	r4, r0
 800463c:	000d      	movs	r5, r1
 800463e:	0016      	movs	r6, r2
 8004640:	2702      	movs	r7, #2
 8004642:	6823      	ldr	r3, [r4, #0]
 8004644:	699b      	ldr	r3, [r3, #24]
 8004646:	423b      	tst	r3, r7
 8004648:	d001      	beq.n	800464e <I2C_WaitOnTXISFlagUntilTimeout+0x16>
 800464a:	2000      	movs	r0, #0
 800464c:	e021      	b.n	8004692 <I2C_WaitOnTXISFlagUntilTimeout+0x5a>
 800464e:	0032      	movs	r2, r6
 8004650:	0029      	movs	r1, r5
 8004652:	0020      	movs	r0, r4
 8004654:	f7ff ff72 	bl	800453c <I2C_IsErrorOccurred>
 8004658:	2800      	cmp	r0, #0
 800465a:	d119      	bne.n	8004690 <I2C_WaitOnTXISFlagUntilTimeout+0x58>
 800465c:	1c6b      	adds	r3, r5, #1
 800465e:	d0f0      	beq.n	8004642 <I2C_WaitOnTXISFlagUntilTimeout+0xa>
 8004660:	f7ff faba 	bl	8003bd8 <HAL_GetTick>
 8004664:	1b80      	subs	r0, r0, r6
 8004666:	42a8      	cmp	r0, r5
 8004668:	d801      	bhi.n	800466e <I2C_WaitOnTXISFlagUntilTimeout+0x36>
 800466a:	2d00      	cmp	r5, #0
 800466c:	d1e9      	bne.n	8004642 <I2C_WaitOnTXISFlagUntilTimeout+0xa>
 800466e:	6823      	ldr	r3, [r4, #0]
 8004670:	6999      	ldr	r1, [r3, #24]
 8004672:	2302      	movs	r3, #2
 8004674:	000a      	movs	r2, r1
 8004676:	401a      	ands	r2, r3
 8004678:	4219      	tst	r1, r3
 800467a:	d1e2      	bne.n	8004642 <I2C_WaitOnTXISFlagUntilTimeout+0xa>
 800467c:	2120      	movs	r1, #32
 800467e:	6c63      	ldr	r3, [r4, #68]	@ 0x44
 8004680:	430b      	orrs	r3, r1
 8004682:	6463      	str	r3, [r4, #68]	@ 0x44
 8004684:	0023      	movs	r3, r4
 8004686:	3440      	adds	r4, #64	@ 0x40
 8004688:	3341      	adds	r3, #65	@ 0x41
 800468a:	7019      	strb	r1, [r3, #0]
 800468c:	705a      	strb	r2, [r3, #1]
 800468e:	7022      	strb	r2, [r4, #0]
 8004690:	2001      	movs	r0, #1
 8004692:	bdf8      	pop	{r3, r4, r5, r6, r7, pc}

08004694 <I2C_WaitOnFlagUntilTimeout>:
 8004694:	b5f8      	push	{r3, r4, r5, r6, r7, lr}
 8004696:	0004      	movs	r4, r0
 8004698:	000d      	movs	r5, r1
 800469a:	0017      	movs	r7, r2
 800469c:	001e      	movs	r6, r3
 800469e:	6823      	ldr	r3, [r4, #0]
 80046a0:	699b      	ldr	r3, [r3, #24]
 80046a2:	402b      	ands	r3, r5
 80046a4:	1b5b      	subs	r3, r3, r5
 80046a6:	425a      	negs	r2, r3
 80046a8:	4153      	adcs	r3, r2
 80046aa:	42bb      	cmp	r3, r7
 80046ac:	d001      	beq.n	80046b2 <I2C_WaitOnFlagUntilTimeout+0x1e>
 80046ae:	2000      	movs	r0, #0
 80046b0:	e026      	b.n	8004700 <I2C_WaitOnFlagUntilTimeout+0x6c>
 80046b2:	0031      	movs	r1, r6
 80046b4:	0020      	movs	r0, r4
 80046b6:	9a06      	ldr	r2, [sp, #24]
 80046b8:	f7ff ff40 	bl	800453c <I2C_IsErrorOccurred>
 80046bc:	2800      	cmp	r0, #0
 80046be:	d11e      	bne.n	80046fe <I2C_WaitOnFlagUntilTimeout+0x6a>
 80046c0:	1c73      	adds	r3, r6, #1
 80046c2:	d0ec      	beq.n	800469e <I2C_WaitOnFlagUntilTimeout+0xa>
 80046c4:	f7ff fa88 	bl	8003bd8 <HAL_GetTick>
 80046c8:	9b06      	ldr	r3, [sp, #24]
 80046ca:	1ac0      	subs	r0, r0, r3
 80046cc:	42b0      	cmp	r0, r6
 80046ce:	d801      	bhi.n	80046d4 <I2C_WaitOnFlagUntilTimeout+0x40>
 80046d0:	2e00      	cmp	r6, #0
 80046d2:	d1e4      	bne.n	800469e <I2C_WaitOnFlagUntilTimeout+0xa>
 80046d4:	6823      	ldr	r3, [r4, #0]
 80046d6:	699b      	ldr	r3, [r3, #24]
 80046d8:	402b      	ands	r3, r5
 80046da:	1b5b      	subs	r3, r3, r5
 80046dc:	425a      	negs	r2, r3
 80046de:	4153      	adcs	r3, r2
 80046e0:	42bb      	cmp	r3, r7
 80046e2:	d1dc      	bne.n	800469e <I2C_WaitOnFlagUntilTimeout+0xa>
 80046e4:	2220      	movs	r2, #32
 80046e6:	6c63      	ldr	r3, [r4, #68]	@ 0x44
 80046e8:	4313      	orrs	r3, r2
 80046ea:	6463      	str	r3, [r4, #68]	@ 0x44
 80046ec:	0023      	movs	r3, r4
 80046ee:	3341      	adds	r3, #65	@ 0x41
 80046f0:	701a      	strb	r2, [r3, #0]
 80046f2:	0022      	movs	r2, r4
 80046f4:	2300      	movs	r3, #0
 80046f6:	3242      	adds	r2, #66	@ 0x42
 80046f8:	3440      	adds	r4, #64	@ 0x40
 80046fa:	7013      	strb	r3, [r2, #0]
 80046fc:	7023      	strb	r3, [r4, #0]
 80046fe:	2001      	movs	r0, #1
 8004700:	bdf8      	pop	{r3, r4, r5, r6, r7, pc}

08004702 <I2C_WaitOnSTOPFlagUntilTimeout>:
 8004702:	b5f8      	push	{r3, r4, r5, r6, r7, lr}
 8004704:	0004      	movs	r4, r0
 8004706:	000e      	movs	r6, r1
 8004708:	0017      	movs	r7, r2
 800470a:	2520      	movs	r5, #32
 800470c:	6823      	ldr	r3, [r4, #0]
 800470e:	699b      	ldr	r3, [r3, #24]
 8004710:	422b      	tst	r3, r5
 8004712:	d001      	beq.n	8004718 <I2C_WaitOnSTOPFlagUntilTimeout+0x16>
 8004714:	2000      	movs	r0, #0
 8004716:	e01d      	b.n	8004754 <I2C_WaitOnSTOPFlagUntilTimeout+0x52>
 8004718:	003a      	movs	r2, r7
 800471a:	0031      	movs	r1, r6
 800471c:	0020      	movs	r0, r4
 800471e:	f7ff ff0d 	bl	800453c <I2C_IsErrorOccurred>
 8004722:	2800      	cmp	r0, #0
 8004724:	d115      	bne.n	8004752 <I2C_WaitOnSTOPFlagUntilTimeout+0x50>
 8004726:	f7ff fa57 	bl	8003bd8 <HAL_GetTick>
 800472a:	1bc0      	subs	r0, r0, r7
 800472c:	42b0      	cmp	r0, r6
 800472e:	d801      	bhi.n	8004734 <I2C_WaitOnSTOPFlagUntilTimeout+0x32>
 8004730:	2e00      	cmp	r6, #0
 8004732:	d1eb      	bne.n	800470c <I2C_WaitOnSTOPFlagUntilTimeout+0xa>
 8004734:	6823      	ldr	r3, [r4, #0]
 8004736:	699b      	ldr	r3, [r3, #24]
 8004738:	001a      	movs	r2, r3
 800473a:	402a      	ands	r2, r5
 800473c:	422b      	tst	r3, r5
 800473e:	d1e5      	bne.n	800470c <I2C_WaitOnSTOPFlagUntilTimeout+0xa>
 8004740:	6c63      	ldr	r3, [r4, #68]	@ 0x44
 8004742:	432b      	orrs	r3, r5
 8004744:	6463      	str	r3, [r4, #68]	@ 0x44
 8004746:	0023      	movs	r3, r4
 8004748:	3440      	adds	r4, #64	@ 0x40
 800474a:	3341      	adds	r3, #65	@ 0x41
 800474c:	701d      	strb	r5, [r3, #0]
 800474e:	705a      	strb	r2, [r3, #1]
 8004750:	7022      	strb	r2, [r4, #0]
 8004752:	2001      	movs	r0, #1
 8004754:	bdf8      	pop	{r3, r4, r5, r6, r7, pc}
	...

08004758 <HAL_I2C_Init>:
 8004758:	b570      	push	{r4, r5, r6, lr}
 800475a:	0004      	movs	r4, r0
 800475c:	2001      	movs	r0, #1
 800475e:	2c00      	cmp	r4, #0
 8004760:	d04e      	beq.n	8004800 <HAL_I2C_Init+0xa8>
 8004762:	0025      	movs	r5, r4
 8004764:	3541      	adds	r5, #65	@ 0x41
 8004766:	782b      	ldrb	r3, [r5, #0]
 8004768:	b2da      	uxtb	r2, r3
 800476a:	2b00      	cmp	r3, #0
 800476c:	d105      	bne.n	800477a <HAL_I2C_Init+0x22>
 800476e:	0023      	movs	r3, r4
 8004770:	3340      	adds	r3, #64	@ 0x40
 8004772:	0020      	movs	r0, r4
 8004774:	701a      	strb	r2, [r3, #0]
 8004776:	f7fe fe47 	bl	8003408 <HAL_I2C_MspInit>
 800477a:	2324      	movs	r3, #36	@ 0x24
 800477c:	2101      	movs	r1, #1
 800477e:	702b      	strb	r3, [r5, #0]
 8004780:	6823      	ldr	r3, [r4, #0]
 8004782:	68e0      	ldr	r0, [r4, #12]
 8004784:	681a      	ldr	r2, [r3, #0]
 8004786:	68a6      	ldr	r6, [r4, #8]
 8004788:	438a      	bics	r2, r1
 800478a:	601a      	str	r2, [r3, #0]
 800478c:	491d      	ldr	r1, [pc, #116]	@ (8004804 <HAL_I2C_Init+0xac>)
 800478e:	6862      	ldr	r2, [r4, #4]
 8004790:	400a      	ands	r2, r1
 8004792:	611a      	str	r2, [r3, #16]
 8004794:	689a      	ldr	r2, [r3, #8]
 8004796:	491c      	ldr	r1, [pc, #112]	@ (8004808 <HAL_I2C_Init+0xb0>)
 8004798:	400a      	ands	r2, r1
 800479a:	609a      	str	r2, [r3, #8]
 800479c:	2801      	cmp	r0, #1
 800479e:	d107      	bne.n	80047b0 <HAL_I2C_Init+0x58>
 80047a0:	2280      	movs	r2, #128	@ 0x80
 80047a2:	0212      	lsls	r2, r2, #8
 80047a4:	4332      	orrs	r2, r6
 80047a6:	609a      	str	r2, [r3, #8]
 80047a8:	685a      	ldr	r2, [r3, #4]
 80047aa:	4818      	ldr	r0, [pc, #96]	@ (800480c <HAL_I2C_Init+0xb4>)
 80047ac:	4002      	ands	r2, r0
 80047ae:	e009      	b.n	80047c4 <HAL_I2C_Init+0x6c>
 80047b0:	2284      	movs	r2, #132	@ 0x84
 80047b2:	0212      	lsls	r2, r2, #8
 80047b4:	4332      	orrs	r2, r6
 80047b6:	609a      	str	r2, [r3, #8]
 80047b8:	2802      	cmp	r0, #2
 80047ba:	d1f5      	bne.n	80047a8 <HAL_I2C_Init+0x50>
 80047bc:	2280      	movs	r2, #128	@ 0x80
 80047be:	6858      	ldr	r0, [r3, #4]
 80047c0:	0112      	lsls	r2, r2, #4
 80047c2:	4302      	orrs	r2, r0
 80047c4:	605a      	str	r2, [r3, #4]
 80047c6:	6858      	ldr	r0, [r3, #4]
 80047c8:	4a11      	ldr	r2, [pc, #68]	@ (8004810 <HAL_I2C_Init+0xb8>)
 80047ca:	4302      	orrs	r2, r0
 80047cc:	605a      	str	r2, [r3, #4]
 80047ce:	68da      	ldr	r2, [r3, #12]
 80047d0:	2000      	movs	r0, #0
 80047d2:	400a      	ands	r2, r1
 80047d4:	60da      	str	r2, [r3, #12]
 80047d6:	6961      	ldr	r1, [r4, #20]
 80047d8:	6922      	ldr	r2, [r4, #16]
 80047da:	430a      	orrs	r2, r1
 80047dc:	69a1      	ldr	r1, [r4, #24]
 80047de:	0209      	lsls	r1, r1, #8
 80047e0:	430a      	orrs	r2, r1
 80047e2:	60da      	str	r2, [r3, #12]
 80047e4:	6a21      	ldr	r1, [r4, #32]
 80047e6:	69e2      	ldr	r2, [r4, #28]
 80047e8:	430a      	orrs	r2, r1
 80047ea:	601a      	str	r2, [r3, #0]
 80047ec:	2201      	movs	r2, #1
 80047ee:	6819      	ldr	r1, [r3, #0]
 80047f0:	430a      	orrs	r2, r1
 80047f2:	601a      	str	r2, [r3, #0]
 80047f4:	2320      	movs	r3, #32
 80047f6:	6460      	str	r0, [r4, #68]	@ 0x44
 80047f8:	702b      	strb	r3, [r5, #0]
 80047fa:	6320      	str	r0, [r4, #48]	@ 0x30
 80047fc:	3442      	adds	r4, #66	@ 0x42
 80047fe:	7020      	strb	r0, [r4, #0]
 8004800:	bd70      	pop	{r4, r5, r6, pc}
 8004802:	46c0      	nop			@ (mov r8, r8)
 8004804:	f0ffffff 	.word	0xf0ffffff
 8004808:	ffff7fff 	.word	0xffff7fff
 800480c:	fffff7ff 	.word	0xfffff7ff
 8004810:	02008000 	.word	0x02008000

08004814 <HAL_I2C_Mem_Write>:
 8004814:	b5f0      	push	{r4, r5, r6, r7, lr}
 8004816:	0007      	movs	r7, r0
 8004818:	b087      	sub	sp, #28
 800481a:	9303      	str	r3, [sp, #12]
 800481c:	ab0c      	add	r3, sp, #48	@ 0x30
 800481e:	9202      	str	r2, [sp, #8]
 8004820:	cb04      	ldmia	r3!, {r2}
 8004822:	3741      	adds	r7, #65	@ 0x41
 8004824:	881b      	ldrh	r3, [r3, #0]
 8004826:	9204      	str	r2, [sp, #16]
 8004828:	9305      	str	r3, [sp, #20]
 800482a:	783b      	ldrb	r3, [r7, #0]
 800482c:	0004      	movs	r4, r0
 800482e:	000e      	movs	r6, r1
 8004830:	2002      	movs	r0, #2
 8004832:	2b20      	cmp	r3, #32
 8004834:	d108      	bne.n	8004848 <HAL_I2C_Mem_Write+0x34>
 8004836:	2a00      	cmp	r2, #0
 8004838:	d002      	beq.n	8004840 <HAL_I2C_Mem_Write+0x2c>
 800483a:	9b05      	ldr	r3, [sp, #20]
 800483c:	2b00      	cmp	r3, #0
 800483e:	d105      	bne.n	800484c <HAL_I2C_Mem_Write+0x38>
 8004840:	2380      	movs	r3, #128	@ 0x80
 8004842:	009b      	lsls	r3, r3, #2
 8004844:	6463      	str	r3, [r4, #68]	@ 0x44
 8004846:	2001      	movs	r0, #1
 8004848:	b007      	add	sp, #28
 800484a:	bdf0      	pop	{r4, r5, r6, r7, pc}
 800484c:	0023      	movs	r3, r4
 800484e:	3340      	adds	r3, #64	@ 0x40
 8004850:	781a      	ldrb	r2, [r3, #0]
 8004852:	2002      	movs	r0, #2
 8004854:	2a01      	cmp	r2, #1
 8004856:	d0f7      	beq.n	8004848 <HAL_I2C_Mem_Write+0x34>
 8004858:	2201      	movs	r2, #1
 800485a:	701a      	strb	r2, [r3, #0]
 800485c:	f7ff f9bc 	bl	8003bd8 <HAL_GetTick>
 8004860:	2180      	movs	r1, #128	@ 0x80
 8004862:	0005      	movs	r5, r0
 8004864:	9000      	str	r0, [sp, #0]
 8004866:	2319      	movs	r3, #25
 8004868:	2201      	movs	r2, #1
 800486a:	0020      	movs	r0, r4
 800486c:	0209      	lsls	r1, r1, #8
 800486e:	f7ff ff11 	bl	8004694 <I2C_WaitOnFlagUntilTimeout>
 8004872:	2800      	cmp	r0, #0
 8004874:	d1e7      	bne.n	8004846 <HAL_I2C_Mem_Write+0x32>
 8004876:	2321      	movs	r3, #33	@ 0x21
 8004878:	703b      	strb	r3, [r7, #0]
 800487a:	0027      	movs	r7, r4
 800487c:	331f      	adds	r3, #31
 800487e:	3742      	adds	r7, #66	@ 0x42
 8004880:	703b      	strb	r3, [r7, #0]
 8004882:	9b04      	ldr	r3, [sp, #16]
 8004884:	6460      	str	r0, [r4, #68]	@ 0x44
 8004886:	6263      	str	r3, [r4, #36]	@ 0x24
 8004888:	9b05      	ldr	r3, [sp, #20]
 800488a:	6360      	str	r0, [r4, #52]	@ 0x34
 800488c:	8563      	strh	r3, [r4, #42]	@ 0x2a
 800488e:	466b      	mov	r3, sp
 8004890:	7b1a      	ldrb	r2, [r3, #12]
 8004892:	4b4b      	ldr	r3, [pc, #300]	@ (80049c0 <HAL_I2C_Mem_Write+0x1ac>)
 8004894:	0031      	movs	r1, r6
 8004896:	9300      	str	r3, [sp, #0]
 8004898:	2380      	movs	r3, #128	@ 0x80
 800489a:	0020      	movs	r0, r4
 800489c:	045b      	lsls	r3, r3, #17
 800489e:	f7ff fe37 	bl	8004510 <I2C_TransferConfig>
 80048a2:	002a      	movs	r2, r5
 80048a4:	0020      	movs	r0, r4
 80048a6:	990e      	ldr	r1, [sp, #56]	@ 0x38
 80048a8:	f7ff fec6 	bl	8004638 <I2C_WaitOnTXISFlagUntilTimeout>
 80048ac:	2800      	cmp	r0, #0
 80048ae:	d129      	bne.n	8004904 <HAL_I2C_Mem_Write+0xf0>
 80048b0:	9a03      	ldr	r2, [sp, #12]
 80048b2:	6823      	ldr	r3, [r4, #0]
 80048b4:	2a01      	cmp	r2, #1
 80048b6:	d116      	bne.n	80048e6 <HAL_I2C_Mem_Write+0xd2>
 80048b8:	466a      	mov	r2, sp
 80048ba:	7a12      	ldrb	r2, [r2, #8]
 80048bc:	629a      	str	r2, [r3, #40]	@ 0x28
 80048be:	2200      	movs	r2, #0
 80048c0:	2180      	movs	r1, #128	@ 0x80
 80048c2:	0020      	movs	r0, r4
 80048c4:	9b0e      	ldr	r3, [sp, #56]	@ 0x38
 80048c6:	9500      	str	r5, [sp, #0]
 80048c8:	f7ff fee4 	bl	8004694 <I2C_WaitOnFlagUntilTimeout>
 80048cc:	2800      	cmp	r0, #0
 80048ce:	d119      	bne.n	8004904 <HAL_I2C_Mem_Write+0xf0>
 80048d0:	8d63      	ldrh	r3, [r4, #42]	@ 0x2a
 80048d2:	2bff      	cmp	r3, #255	@ 0xff
 80048d4:	d81a      	bhi.n	800490c <HAL_I2C_Mem_Write+0xf8>
 80048d6:	2380      	movs	r3, #128	@ 0x80
 80048d8:	8d62      	ldrh	r2, [r4, #42]	@ 0x2a
 80048da:	049b      	lsls	r3, r3, #18
 80048dc:	b292      	uxth	r2, r2
 80048de:	8522      	strh	r2, [r4, #40]	@ 0x28
 80048e0:	b2d2      	uxtb	r2, r2
 80048e2:	9000      	str	r0, [sp, #0]
 80048e4:	e017      	b.n	8004916 <HAL_I2C_Mem_Write+0x102>
 80048e6:	9a02      	ldr	r2, [sp, #8]
 80048e8:	0020      	movs	r0, r4
 80048ea:	0a12      	lsrs	r2, r2, #8
 80048ec:	629a      	str	r2, [r3, #40]	@ 0x28
 80048ee:	990e      	ldr	r1, [sp, #56]	@ 0x38
 80048f0:	002a      	movs	r2, r5
 80048f2:	f7ff fea1 	bl	8004638 <I2C_WaitOnTXISFlagUntilTimeout>
 80048f6:	2800      	cmp	r0, #0
 80048f8:	d104      	bne.n	8004904 <HAL_I2C_Mem_Write+0xf0>
 80048fa:	466b      	mov	r3, sp
 80048fc:	6822      	ldr	r2, [r4, #0]
 80048fe:	7a1b      	ldrb	r3, [r3, #8]
 8004900:	6293      	str	r3, [r2, #40]	@ 0x28
 8004902:	e7dc      	b.n	80048be <HAL_I2C_Mem_Write+0xaa>
 8004904:	2300      	movs	r3, #0
 8004906:	3440      	adds	r4, #64	@ 0x40
 8004908:	7023      	strb	r3, [r4, #0]
 800490a:	e79c      	b.n	8004846 <HAL_I2C_Mem_Write+0x32>
 800490c:	22ff      	movs	r2, #255	@ 0xff
 800490e:	2380      	movs	r3, #128	@ 0x80
 8004910:	8522      	strh	r2, [r4, #40]	@ 0x28
 8004912:	045b      	lsls	r3, r3, #17
 8004914:	9000      	str	r0, [sp, #0]
 8004916:	0031      	movs	r1, r6
 8004918:	0020      	movs	r0, r4
 800491a:	f7ff fdf9 	bl	8004510 <I2C_TransferConfig>
 800491e:	002a      	movs	r2, r5
 8004920:	0020      	movs	r0, r4
 8004922:	990e      	ldr	r1, [sp, #56]	@ 0x38
 8004924:	f7ff fe88 	bl	8004638 <I2C_WaitOnTXISFlagUntilTimeout>
 8004928:	2800      	cmp	r0, #0
 800492a:	d000      	beq.n	800492e <HAL_I2C_Mem_Write+0x11a>
 800492c:	e78b      	b.n	8004846 <HAL_I2C_Mem_Write+0x32>
 800492e:	6a63      	ldr	r3, [r4, #36]	@ 0x24
 8004930:	6822      	ldr	r2, [r4, #0]
 8004932:	7819      	ldrb	r1, [r3, #0]
 8004934:	3301      	adds	r3, #1
 8004936:	6291      	str	r1, [r2, #40]	@ 0x28
 8004938:	6263      	str	r3, [r4, #36]	@ 0x24
 800493a:	8d63      	ldrh	r3, [r4, #42]	@ 0x2a
 800493c:	8d22      	ldrh	r2, [r4, #40]	@ 0x28
 800493e:	3b01      	subs	r3, #1
 8004940:	b29b      	uxth	r3, r3
 8004942:	8563      	strh	r3, [r4, #42]	@ 0x2a
 8004944:	3a01      	subs	r2, #1
 8004946:	8d63      	ldrh	r3, [r4, #42]	@ 0x2a
 8004948:	b292      	uxth	r2, r2
 800494a:	8522      	strh	r2, [r4, #40]	@ 0x28
 800494c:	2b00      	cmp	r3, #0
 800494e:	d016      	beq.n	800497e <HAL_I2C_Mem_Write+0x16a>
 8004950:	2a00      	cmp	r2, #0
 8004952:	d114      	bne.n	800497e <HAL_I2C_Mem_Write+0x16a>
 8004954:	2180      	movs	r1, #128	@ 0x80
 8004956:	0020      	movs	r0, r4
 8004958:	9b0e      	ldr	r3, [sp, #56]	@ 0x38
 800495a:	9500      	str	r5, [sp, #0]
 800495c:	f7ff fe9a 	bl	8004694 <I2C_WaitOnFlagUntilTimeout>
 8004960:	2800      	cmp	r0, #0
 8004962:	d000      	beq.n	8004966 <HAL_I2C_Mem_Write+0x152>
 8004964:	e76f      	b.n	8004846 <HAL_I2C_Mem_Write+0x32>
 8004966:	8d63      	ldrh	r3, [r4, #42]	@ 0x2a
 8004968:	2bff      	cmp	r3, #255	@ 0xff
 800496a:	d921      	bls.n	80049b0 <HAL_I2C_Mem_Write+0x19c>
 800496c:	22ff      	movs	r2, #255	@ 0xff
 800496e:	2380      	movs	r3, #128	@ 0x80
 8004970:	8522      	strh	r2, [r4, #40]	@ 0x28
 8004972:	045b      	lsls	r3, r3, #17
 8004974:	9000      	str	r0, [sp, #0]
 8004976:	0031      	movs	r1, r6
 8004978:	0020      	movs	r0, r4
 800497a:	f7ff fdc9 	bl	8004510 <I2C_TransferConfig>
 800497e:	8d63      	ldrh	r3, [r4, #42]	@ 0x2a
 8004980:	2b00      	cmp	r3, #0
 8004982:	d1cc      	bne.n	800491e <HAL_I2C_Mem_Write+0x10a>
 8004984:	002a      	movs	r2, r5
 8004986:	0020      	movs	r0, r4
 8004988:	990e      	ldr	r1, [sp, #56]	@ 0x38
 800498a:	f7ff feba 	bl	8004702 <I2C_WaitOnSTOPFlagUntilTimeout>
 800498e:	2800      	cmp	r0, #0
 8004990:	d000      	beq.n	8004994 <HAL_I2C_Mem_Write+0x180>
 8004992:	e758      	b.n	8004846 <HAL_I2C_Mem_Write+0x32>
 8004994:	2120      	movs	r1, #32
 8004996:	6823      	ldr	r3, [r4, #0]
 8004998:	4d0a      	ldr	r5, [pc, #40]	@ (80049c4 <HAL_I2C_Mem_Write+0x1b0>)
 800499a:	61d9      	str	r1, [r3, #28]
 800499c:	685a      	ldr	r2, [r3, #4]
 800499e:	402a      	ands	r2, r5
 80049a0:	605a      	str	r2, [r3, #4]
 80049a2:	0023      	movs	r3, r4
 80049a4:	3440      	adds	r4, #64	@ 0x40
 80049a6:	3341      	adds	r3, #65	@ 0x41
 80049a8:	7019      	strb	r1, [r3, #0]
 80049aa:	7038      	strb	r0, [r7, #0]
 80049ac:	7020      	strb	r0, [r4, #0]
 80049ae:	e74b      	b.n	8004848 <HAL_I2C_Mem_Write+0x34>
 80049b0:	2380      	movs	r3, #128	@ 0x80
 80049b2:	8d62      	ldrh	r2, [r4, #42]	@ 0x2a
 80049b4:	049b      	lsls	r3, r3, #18
 80049b6:	b292      	uxth	r2, r2
 80049b8:	8522      	strh	r2, [r4, #40]	@ 0x28
 80049ba:	b2d2      	uxtb	r2, r2
 80049bc:	9000      	str	r0, [sp, #0]
 80049be:	e7da      	b.n	8004976 <HAL_I2C_Mem_Write+0x162>
 80049c0:	80002000 	.word	0x80002000
 80049c4:	fe00e800 	.word	0xfe00e800

080049c8 <HAL_I2C_Mem_Read>:
 80049c8:	b5f0      	push	{r4, r5, r6, r7, lr}
 80049ca:	0006      	movs	r6, r0
 80049cc:	b087      	sub	sp, #28
 80049ce:	9303      	str	r3, [sp, #12]
 80049d0:	ab0c      	add	r3, sp, #48	@ 0x30
 80049d2:	9202      	str	r2, [sp, #8]
 80049d4:	cb04      	ldmia	r3!, {r2}
 80049d6:	3641      	adds	r6, #65	@ 0x41
 80049d8:	881b      	ldrh	r3, [r3, #0]
 80049da:	9204      	str	r2, [sp, #16]
 80049dc:	9305      	str	r3, [sp, #20]
 80049de:	7833      	ldrb	r3, [r6, #0]
 80049e0:	0004      	movs	r4, r0
 80049e2:	000f      	movs	r7, r1
 80049e4:	2002      	movs	r0, #2
 80049e6:	2b20      	cmp	r3, #32
 80049e8:	d108      	bne.n	80049fc <HAL_I2C_Mem_Read+0x34>
 80049ea:	2a00      	cmp	r2, #0
 80049ec:	d002      	beq.n	80049f4 <HAL_I2C_Mem_Read+0x2c>
 80049ee:	9b05      	ldr	r3, [sp, #20]
 80049f0:	2b00      	cmp	r3, #0
 80049f2:	d105      	bne.n	8004a00 <HAL_I2C_Mem_Read+0x38>
 80049f4:	2380      	movs	r3, #128	@ 0x80
 80049f6:	009b      	lsls	r3, r3, #2
 80049f8:	6463      	str	r3, [r4, #68]	@ 0x44
 80049fa:	2001      	movs	r0, #1
 80049fc:	b007      	add	sp, #28
 80049fe:	bdf0      	pop	{r4, r5, r6, r7, pc}
 8004a00:	0023      	movs	r3, r4
 8004a02:	3340      	adds	r3, #64	@ 0x40
 8004a04:	781a      	ldrb	r2, [r3, #0]
 8004a06:	2002      	movs	r0, #2
 8004a08:	2a01      	cmp	r2, #1
 8004a0a:	d0f7      	beq.n	80049fc <HAL_I2C_Mem_Read+0x34>
 8004a0c:	2201      	movs	r2, #1
 8004a0e:	701a      	strb	r2, [r3, #0]
 8004a10:	f7ff f8e2 	bl	8003bd8 <HAL_GetTick>
 8004a14:	2180      	movs	r1, #128	@ 0x80
 8004a16:	2319      	movs	r3, #25
 8004a18:	9000      	str	r0, [sp, #0]
 8004a1a:	0005      	movs	r5, r0
 8004a1c:	2201      	movs	r2, #1
 8004a1e:	0020      	movs	r0, r4
 8004a20:	0209      	lsls	r1, r1, #8
 8004a22:	f7ff fe37 	bl	8004694 <I2C_WaitOnFlagUntilTimeout>
 8004a26:	1e03      	subs	r3, r0, #0
 8004a28:	d1e7      	bne.n	80049fa <HAL_I2C_Mem_Read+0x32>
 8004a2a:	2222      	movs	r2, #34	@ 0x22
 8004a2c:	7032      	strb	r2, [r6, #0]
 8004a2e:	0026      	movs	r6, r4
 8004a30:	321e      	adds	r2, #30
 8004a32:	3642      	adds	r6, #66	@ 0x42
 8004a34:	7032      	strb	r2, [r6, #0]
 8004a36:	9a04      	ldr	r2, [sp, #16]
 8004a38:	6460      	str	r0, [r4, #68]	@ 0x44
 8004a3a:	6262      	str	r2, [r4, #36]	@ 0x24
 8004a3c:	9a05      	ldr	r2, [sp, #20]
 8004a3e:	494e      	ldr	r1, [pc, #312]	@ (8004b78 <HAL_I2C_Mem_Read+0x1b0>)
 8004a40:	8562      	strh	r2, [r4, #42]	@ 0x2a
 8004a42:	466a      	mov	r2, sp
 8004a44:	6360      	str	r0, [r4, #52]	@ 0x34
 8004a46:	7b12      	ldrb	r2, [r2, #12]
 8004a48:	0020      	movs	r0, r4
 8004a4a:	9100      	str	r1, [sp, #0]
 8004a4c:	0039      	movs	r1, r7
 8004a4e:	f7ff fd5f 	bl	8004510 <I2C_TransferConfig>
 8004a52:	002a      	movs	r2, r5
 8004a54:	0020      	movs	r0, r4
 8004a56:	990e      	ldr	r1, [sp, #56]	@ 0x38
 8004a58:	f7ff fdee 	bl	8004638 <I2C_WaitOnTXISFlagUntilTimeout>
 8004a5c:	2800      	cmp	r0, #0
 8004a5e:	d12a      	bne.n	8004ab6 <HAL_I2C_Mem_Read+0xee>
 8004a60:	9a03      	ldr	r2, [sp, #12]
 8004a62:	6823      	ldr	r3, [r4, #0]
 8004a64:	2a01      	cmp	r2, #1
 8004a66:	d117      	bne.n	8004a98 <HAL_I2C_Mem_Read+0xd0>
 8004a68:	466a      	mov	r2, sp
 8004a6a:	7a12      	ldrb	r2, [r2, #8]
 8004a6c:	629a      	str	r2, [r3, #40]	@ 0x28
 8004a6e:	2200      	movs	r2, #0
 8004a70:	2140      	movs	r1, #64	@ 0x40
 8004a72:	0020      	movs	r0, r4
 8004a74:	9b0e      	ldr	r3, [sp, #56]	@ 0x38
 8004a76:	9500      	str	r5, [sp, #0]
 8004a78:	f7ff fe0c 	bl	8004694 <I2C_WaitOnFlagUntilTimeout>
 8004a7c:	2800      	cmp	r0, #0
 8004a7e:	d11a      	bne.n	8004ab6 <HAL_I2C_Mem_Read+0xee>
 8004a80:	8d62      	ldrh	r2, [r4, #42]	@ 0x2a
 8004a82:	4b3e      	ldr	r3, [pc, #248]	@ (8004b7c <HAL_I2C_Mem_Read+0x1b4>)
 8004a84:	2aff      	cmp	r2, #255	@ 0xff
 8004a86:	d81a      	bhi.n	8004abe <HAL_I2C_Mem_Read+0xf6>
 8004a88:	8d62      	ldrh	r2, [r4, #42]	@ 0x2a
 8004a8a:	b292      	uxth	r2, r2
 8004a8c:	8522      	strh	r2, [r4, #40]	@ 0x28
 8004a8e:	9300      	str	r3, [sp, #0]
 8004a90:	2380      	movs	r3, #128	@ 0x80
 8004a92:	b2d2      	uxtb	r2, r2
 8004a94:	049b      	lsls	r3, r3, #18
 8004a96:	e017      	b.n	8004ac8 <HAL_I2C_Mem_Read+0x100>
 8004a98:	9a02      	ldr	r2, [sp, #8]
 8004a9a:	0020      	movs	r0, r4
 8004a9c:	0a12      	lsrs	r2, r2, #8
 8004a9e:	629a      	str	r2, [r3, #40]	@ 0x28
 8004aa0:	990e      	ldr	r1, [sp, #56]	@ 0x38
 8004aa2:	002a      	movs	r2, r5
 8004aa4:	f7ff fdc8 	bl	8004638 <I2C_WaitOnTXISFlagUntilTimeout>
 8004aa8:	2800      	cmp	r0, #0
 8004aaa:	d104      	bne.n	8004ab6 <HAL_I2C_Mem_Read+0xee>
 8004aac:	466b      	mov	r3, sp
 8004aae:	6822      	ldr	r2, [r4, #0]
 8004ab0:	7a1b      	ldrb	r3, [r3, #8]
 8004ab2:	6293      	str	r3, [r2, #40]	@ 0x28
 8004ab4:	e7db      	b.n	8004a6e <HAL_I2C_Mem_Read+0xa6>
 8004ab6:	2300      	movs	r3, #0
 8004ab8:	3440      	adds	r4, #64	@ 0x40
 8004aba:	7023      	strb	r3, [r4, #0]
 8004abc:	e79d      	b.n	80049fa <HAL_I2C_Mem_Read+0x32>
 8004abe:	2201      	movs	r2, #1
 8004ac0:	8522      	strh	r2, [r4, #40]	@ 0x28
 8004ac2:	9300      	str	r3, [sp, #0]
 8004ac4:	2380      	movs	r3, #128	@ 0x80
 8004ac6:	045b      	lsls	r3, r3, #17
 8004ac8:	0039      	movs	r1, r7
 8004aca:	0020      	movs	r0, r4
 8004acc:	f7ff fd20 	bl	8004510 <I2C_TransferConfig>
 8004ad0:	2200      	movs	r2, #0
 8004ad2:	2104      	movs	r1, #4
 8004ad4:	0020      	movs	r0, r4
 8004ad6:	9b0e      	ldr	r3, [sp, #56]	@ 0x38
 8004ad8:	9500      	str	r5, [sp, #0]
 8004ada:	f7ff fddb 	bl	8004694 <I2C_WaitOnFlagUntilTimeout>
 8004ade:	2800      	cmp	r0, #0
 8004ae0:	d000      	beq.n	8004ae4 <HAL_I2C_Mem_Read+0x11c>
 8004ae2:	e78a      	b.n	80049fa <HAL_I2C_Mem_Read+0x32>
 8004ae4:	6823      	ldr	r3, [r4, #0]
 8004ae6:	6a5a      	ldr	r2, [r3, #36]	@ 0x24
 8004ae8:	6a63      	ldr	r3, [r4, #36]	@ 0x24
 8004aea:	701a      	strb	r2, [r3, #0]
 8004aec:	6a63      	ldr	r3, [r4, #36]	@ 0x24
 8004aee:	8d22      	ldrh	r2, [r4, #40]	@ 0x28
 8004af0:	3301      	adds	r3, #1
 8004af2:	6263      	str	r3, [r4, #36]	@ 0x24
 8004af4:	8d63      	ldrh	r3, [r4, #42]	@ 0x2a
 8004af6:	3a01      	subs	r2, #1
 8004af8:	3b01      	subs	r3, #1
 8004afa:	b29b      	uxth	r3, r3
 8004afc:	8563      	strh	r3, [r4, #42]	@ 0x2a
 8004afe:	8d63      	ldrh	r3, [r4, #42]	@ 0x2a
 8004b00:	b292      	uxth	r2, r2
 8004b02:	8522      	strh	r2, [r4, #40]	@ 0x28
 8004b04:	2b00      	cmp	r3, #0
 8004b06:	d016      	beq.n	8004b36 <HAL_I2C_Mem_Read+0x16e>
 8004b08:	2a00      	cmp	r2, #0
 8004b0a:	d114      	bne.n	8004b36 <HAL_I2C_Mem_Read+0x16e>
 8004b0c:	2180      	movs	r1, #128	@ 0x80
 8004b0e:	0020      	movs	r0, r4
 8004b10:	9b0e      	ldr	r3, [sp, #56]	@ 0x38
 8004b12:	9500      	str	r5, [sp, #0]
 8004b14:	f7ff fdbe 	bl	8004694 <I2C_WaitOnFlagUntilTimeout>
 8004b18:	2800      	cmp	r0, #0
 8004b1a:	d000      	beq.n	8004b1e <HAL_I2C_Mem_Read+0x156>
 8004b1c:	e76d      	b.n	80049fa <HAL_I2C_Mem_Read+0x32>
 8004b1e:	8d63      	ldrh	r3, [r4, #42]	@ 0x2a
 8004b20:	2bff      	cmp	r3, #255	@ 0xff
 8004b22:	d921      	bls.n	8004b68 <HAL_I2C_Mem_Read+0x1a0>
 8004b24:	2201      	movs	r2, #1
 8004b26:	2380      	movs	r3, #128	@ 0x80
 8004b28:	8522      	strh	r2, [r4, #40]	@ 0x28
 8004b2a:	045b      	lsls	r3, r3, #17
 8004b2c:	9000      	str	r0, [sp, #0]
 8004b2e:	0039      	movs	r1, r7
 8004b30:	0020      	movs	r0, r4
 8004b32:	f7ff fced 	bl	8004510 <I2C_TransferConfig>
 8004b36:	8d63      	ldrh	r3, [r4, #42]	@ 0x2a
 8004b38:	2b00      	cmp	r3, #0
 8004b3a:	d1c9      	bne.n	8004ad0 <HAL_I2C_Mem_Read+0x108>
 8004b3c:	002a      	movs	r2, r5
 8004b3e:	0020      	movs	r0, r4
 8004b40:	990e      	ldr	r1, [sp, #56]	@ 0x38
 8004b42:	f7ff fdde 	bl	8004702 <I2C_WaitOnSTOPFlagUntilTimeout>
 8004b46:	2800      	cmp	r0, #0
 8004b48:	d000      	beq.n	8004b4c <HAL_I2C_Mem_Read+0x184>
 8004b4a:	e756      	b.n	80049fa <HAL_I2C_Mem_Read+0x32>
 8004b4c:	2120      	movs	r1, #32
 8004b4e:	6823      	ldr	r3, [r4, #0]
 8004b50:	4d0b      	ldr	r5, [pc, #44]	@ (8004b80 <HAL_I2C_Mem_Read+0x1b8>)
 8004b52:	61d9      	str	r1, [r3, #28]
 8004b54:	685a      	ldr	r2, [r3, #4]
 8004b56:	402a      	ands	r2, r5
 8004b58:	605a      	str	r2, [r3, #4]
 8004b5a:	0023      	movs	r3, r4
 8004b5c:	3440      	adds	r4, #64	@ 0x40
 8004b5e:	3341      	adds	r3, #65	@ 0x41
 8004b60:	7019      	strb	r1, [r3, #0]
 8004b62:	7030      	strb	r0, [r6, #0]
 8004b64:	7020      	strb	r0, [r4, #0]
 8004b66:	e749      	b.n	80049fc <HAL_I2C_Mem_Read+0x34>
 8004b68:	2380      	movs	r3, #128	@ 0x80
 8004b6a:	8d62      	ldrh	r2, [r4, #42]	@ 0x2a
 8004b6c:	049b      	lsls	r3, r3, #18
 8004b6e:	b292      	uxth	r2, r2
 8004b70:	8522      	strh	r2, [r4, #40]	@ 0x28
 8004b72:	b2d2      	uxtb	r2, r2
 8004b74:	9000      	str	r0, [sp, #0]
 8004b76:	e7da      	b.n	8004b2e <HAL_I2C_Mem_Read+0x166>
 8004b78:	80002000 	.word	0x80002000
 8004b7c:	80002400 	.word	0x80002400
 8004b80:	fe00e800 	.word	0xfe00e800

08004b84 <HAL_I2CEx_ConfigAnalogFilter>:
 8004b84:	b5f0      	push	{r4, r5, r6, r7, lr}
 8004b86:	0004      	movs	r4, r0
 8004b88:	3441      	adds	r4, #65	@ 0x41
 8004b8a:	7822      	ldrb	r2, [r4, #0]
 8004b8c:	0003      	movs	r3, r0
 8004b8e:	000f      	movs	r7, r1
 8004b90:	2002      	movs	r0, #2
 8004b92:	b2d6      	uxtb	r6, r2
 8004b94:	2a20      	cmp	r2, #32
 8004b96:	d118      	bne.n	8004bca <HAL_I2CEx_ConfigAnalogFilter+0x46>
 8004b98:	001d      	movs	r5, r3
 8004b9a:	3540      	adds	r5, #64	@ 0x40
 8004b9c:	782a      	ldrb	r2, [r5, #0]
 8004b9e:	2a01      	cmp	r2, #1
 8004ba0:	d013      	beq.n	8004bca <HAL_I2CEx_ConfigAnalogFilter+0x46>
 8004ba2:	2224      	movs	r2, #36	@ 0x24
 8004ba4:	7022      	strb	r2, [r4, #0]
 8004ba6:	681b      	ldr	r3, [r3, #0]
 8004ba8:	3a23      	subs	r2, #35	@ 0x23
 8004baa:	6819      	ldr	r1, [r3, #0]
 8004bac:	4807      	ldr	r0, [pc, #28]	@ (8004bcc <HAL_I2CEx_ConfigAnalogFilter+0x48>)
 8004bae:	4391      	bics	r1, r2
 8004bb0:	6019      	str	r1, [r3, #0]
 8004bb2:	6819      	ldr	r1, [r3, #0]
 8004bb4:	4001      	ands	r1, r0
 8004bb6:	2000      	movs	r0, #0
 8004bb8:	6019      	str	r1, [r3, #0]
 8004bba:	6819      	ldr	r1, [r3, #0]
 8004bbc:	4339      	orrs	r1, r7
 8004bbe:	6019      	str	r1, [r3, #0]
 8004bc0:	6819      	ldr	r1, [r3, #0]
 8004bc2:	430a      	orrs	r2, r1
 8004bc4:	601a      	str	r2, [r3, #0]
 8004bc6:	7026      	strb	r6, [r4, #0]
 8004bc8:	7028      	strb	r0, [r5, #0]
 8004bca:	bdf0      	pop	{r4, r5, r6, r7, pc}
 8004bcc:	ffffefff 	.word	0xffffefff

08004bd0 <HAL_I2CEx_ConfigDigitalFilter>:
 8004bd0:	0002      	movs	r2, r0
 8004bd2:	b5f0      	push	{r4, r5, r6, r7, lr}
 8004bd4:	3241      	adds	r2, #65	@ 0x41
 8004bd6:	7814      	ldrb	r4, [r2, #0]
 8004bd8:	0003      	movs	r3, r0
 8004bda:	b2e5      	uxtb	r5, r4
 8004bdc:	2002      	movs	r0, #2
 8004bde:	2c20      	cmp	r4, #32
 8004be0:	d117      	bne.n	8004c12 <HAL_I2CEx_ConfigDigitalFilter+0x42>
 8004be2:	001c      	movs	r4, r3
 8004be4:	3440      	adds	r4, #64	@ 0x40
 8004be6:	7826      	ldrb	r6, [r4, #0]
 8004be8:	2e01      	cmp	r6, #1
 8004bea:	d012      	beq.n	8004c12 <HAL_I2CEx_ConfigDigitalFilter+0x42>
 8004bec:	3022      	adds	r0, #34	@ 0x22
 8004bee:	7010      	strb	r0, [r2, #0]
 8004bf0:	681b      	ldr	r3, [r3, #0]
 8004bf2:	3823      	subs	r0, #35	@ 0x23
 8004bf4:	681e      	ldr	r6, [r3, #0]
 8004bf6:	4f07      	ldr	r7, [pc, #28]	@ (8004c14 <HAL_I2CEx_ConfigDigitalFilter+0x44>)
 8004bf8:	4386      	bics	r6, r0
 8004bfa:	601e      	str	r6, [r3, #0]
 8004bfc:	681e      	ldr	r6, [r3, #0]
 8004bfe:	0209      	lsls	r1, r1, #8
 8004c00:	403e      	ands	r6, r7
 8004c02:	4331      	orrs	r1, r6
 8004c04:	6019      	str	r1, [r3, #0]
 8004c06:	6819      	ldr	r1, [r3, #0]
 8004c08:	4308      	orrs	r0, r1
 8004c0a:	6018      	str	r0, [r3, #0]
 8004c0c:	2000      	movs	r0, #0
 8004c0e:	7015      	strb	r5, [r2, #0]
 8004c10:	7020      	strb	r0, [r4, #0]
 8004c12:	bdf0      	pop	{r4, r5, r6, r7, pc}
 8004c14:	fffff0ff 	.word	0xfffff0ff

08004c18 <HAL_IWDG_Init>:
 8004c18:	b570      	push	{r4, r5, r6, lr}
 8004c1a:	0004      	movs	r4, r0
 8004c1c:	2001      	movs	r0, #1
 8004c1e:	2c00      	cmp	r4, #0
 8004c20:	d016      	beq.n	8004c50 <HAL_IWDG_Init+0x38>
 8004c22:	6823      	ldr	r3, [r4, #0]
 8004c24:	4a12      	ldr	r2, [pc, #72]	@ (8004c70 <HAL_IWDG_Init+0x58>)
 8004c26:	2607      	movs	r6, #7
 8004c28:	601a      	str	r2, [r3, #0]
 8004c2a:	4a12      	ldr	r2, [pc, #72]	@ (8004c74 <HAL_IWDG_Init+0x5c>)
 8004c2c:	601a      	str	r2, [r3, #0]
 8004c2e:	6862      	ldr	r2, [r4, #4]
 8004c30:	605a      	str	r2, [r3, #4]
 8004c32:	68a2      	ldr	r2, [r4, #8]
 8004c34:	609a      	str	r2, [r3, #8]
 8004c36:	f7fe ffcf 	bl	8003bd8 <HAL_GetTick>
 8004c3a:	0005      	movs	r5, r0
 8004c3c:	6823      	ldr	r3, [r4, #0]
 8004c3e:	68da      	ldr	r2, [r3, #12]
 8004c40:	4232      	tst	r2, r6
 8004c42:	d106      	bne.n	8004c52 <HAL_IWDG_Init+0x3a>
 8004c44:	6919      	ldr	r1, [r3, #16]
 8004c46:	68e2      	ldr	r2, [r4, #12]
 8004c48:	4291      	cmp	r1, r2
 8004c4a:	d00d      	beq.n	8004c68 <HAL_IWDG_Init+0x50>
 8004c4c:	611a      	str	r2, [r3, #16]
 8004c4e:	2000      	movs	r0, #0
 8004c50:	bd70      	pop	{r4, r5, r6, pc}
 8004c52:	f7fe ffc1 	bl	8003bd8 <HAL_GetTick>
 8004c56:	1b40      	subs	r0, r0, r5
 8004c58:	2827      	cmp	r0, #39	@ 0x27
 8004c5a:	d9ef      	bls.n	8004c3c <HAL_IWDG_Init+0x24>
 8004c5c:	6823      	ldr	r3, [r4, #0]
 8004c5e:	68db      	ldr	r3, [r3, #12]
 8004c60:	4233      	tst	r3, r6
 8004c62:	d0eb      	beq.n	8004c3c <HAL_IWDG_Init+0x24>
 8004c64:	2003      	movs	r0, #3
 8004c66:	e7f3      	b.n	8004c50 <HAL_IWDG_Init+0x38>
 8004c68:	4a03      	ldr	r2, [pc, #12]	@ (8004c78 <HAL_IWDG_Init+0x60>)
 8004c6a:	601a      	str	r2, [r3, #0]
 8004c6c:	e7ef      	b.n	8004c4e <HAL_IWDG_Init+0x36>
 8004c6e:	46c0      	nop			@ (mov r8, r8)
 8004c70:	0000cccc 	.word	0x0000cccc
 8004c74:	00005555 	.word	0x00005555
 8004c78:	0000aaaa 	.word	0x0000aaaa

08004c7c <HAL_IWDG_Refresh>:
 8004c7c:	6803      	ldr	r3, [r0, #0]
 8004c7e:	4a02      	ldr	r2, [pc, #8]	@ (8004c88 <HAL_IWDG_Refresh+0xc>)
 8004c80:	2000      	movs	r0, #0
 8004c82:	601a      	str	r2, [r3, #0]
 8004c84:	4770      	bx	lr
 8004c86:	46c0      	nop			@ (mov r8, r8)
 8004c88:	0000aaaa 	.word	0x0000aaaa

08004c8c <HAL_PCD_Init>:
 8004c8c:	b570      	push	{r4, r5, r6, lr}
 8004c8e:	0004      	movs	r4, r0
 8004c90:	2001      	movs	r0, #1
 8004c92:	2c00      	cmp	r4, #0
 8004c94:	d02b      	beq.n	8004cee <HAL_PCD_Init+0x62>
 8004c96:	4d22      	ldr	r5, [pc, #136]	@ (8004d20 <HAL_PCD_Init+0x94>)
 8004c98:	5d63      	ldrb	r3, [r4, r5]
 8004c9a:	b2da      	uxtb	r2, r3
 8004c9c:	2b00      	cmp	r3, #0
 8004c9e:	d105      	bne.n	8004cac <HAL_PCD_Init+0x20>
 8004ca0:	23a4      	movs	r3, #164	@ 0xa4
 8004ca2:	009b      	lsls	r3, r3, #2
 8004ca4:	0020      	movs	r0, r4
 8004ca6:	54e2      	strb	r2, [r4, r3]
 8004ca8:	f003 fb34 	bl	8008314 <HAL_PCD_MspInit>
 8004cac:	2303      	movs	r3, #3
 8004cae:	5563      	strb	r3, [r4, r5]
 8004cb0:	6820      	ldr	r0, [r4, #0]
 8004cb2:	f002 f837 	bl	8006d24 <USB_DisableGlobalInt>
 8004cb6:	2300      	movs	r3, #0
 8004cb8:	0022      	movs	r2, r4
 8004cba:	0019      	movs	r1, r3
 8004cbc:	2601      	movs	r6, #1
 8004cbe:	7920      	ldrb	r0, [r4, #4]
 8004cc0:	3210      	adds	r2, #16
 8004cc2:	4298      	cmp	r0, r3
 8004cc4:	d114      	bne.n	8004cf0 <HAL_PCD_Init+0x64>
 8004cc6:	2100      	movs	r1, #0
 8004cc8:	0022      	movs	r2, r4
 8004cca:	0008      	movs	r0, r1
 8004ccc:	3251      	adds	r2, #81	@ 0x51
 8004cce:	32ff      	adds	r2, #255	@ 0xff
 8004cd0:	428b      	cmp	r3, r1
 8004cd2:	d117      	bne.n	8004d04 <HAL_PCD_Init+0x78>
 8004cd4:	6861      	ldr	r1, [r4, #4]
 8004cd6:	68a2      	ldr	r2, [r4, #8]
 8004cd8:	6820      	ldr	r0, [r4, #0]
 8004cda:	f002 f82d 	bl	8006d38 <USB_DevInit>
 8004cde:	2300      	movs	r3, #0
 8004ce0:	7323      	strb	r3, [r4, #12]
 8004ce2:	3301      	adds	r3, #1
 8004ce4:	5563      	strb	r3, [r4, r5]
 8004ce6:	7aa3      	ldrb	r3, [r4, #10]
 8004ce8:	2b01      	cmp	r3, #1
 8004cea:	d015      	beq.n	8004d18 <HAL_PCD_Init+0x8c>
 8004cec:	2000      	movs	r0, #0
 8004cee:	bd70      	pop	{r4, r5, r6, pc}
 8004cf0:	7013      	strb	r3, [r2, #0]
 8004cf2:	3301      	adds	r3, #1
 8004cf4:	7056      	strb	r6, [r2, #1]
 8004cf6:	70d1      	strb	r1, [r2, #3]
 8004cf8:	6111      	str	r1, [r2, #16]
 8004cfa:	6151      	str	r1, [r2, #20]
 8004cfc:	6191      	str	r1, [r2, #24]
 8004cfe:	b2db      	uxtb	r3, r3
 8004d00:	3228      	adds	r2, #40	@ 0x28
 8004d02:	e7de      	b.n	8004cc2 <HAL_PCD_Init+0x36>
 8004d04:	7011      	strb	r1, [r2, #0]
 8004d06:	3101      	adds	r1, #1
 8004d08:	7050      	strb	r0, [r2, #1]
 8004d0a:	70d0      	strb	r0, [r2, #3]
 8004d0c:	6110      	str	r0, [r2, #16]
 8004d0e:	6150      	str	r0, [r2, #20]
 8004d10:	6190      	str	r0, [r2, #24]
 8004d12:	b2c9      	uxtb	r1, r1
 8004d14:	3228      	adds	r2, #40	@ 0x28
 8004d16:	e7db      	b.n	8004cd0 <HAL_PCD_Init+0x44>
 8004d18:	0020      	movs	r0, r4
 8004d1a:	f000 fe0e 	bl	800593a <HAL_PCDEx_ActivateLPM>
 8004d1e:	e7e5      	b.n	8004cec <HAL_PCD_Init+0x60>
 8004d20:	00000291 	.word	0x00000291

08004d24 <HAL_PCD_Start>:
 8004d24:	b570      	push	{r4, r5, r6, lr}
 8004d26:	25a4      	movs	r5, #164	@ 0xa4
 8004d28:	00ad      	lsls	r5, r5, #2
 8004d2a:	5d43      	ldrb	r3, [r0, r5]
 8004d2c:	0004      	movs	r4, r0
 8004d2e:	2002      	movs	r0, #2
 8004d30:	2b01      	cmp	r3, #1
 8004d32:	d009      	beq.n	8004d48 <HAL_PCD_Start+0x24>
 8004d34:	2301      	movs	r3, #1
 8004d36:	5563      	strb	r3, [r4, r5]
 8004d38:	6820      	ldr	r0, [r4, #0]
 8004d3a:	f001 ffe9 	bl	8006d10 <USB_EnableGlobalInt>
 8004d3e:	6820      	ldr	r0, [r4, #0]
 8004d40:	f002 f9f5 	bl	800712e <USB_DevConnect>
 8004d44:	2000      	movs	r0, #0
 8004d46:	5560      	strb	r0, [r4, r5]
 8004d48:	bd70      	pop	{r4, r5, r6, pc}

08004d4a <HAL_PCD_SetAddress>:
 8004d4a:	b570      	push	{r4, r5, r6, lr}
 8004d4c:	25a4      	movs	r5, #164	@ 0xa4
 8004d4e:	00ad      	lsls	r5, r5, #2
 8004d50:	5d43      	ldrb	r3, [r0, r5]
 8004d52:	0004      	movs	r4, r0
 8004d54:	2002      	movs	r0, #2
 8004d56:	2b01      	cmp	r3, #1
 8004d58:	d007      	beq.n	8004d6a <HAL_PCD_SetAddress+0x20>
 8004d5a:	2301      	movs	r3, #1
 8004d5c:	5563      	strb	r3, [r4, r5]
 8004d5e:	6820      	ldr	r0, [r4, #0]
 8004d60:	7321      	strb	r1, [r4, #12]
 8004d62:	f002 f9dd 	bl	8007120 <USB_SetDevAddress>
 8004d66:	2000      	movs	r0, #0
 8004d68:	5560      	strb	r0, [r4, r5]
 8004d6a:	bd70      	pop	{r4, r5, r6, pc}

08004d6c <HAL_PCD_IRQHandler>:
 8004d6c:	b5f0      	push	{r4, r5, r6, r7, lr}
 8004d6e:	0004      	movs	r4, r0
 8004d70:	b085      	sub	sp, #20
 8004d72:	6800      	ldr	r0, [r0, #0]
 8004d74:	f002 f9e3 	bl	800713e <USB_ReadInterrupts>
 8004d78:	2380      	movs	r3, #128	@ 0x80
 8004d7a:	0005      	movs	r5, r0
 8004d7c:	021b      	lsls	r3, r3, #8
 8004d7e:	401d      	ands	r5, r3
 8004d80:	4218      	tst	r0, r3
 8004d82:	d101      	bne.n	8004d88 <HAL_PCD_IRQHandler+0x1c>
 8004d84:	f000 fc27 	bl	80055d6 <HAL_PCD_IRQHandler+0x86a>
 8004d88:	6820      	ldr	r0, [r4, #0]
 8004d8a:	1d82      	adds	r2, r0, #6
 8004d8c:	8fd3      	ldrh	r3, [r2, #62]	@ 0x3e
 8004d8e:	b21b      	sxth	r3, r3
 8004d90:	2b00      	cmp	r3, #0
 8004d92:	db01      	blt.n	8004d98 <HAL_PCD_IRQHandler+0x2c>
 8004d94:	b005      	add	sp, #20
 8004d96:	bdf0      	pop	{r4, r5, r6, r7, pc}
 8004d98:	210f      	movs	r1, #15
 8004d9a:	8fd3      	ldrh	r3, [r2, #62]	@ 0x3e
 8004d9c:	4019      	ands	r1, r3
 8004d9e:	9100      	str	r1, [sp, #0]
 8004da0:	210f      	movs	r1, #15
 8004da2:	b29a      	uxth	r2, r3
 8004da4:	420b      	tst	r3, r1
 8004da6:	d000      	beq.n	8004daa <HAL_PCD_IRQHandler+0x3e>
 8004da8:	e0c0      	b.n	8004f2c <HAL_PCD_IRQHandler+0x1c0>
 8004daa:	2310      	movs	r3, #16
 8004dac:	0011      	movs	r1, r2
 8004dae:	4019      	ands	r1, r3
 8004db0:	421a      	tst	r2, r3
 8004db2:	d127      	bne.n	8004e04 <HAL_PCD_IRQHandler+0x98>
 8004db4:	8803      	ldrh	r3, [r0, #0]
 8004db6:	4aca      	ldr	r2, [pc, #808]	@ (80050e0 <HAL_PCD_IRQHandler+0x374>)
 8004db8:	4013      	ands	r3, r2
 8004dba:	2280      	movs	r2, #128	@ 0x80
 8004dbc:	0212      	lsls	r2, r2, #8
 8004dbe:	4313      	orrs	r3, r2
 8004dc0:	8003      	strh	r3, [r0, #0]
 8004dc2:	0003      	movs	r3, r0
 8004dc4:	3350      	adds	r3, #80	@ 0x50
 8004dc6:	881a      	ldrh	r2, [r3, #0]
 8004dc8:	7c23      	ldrb	r3, [r4, #16]
 8004dca:	00db      	lsls	r3, r3, #3
 8004dcc:	18c3      	adds	r3, r0, r3
 8004dce:	189b      	adds	r3, r3, r2
 8004dd0:	4ac4      	ldr	r2, [pc, #784]	@ (80050e4 <HAL_PCD_IRQHandler+0x378>)
 8004dd2:	0020      	movs	r0, r4
 8004dd4:	189b      	adds	r3, r3, r2
 8004dd6:	881b      	ldrh	r3, [r3, #0]
 8004dd8:	6a62      	ldr	r2, [r4, #36]	@ 0x24
 8004dda:	059b      	lsls	r3, r3, #22
 8004ddc:	0d9b      	lsrs	r3, r3, #22
 8004dde:	62e3      	str	r3, [r4, #44]	@ 0x2c
 8004de0:	18d3      	adds	r3, r2, r3
 8004de2:	6263      	str	r3, [r4, #36]	@ 0x24
 8004de4:	f003 fac7 	bl	8008376 <HAL_PCD_DataInStageCallback>
 8004de8:	7b23      	ldrb	r3, [r4, #12]
 8004dea:	2b00      	cmp	r3, #0
 8004dec:	d0cc      	beq.n	8004d88 <HAL_PCD_IRQHandler+0x1c>
 8004dee:	6aa1      	ldr	r1, [r4, #40]	@ 0x28
 8004df0:	6823      	ldr	r3, [r4, #0]
 8004df2:	2900      	cmp	r1, #0
 8004df4:	d1c8      	bne.n	8004d88 <HAL_PCD_IRQHandler+0x1c>
 8004df6:	2080      	movs	r0, #128	@ 0x80
 8004df8:	7b22      	ldrb	r2, [r4, #12]
 8004dfa:	334c      	adds	r3, #76	@ 0x4c
 8004dfc:	4302      	orrs	r2, r0
 8004dfe:	801a      	strh	r2, [r3, #0]
 8004e00:	7321      	strb	r1, [r4, #12]
 8004e02:	e7c1      	b.n	8004d88 <HAL_PCD_IRQHandler+0x1c>
 8004e04:	8802      	ldrh	r2, [r0, #0]
 8004e06:	2180      	movs	r1, #128	@ 0x80
 8004e08:	0016      	movs	r6, r2
 8004e0a:	0109      	lsls	r1, r1, #4
 8004e0c:	b293      	uxth	r3, r2
 8004e0e:	400e      	ands	r6, r1
 8004e10:	420a      	tst	r2, r1
 8004e12:	d022      	beq.n	8004e5a <HAL_PCD_IRQHandler+0xee>
 8004e14:	0003      	movs	r3, r0
 8004e16:	3350      	adds	r3, #80	@ 0x50
 8004e18:	881a      	ldrh	r2, [r3, #0]
 8004e1a:	23a8      	movs	r3, #168	@ 0xa8
 8004e1c:	005b      	lsls	r3, r3, #1
 8004e1e:	5ce3      	ldrb	r3, [r4, r3]
 8004e20:	21a6      	movs	r1, #166	@ 0xa6
 8004e22:	00db      	lsls	r3, r3, #3
 8004e24:	18c3      	adds	r3, r0, r3
 8004e26:	189b      	adds	r3, r3, r2
 8004e28:	4aaf      	ldr	r2, [pc, #700]	@ (80050e8 <HAL_PCD_IRQHandler+0x37c>)
 8004e2a:	0089      	lsls	r1, r1, #2
 8004e2c:	189b      	adds	r3, r3, r2
 8004e2e:	0022      	movs	r2, r4
 8004e30:	881b      	ldrh	r3, [r3, #0]
 8004e32:	3251      	adds	r2, #81	@ 0x51
 8004e34:	059b      	lsls	r3, r3, #22
 8004e36:	0d9b      	lsrs	r3, r3, #22
 8004e38:	32ff      	adds	r2, #255	@ 0xff
 8004e3a:	61d3      	str	r3, [r2, #28]
 8004e3c:	1861      	adds	r1, r4, r1
 8004e3e:	88d2      	ldrh	r2, [r2, #6]
 8004e40:	f002 fbc8 	bl	80075d4 <USB_ReadPMA>
 8004e44:	6821      	ldr	r1, [r4, #0]
 8004e46:	4ba9      	ldr	r3, [pc, #676]	@ (80050ec <HAL_PCD_IRQHandler+0x380>)
 8004e48:	880a      	ldrh	r2, [r1, #0]
 8004e4a:	0020      	movs	r0, r4
 8004e4c:	401a      	ands	r2, r3
 8004e4e:	2380      	movs	r3, #128	@ 0x80
 8004e50:	4313      	orrs	r3, r2
 8004e52:	800b      	strh	r3, [r1, #0]
 8004e54:	f003 fa7a 	bl	800834c <HAL_PCD_SetupStageCallback>
 8004e58:	e796      	b.n	8004d88 <HAL_PCD_IRQHandler+0x1c>
 8004e5a:	b21b      	sxth	r3, r3
 8004e5c:	2b00      	cmp	r3, #0
 8004e5e:	db00      	blt.n	8004e62 <HAL_PCD_IRQHandler+0xf6>
 8004e60:	e792      	b.n	8004d88 <HAL_PCD_IRQHandler+0x1c>
 8004e62:	8802      	ldrh	r2, [r0, #0]
 8004e64:	4ba1      	ldr	r3, [pc, #644]	@ (80050ec <HAL_PCD_IRQHandler+0x380>)
 8004e66:	0025      	movs	r5, r4
 8004e68:	401a      	ands	r2, r3
 8004e6a:	2380      	movs	r3, #128	@ 0x80
 8004e6c:	4313      	orrs	r3, r2
 8004e6e:	8003      	strh	r3, [r0, #0]
 8004e70:	0003      	movs	r3, r0
 8004e72:	3350      	adds	r3, #80	@ 0x50
 8004e74:	881a      	ldrh	r2, [r3, #0]
 8004e76:	23a8      	movs	r3, #168	@ 0xa8
 8004e78:	005b      	lsls	r3, r3, #1
 8004e7a:	5ce3      	ldrb	r3, [r4, r3]
 8004e7c:	3551      	adds	r5, #81	@ 0x51
 8004e7e:	00db      	lsls	r3, r3, #3
 8004e80:	18c3      	adds	r3, r0, r3
 8004e82:	189b      	adds	r3, r3, r2
 8004e84:	4a98      	ldr	r2, [pc, #608]	@ (80050e8 <HAL_PCD_IRQHandler+0x37c>)
 8004e86:	35ff      	adds	r5, #255	@ 0xff
 8004e88:	189b      	adds	r3, r3, r2
 8004e8a:	881b      	ldrh	r3, [r3, #0]
 8004e8c:	059b      	lsls	r3, r3, #22
 8004e8e:	0d9b      	lsrs	r3, r3, #22
 8004e90:	61eb      	str	r3, [r5, #28]
 8004e92:	d00d      	beq.n	8004eb0 <HAL_PCD_IRQHandler+0x144>
 8004e94:	6969      	ldr	r1, [r5, #20]
 8004e96:	2900      	cmp	r1, #0
 8004e98:	d00a      	beq.n	8004eb0 <HAL_PCD_IRQHandler+0x144>
 8004e9a:	88ea      	ldrh	r2, [r5, #6]
 8004e9c:	f002 fb9a 	bl	80075d4 <USB_ReadPMA>
 8004ea0:	696b      	ldr	r3, [r5, #20]
 8004ea2:	69ea      	ldr	r2, [r5, #28]
 8004ea4:	0031      	movs	r1, r6
 8004ea6:	189b      	adds	r3, r3, r2
 8004ea8:	0020      	movs	r0, r4
 8004eaa:	616b      	str	r3, [r5, #20]
 8004eac:	f003 fa57 	bl	800835e <HAL_PCD_DataOutStageCallback>
 8004eb0:	6821      	ldr	r1, [r4, #0]
 8004eb2:	880a      	ldrh	r2, [r1, #0]
 8004eb4:	b293      	uxth	r3, r2
 8004eb6:	0512      	lsls	r2, r2, #20
 8004eb8:	d500      	bpl.n	8004ebc <HAL_PCD_IRQHandler+0x150>
 8004eba:	e765      	b.n	8004d88 <HAL_PCD_IRQHandler+0x1c>
 8004ebc:	22c0      	movs	r2, #192	@ 0xc0
 8004ebe:	0192      	lsls	r2, r2, #6
 8004ec0:	4013      	ands	r3, r2
 8004ec2:	4293      	cmp	r3, r2
 8004ec4:	d100      	bne.n	8004ec8 <HAL_PCD_IRQHandler+0x15c>
 8004ec6:	e75f      	b.n	8004d88 <HAL_PCD_IRQHandler+0x1c>
 8004ec8:	000b      	movs	r3, r1
 8004eca:	4a87      	ldr	r2, [pc, #540]	@ (80050e8 <HAL_PCD_IRQHandler+0x37c>)
 8004ecc:	3350      	adds	r3, #80	@ 0x50
 8004ece:	881b      	ldrh	r3, [r3, #0]
 8004ed0:	188a      	adds	r2, r1, r2
 8004ed2:	18d2      	adds	r2, r2, r3
 8004ed4:	8813      	ldrh	r3, [r2, #0]
 8004ed6:	059b      	lsls	r3, r3, #22
 8004ed8:	0d9b      	lsrs	r3, r3, #22
 8004eda:	8013      	strh	r3, [r2, #0]
 8004edc:	692b      	ldr	r3, [r5, #16]
 8004ede:	2b00      	cmp	r3, #0
 8004ee0:	d10e      	bne.n	8004f00 <HAL_PCD_IRQHandler+0x194>
 8004ee2:	2080      	movs	r0, #128	@ 0x80
 8004ee4:	8813      	ldrh	r3, [r2, #0]
 8004ee6:	0200      	lsls	r0, r0, #8
 8004ee8:	4303      	orrs	r3, r0
 8004eea:	8013      	strh	r3, [r2, #0]
 8004eec:	880a      	ldrh	r2, [r1, #0]
 8004eee:	4b80      	ldr	r3, [pc, #512]	@ (80050f0 <HAL_PCD_IRQHandler+0x384>)
 8004ef0:	401a      	ands	r2, r3
 8004ef2:	23c0      	movs	r3, #192	@ 0xc0
 8004ef4:	019b      	lsls	r3, r3, #6
 8004ef6:	4053      	eors	r3, r2
 8004ef8:	4a7e      	ldr	r2, [pc, #504]	@ (80050f4 <HAL_PCD_IRQHandler+0x388>)
 8004efa:	4313      	orrs	r3, r2
 8004efc:	800b      	strh	r3, [r1, #0]
 8004efe:	e743      	b.n	8004d88 <HAL_PCD_IRQHandler+0x1c>
 8004f00:	2b3e      	cmp	r3, #62	@ 0x3e
 8004f02:	d808      	bhi.n	8004f16 <HAL_PCD_IRQHandler+0x1aa>
 8004f04:	2501      	movs	r5, #1
 8004f06:	0858      	lsrs	r0, r3, #1
 8004f08:	402b      	ands	r3, r5
 8004f0a:	18c0      	adds	r0, r0, r3
 8004f0c:	8813      	ldrh	r3, [r2, #0]
 8004f0e:	0280      	lsls	r0, r0, #10
 8004f10:	4303      	orrs	r3, r0
 8004f12:	b29b      	uxth	r3, r3
 8004f14:	e7e9      	b.n	8004eea <HAL_PCD_IRQHandler+0x17e>
 8004f16:	251f      	movs	r5, #31
 8004f18:	0958      	lsrs	r0, r3, #5
 8004f1a:	402b      	ands	r3, r5
 8004f1c:	425d      	negs	r5, r3
 8004f1e:	416b      	adcs	r3, r5
 8004f20:	1ac0      	subs	r0, r0, r3
 8004f22:	8813      	ldrh	r3, [r2, #0]
 8004f24:	0280      	lsls	r0, r0, #10
 8004f26:	4318      	orrs	r0, r3
 8004f28:	4b73      	ldr	r3, [pc, #460]	@ (80050f8 <HAL_PCD_IRQHandler+0x38c>)
 8004f2a:	e7f1      	b.n	8004f10 <HAL_PCD_IRQHandler+0x1a4>
 8004f2c:	9b00      	ldr	r3, [sp, #0]
 8004f2e:	009f      	lsls	r7, r3, #2
 8004f30:	19c2      	adds	r2, r0, r7
 8004f32:	8813      	ldrh	r3, [r2, #0]
 8004f34:	b299      	uxth	r1, r3
 8004f36:	b21b      	sxth	r3, r3
 8004f38:	9101      	str	r1, [sp, #4]
 8004f3a:	2b00      	cmp	r3, #0
 8004f3c:	db00      	blt.n	8004f40 <HAL_PCD_IRQHandler+0x1d4>
 8004f3e:	e092      	b.n	8005066 <HAL_PCD_IRQHandler+0x2fa>
 8004f40:	8813      	ldrh	r3, [r2, #0]
 8004f42:	496a      	ldr	r1, [pc, #424]	@ (80050ec <HAL_PCD_IRQHandler+0x380>)
 8004f44:	400b      	ands	r3, r1
 8004f46:	2180      	movs	r1, #128	@ 0x80
 8004f48:	430b      	orrs	r3, r1
 8004f4a:	8013      	strh	r3, [r2, #0]
 8004f4c:	2328      	movs	r3, #40	@ 0x28
 8004f4e:	9a00      	ldr	r2, [sp, #0]
 8004f50:	4353      	muls	r3, r2
 8004f52:	18e3      	adds	r3, r4, r3
 8004f54:	001a      	movs	r2, r3
 8004f56:	001d      	movs	r5, r3
 8004f58:	325d      	adds	r2, #93	@ 0x5d
 8004f5a:	32ff      	adds	r2, #255	@ 0xff
 8004f5c:	7812      	ldrb	r2, [r2, #0]
 8004f5e:	3551      	adds	r5, #81	@ 0x51
 8004f60:	35ff      	adds	r5, #255	@ 0xff
 8004f62:	2a00      	cmp	r2, #0
 8004f64:	d114      	bne.n	8004f90 <HAL_PCD_IRQHandler+0x224>
 8004f66:	0002      	movs	r2, r0
 8004f68:	3250      	adds	r2, #80	@ 0x50
 8004f6a:	8811      	ldrh	r1, [r2, #0]
 8004f6c:	782a      	ldrb	r2, [r5, #0]
 8004f6e:	00d2      	lsls	r2, r2, #3
 8004f70:	1852      	adds	r2, r2, r1
 8004f72:	495d      	ldr	r1, [pc, #372]	@ (80050e8 <HAL_PCD_IRQHandler+0x37c>)
 8004f74:	1812      	adds	r2, r2, r0
 8004f76:	1852      	adds	r2, r2, r1
 8004f78:	8812      	ldrh	r2, [r2, #0]
 8004f7a:	0592      	lsls	r2, r2, #22
 8004f7c:	0d95      	lsrs	r5, r2, #22
 8004f7e:	2a00      	cmp	r2, #0
 8004f80:	d056      	beq.n	8005030 <HAL_PCD_IRQHandler+0x2c4>
 8004f82:	001a      	movs	r2, r3
 8004f84:	3257      	adds	r2, #87	@ 0x57
 8004f86:	32ff      	adds	r2, #255	@ 0xff
 8004f88:	33fc      	adds	r3, #252	@ 0xfc
 8004f8a:	0019      	movs	r1, r3
 8004f8c:	8812      	ldrh	r2, [r2, #0]
 8004f8e:	e04b      	b.n	8005028 <HAL_PCD_IRQHandler+0x2bc>
 8004f90:	0019      	movs	r1, r3
 8004f92:	3154      	adds	r1, #84	@ 0x54
 8004f94:	31ff      	adds	r1, #255	@ 0xff
 8004f96:	7809      	ldrb	r1, [r1, #0]
 8004f98:	782a      	ldrb	r2, [r5, #0]
 8004f9a:	2902      	cmp	r1, #2
 8004f9c:	d000      	beq.n	8004fa0 <HAL_PCD_IRQHandler+0x234>
 8004f9e:	e0e3      	b.n	8005168 <HAL_PCD_IRQHandler+0x3fc>
 8004fa0:	2680      	movs	r6, #128	@ 0x80
 8004fa2:	01f6      	lsls	r6, r6, #7
 8004fa4:	46b4      	mov	ip, r6
 8004fa6:	4665      	mov	r5, ip
 8004fa8:	9e01      	ldr	r6, [sp, #4]
 8004faa:	33fc      	adds	r3, #252	@ 0xfc
 8004fac:	402e      	ands	r6, r5
 8004fae:	9603      	str	r6, [sp, #12]
 8004fb0:	0006      	movs	r6, r0
 8004fb2:	3650      	adds	r6, #80	@ 0x50
 8004fb4:	9602      	str	r6, [sp, #8]
 8004fb6:	4666      	mov	r6, ip
 8004fb8:	9d01      	ldr	r5, [sp, #4]
 8004fba:	6ed9      	ldr	r1, [r3, #108]	@ 0x6c
 8004fbc:	4235      	tst	r5, r6
 8004fbe:	d100      	bne.n	8004fc2 <HAL_PCD_IRQHandler+0x256>
 8004fc0:	e0a0      	b.n	8005104 <HAL_PCD_IRQHandler+0x398>
 8004fc2:	9d02      	ldr	r5, [sp, #8]
 8004fc4:	882e      	ldrh	r6, [r5, #0]
 8004fc6:	00d5      	lsls	r5, r2, #3
 8004fc8:	1976      	adds	r6, r6, r5
 8004fca:	4d46      	ldr	r5, [pc, #280]	@ (80050e4 <HAL_PCD_IRQHandler+0x378>)
 8004fcc:	1836      	adds	r6, r6, r0
 8004fce:	1976      	adds	r6, r6, r5
 8004fd0:	8835      	ldrh	r5, [r6, #0]
 8004fd2:	05ad      	lsls	r5, r5, #22
 8004fd4:	0dad      	lsrs	r5, r5, #22
 8004fd6:	428d      	cmp	r5, r1
 8004fd8:	d90d      	bls.n	8004ff6 <HAL_PCD_IRQHandler+0x28a>
 8004fda:	2100      	movs	r1, #0
 8004fdc:	66d9      	str	r1, [r3, #108]	@ 0x6c
 8004fde:	0091      	lsls	r1, r2, #2
 8004fe0:	1841      	adds	r1, r0, r1
 8004fe2:	880e      	ldrh	r6, [r1, #0]
 8004fe4:	4b42      	ldr	r3, [pc, #264]	@ (80050f0 <HAL_PCD_IRQHandler+0x384>)
 8004fe6:	401e      	ands	r6, r3
 8004fe8:	2380      	movs	r3, #128	@ 0x80
 8004fea:	019b      	lsls	r3, r3, #6
 8004fec:	4073      	eors	r3, r6
 8004fee:	4e41      	ldr	r6, [pc, #260]	@ (80050f4 <HAL_PCD_IRQHandler+0x388>)
 8004ff0:	4333      	orrs	r3, r6
 8004ff2:	800b      	strh	r3, [r1, #0]
 8004ff4:	e002      	b.n	8004ffc <HAL_PCD_IRQHandler+0x290>
 8004ff6:	1b49      	subs	r1, r1, r5
 8004ff8:	66d9      	str	r1, [r3, #108]	@ 0x6c
 8004ffa:	d0f0      	beq.n	8004fde <HAL_PCD_IRQHandler+0x272>
 8004ffc:	9b01      	ldr	r3, [sp, #4]
 8004ffe:	065b      	lsls	r3, r3, #25
 8005000:	d507      	bpl.n	8005012 <HAL_PCD_IRQHandler+0x2a6>
 8005002:	0092      	lsls	r2, r2, #2
 8005004:	1882      	adds	r2, r0, r2
 8005006:	8813      	ldrh	r3, [r2, #0]
 8005008:	493c      	ldr	r1, [pc, #240]	@ (80050fc <HAL_PCD_IRQHandler+0x390>)
 800500a:	400b      	ands	r3, r1
 800500c:	493c      	ldr	r1, [pc, #240]	@ (8005100 <HAL_PCD_IRQHandler+0x394>)
 800500e:	430b      	orrs	r3, r1
 8005010:	8013      	strh	r3, [r2, #0]
 8005012:	2d00      	cmp	r5, #0
 8005014:	d00c      	beq.n	8005030 <HAL_PCD_IRQHandler+0x2c4>
 8005016:	2328      	movs	r3, #40	@ 0x28
 8005018:	9a00      	ldr	r2, [sp, #0]
 800501a:	4353      	muls	r3, r2
 800501c:	18e1      	adds	r1, r4, r3
 800501e:	000a      	movs	r2, r1
 8005020:	3259      	adds	r2, #89	@ 0x59
 8005022:	32ff      	adds	r2, #255	@ 0xff
 8005024:	8812      	ldrh	r2, [r2, #0]
 8005026:	31fc      	adds	r1, #252	@ 0xfc
 8005028:	002b      	movs	r3, r5
 800502a:	6e89      	ldr	r1, [r1, #104]	@ 0x68
 800502c:	f002 fad2 	bl	80075d4 <USB_ReadPMA>
 8005030:	2328      	movs	r3, #40	@ 0x28
 8005032:	9900      	ldr	r1, [sp, #0]
 8005034:	4359      	muls	r1, r3
 8005036:	1862      	adds	r2, r4, r1
 8005038:	32fc      	adds	r2, #252	@ 0xfc
 800503a:	6f10      	ldr	r0, [r2, #112]	@ 0x70
 800503c:	1940      	adds	r0, r0, r5
 800503e:	6710      	str	r0, [r2, #112]	@ 0x70
 8005040:	6e90      	ldr	r0, [r2, #104]	@ 0x68
 8005042:	1940      	adds	r0, r0, r5
 8005044:	6690      	str	r0, [r2, #104]	@ 0x68
 8005046:	6ed0      	ldr	r0, [r2, #108]	@ 0x6c
 8005048:	2800      	cmp	r0, #0
 800504a:	d003      	beq.n	8005054 <HAL_PCD_IRQHandler+0x2e8>
 800504c:	6e52      	ldr	r2, [r2, #100]	@ 0x64
 800504e:	4295      	cmp	r5, r2
 8005050:	d300      	bcc.n	8005054 <HAL_PCD_IRQHandler+0x2e8>
 8005052:	e0b3      	b.n	80051bc <HAL_PCD_IRQHandler+0x450>
 8005054:	9a00      	ldr	r2, [sp, #0]
 8005056:	0020      	movs	r0, r4
 8005058:	4353      	muls	r3, r2
 800505a:	18e3      	adds	r3, r4, r3
 800505c:	3351      	adds	r3, #81	@ 0x51
 800505e:	33ff      	adds	r3, #255	@ 0xff
 8005060:	7819      	ldrb	r1, [r3, #0]
 8005062:	f003 f97c 	bl	800835e <HAL_PCD_DataOutStageCallback>
 8005066:	2280      	movs	r2, #128	@ 0x80
 8005068:	9b01      	ldr	r3, [sp, #4]
 800506a:	6820      	ldr	r0, [r4, #0]
 800506c:	4213      	tst	r3, r2
 800506e:	d100      	bne.n	8005072 <HAL_PCD_IRQHandler+0x306>
 8005070:	e68a      	b.n	8004d88 <HAL_PCD_IRQHandler+0x1c>
 8005072:	19c2      	adds	r2, r0, r7
 8005074:	8813      	ldrh	r3, [r2, #0]
 8005076:	491a      	ldr	r1, [pc, #104]	@ (80050e0 <HAL_PCD_IRQHandler+0x374>)
 8005078:	9e00      	ldr	r6, [sp, #0]
 800507a:	400b      	ands	r3, r1
 800507c:	491e      	ldr	r1, [pc, #120]	@ (80050f8 <HAL_PCD_IRQHandler+0x38c>)
 800507e:	430b      	orrs	r3, r1
 8005080:	b29b      	uxth	r3, r3
 8005082:	8013      	strh	r3, [r2, #0]
 8005084:	2228      	movs	r2, #40	@ 0x28
 8005086:	4356      	muls	r6, r2
 8005088:	19a3      	adds	r3, r4, r6
 800508a:	7cd9      	ldrb	r1, [r3, #19]
 800508c:	2901      	cmp	r1, #1
 800508e:	d000      	beq.n	8005092 <HAL_PCD_IRQHandler+0x326>
 8005090:	e0c7      	b.n	8005222 <HAL_PCD_IRQHandler+0x4b6>
 8005092:	9900      	ldr	r1, [sp, #0]
 8005094:	3101      	adds	r1, #1
 8005096:	434a      	muls	r2, r1
 8005098:	2100      	movs	r1, #0
 800509a:	5111      	str	r1, [r2, r4]
 800509c:	7f1a      	ldrb	r2, [r3, #28]
 800509e:	428a      	cmp	r2, r1
 80050a0:	d100      	bne.n	80050a4 <HAL_PCD_IRQHandler+0x338>
 80050a2:	e09e      	b.n	80051e2 <HAL_PCD_IRQHandler+0x476>
 80050a4:	2240      	movs	r2, #64	@ 0x40
 80050a6:	9d01      	ldr	r5, [sp, #4]
 80050a8:	9e01      	ldr	r6, [sp, #4]
 80050aa:	4015      	ands	r5, r2
 80050ac:	4216      	tst	r6, r2
 80050ae:	d100      	bne.n	80050b2 <HAL_PCD_IRQHandler+0x346>
 80050b0:	e0a0      	b.n	80051f4 <HAL_PCD_IRQHandler+0x488>
 80050b2:	7c5a      	ldrb	r2, [r3, #17]
 80050b4:	428a      	cmp	r2, r1
 80050b6:	d000      	beq.n	80050ba <HAL_PCD_IRQHandler+0x34e>
 80050b8:	e087      	b.n	80051ca <HAL_PCD_IRQHandler+0x45e>
 80050ba:	0002      	movs	r2, r0
 80050bc:	3250      	adds	r2, #80	@ 0x50
 80050be:	8811      	ldrh	r1, [r2, #0]
 80050c0:	7c1a      	ldrb	r2, [r3, #16]
 80050c2:	4b08      	ldr	r3, [pc, #32]	@ (80050e4 <HAL_PCD_IRQHandler+0x378>)
 80050c4:	00d2      	lsls	r2, r2, #3
 80050c6:	18c0      	adds	r0, r0, r3
 80050c8:	1841      	adds	r1, r0, r1
 80050ca:	1852      	adds	r2, r2, r1
 80050cc:	8813      	ldrh	r3, [r2, #0]
 80050ce:	490a      	ldr	r1, [pc, #40]	@ (80050f8 <HAL_PCD_IRQHandler+0x38c>)
 80050d0:	059b      	lsls	r3, r3, #22
 80050d2:	0d9b      	lsrs	r3, r3, #22
 80050d4:	8013      	strh	r3, [r2, #0]
 80050d6:	8813      	ldrh	r3, [r2, #0]
 80050d8:	430b      	orrs	r3, r1
 80050da:	b29b      	uxth	r3, r3
 80050dc:	8013      	strh	r3, [r2, #0]
 80050de:	e080      	b.n	80051e2 <HAL_PCD_IRQHandler+0x476>
 80050e0:	ffff8f0f 	.word	0xffff8f0f
 80050e4:	00000402 	.word	0x00000402
 80050e8:	00000406 	.word	0x00000406
 80050ec:	00000f8f 	.word	0x00000f8f
 80050f0:	ffffbf8f 	.word	0xffffbf8f
 80050f4:	00008080 	.word	0x00008080
 80050f8:	ffff8000 	.word	0xffff8000
 80050fc:	ffff8f8f 	.word	0xffff8f8f
 8005100:	000080c0 	.word	0x000080c0
 8005104:	9d02      	ldr	r5, [sp, #8]
 8005106:	882e      	ldrh	r6, [r5, #0]
 8005108:	00d5      	lsls	r5, r2, #3
 800510a:	1976      	adds	r6, r6, r5
 800510c:	4dc7      	ldr	r5, [pc, #796]	@ (800542c <HAL_PCD_IRQHandler+0x6c0>)
 800510e:	1836      	adds	r6, r6, r0
 8005110:	1976      	adds	r6, r6, r5
 8005112:	8835      	ldrh	r5, [r6, #0]
 8005114:	05ad      	lsls	r5, r5, #22
 8005116:	0dad      	lsrs	r5, r5, #22
 8005118:	428d      	cmp	r5, r1
 800511a:	d90d      	bls.n	8005138 <HAL_PCD_IRQHandler+0x3cc>
 800511c:	9903      	ldr	r1, [sp, #12]
 800511e:	66d9      	str	r1, [r3, #108]	@ 0x6c
 8005120:	0091      	lsls	r1, r2, #2
 8005122:	1841      	adds	r1, r0, r1
 8005124:	880e      	ldrh	r6, [r1, #0]
 8005126:	4bc2      	ldr	r3, [pc, #776]	@ (8005430 <HAL_PCD_IRQHandler+0x6c4>)
 8005128:	401e      	ands	r6, r3
 800512a:	2380      	movs	r3, #128	@ 0x80
 800512c:	019b      	lsls	r3, r3, #6
 800512e:	4073      	eors	r3, r6
 8005130:	4ec0      	ldr	r6, [pc, #768]	@ (8005434 <HAL_PCD_IRQHandler+0x6c8>)
 8005132:	4333      	orrs	r3, r6
 8005134:	800b      	strh	r3, [r1, #0]
 8005136:	e002      	b.n	800513e <HAL_PCD_IRQHandler+0x3d2>
 8005138:	1b49      	subs	r1, r1, r5
 800513a:	66d9      	str	r1, [r3, #108]	@ 0x6c
 800513c:	d0f0      	beq.n	8005120 <HAL_PCD_IRQHandler+0x3b4>
 800513e:	9b01      	ldr	r3, [sp, #4]
 8005140:	065b      	lsls	r3, r3, #25
 8005142:	d407      	bmi.n	8005154 <HAL_PCD_IRQHandler+0x3e8>
 8005144:	0092      	lsls	r2, r2, #2
 8005146:	1882      	adds	r2, r0, r2
 8005148:	8813      	ldrh	r3, [r2, #0]
 800514a:	49bb      	ldr	r1, [pc, #748]	@ (8005438 <HAL_PCD_IRQHandler+0x6cc>)
 800514c:	400b      	ands	r3, r1
 800514e:	49bb      	ldr	r1, [pc, #748]	@ (800543c <HAL_PCD_IRQHandler+0x6d0>)
 8005150:	430b      	orrs	r3, r1
 8005152:	8013      	strh	r3, [r2, #0]
 8005154:	2d00      	cmp	r5, #0
 8005156:	d100      	bne.n	800515a <HAL_PCD_IRQHandler+0x3ee>
 8005158:	e76a      	b.n	8005030 <HAL_PCD_IRQHandler+0x2c4>
 800515a:	2328      	movs	r3, #40	@ 0x28
 800515c:	9a00      	ldr	r2, [sp, #0]
 800515e:	4353      	muls	r3, r2
 8005160:	18e1      	adds	r1, r4, r3
 8005162:	000a      	movs	r2, r1
 8005164:	325b      	adds	r2, #91	@ 0x5b
 8005166:	e75c      	b.n	8005022 <HAL_PCD_IRQHandler+0x2b6>
 8005168:	0092      	lsls	r2, r2, #2
 800516a:	1882      	adds	r2, r0, r2
 800516c:	8816      	ldrh	r6, [r2, #0]
 800516e:	49b2      	ldr	r1, [pc, #712]	@ (8005438 <HAL_PCD_IRQHandler+0x6cc>)
 8005170:	4031      	ands	r1, r6
 8005172:	4eb2      	ldr	r6, [pc, #712]	@ (800543c <HAL_PCD_IRQHandler+0x6d0>)
 8005174:	4331      	orrs	r1, r6
 8005176:	8011      	strh	r1, [r2, #0]
 8005178:	782a      	ldrb	r2, [r5, #0]
 800517a:	0091      	lsls	r1, r2, #2
 800517c:	1841      	adds	r1, r0, r1
 800517e:	880d      	ldrh	r5, [r1, #0]
 8005180:	0001      	movs	r1, r0
 8005182:	3150      	adds	r1, #80	@ 0x50
 8005184:	8809      	ldrh	r1, [r1, #0]
 8005186:	00d2      	lsls	r2, r2, #3
 8005188:	1852      	adds	r2, r2, r1
 800518a:	1812      	adds	r2, r2, r0
 800518c:	046d      	lsls	r5, r5, #17
 800518e:	d50a      	bpl.n	80051a6 <HAL_PCD_IRQHandler+0x43a>
 8005190:	49ab      	ldr	r1, [pc, #684]	@ (8005440 <HAL_PCD_IRQHandler+0x6d4>)
 8005192:	1852      	adds	r2, r2, r1
 8005194:	8812      	ldrh	r2, [r2, #0]
 8005196:	0592      	lsls	r2, r2, #22
 8005198:	0d95      	lsrs	r5, r2, #22
 800519a:	2a00      	cmp	r2, #0
 800519c:	d100      	bne.n	80051a0 <HAL_PCD_IRQHandler+0x434>
 800519e:	e747      	b.n	8005030 <HAL_PCD_IRQHandler+0x2c4>
 80051a0:	001a      	movs	r2, r3
 80051a2:	3259      	adds	r2, #89	@ 0x59
 80051a4:	e6ef      	b.n	8004f86 <HAL_PCD_IRQHandler+0x21a>
 80051a6:	49a1      	ldr	r1, [pc, #644]	@ (800542c <HAL_PCD_IRQHandler+0x6c0>)
 80051a8:	1852      	adds	r2, r2, r1
 80051aa:	8812      	ldrh	r2, [r2, #0]
 80051ac:	0592      	lsls	r2, r2, #22
 80051ae:	0d95      	lsrs	r5, r2, #22
 80051b0:	2a00      	cmp	r2, #0
 80051b2:	d100      	bne.n	80051b6 <HAL_PCD_IRQHandler+0x44a>
 80051b4:	e73c      	b.n	8005030 <HAL_PCD_IRQHandler+0x2c4>
 80051b6:	001a      	movs	r2, r3
 80051b8:	325b      	adds	r2, #91	@ 0x5b
 80051ba:	e6e4      	b.n	8004f86 <HAL_PCD_IRQHandler+0x21a>
 80051bc:	3151      	adds	r1, #81	@ 0x51
 80051be:	31ff      	adds	r1, #255	@ 0xff
 80051c0:	6820      	ldr	r0, [r4, #0]
 80051c2:	1861      	adds	r1, r4, r1
 80051c4:	f001 ffd4 	bl	8007170 <USB_EPStartXfer>
 80051c8:	e74d      	b.n	8005066 <HAL_PCD_IRQHandler+0x2fa>
 80051ca:	2a01      	cmp	r2, #1
 80051cc:	d109      	bne.n	80051e2 <HAL_PCD_IRQHandler+0x476>
 80051ce:	0002      	movs	r2, r0
 80051d0:	4d9b      	ldr	r5, [pc, #620]	@ (8005440 <HAL_PCD_IRQHandler+0x6d4>)
 80051d2:	3250      	adds	r2, #80	@ 0x50
 80051d4:	8812      	ldrh	r2, [r2, #0]
 80051d6:	7c1b      	ldrb	r3, [r3, #16]
 80051d8:	1940      	adds	r0, r0, r5
 80051da:	00db      	lsls	r3, r3, #3
 80051dc:	1880      	adds	r0, r0, r2
 80051de:	181b      	adds	r3, r3, r0
 80051e0:	8019      	strh	r1, [r3, #0]
 80051e2:	2328      	movs	r3, #40	@ 0x28
 80051e4:	9a00      	ldr	r2, [sp, #0]
 80051e6:	4353      	muls	r3, r2
 80051e8:	18e3      	adds	r3, r4, r3
 80051ea:	7c19      	ldrb	r1, [r3, #16]
 80051ec:	0020      	movs	r0, r4
 80051ee:	f003 f8c2 	bl	8008376 <HAL_PCD_DataInStageCallback>
 80051f2:	e5c9      	b.n	8004d88 <HAL_PCD_IRQHandler+0x1c>
 80051f4:	7c5a      	ldrb	r2, [r3, #17]
 80051f6:	2a00      	cmp	r2, #0
 80051f8:	d106      	bne.n	8005208 <HAL_PCD_IRQHandler+0x49c>
 80051fa:	0002      	movs	r2, r0
 80051fc:	3250      	adds	r2, #80	@ 0x50
 80051fe:	8811      	ldrh	r1, [r2, #0]
 8005200:	7c1a      	ldrb	r2, [r3, #16]
 8005202:	4b8a      	ldr	r3, [pc, #552]	@ (800542c <HAL_PCD_IRQHandler+0x6c0>)
 8005204:	00d2      	lsls	r2, r2, #3
 8005206:	e75e      	b.n	80050c6 <HAL_PCD_IRQHandler+0x35a>
 8005208:	2a01      	cmp	r2, #1
 800520a:	d1ea      	bne.n	80051e2 <HAL_PCD_IRQHandler+0x476>
 800520c:	0002      	movs	r2, r0
 800520e:	4987      	ldr	r1, [pc, #540]	@ (800542c <HAL_PCD_IRQHandler+0x6c0>)
 8005210:	3250      	adds	r2, #80	@ 0x50
 8005212:	8812      	ldrh	r2, [r2, #0]
 8005214:	7c1b      	ldrb	r3, [r3, #16]
 8005216:	1840      	adds	r0, r0, r1
 8005218:	00db      	lsls	r3, r3, #3
 800521a:	1880      	adds	r0, r0, r2
 800521c:	181b      	adds	r3, r3, r0
 800521e:	801d      	strh	r5, [r3, #0]
 8005220:	e7df      	b.n	80051e2 <HAL_PCD_IRQHandler+0x476>
 8005222:	2780      	movs	r7, #128	@ 0x80
 8005224:	9901      	ldr	r1, [sp, #4]
 8005226:	007f      	lsls	r7, r7, #1
 8005228:	4039      	ands	r1, r7
 800522a:	7c1a      	ldrb	r2, [r3, #16]
 800522c:	468c      	mov	ip, r1
 800522e:	9901      	ldr	r1, [sp, #4]
 8005230:	9202      	str	r2, [sp, #8]
 8005232:	6a9d      	ldr	r5, [r3, #40]	@ 0x28
 8005234:	00d2      	lsls	r2, r2, #3
 8005236:	4239      	tst	r1, r7
 8005238:	d11c      	bne.n	8005274 <HAL_PCD_IRQHandler+0x508>
 800523a:	0007      	movs	r7, r0
 800523c:	3750      	adds	r7, #80	@ 0x50
 800523e:	883f      	ldrh	r7, [r7, #0]
 8005240:	18bf      	adds	r7, r7, r2
 8005242:	4a7f      	ldr	r2, [pc, #508]	@ (8005440 <HAL_PCD_IRQHandler+0x6d4>)
 8005244:	183f      	adds	r7, r7, r0
 8005246:	18bf      	adds	r7, r7, r2
 8005248:	883a      	ldrh	r2, [r7, #0]
 800524a:	0592      	lsls	r2, r2, #22
 800524c:	0d92      	lsrs	r2, r2, #22
 800524e:	42aa      	cmp	r2, r5
 8005250:	d303      	bcc.n	800525a <HAL_PCD_IRQHandler+0x4ee>
 8005252:	4662      	mov	r2, ip
 8005254:	9902      	ldr	r1, [sp, #8]
 8005256:	629a      	str	r2, [r3, #40]	@ 0x28
 8005258:	e7c8      	b.n	80051ec <HAL_PCD_IRQHandler+0x480>
 800525a:	6a59      	ldr	r1, [r3, #36]	@ 0x24
 800525c:	1aad      	subs	r5, r5, r2
 800525e:	1889      	adds	r1, r1, r2
 8005260:	6259      	str	r1, [r3, #36]	@ 0x24
 8005262:	6ad9      	ldr	r1, [r3, #44]	@ 0x2c
 8005264:	3610      	adds	r6, #16
 8005266:	188a      	adds	r2, r1, r2
 8005268:	629d      	str	r5, [r3, #40]	@ 0x28
 800526a:	62da      	str	r2, [r3, #44]	@ 0x2c
 800526c:	19a1      	adds	r1, r4, r6
 800526e:	f001 ff7f 	bl	8007170 <USB_EPStartXfer>
 8005272:	e589      	b.n	8004d88 <HAL_PCD_IRQHandler+0x1c>
 8005274:	2140      	movs	r1, #64	@ 0x40
 8005276:	468c      	mov	ip, r1
 8005278:	9f01      	ldr	r7, [sp, #4]
 800527a:	0006      	movs	r6, r0
 800527c:	400f      	ands	r7, r1
 800527e:	9703      	str	r7, [sp, #12]
 8005280:	4667      	mov	r7, ip
 8005282:	9901      	ldr	r1, [sp, #4]
 8005284:	3650      	adds	r6, #80	@ 0x50
 8005286:	4239      	tst	r1, r7
 8005288:	d100      	bne.n	800528c <HAL_PCD_IRQHandler+0x520>
 800528a:	e0df      	b.n	800544c <HAL_PCD_IRQHandler+0x6e0>
 800528c:	496c      	ldr	r1, [pc, #432]	@ (8005440 <HAL_PCD_IRQHandler+0x6d4>)
 800528e:	8837      	ldrh	r7, [r6, #0]
 8005290:	1846      	adds	r6, r0, r1
 8005292:	2100      	movs	r1, #0
 8005294:	19f7      	adds	r7, r6, r7
 8005296:	5abf      	ldrh	r7, [r7, r2]
 8005298:	468c      	mov	ip, r1
 800529a:	05bf      	lsls	r7, r7, #22
 800529c:	0dbf      	lsrs	r7, r7, #22
 800529e:	42af      	cmp	r7, r5
 80052a0:	d201      	bcs.n	80052a6 <HAL_PCD_IRQHandler+0x53a>
 80052a2:	1be9      	subs	r1, r5, r7
 80052a4:	468c      	mov	ip, r1
 80052a6:	4661      	mov	r1, ip
 80052a8:	2580      	movs	r5, #128	@ 0x80
 80052aa:	6299      	str	r1, [r3, #40]	@ 0x28
 80052ac:	9901      	ldr	r1, [sp, #4]
 80052ae:	01ed      	lsls	r5, r5, #7
 80052b0:	4029      	ands	r1, r5
 80052b2:	000d      	movs	r5, r1
 80052b4:	4661      	mov	r1, ip
 80052b6:	2900      	cmp	r1, #0
 80052b8:	d147      	bne.n	800534a <HAL_PCD_IRQHandler+0x5de>
 80052ba:	2328      	movs	r3, #40	@ 0x28
 80052bc:	9900      	ldr	r1, [sp, #0]
 80052be:	434b      	muls	r3, r1
 80052c0:	18e3      	adds	r3, r4, r3
 80052c2:	7c5b      	ldrb	r3, [r3, #17]
 80052c4:	2b00      	cmp	r3, #0
 80052c6:	d130      	bne.n	800532a <HAL_PCD_IRQHandler+0x5be>
 80052c8:	0007      	movs	r7, r0
 80052ca:	3750      	adds	r7, #80	@ 0x50
 80052cc:	883b      	ldrh	r3, [r7, #0]
 80052ce:	495d      	ldr	r1, [pc, #372]	@ (8005444 <HAL_PCD_IRQHandler+0x6d8>)
 80052d0:	18f3      	adds	r3, r6, r3
 80052d2:	189b      	adds	r3, r3, r2
 80052d4:	881e      	ldrh	r6, [r3, #0]
 80052d6:	05b6      	lsls	r6, r6, #22
 80052d8:	0db6      	lsrs	r6, r6, #22
 80052da:	801e      	strh	r6, [r3, #0]
 80052dc:	881e      	ldrh	r6, [r3, #0]
 80052de:	430e      	orrs	r6, r1
 80052e0:	b2b6      	uxth	r6, r6
 80052e2:	801e      	strh	r6, [r3, #0]
 80052e4:	4e51      	ldr	r6, [pc, #324]	@ (800542c <HAL_PCD_IRQHandler+0x6c0>)
 80052e6:	883b      	ldrh	r3, [r7, #0]
 80052e8:	1980      	adds	r0, r0, r6
 80052ea:	18c0      	adds	r0, r0, r3
 80052ec:	1880      	adds	r0, r0, r2
 80052ee:	8803      	ldrh	r3, [r0, #0]
 80052f0:	059b      	lsls	r3, r3, #22
 80052f2:	0d9b      	lsrs	r3, r3, #22
 80052f4:	8003      	strh	r3, [r0, #0]
 80052f6:	8803      	ldrh	r3, [r0, #0]
 80052f8:	430b      	orrs	r3, r1
 80052fa:	b29b      	uxth	r3, r3
 80052fc:	8003      	strh	r3, [r0, #0]
 80052fe:	0020      	movs	r0, r4
 8005300:	9902      	ldr	r1, [sp, #8]
 8005302:	f003 f838 	bl	8008376 <HAL_PCD_DataInStageCallback>
 8005306:	2d00      	cmp	r5, #0
 8005308:	d100      	bne.n	800530c <HAL_PCD_IRQHandler+0x5a0>
 800530a:	e0dc      	b.n	80054c6 <HAL_PCD_IRQHandler+0x75a>
 800530c:	2328      	movs	r3, #40	@ 0x28
 800530e:	9a00      	ldr	r2, [sp, #0]
 8005310:	4949      	ldr	r1, [pc, #292]	@ (8005438 <HAL_PCD_IRQHandler+0x6cc>)
 8005312:	4353      	muls	r3, r2
 8005314:	18e3      	adds	r3, r4, r3
 8005316:	7c1b      	ldrb	r3, [r3, #16]
 8005318:	6822      	ldr	r2, [r4, #0]
 800531a:	009b      	lsls	r3, r3, #2
 800531c:	18d2      	adds	r2, r2, r3
 800531e:	8813      	ldrh	r3, [r2, #0]
 8005320:	400b      	ands	r3, r1
 8005322:	4949      	ldr	r1, [pc, #292]	@ (8005448 <HAL_PCD_IRQHandler+0x6dc>)
 8005324:	430b      	orrs	r3, r1
 8005326:	8013      	strh	r3, [r2, #0]
 8005328:	e0cd      	b.n	80054c6 <HAL_PCD_IRQHandler+0x75a>
 800532a:	2b01      	cmp	r3, #1
 800532c:	d1e7      	bne.n	80052fe <HAL_PCD_IRQHandler+0x592>
 800532e:	0007      	movs	r7, r0
 8005330:	4661      	mov	r1, ip
 8005332:	3750      	adds	r7, #80	@ 0x50
 8005334:	883b      	ldrh	r3, [r7, #0]
 8005336:	18f3      	adds	r3, r6, r3
 8005338:	189b      	adds	r3, r3, r2
 800533a:	8019      	strh	r1, [r3, #0]
 800533c:	493b      	ldr	r1, [pc, #236]	@ (800542c <HAL_PCD_IRQHandler+0x6c0>)
 800533e:	883b      	ldrh	r3, [r7, #0]
 8005340:	1840      	adds	r0, r0, r1
 8005342:	18c0      	adds	r0, r0, r3
 8005344:	1880      	adds	r0, r0, r2
 8005346:	4663      	mov	r3, ip
 8005348:	e7d8      	b.n	80052fc <HAL_PCD_IRQHandler+0x590>
 800534a:	2d00      	cmp	r5, #0
 800534c:	d00c      	beq.n	8005368 <HAL_PCD_IRQHandler+0x5fc>
 800534e:	9902      	ldr	r1, [sp, #8]
 8005350:	0089      	lsls	r1, r1, #2
 8005352:	1841      	adds	r1, r0, r1
 8005354:	880d      	ldrh	r5, [r1, #0]
 8005356:	9101      	str	r1, [sp, #4]
 8005358:	46ac      	mov	ip, r5
 800535a:	4661      	mov	r1, ip
 800535c:	4d36      	ldr	r5, [pc, #216]	@ (8005438 <HAL_PCD_IRQHandler+0x6cc>)
 800535e:	400d      	ands	r5, r1
 8005360:	4939      	ldr	r1, [pc, #228]	@ (8005448 <HAL_PCD_IRQHandler+0x6dc>)
 8005362:	430d      	orrs	r5, r1
 8005364:	9901      	ldr	r1, [sp, #4]
 8005366:	800d      	strh	r5, [r1, #0]
 8005368:	2528      	movs	r5, #40	@ 0x28
 800536a:	9900      	ldr	r1, [sp, #0]
 800536c:	434d      	muls	r5, r1
 800536e:	2134      	movs	r1, #52	@ 0x34
 8005370:	468c      	mov	ip, r1
 8005372:	1965      	adds	r5, r4, r5
 8005374:	44ac      	add	ip, r5
 8005376:	4661      	mov	r1, ip
 8005378:	7809      	ldrb	r1, [r1, #0]
 800537a:	2901      	cmp	r1, #1
 800537c:	d000      	beq.n	8005380 <HAL_PCD_IRQHandler+0x614>
 800537e:	e0a2      	b.n	80054c6 <HAL_PCD_IRQHandler+0x75a>
 8005380:	6a69      	ldr	r1, [r5, #36]	@ 0x24
 8005382:	19c9      	adds	r1, r1, r7
 8005384:	6269      	str	r1, [r5, #36]	@ 0x24
 8005386:	9101      	str	r1, [sp, #4]
 8005388:	6ad9      	ldr	r1, [r3, #44]	@ 0x2c
 800538a:	19c9      	adds	r1, r1, r7
 800538c:	62d9      	str	r1, [r3, #44]	@ 0x2c
 800538e:	6b2b      	ldr	r3, [r5, #48]	@ 0x30
 8005390:	6a29      	ldr	r1, [r5, #32]
 8005392:	428b      	cmp	r3, r1
 8005394:	d317      	bcc.n	80053c6 <HAL_PCD_IRQHandler+0x65a>
 8005396:	1a5b      	subs	r3, r3, r1
 8005398:	632b      	str	r3, [r5, #48]	@ 0x30
 800539a:	2328      	movs	r3, #40	@ 0x28
 800539c:	9d00      	ldr	r5, [sp, #0]
 800539e:	436b      	muls	r3, r5
 80053a0:	18e3      	adds	r3, r4, r3
 80053a2:	7c5d      	ldrb	r5, [r3, #17]
 80053a4:	b28b      	uxth	r3, r1
 80053a6:	2d00      	cmp	r5, #0
 80053a8:	d137      	bne.n	800541a <HAL_PCD_IRQHandler+0x6ae>
 80053aa:	0005      	movs	r5, r0
 80053ac:	3550      	adds	r5, #80	@ 0x50
 80053ae:	882d      	ldrh	r5, [r5, #0]
 80053b0:	1975      	adds	r5, r6, r5
 80053b2:	18aa      	adds	r2, r5, r2
 80053b4:	8815      	ldrh	r5, [r2, #0]
 80053b6:	05ad      	lsls	r5, r5, #22
 80053b8:	0dad      	lsrs	r5, r5, #22
 80053ba:	8015      	strh	r5, [r2, #0]
 80053bc:	2900      	cmp	r1, #0
 80053be:	d10e      	bne.n	80053de <HAL_PCD_IRQHandler+0x672>
 80053c0:	8811      	ldrh	r1, [r2, #0]
 80053c2:	4d20      	ldr	r5, [pc, #128]	@ (8005444 <HAL_PCD_IRQHandler+0x6d8>)
 80053c4:	e013      	b.n	80053ee <HAL_PCD_IRQHandler+0x682>
 80053c6:	2b00      	cmp	r3, #0
 80053c8:	d103      	bne.n	80053d2 <HAL_PCD_IRQHandler+0x666>
 80053ca:	4661      	mov	r1, ip
 80053cc:	700b      	strb	r3, [r1, #0]
 80053ce:	0039      	movs	r1, r7
 80053d0:	e7e3      	b.n	800539a <HAL_PCD_IRQHandler+0x62e>
 80053d2:	2100      	movs	r1, #0
 80053d4:	4667      	mov	r7, ip
 80053d6:	7039      	strb	r1, [r7, #0]
 80053d8:	6329      	str	r1, [r5, #48]	@ 0x30
 80053da:	0019      	movs	r1, r3
 80053dc:	e7dd      	b.n	800539a <HAL_PCD_IRQHandler+0x62e>
 80053de:	293e      	cmp	r1, #62	@ 0x3e
 80053e0:	d811      	bhi.n	8005406 <HAL_PCD_IRQHandler+0x69a>
 80053e2:	2601      	movs	r6, #1
 80053e4:	084d      	lsrs	r5, r1, #1
 80053e6:	400e      	ands	r6, r1
 80053e8:	19ad      	adds	r5, r5, r6
 80053ea:	8811      	ldrh	r1, [r2, #0]
 80053ec:	02ad      	lsls	r5, r5, #10
 80053ee:	4329      	orrs	r1, r5
 80053f0:	b289      	uxth	r1, r1
 80053f2:	8011      	strh	r1, [r2, #0]
 80053f4:	2228      	movs	r2, #40	@ 0x28
 80053f6:	9900      	ldr	r1, [sp, #0]
 80053f8:	434a      	muls	r2, r1
 80053fa:	18a2      	adds	r2, r4, r2
 80053fc:	8b12      	ldrh	r2, [r2, #24]
 80053fe:	9901      	ldr	r1, [sp, #4]
 8005400:	f001 fea1 	bl	8007146 <USB_WritePMA>
 8005404:	e05f      	b.n	80054c6 <HAL_PCD_IRQHandler+0x75a>
 8005406:	261f      	movs	r6, #31
 8005408:	094d      	lsrs	r5, r1, #5
 800540a:	4031      	ands	r1, r6
 800540c:	424e      	negs	r6, r1
 800540e:	4171      	adcs	r1, r6
 8005410:	1a6d      	subs	r5, r5, r1
 8005412:	8811      	ldrh	r1, [r2, #0]
 8005414:	02ad      	lsls	r5, r5, #10
 8005416:	4329      	orrs	r1, r5
 8005418:	e7d3      	b.n	80053c2 <HAL_PCD_IRQHandler+0x656>
 800541a:	2d01      	cmp	r5, #1
 800541c:	d1ea      	bne.n	80053f4 <HAL_PCD_IRQHandler+0x688>
 800541e:	0001      	movs	r1, r0
 8005420:	3150      	adds	r1, #80	@ 0x50
 8005422:	8809      	ldrh	r1, [r1, #0]
 8005424:	1876      	adds	r6, r6, r1
 8005426:	18b6      	adds	r6, r6, r2
 8005428:	8033      	strh	r3, [r6, #0]
 800542a:	e7e3      	b.n	80053f4 <HAL_PCD_IRQHandler+0x688>
 800542c:	00000406 	.word	0x00000406
 8005430:	ffffbf8f 	.word	0xffffbf8f
 8005434:	00008080 	.word	0x00008080
 8005438:	ffff8f8f 	.word	0xffff8f8f
 800543c:	000080c0 	.word	0x000080c0
 8005440:	00000402 	.word	0x00000402
 8005444:	ffff8000 	.word	0xffff8000
 8005448:	0000c080 	.word	0x0000c080
 800544c:	49ac      	ldr	r1, [pc, #688]	@ (8005700 <HAL_PCD_IRQHandler+0x994>)
 800544e:	8836      	ldrh	r6, [r6, #0]
 8005450:	468c      	mov	ip, r1
 8005452:	4484      	add	ip, r0
 8005454:	4466      	add	r6, ip
 8005456:	5ab6      	ldrh	r6, [r6, r2]
 8005458:	9f03      	ldr	r7, [sp, #12]
 800545a:	05b6      	lsls	r6, r6, #22
 800545c:	0db6      	lsrs	r6, r6, #22
 800545e:	42ae      	cmp	r6, r5
 8005460:	d800      	bhi.n	8005464 <HAL_PCD_IRQHandler+0x6f8>
 8005462:	1baf      	subs	r7, r5, r6
 8005464:	2580      	movs	r5, #128	@ 0x80
 8005466:	9901      	ldr	r1, [sp, #4]
 8005468:	01ed      	lsls	r5, r5, #7
 800546a:	4029      	ands	r1, r5
 800546c:	000d      	movs	r5, r1
 800546e:	629f      	str	r7, [r3, #40]	@ 0x28
 8005470:	2f00      	cmp	r7, #0
 8005472:	d149      	bne.n	8005508 <HAL_PCD_IRQHandler+0x79c>
 8005474:	2328      	movs	r3, #40	@ 0x28
 8005476:	9900      	ldr	r1, [sp, #0]
 8005478:	434b      	muls	r3, r1
 800547a:	18e3      	adds	r3, r4, r3
 800547c:	7c5b      	ldrb	r3, [r3, #17]
 800547e:	2b00      	cmp	r3, #0
 8005480:	d133      	bne.n	80054ea <HAL_PCD_IRQHandler+0x77e>
 8005482:	0003      	movs	r3, r0
 8005484:	499f      	ldr	r1, [pc, #636]	@ (8005704 <HAL_PCD_IRQHandler+0x998>)
 8005486:	3350      	adds	r3, #80	@ 0x50
 8005488:	881e      	ldrh	r6, [r3, #0]
 800548a:	1840      	adds	r0, r0, r1
 800548c:	1980      	adds	r0, r0, r6
 800548e:	1880      	adds	r0, r0, r2
 8005490:	8806      	ldrh	r6, [r0, #0]
 8005492:	499d      	ldr	r1, [pc, #628]	@ (8005708 <HAL_PCD_IRQHandler+0x99c>)
 8005494:	05b6      	lsls	r6, r6, #22
 8005496:	0db6      	lsrs	r6, r6, #22
 8005498:	8006      	strh	r6, [r0, #0]
 800549a:	8806      	ldrh	r6, [r0, #0]
 800549c:	430e      	orrs	r6, r1
 800549e:	b2b6      	uxth	r6, r6
 80054a0:	8006      	strh	r6, [r0, #0]
 80054a2:	881b      	ldrh	r3, [r3, #0]
 80054a4:	4463      	add	r3, ip
 80054a6:	189b      	adds	r3, r3, r2
 80054a8:	881a      	ldrh	r2, [r3, #0]
 80054aa:	0592      	lsls	r2, r2, #22
 80054ac:	0d92      	lsrs	r2, r2, #22
 80054ae:	801a      	strh	r2, [r3, #0]
 80054b0:	881a      	ldrh	r2, [r3, #0]
 80054b2:	430a      	orrs	r2, r1
 80054b4:	b292      	uxth	r2, r2
 80054b6:	801a      	strh	r2, [r3, #0]
 80054b8:	0020      	movs	r0, r4
 80054ba:	9902      	ldr	r1, [sp, #8]
 80054bc:	f002 ff5b 	bl	8008376 <HAL_PCD_DataInStageCallback>
 80054c0:	2d00      	cmp	r5, #0
 80054c2:	d100      	bne.n	80054c6 <HAL_PCD_IRQHandler+0x75a>
 80054c4:	e722      	b.n	800530c <HAL_PCD_IRQHandler+0x5a0>
 80054c6:	2328      	movs	r3, #40	@ 0x28
 80054c8:	9a00      	ldr	r2, [sp, #0]
 80054ca:	4353      	muls	r3, r2
 80054cc:	18e3      	adds	r3, r4, r3
 80054ce:	7c1b      	ldrb	r3, [r3, #16]
 80054d0:	6822      	ldr	r2, [r4, #0]
 80054d2:	009b      	lsls	r3, r3, #2
 80054d4:	18d2      	adds	r2, r2, r3
 80054d6:	8811      	ldrh	r1, [r2, #0]
 80054d8:	4b8c      	ldr	r3, [pc, #560]	@ (800570c <HAL_PCD_IRQHandler+0x9a0>)
 80054da:	4019      	ands	r1, r3
 80054dc:	2330      	movs	r3, #48	@ 0x30
 80054de:	404b      	eors	r3, r1
 80054e0:	498b      	ldr	r1, [pc, #556]	@ (8005710 <HAL_PCD_IRQHandler+0x9a4>)
 80054e2:	430b      	orrs	r3, r1
 80054e4:	8013      	strh	r3, [r2, #0]
 80054e6:	f7ff fc4f 	bl	8004d88 <HAL_PCD_IRQHandler+0x1c>
 80054ea:	2b01      	cmp	r3, #1
 80054ec:	d1e4      	bne.n	80054b8 <HAL_PCD_IRQHandler+0x74c>
 80054ee:	0003      	movs	r3, r0
 80054f0:	4984      	ldr	r1, [pc, #528]	@ (8005704 <HAL_PCD_IRQHandler+0x998>)
 80054f2:	3350      	adds	r3, #80	@ 0x50
 80054f4:	881e      	ldrh	r6, [r3, #0]
 80054f6:	1840      	adds	r0, r0, r1
 80054f8:	1980      	adds	r0, r0, r6
 80054fa:	1880      	adds	r0, r0, r2
 80054fc:	8007      	strh	r7, [r0, #0]
 80054fe:	881b      	ldrh	r3, [r3, #0]
 8005500:	4463      	add	r3, ip
 8005502:	189b      	adds	r3, r3, r2
 8005504:	801f      	strh	r7, [r3, #0]
 8005506:	e7d7      	b.n	80054b8 <HAL_PCD_IRQHandler+0x74c>
 8005508:	2900      	cmp	r1, #0
 800550a:	d108      	bne.n	800551e <HAL_PCD_IRQHandler+0x7b2>
 800550c:	9902      	ldr	r1, [sp, #8]
 800550e:	4d81      	ldr	r5, [pc, #516]	@ (8005714 <HAL_PCD_IRQHandler+0x9a8>)
 8005510:	0089      	lsls	r1, r1, #2
 8005512:	1841      	adds	r1, r0, r1
 8005514:	880f      	ldrh	r7, [r1, #0]
 8005516:	403d      	ands	r5, r7
 8005518:	4f7f      	ldr	r7, [pc, #508]	@ (8005718 <HAL_PCD_IRQHandler+0x9ac>)
 800551a:	433d      	orrs	r5, r7
 800551c:	800d      	strh	r5, [r1, #0]
 800551e:	2728      	movs	r7, #40	@ 0x28
 8005520:	9900      	ldr	r1, [sp, #0]
 8005522:	434f      	muls	r7, r1
 8005524:	19e7      	adds	r7, r4, r7
 8005526:	0039      	movs	r1, r7
 8005528:	3134      	adds	r1, #52	@ 0x34
 800552a:	9101      	str	r1, [sp, #4]
 800552c:	7809      	ldrb	r1, [r1, #0]
 800552e:	2901      	cmp	r1, #1
 8005530:	d1c9      	bne.n	80054c6 <HAL_PCD_IRQHandler+0x75a>
 8005532:	6a79      	ldr	r1, [r7, #36]	@ 0x24
 8005534:	1989      	adds	r1, r1, r6
 8005536:	6279      	str	r1, [r7, #36]	@ 0x24
 8005538:	6add      	ldr	r5, [r3, #44]	@ 0x2c
 800553a:	19ad      	adds	r5, r5, r6
 800553c:	62dd      	str	r5, [r3, #44]	@ 0x2c
 800553e:	6b3b      	ldr	r3, [r7, #48]	@ 0x30
 8005540:	6a3d      	ldr	r5, [r7, #32]
 8005542:	42ab      	cmp	r3, r5
 8005544:	d317      	bcc.n	8005576 <HAL_PCD_IRQHandler+0x80a>
 8005546:	1b5b      	subs	r3, r3, r5
 8005548:	633b      	str	r3, [r7, #48]	@ 0x30
 800554a:	2328      	movs	r3, #40	@ 0x28
 800554c:	9e00      	ldr	r6, [sp, #0]
 800554e:	4373      	muls	r3, r6
 8005550:	18e3      	adds	r3, r4, r3
 8005552:	7c5e      	ldrb	r6, [r3, #17]
 8005554:	b2ab      	uxth	r3, r5
 8005556:	2e00      	cmp	r6, #0
 8005558:	d134      	bne.n	80055c4 <HAL_PCD_IRQHandler+0x858>
 800555a:	0006      	movs	r6, r0
 800555c:	3650      	adds	r6, #80	@ 0x50
 800555e:	8836      	ldrh	r6, [r6, #0]
 8005560:	4466      	add	r6, ip
 8005562:	18b2      	adds	r2, r6, r2
 8005564:	8816      	ldrh	r6, [r2, #0]
 8005566:	05b6      	lsls	r6, r6, #22
 8005568:	0db6      	lsrs	r6, r6, #22
 800556a:	8016      	strh	r6, [r2, #0]
 800556c:	2d00      	cmp	r5, #0
 800556e:	d10e      	bne.n	800558e <HAL_PCD_IRQHandler+0x822>
 8005570:	8815      	ldrh	r5, [r2, #0]
 8005572:	4e65      	ldr	r6, [pc, #404]	@ (8005708 <HAL_PCD_IRQHandler+0x99c>)
 8005574:	e013      	b.n	800559e <HAL_PCD_IRQHandler+0x832>
 8005576:	2b00      	cmp	r3, #0
 8005578:	d103      	bne.n	8005582 <HAL_PCD_IRQHandler+0x816>
 800557a:	9d01      	ldr	r5, [sp, #4]
 800557c:	702b      	strb	r3, [r5, #0]
 800557e:	0035      	movs	r5, r6
 8005580:	e7e3      	b.n	800554a <HAL_PCD_IRQHandler+0x7de>
 8005582:	2500      	movs	r5, #0
 8005584:	9e01      	ldr	r6, [sp, #4]
 8005586:	633d      	str	r5, [r7, #48]	@ 0x30
 8005588:	7035      	strb	r5, [r6, #0]
 800558a:	001d      	movs	r5, r3
 800558c:	e7dd      	b.n	800554a <HAL_PCD_IRQHandler+0x7de>
 800558e:	2d3e      	cmp	r5, #62	@ 0x3e
 8005590:	d80e      	bhi.n	80055b0 <HAL_PCD_IRQHandler+0x844>
 8005592:	2701      	movs	r7, #1
 8005594:	086e      	lsrs	r6, r5, #1
 8005596:	402f      	ands	r7, r5
 8005598:	19f6      	adds	r6, r6, r7
 800559a:	8815      	ldrh	r5, [r2, #0]
 800559c:	02b6      	lsls	r6, r6, #10
 800559e:	4335      	orrs	r5, r6
 80055a0:	b2ad      	uxth	r5, r5
 80055a2:	8015      	strh	r5, [r2, #0]
 80055a4:	2228      	movs	r2, #40	@ 0x28
 80055a6:	9d00      	ldr	r5, [sp, #0]
 80055a8:	436a      	muls	r2, r5
 80055aa:	18a2      	adds	r2, r4, r2
 80055ac:	8b52      	ldrh	r2, [r2, #26]
 80055ae:	e727      	b.n	8005400 <HAL_PCD_IRQHandler+0x694>
 80055b0:	271f      	movs	r7, #31
 80055b2:	096e      	lsrs	r6, r5, #5
 80055b4:	403d      	ands	r5, r7
 80055b6:	426f      	negs	r7, r5
 80055b8:	417d      	adcs	r5, r7
 80055ba:	1b76      	subs	r6, r6, r5
 80055bc:	8815      	ldrh	r5, [r2, #0]
 80055be:	02b6      	lsls	r6, r6, #10
 80055c0:	4335      	orrs	r5, r6
 80055c2:	e7d6      	b.n	8005572 <HAL_PCD_IRQHandler+0x806>
 80055c4:	2e01      	cmp	r6, #1
 80055c6:	d1ed      	bne.n	80055a4 <HAL_PCD_IRQHandler+0x838>
 80055c8:	0005      	movs	r5, r0
 80055ca:	3550      	adds	r5, #80	@ 0x50
 80055cc:	882d      	ldrh	r5, [r5, #0]
 80055ce:	4465      	add	r5, ip
 80055d0:	18aa      	adds	r2, r5, r2
 80055d2:	8013      	strh	r3, [r2, #0]
 80055d4:	e7e6      	b.n	80055a4 <HAL_PCD_IRQHandler+0x838>
 80055d6:	0543      	lsls	r3, r0, #21
 80055d8:	d50e      	bpl.n	80055f8 <HAL_PCD_IRQHandler+0x88c>
 80055da:	6823      	ldr	r3, [r4, #0]
 80055dc:	494f      	ldr	r1, [pc, #316]	@ (800571c <HAL_PCD_IRQHandler+0x9b0>)
 80055de:	3306      	adds	r3, #6
 80055e0:	8fda      	ldrh	r2, [r3, #62]	@ 0x3e
 80055e2:	0020      	movs	r0, r4
 80055e4:	400a      	ands	r2, r1
 80055e6:	87da      	strh	r2, [r3, #62]	@ 0x3e
 80055e8:	f002 fed7 	bl	800839a <HAL_PCD_ResetCallback>
 80055ec:	0029      	movs	r1, r5
 80055ee:	0020      	movs	r0, r4
 80055f0:	f7ff fbab 	bl	8004d4a <HAL_PCD_SetAddress>
 80055f4:	f7ff fbce 	bl	8004d94 <HAL_PCD_IRQHandler+0x28>
 80055f8:	0443      	lsls	r3, r0, #17
 80055fa:	d507      	bpl.n	800560c <HAL_PCD_IRQHandler+0x8a0>
 80055fc:	6823      	ldr	r3, [r4, #0]
 80055fe:	4948      	ldr	r1, [pc, #288]	@ (8005720 <HAL_PCD_IRQHandler+0x9b4>)
 8005600:	3306      	adds	r3, #6
 8005602:	8fda      	ldrh	r2, [r3, #62]	@ 0x3e
 8005604:	400a      	ands	r2, r1
 8005606:	87da      	strh	r2, [r3, #62]	@ 0x3e
 8005608:	f7ff fbc4 	bl	8004d94 <HAL_PCD_IRQHandler+0x28>
 800560c:	2380      	movs	r3, #128	@ 0x80
 800560e:	0001      	movs	r1, r0
 8005610:	019b      	lsls	r3, r3, #6
 8005612:	4019      	ands	r1, r3
 8005614:	4218      	tst	r0, r3
 8005616:	d004      	beq.n	8005622 <HAL_PCD_IRQHandler+0x8b6>
 8005618:	6823      	ldr	r3, [r4, #0]
 800561a:	4942      	ldr	r1, [pc, #264]	@ (8005724 <HAL_PCD_IRQHandler+0x9b8>)
 800561c:	3306      	adds	r3, #6
 800561e:	8fda      	ldrh	r2, [r3, #62]	@ 0x3e
 8005620:	e7f0      	b.n	8005604 <HAL_PCD_IRQHandler+0x898>
 8005622:	04c3      	lsls	r3, r0, #19
 8005624:	d51a      	bpl.n	800565c <HAL_PCD_IRQHandler+0x8f0>
 8005626:	2004      	movs	r0, #4
 8005628:	6823      	ldr	r3, [r4, #0]
 800562a:	3302      	adds	r3, #2
 800562c:	8fda      	ldrh	r2, [r3, #62]	@ 0x3e
 800562e:	4382      	bics	r2, r0
 8005630:	87da      	strh	r2, [r3, #62]	@ 0x3e
 8005632:	8fda      	ldrh	r2, [r3, #62]	@ 0x3e
 8005634:	1800      	adds	r0, r0, r0
 8005636:	4382      	bics	r2, r0
 8005638:	87da      	strh	r2, [r3, #62]	@ 0x3e
 800563a:	23b2      	movs	r3, #178	@ 0xb2
 800563c:	009b      	lsls	r3, r3, #2
 800563e:	5ce2      	ldrb	r2, [r4, r3]
 8005640:	2a01      	cmp	r2, #1
 8005642:	d103      	bne.n	800564c <HAL_PCD_IRQHandler+0x8e0>
 8005644:	0020      	movs	r0, r4
 8005646:	54e1      	strb	r1, [r4, r3]
 8005648:	f000 f98b 	bl	8005962 <HAL_PCDEx_LPM_Callback>
 800564c:	0020      	movs	r0, r4
 800564e:	f002 fec7 	bl	80083e0 <HAL_PCD_ResumeCallback>
 8005652:	6823      	ldr	r3, [r4, #0]
 8005654:	4934      	ldr	r1, [pc, #208]	@ (8005728 <HAL_PCD_IRQHandler+0x9bc>)
 8005656:	3306      	adds	r3, #6
 8005658:	8fda      	ldrh	r2, [r3, #62]	@ 0x3e
 800565a:	e7d3      	b.n	8005604 <HAL_PCD_IRQHandler+0x898>
 800565c:	0503      	lsls	r3, r0, #20
 800565e:	d513      	bpl.n	8005688 <HAL_PCD_IRQHandler+0x91c>
 8005660:	2108      	movs	r1, #8
 8005662:	6823      	ldr	r3, [r4, #0]
 8005664:	1c9a      	adds	r2, r3, #2
 8005666:	8fd0      	ldrh	r0, [r2, #62]	@ 0x3e
 8005668:	3306      	adds	r3, #6
 800566a:	4301      	orrs	r1, r0
 800566c:	87d1      	strh	r1, [r2, #62]	@ 0x3e
 800566e:	8fd9      	ldrh	r1, [r3, #62]	@ 0x3e
 8005670:	482e      	ldr	r0, [pc, #184]	@ (800572c <HAL_PCD_IRQHandler+0x9c0>)
 8005672:	4001      	ands	r1, r0
 8005674:	87d9      	strh	r1, [r3, #62]	@ 0x3e
 8005676:	2304      	movs	r3, #4
 8005678:	8fd1      	ldrh	r1, [r2, #62]	@ 0x3e
 800567a:	430b      	orrs	r3, r1
 800567c:	87d3      	strh	r3, [r2, #62]	@ 0x3e
 800567e:	0020      	movs	r0, r4
 8005680:	f002 fe9c 	bl	80083bc <HAL_PCD_SuspendCallback>
 8005684:	f7ff fb86 	bl	8004d94 <HAL_PCD_IRQHandler+0x28>
 8005688:	2580      	movs	r5, #128	@ 0x80
 800568a:	4228      	tst	r0, r5
 800568c:	d021      	beq.n	80056d2 <HAL_PCD_IRQHandler+0x966>
 800568e:	20b2      	movs	r0, #178	@ 0xb2
 8005690:	6823      	ldr	r3, [r4, #0]
 8005692:	0080      	lsls	r0, r0, #2
 8005694:	1d99      	adds	r1, r3, #6
 8005696:	8fca      	ldrh	r2, [r1, #62]	@ 0x3e
 8005698:	43aa      	bics	r2, r5
 800569a:	87ca      	strh	r2, [r1, #62]	@ 0x3e
 800569c:	5c22      	ldrb	r2, [r4, r0]
 800569e:	2a00      	cmp	r2, #0
 80056a0:	d1ed      	bne.n	800567e <HAL_PCD_IRQHandler+0x912>
 80056a2:	2104      	movs	r1, #4
 80056a4:	1c9a      	adds	r2, r3, #2
 80056a6:	8fd5      	ldrh	r5, [r2, #62]	@ 0x3e
 80056a8:	3354      	adds	r3, #84	@ 0x54
 80056aa:	4329      	orrs	r1, r5
 80056ac:	87d1      	strh	r1, [r2, #62]	@ 0x3e
 80056ae:	2108      	movs	r1, #8
 80056b0:	8fd5      	ldrh	r5, [r2, #62]	@ 0x3e
 80056b2:	4329      	orrs	r1, r5
 80056b4:	87d1      	strh	r1, [r2, #62]	@ 0x3e
 80056b6:	2101      	movs	r1, #1
 80056b8:	223c      	movs	r2, #60	@ 0x3c
 80056ba:	5421      	strb	r1, [r4, r0]
 80056bc:	881b      	ldrh	r3, [r3, #0]
 80056be:	0020      	movs	r0, r4
 80056c0:	089b      	lsrs	r3, r3, #2
 80056c2:	4013      	ands	r3, r2
 80056c4:	22b3      	movs	r2, #179	@ 0xb3
 80056c6:	0092      	lsls	r2, r2, #2
 80056c8:	50a3      	str	r3, [r4, r2]
 80056ca:	f000 f94a 	bl	8005962 <HAL_PCDEx_LPM_Callback>
 80056ce:	f7ff fb61 	bl	8004d94 <HAL_PCD_IRQHandler+0x28>
 80056d2:	0583      	lsls	r3, r0, #22
 80056d4:	d50a      	bpl.n	80056ec <HAL_PCD_IRQHandler+0x980>
 80056d6:	6823      	ldr	r3, [r4, #0]
 80056d8:	4915      	ldr	r1, [pc, #84]	@ (8005730 <HAL_PCD_IRQHandler+0x9c4>)
 80056da:	3306      	adds	r3, #6
 80056dc:	8fda      	ldrh	r2, [r3, #62]	@ 0x3e
 80056de:	0020      	movs	r0, r4
 80056e0:	400a      	ands	r2, r1
 80056e2:	87da      	strh	r2, [r3, #62]	@ 0x3e
 80056e4:	f002 fe52 	bl	800838c <HAL_PCD_SOFCallback>
 80056e8:	f7ff fb54 	bl	8004d94 <HAL_PCD_IRQHandler+0x28>
 80056ec:	05c0      	lsls	r0, r0, #23
 80056ee:	d401      	bmi.n	80056f4 <HAL_PCD_IRQHandler+0x988>
 80056f0:	f7ff fb50 	bl	8004d94 <HAL_PCD_IRQHandler+0x28>
 80056f4:	6823      	ldr	r3, [r4, #0]
 80056f6:	490f      	ldr	r1, [pc, #60]	@ (8005734 <HAL_PCD_IRQHandler+0x9c8>)
 80056f8:	3306      	adds	r3, #6
 80056fa:	8fda      	ldrh	r2, [r3, #62]	@ 0x3e
 80056fc:	e782      	b.n	8005604 <HAL_PCD_IRQHandler+0x898>
 80056fe:	46c0      	nop			@ (mov r8, r8)
 8005700:	00000406 	.word	0x00000406
 8005704:	00000402 	.word	0x00000402
 8005708:	ffff8000 	.word	0xffff8000
 800570c:	ffff8fbf 	.word	0xffff8fbf
 8005710:	00008080 	.word	0x00008080
 8005714:	ffff8f8f 	.word	0xffff8f8f
 8005718:	0000c080 	.word	0x0000c080
 800571c:	fffffbff 	.word	0xfffffbff
 8005720:	ffffbfff 	.word	0xffffbfff
 8005724:	ffffdfff 	.word	0xffffdfff
 8005728:	ffffefff 	.word	0xffffefff
 800572c:	fffff7ff 	.word	0xfffff7ff
 8005730:	fffffdff 	.word	0xfffffdff
 8005734:	fffffeff 	.word	0xfffffeff

08005738 <HAL_PCD_EP_Open>:
 8005738:	b570      	push	{r4, r5, r6, lr}
 800573a:	0004      	movs	r4, r0
 800573c:	2007      	movs	r0, #7
 800573e:	000d      	movs	r5, r1
 8005740:	4008      	ands	r0, r1
 8005742:	2128      	movs	r1, #40	@ 0x28
 8005744:	4341      	muls	r1, r0
 8005746:	b26d      	sxtb	r5, r5
 8005748:	1866      	adds	r6, r4, r1
 800574a:	2d00      	cmp	r5, #0
 800574c:	da18      	bge.n	8005780 <HAL_PCD_EP_Open+0x48>
 800574e:	2501      	movs	r5, #1
 8005750:	3110      	adds	r1, #16
 8005752:	1861      	adds	r1, r4, r1
 8005754:	7475      	strb	r5, [r6, #17]
 8005756:	7008      	strb	r0, [r1, #0]
 8005758:	610a      	str	r2, [r1, #16]
 800575a:	70cb      	strb	r3, [r1, #3]
 800575c:	2b02      	cmp	r3, #2
 800575e:	d101      	bne.n	8005764 <HAL_PCD_EP_Open+0x2c>
 8005760:	2300      	movs	r3, #0
 8005762:	710b      	strb	r3, [r1, #4]
 8005764:	25a4      	movs	r5, #164	@ 0xa4
 8005766:	00ad      	lsls	r5, r5, #2
 8005768:	5d63      	ldrb	r3, [r4, r5]
 800576a:	2002      	movs	r0, #2
 800576c:	2b01      	cmp	r3, #1
 800576e:	d006      	beq.n	800577e <HAL_PCD_EP_Open+0x46>
 8005770:	2301      	movs	r3, #1
 8005772:	5563      	strb	r3, [r4, r5]
 8005774:	6820      	ldr	r0, [r4, #0]
 8005776:	f001 faed 	bl	8006d54 <USB_ActivateEndpoint>
 800577a:	2000      	movs	r0, #0
 800577c:	5560      	strb	r0, [r4, r5]
 800577e:	bd70      	pop	{r4, r5, r6, pc}
 8005780:	2500      	movs	r5, #0
 8005782:	3151      	adds	r1, #81	@ 0x51
 8005784:	3652      	adds	r6, #82	@ 0x52
 8005786:	31ff      	adds	r1, #255	@ 0xff
 8005788:	36ff      	adds	r6, #255	@ 0xff
 800578a:	1861      	adds	r1, r4, r1
 800578c:	7035      	strb	r5, [r6, #0]
 800578e:	e7e2      	b.n	8005756 <HAL_PCD_EP_Open+0x1e>

08005790 <HAL_PCD_EP_Close>:
 8005790:	2207      	movs	r2, #7
 8005792:	000b      	movs	r3, r1
 8005794:	400a      	ands	r2, r1
 8005796:	2128      	movs	r1, #40	@ 0x28
 8005798:	4351      	muls	r1, r2
 800579a:	b25b      	sxtb	r3, r3
 800579c:	b570      	push	{r4, r5, r6, lr}
 800579e:	0004      	movs	r4, r0
 80057a0:	1840      	adds	r0, r0, r1
 80057a2:	2b00      	cmp	r3, #0
 80057a4:	da12      	bge.n	80057cc <HAL_PCD_EP_Close+0x3c>
 80057a6:	2301      	movs	r3, #1
 80057a8:	3110      	adds	r1, #16
 80057aa:	1861      	adds	r1, r4, r1
 80057ac:	7443      	strb	r3, [r0, #17]
 80057ae:	25a4      	movs	r5, #164	@ 0xa4
 80057b0:	700a      	strb	r2, [r1, #0]
 80057b2:	00ad      	lsls	r5, r5, #2
 80057b4:	5d63      	ldrb	r3, [r4, r5]
 80057b6:	2002      	movs	r0, #2
 80057b8:	2b01      	cmp	r3, #1
 80057ba:	d006      	beq.n	80057ca <HAL_PCD_EP_Close+0x3a>
 80057bc:	2301      	movs	r3, #1
 80057be:	5563      	strb	r3, [r4, r5]
 80057c0:	6820      	ldr	r0, [r4, #0]
 80057c2:	f001 fbd7 	bl	8006f74 <USB_DeactivateEndpoint>
 80057c6:	2000      	movs	r0, #0
 80057c8:	5560      	strb	r0, [r4, r5]
 80057ca:	bd70      	pop	{r4, r5, r6, pc}
 80057cc:	2300      	movs	r3, #0
 80057ce:	3151      	adds	r1, #81	@ 0x51
 80057d0:	3052      	adds	r0, #82	@ 0x52
 80057d2:	31ff      	adds	r1, #255	@ 0xff
 80057d4:	30ff      	adds	r0, #255	@ 0xff
 80057d6:	1861      	adds	r1, r4, r1
 80057d8:	7003      	strb	r3, [r0, #0]
 80057da:	e7e8      	b.n	80057ae <HAL_PCD_EP_Close+0x1e>

080057dc <HAL_PCD_EP_Receive>:
 80057dc:	b5f8      	push	{r3, r4, r5, r6, r7, lr}
 80057de:	2407      	movs	r4, #7
 80057e0:	4021      	ands	r1, r4
 80057e2:	3421      	adds	r4, #33	@ 0x21
 80057e4:	434c      	muls	r4, r1
 80057e6:	1906      	adds	r6, r0, r4
 80057e8:	0037      	movs	r7, r6
 80057ea:	37fc      	adds	r7, #252	@ 0xfc
 80057ec:	66fb      	str	r3, [r7, #108]	@ 0x6c
 80057ee:	0033      	movs	r3, r6
 80057f0:	2500      	movs	r5, #0
 80057f2:	3352      	adds	r3, #82	@ 0x52
 80057f4:	3651      	adds	r6, #81	@ 0x51
 80057f6:	3451      	adds	r4, #81	@ 0x51
 80057f8:	33ff      	adds	r3, #255	@ 0xff
 80057fa:	36ff      	adds	r6, #255	@ 0xff
 80057fc:	34ff      	adds	r4, #255	@ 0xff
 80057fe:	673d      	str	r5, [r7, #112]	@ 0x70
 8005800:	66ba      	str	r2, [r7, #104]	@ 0x68
 8005802:	701d      	strb	r5, [r3, #0]
 8005804:	7031      	strb	r1, [r6, #0]
 8005806:	1901      	adds	r1, r0, r4
 8005808:	6800      	ldr	r0, [r0, #0]
 800580a:	f001 fcb1 	bl	8007170 <USB_EPStartXfer>
 800580e:	0028      	movs	r0, r5
 8005810:	bdf8      	pop	{r3, r4, r5, r6, r7, pc}

08005812 <HAL_PCD_EP_GetRxCount>:
 8005812:	2307      	movs	r3, #7
 8005814:	400b      	ands	r3, r1
 8005816:	2128      	movs	r1, #40	@ 0x28
 8005818:	4359      	muls	r1, r3
 800581a:	1840      	adds	r0, r0, r1
 800581c:	30fc      	adds	r0, #252	@ 0xfc
 800581e:	6f00      	ldr	r0, [r0, #112]	@ 0x70
 8005820:	4770      	bx	lr

08005822 <HAL_PCD_EP_Transmit>:
 8005822:	b570      	push	{r4, r5, r6, lr}
 8005824:	2407      	movs	r4, #7
 8005826:	4021      	ands	r1, r4
 8005828:	3421      	adds	r4, #33	@ 0x21
 800582a:	434c      	muls	r4, r1
 800582c:	1906      	adds	r6, r0, r4
 800582e:	0035      	movs	r5, r6
 8005830:	6272      	str	r2, [r6, #36]	@ 0x24
 8005832:	2201      	movs	r2, #1
 8005834:	3534      	adds	r5, #52	@ 0x34
 8005836:	62b3      	str	r3, [r6, #40]	@ 0x28
 8005838:	702a      	strb	r2, [r5, #0]
 800583a:	2500      	movs	r5, #0
 800583c:	3410      	adds	r4, #16
 800583e:	62f5      	str	r5, [r6, #44]	@ 0x2c
 8005840:	7431      	strb	r1, [r6, #16]
 8005842:	6333      	str	r3, [r6, #48]	@ 0x30
 8005844:	7472      	strb	r2, [r6, #17]
 8005846:	1901      	adds	r1, r0, r4
 8005848:	6800      	ldr	r0, [r0, #0]
 800584a:	f001 fc91 	bl	8007170 <USB_EPStartXfer>
 800584e:	0028      	movs	r0, r5
 8005850:	bd70      	pop	{r4, r5, r6, pc}

08005852 <HAL_PCD_EP_SetStall>:
 8005852:	2207      	movs	r2, #7
 8005854:	b570      	push	{r4, r5, r6, lr}
 8005856:	7903      	ldrb	r3, [r0, #4]
 8005858:	0004      	movs	r4, r0
 800585a:	400a      	ands	r2, r1
 800585c:	2001      	movs	r0, #1
 800585e:	4293      	cmp	r3, r2
 8005860:	d319      	bcc.n	8005896 <HAL_PCD_EP_SetStall+0x44>
 8005862:	b248      	sxtb	r0, r1
 8005864:	2328      	movs	r3, #40	@ 0x28
 8005866:	2800      	cmp	r0, #0
 8005868:	da16      	bge.n	8005898 <HAL_PCD_EP_SetStall+0x46>
 800586a:	4353      	muls	r3, r2
 800586c:	0019      	movs	r1, r3
 800586e:	2001      	movs	r0, #1
 8005870:	3110      	adds	r1, #16
 8005872:	18e3      	adds	r3, r4, r3
 8005874:	1861      	adds	r1, r4, r1
 8005876:	7458      	strb	r0, [r3, #17]
 8005878:	2301      	movs	r3, #1
 800587a:	25a4      	movs	r5, #164	@ 0xa4
 800587c:	708b      	strb	r3, [r1, #2]
 800587e:	700a      	strb	r2, [r1, #0]
 8005880:	00ad      	lsls	r5, r5, #2
 8005882:	5d62      	ldrb	r2, [r4, r5]
 8005884:	2002      	movs	r0, #2
 8005886:	429a      	cmp	r2, r3
 8005888:	d005      	beq.n	8005896 <HAL_PCD_EP_SetStall+0x44>
 800588a:	5563      	strb	r3, [r4, r5]
 800588c:	6820      	ldr	r0, [r4, #0]
 800588e:	f001 fbeb 	bl	8007068 <USB_EPSetStall>
 8005892:	2000      	movs	r0, #0
 8005894:	5560      	strb	r0, [r4, r5]
 8005896:	bd70      	pop	{r4, r5, r6, pc}
 8005898:	434b      	muls	r3, r1
 800589a:	0019      	movs	r1, r3
 800589c:	2000      	movs	r0, #0
 800589e:	18e3      	adds	r3, r4, r3
 80058a0:	3151      	adds	r1, #81	@ 0x51
 80058a2:	3352      	adds	r3, #82	@ 0x52
 80058a4:	31ff      	adds	r1, #255	@ 0xff
 80058a6:	33ff      	adds	r3, #255	@ 0xff
 80058a8:	1861      	adds	r1, r4, r1
 80058aa:	7018      	strb	r0, [r3, #0]
 80058ac:	e7e4      	b.n	8005878 <HAL_PCD_EP_SetStall+0x26>

080058ae <HAL_PCD_EP_ClrStall>:
 80058ae:	000b      	movs	r3, r1
 80058b0:	220f      	movs	r2, #15
 80058b2:	b570      	push	{r4, r5, r6, lr}
 80058b4:	7901      	ldrb	r1, [r0, #4]
 80058b6:	0004      	movs	r4, r0
 80058b8:	401a      	ands	r2, r3
 80058ba:	2001      	movs	r0, #1
 80058bc:	4291      	cmp	r1, r2
 80058be:	d31b      	bcc.n	80058f8 <HAL_PCD_EP_ClrStall+0x4a>
 80058c0:	2207      	movs	r2, #7
 80058c2:	2128      	movs	r1, #40	@ 0x28
 80058c4:	401a      	ands	r2, r3
 80058c6:	4351      	muls	r1, r2
 80058c8:	b25b      	sxtb	r3, r3
 80058ca:	1860      	adds	r0, r4, r1
 80058cc:	2b00      	cmp	r3, #0
 80058ce:	da14      	bge.n	80058fa <HAL_PCD_EP_ClrStall+0x4c>
 80058d0:	2301      	movs	r3, #1
 80058d2:	3110      	adds	r1, #16
 80058d4:	1861      	adds	r1, r4, r1
 80058d6:	7443      	strb	r3, [r0, #17]
 80058d8:	2500      	movs	r5, #0
 80058da:	26a4      	movs	r6, #164	@ 0xa4
 80058dc:	708d      	strb	r5, [r1, #2]
 80058de:	700a      	strb	r2, [r1, #0]
 80058e0:	00b6      	lsls	r6, r6, #2
 80058e2:	5da3      	ldrb	r3, [r4, r6]
 80058e4:	2002      	movs	r0, #2
 80058e6:	2b01      	cmp	r3, #1
 80058e8:	d006      	beq.n	80058f8 <HAL_PCD_EP_ClrStall+0x4a>
 80058ea:	2301      	movs	r3, #1
 80058ec:	55a3      	strb	r3, [r4, r6]
 80058ee:	6820      	ldr	r0, [r4, #0]
 80058f0:	f001 fbdc 	bl	80070ac <USB_EPClearStall>
 80058f4:	0028      	movs	r0, r5
 80058f6:	55a5      	strb	r5, [r4, r6]
 80058f8:	bd70      	pop	{r4, r5, r6, pc}
 80058fa:	2300      	movs	r3, #0
 80058fc:	3151      	adds	r1, #81	@ 0x51
 80058fe:	3052      	adds	r0, #82	@ 0x52
 8005900:	31ff      	adds	r1, #255	@ 0xff
 8005902:	30ff      	adds	r0, #255	@ 0xff
 8005904:	1861      	adds	r1, r4, r1
 8005906:	7003      	strb	r3, [r0, #0]
 8005908:	e7e6      	b.n	80058d8 <HAL_PCD_EP_ClrStall+0x2a>

0800590a <HAL_PCDEx_PMAConfig>:
 800590a:	b530      	push	{r4, r5, lr}
 800590c:	2428      	movs	r4, #40	@ 0x28
 800590e:	060d      	lsls	r5, r1, #24
 8005910:	d50b      	bpl.n	800592a <HAL_PCDEx_PMAConfig+0x20>
 8005912:	2507      	movs	r5, #7
 8005914:	4029      	ands	r1, r5
 8005916:	434c      	muls	r4, r1
 8005918:	3410      	adds	r4, #16
 800591a:	1900      	adds	r0, r0, r4
 800591c:	b299      	uxth	r1, r3
 800591e:	2a00      	cmp	r2, #0
 8005920:	d107      	bne.n	8005932 <HAL_PCDEx_PMAConfig+0x28>
 8005922:	7302      	strb	r2, [r0, #12]
 8005924:	80c1      	strh	r1, [r0, #6]
 8005926:	2000      	movs	r0, #0
 8005928:	bd30      	pop	{r4, r5, pc}
 800592a:	434c      	muls	r4, r1
 800592c:	3451      	adds	r4, #81	@ 0x51
 800592e:	34ff      	adds	r4, #255	@ 0xff
 8005930:	e7f3      	b.n	800591a <HAL_PCDEx_PMAConfig+0x10>
 8005932:	2201      	movs	r2, #1
 8005934:	6083      	str	r3, [r0, #8]
 8005936:	7302      	strb	r2, [r0, #12]
 8005938:	e7f5      	b.n	8005926 <HAL_PCDEx_PMAConfig+0x1c>

0800593a <HAL_PCDEx_ActivateLPM>:
 800593a:	6803      	ldr	r3, [r0, #0]
 800593c:	0002      	movs	r2, r0
 800593e:	20b4      	movs	r0, #180	@ 0xb4
 8005940:	2101      	movs	r1, #1
 8005942:	b510      	push	{r4, lr}
 8005944:	0080      	lsls	r0, r0, #2
 8005946:	24b2      	movs	r4, #178	@ 0xb2
 8005948:	5011      	str	r1, [r2, r0]
 800594a:	2000      	movs	r0, #0
 800594c:	00a4      	lsls	r4, r4, #2
 800594e:	5510      	strb	r0, [r2, r4]
 8005950:	3354      	adds	r3, #84	@ 0x54
 8005952:	881a      	ldrh	r2, [r3, #0]
 8005954:	4311      	orrs	r1, r2
 8005956:	2202      	movs	r2, #2
 8005958:	8019      	strh	r1, [r3, #0]
 800595a:	8819      	ldrh	r1, [r3, #0]
 800595c:	430a      	orrs	r2, r1
 800595e:	801a      	strh	r2, [r3, #0]
 8005960:	bd10      	pop	{r4, pc}

08005962 <HAL_PCDEx_LPM_Callback>:
 8005962:	4770      	bx	lr

08005964 <HAL_RCC_OscConfig>:
 8005964:	b5f0      	push	{r4, r5, r6, r7, lr}
 8005966:	0004      	movs	r4, r0
 8005968:	b085      	sub	sp, #20
 800596a:	2800      	cmp	r0, #0
 800596c:	d102      	bne.n	8005974 <HAL_RCC_OscConfig+0x10>
 800596e:	2001      	movs	r0, #1
 8005970:	b005      	add	sp, #20
 8005972:	bdf0      	pop	{r4, r5, r6, r7, pc}
 8005974:	6803      	ldr	r3, [r0, #0]
 8005976:	07db      	lsls	r3, r3, #31
 8005978:	d433      	bmi.n	80059e2 <HAL_RCC_OscConfig+0x7e>
 800597a:	6823      	ldr	r3, [r4, #0]
 800597c:	079b      	lsls	r3, r3, #30
 800597e:	d500      	bpl.n	8005982 <HAL_RCC_OscConfig+0x1e>
 8005980:	e087      	b.n	8005a92 <HAL_RCC_OscConfig+0x12e>
 8005982:	6823      	ldr	r3, [r4, #0]
 8005984:	071b      	lsls	r3, r3, #28
 8005986:	d500      	bpl.n	800598a <HAL_RCC_OscConfig+0x26>
 8005988:	e0c8      	b.n	8005b1c <HAL_RCC_OscConfig+0x1b8>
 800598a:	6823      	ldr	r3, [r4, #0]
 800598c:	075b      	lsls	r3, r3, #29
 800598e:	d500      	bpl.n	8005992 <HAL_RCC_OscConfig+0x2e>
 8005990:	e0eb      	b.n	8005b6a <HAL_RCC_OscConfig+0x206>
 8005992:	6823      	ldr	r3, [r4, #0]
 8005994:	06db      	lsls	r3, r3, #27
 8005996:	d51a      	bpl.n	80059ce <HAL_RCC_OscConfig+0x6a>
 8005998:	6962      	ldr	r2, [r4, #20]
 800599a:	2304      	movs	r3, #4
 800599c:	4db9      	ldr	r5, [pc, #740]	@ (8005c84 <HAL_RCC_OscConfig+0x320>)
 800599e:	2a01      	cmp	r2, #1
 80059a0:	d000      	beq.n	80059a4 <HAL_RCC_OscConfig+0x40>
 80059a2:	e154      	b.n	8005c4e <HAL_RCC_OscConfig+0x2ea>
 80059a4:	6b69      	ldr	r1, [r5, #52]	@ 0x34
 80059a6:	2702      	movs	r7, #2
 80059a8:	430b      	orrs	r3, r1
 80059aa:	636b      	str	r3, [r5, #52]	@ 0x34
 80059ac:	6b6b      	ldr	r3, [r5, #52]	@ 0x34
 80059ae:	431a      	orrs	r2, r3
 80059b0:	636a      	str	r2, [r5, #52]	@ 0x34
 80059b2:	f7fe f911 	bl	8003bd8 <HAL_GetTick>
 80059b6:	0006      	movs	r6, r0
 80059b8:	6b6b      	ldr	r3, [r5, #52]	@ 0x34
 80059ba:	423b      	tst	r3, r7
 80059bc:	d100      	bne.n	80059c0 <HAL_RCC_OscConfig+0x5c>
 80059be:	e13f      	b.n	8005c40 <HAL_RCC_OscConfig+0x2dc>
 80059c0:	21f8      	movs	r1, #248	@ 0xf8
 80059c2:	6b6a      	ldr	r2, [r5, #52]	@ 0x34
 80059c4:	69a3      	ldr	r3, [r4, #24]
 80059c6:	438a      	bics	r2, r1
 80059c8:	00db      	lsls	r3, r3, #3
 80059ca:	4313      	orrs	r3, r2
 80059cc:	636b      	str	r3, [r5, #52]	@ 0x34
 80059ce:	6823      	ldr	r3, [r4, #0]
 80059d0:	069b      	lsls	r3, r3, #26
 80059d2:	d500      	bpl.n	80059d6 <HAL_RCC_OscConfig+0x72>
 80059d4:	e162      	b.n	8005c9c <HAL_RCC_OscConfig+0x338>
 80059d6:	6a63      	ldr	r3, [r4, #36]	@ 0x24
 80059d8:	2b00      	cmp	r3, #0
 80059da:	d000      	beq.n	80059de <HAL_RCC_OscConfig+0x7a>
 80059dc:	e1a1      	b.n	8005d22 <HAL_RCC_OscConfig+0x3be>
 80059de:	2000      	movs	r0, #0
 80059e0:	e7c6      	b.n	8005970 <HAL_RCC_OscConfig+0xc>
 80059e2:	220c      	movs	r2, #12
 80059e4:	4da7      	ldr	r5, [pc, #668]	@ (8005c84 <HAL_RCC_OscConfig+0x320>)
 80059e6:	686b      	ldr	r3, [r5, #4]
 80059e8:	4013      	ands	r3, r2
 80059ea:	2b04      	cmp	r3, #4
 80059ec:	d00b      	beq.n	8005a06 <HAL_RCC_OscConfig+0xa2>
 80059ee:	686b      	ldr	r3, [r5, #4]
 80059f0:	4013      	ands	r3, r2
 80059f2:	2b08      	cmp	r3, #8
 80059f4:	d10e      	bne.n	8005a14 <HAL_RCC_OscConfig+0xb0>
 80059f6:	22c0      	movs	r2, #192	@ 0xc0
 80059f8:	686b      	ldr	r3, [r5, #4]
 80059fa:	0252      	lsls	r2, r2, #9
 80059fc:	4013      	ands	r3, r2
 80059fe:	2280      	movs	r2, #128	@ 0x80
 8005a00:	0252      	lsls	r2, r2, #9
 8005a02:	4293      	cmp	r3, r2
 8005a04:	d106      	bne.n	8005a14 <HAL_RCC_OscConfig+0xb0>
 8005a06:	682b      	ldr	r3, [r5, #0]
 8005a08:	039b      	lsls	r3, r3, #14
 8005a0a:	d5b6      	bpl.n	800597a <HAL_RCC_OscConfig+0x16>
 8005a0c:	6863      	ldr	r3, [r4, #4]
 8005a0e:	2b00      	cmp	r3, #0
 8005a10:	d1b3      	bne.n	800597a <HAL_RCC_OscConfig+0x16>
 8005a12:	e7ac      	b.n	800596e <HAL_RCC_OscConfig+0xa>
 8005a14:	6863      	ldr	r3, [r4, #4]
 8005a16:	2b01      	cmp	r3, #1
 8005a18:	d113      	bne.n	8005a42 <HAL_RCC_OscConfig+0xde>
 8005a1a:	2380      	movs	r3, #128	@ 0x80
 8005a1c:	682a      	ldr	r2, [r5, #0]
 8005a1e:	025b      	lsls	r3, r3, #9
 8005a20:	4313      	orrs	r3, r2
 8005a22:	602b      	str	r3, [r5, #0]
 8005a24:	f7fe f8d8 	bl	8003bd8 <HAL_GetTick>
 8005a28:	2780      	movs	r7, #128	@ 0x80
 8005a2a:	0006      	movs	r6, r0
 8005a2c:	02bf      	lsls	r7, r7, #10
 8005a2e:	682b      	ldr	r3, [r5, #0]
 8005a30:	423b      	tst	r3, r7
 8005a32:	d1a2      	bne.n	800597a <HAL_RCC_OscConfig+0x16>
 8005a34:	f7fe f8d0 	bl	8003bd8 <HAL_GetTick>
 8005a38:	1b80      	subs	r0, r0, r6
 8005a3a:	2864      	cmp	r0, #100	@ 0x64
 8005a3c:	d9f7      	bls.n	8005a2e <HAL_RCC_OscConfig+0xca>
 8005a3e:	2003      	movs	r0, #3
 8005a40:	e796      	b.n	8005970 <HAL_RCC_OscConfig+0xc>
 8005a42:	2b00      	cmp	r3, #0
 8005a44:	d115      	bne.n	8005a72 <HAL_RCC_OscConfig+0x10e>
 8005a46:	682b      	ldr	r3, [r5, #0]
 8005a48:	4a8f      	ldr	r2, [pc, #572]	@ (8005c88 <HAL_RCC_OscConfig+0x324>)
 8005a4a:	2780      	movs	r7, #128	@ 0x80
 8005a4c:	4013      	ands	r3, r2
 8005a4e:	602b      	str	r3, [r5, #0]
 8005a50:	682b      	ldr	r3, [r5, #0]
 8005a52:	4a8e      	ldr	r2, [pc, #568]	@ (8005c8c <HAL_RCC_OscConfig+0x328>)
 8005a54:	02bf      	lsls	r7, r7, #10
 8005a56:	4013      	ands	r3, r2
 8005a58:	602b      	str	r3, [r5, #0]
 8005a5a:	f7fe f8bd 	bl	8003bd8 <HAL_GetTick>
 8005a5e:	0006      	movs	r6, r0
 8005a60:	682b      	ldr	r3, [r5, #0]
 8005a62:	423b      	tst	r3, r7
 8005a64:	d089      	beq.n	800597a <HAL_RCC_OscConfig+0x16>
 8005a66:	f7fe f8b7 	bl	8003bd8 <HAL_GetTick>
 8005a6a:	1b80      	subs	r0, r0, r6
 8005a6c:	2864      	cmp	r0, #100	@ 0x64
 8005a6e:	d9f7      	bls.n	8005a60 <HAL_RCC_OscConfig+0xfc>
 8005a70:	e7e5      	b.n	8005a3e <HAL_RCC_OscConfig+0xda>
 8005a72:	2b05      	cmp	r3, #5
 8005a74:	d105      	bne.n	8005a82 <HAL_RCC_OscConfig+0x11e>
 8005a76:	2380      	movs	r3, #128	@ 0x80
 8005a78:	682a      	ldr	r2, [r5, #0]
 8005a7a:	02db      	lsls	r3, r3, #11
 8005a7c:	4313      	orrs	r3, r2
 8005a7e:	602b      	str	r3, [r5, #0]
 8005a80:	e7cb      	b.n	8005a1a <HAL_RCC_OscConfig+0xb6>
 8005a82:	682b      	ldr	r3, [r5, #0]
 8005a84:	4a80      	ldr	r2, [pc, #512]	@ (8005c88 <HAL_RCC_OscConfig+0x324>)
 8005a86:	4013      	ands	r3, r2
 8005a88:	602b      	str	r3, [r5, #0]
 8005a8a:	682b      	ldr	r3, [r5, #0]
 8005a8c:	4a7f      	ldr	r2, [pc, #508]	@ (8005c8c <HAL_RCC_OscConfig+0x328>)
 8005a8e:	4013      	ands	r3, r2
 8005a90:	e7c7      	b.n	8005a22 <HAL_RCC_OscConfig+0xbe>
 8005a92:	220c      	movs	r2, #12
 8005a94:	4d7b      	ldr	r5, [pc, #492]	@ (8005c84 <HAL_RCC_OscConfig+0x320>)
 8005a96:	686b      	ldr	r3, [r5, #4]
 8005a98:	4213      	tst	r3, r2
 8005a9a:	d00b      	beq.n	8005ab4 <HAL_RCC_OscConfig+0x150>
 8005a9c:	686b      	ldr	r3, [r5, #4]
 8005a9e:	4013      	ands	r3, r2
 8005aa0:	2b08      	cmp	r3, #8
 8005aa2:	d116      	bne.n	8005ad2 <HAL_RCC_OscConfig+0x16e>
 8005aa4:	22c0      	movs	r2, #192	@ 0xc0
 8005aa6:	686b      	ldr	r3, [r5, #4]
 8005aa8:	0252      	lsls	r2, r2, #9
 8005aaa:	4013      	ands	r3, r2
 8005aac:	2280      	movs	r2, #128	@ 0x80
 8005aae:	0212      	lsls	r2, r2, #8
 8005ab0:	4293      	cmp	r3, r2
 8005ab2:	d10e      	bne.n	8005ad2 <HAL_RCC_OscConfig+0x16e>
 8005ab4:	682b      	ldr	r3, [r5, #0]
 8005ab6:	079b      	lsls	r3, r3, #30
 8005ab8:	d503      	bpl.n	8005ac2 <HAL_RCC_OscConfig+0x15e>
 8005aba:	68e3      	ldr	r3, [r4, #12]
 8005abc:	2b01      	cmp	r3, #1
 8005abe:	d000      	beq.n	8005ac2 <HAL_RCC_OscConfig+0x15e>
 8005ac0:	e755      	b.n	800596e <HAL_RCC_OscConfig+0xa>
 8005ac2:	21f8      	movs	r1, #248	@ 0xf8
 8005ac4:	682a      	ldr	r2, [r5, #0]
 8005ac6:	6923      	ldr	r3, [r4, #16]
 8005ac8:	438a      	bics	r2, r1
 8005aca:	00db      	lsls	r3, r3, #3
 8005acc:	4313      	orrs	r3, r2
 8005ace:	602b      	str	r3, [r5, #0]
 8005ad0:	e757      	b.n	8005982 <HAL_RCC_OscConfig+0x1e>
 8005ad2:	68e2      	ldr	r2, [r4, #12]
 8005ad4:	2301      	movs	r3, #1
 8005ad6:	2a00      	cmp	r2, #0
 8005ad8:	d00f      	beq.n	8005afa <HAL_RCC_OscConfig+0x196>
 8005ada:	682a      	ldr	r2, [r5, #0]
 8005adc:	2702      	movs	r7, #2
 8005ade:	4313      	orrs	r3, r2
 8005ae0:	602b      	str	r3, [r5, #0]
 8005ae2:	f7fe f879 	bl	8003bd8 <HAL_GetTick>
 8005ae6:	0006      	movs	r6, r0
 8005ae8:	682b      	ldr	r3, [r5, #0]
 8005aea:	423b      	tst	r3, r7
 8005aec:	d1e9      	bne.n	8005ac2 <HAL_RCC_OscConfig+0x15e>
 8005aee:	f7fe f873 	bl	8003bd8 <HAL_GetTick>
 8005af2:	1b80      	subs	r0, r0, r6
 8005af4:	2802      	cmp	r0, #2
 8005af6:	d9f7      	bls.n	8005ae8 <HAL_RCC_OscConfig+0x184>
 8005af8:	e7a1      	b.n	8005a3e <HAL_RCC_OscConfig+0xda>
 8005afa:	682a      	ldr	r2, [r5, #0]
 8005afc:	2702      	movs	r7, #2
 8005afe:	439a      	bics	r2, r3
 8005b00:	602a      	str	r2, [r5, #0]
 8005b02:	f7fe f869 	bl	8003bd8 <HAL_GetTick>
 8005b06:	0006      	movs	r6, r0
 8005b08:	682b      	ldr	r3, [r5, #0]
 8005b0a:	423b      	tst	r3, r7
 8005b0c:	d100      	bne.n	8005b10 <HAL_RCC_OscConfig+0x1ac>
 8005b0e:	e738      	b.n	8005982 <HAL_RCC_OscConfig+0x1e>
 8005b10:	f7fe f862 	bl	8003bd8 <HAL_GetTick>
 8005b14:	1b80      	subs	r0, r0, r6
 8005b16:	2802      	cmp	r0, #2
 8005b18:	d9f6      	bls.n	8005b08 <HAL_RCC_OscConfig+0x1a4>
 8005b1a:	e790      	b.n	8005a3e <HAL_RCC_OscConfig+0xda>
 8005b1c:	69e2      	ldr	r2, [r4, #28]
 8005b1e:	2301      	movs	r3, #1
 8005b20:	4d58      	ldr	r5, [pc, #352]	@ (8005c84 <HAL_RCC_OscConfig+0x320>)
 8005b22:	2a00      	cmp	r2, #0
 8005b24:	d010      	beq.n	8005b48 <HAL_RCC_OscConfig+0x1e4>
 8005b26:	6a6a      	ldr	r2, [r5, #36]	@ 0x24
 8005b28:	2702      	movs	r7, #2
 8005b2a:	4313      	orrs	r3, r2
 8005b2c:	626b      	str	r3, [r5, #36]	@ 0x24
 8005b2e:	f7fe f853 	bl	8003bd8 <HAL_GetTick>
 8005b32:	0006      	movs	r6, r0
 8005b34:	6a6b      	ldr	r3, [r5, #36]	@ 0x24
 8005b36:	423b      	tst	r3, r7
 8005b38:	d000      	beq.n	8005b3c <HAL_RCC_OscConfig+0x1d8>
 8005b3a:	e726      	b.n	800598a <HAL_RCC_OscConfig+0x26>
 8005b3c:	f7fe f84c 	bl	8003bd8 <HAL_GetTick>
 8005b40:	1b80      	subs	r0, r0, r6
 8005b42:	2802      	cmp	r0, #2
 8005b44:	d9f6      	bls.n	8005b34 <HAL_RCC_OscConfig+0x1d0>
 8005b46:	e77a      	b.n	8005a3e <HAL_RCC_OscConfig+0xda>
 8005b48:	6a6a      	ldr	r2, [r5, #36]	@ 0x24
 8005b4a:	2702      	movs	r7, #2
 8005b4c:	439a      	bics	r2, r3
 8005b4e:	626a      	str	r2, [r5, #36]	@ 0x24
 8005b50:	f7fe f842 	bl	8003bd8 <HAL_GetTick>
 8005b54:	0006      	movs	r6, r0
 8005b56:	6a6b      	ldr	r3, [r5, #36]	@ 0x24
 8005b58:	423b      	tst	r3, r7
 8005b5a:	d100      	bne.n	8005b5e <HAL_RCC_OscConfig+0x1fa>
 8005b5c:	e715      	b.n	800598a <HAL_RCC_OscConfig+0x26>
 8005b5e:	f7fe f83b 	bl	8003bd8 <HAL_GetTick>
 8005b62:	1b80      	subs	r0, r0, r6
 8005b64:	2802      	cmp	r0, #2
 8005b66:	d9f6      	bls.n	8005b56 <HAL_RCC_OscConfig+0x1f2>
 8005b68:	e769      	b.n	8005a3e <HAL_RCC_OscConfig+0xda>
 8005b6a:	2280      	movs	r2, #128	@ 0x80
 8005b6c:	2100      	movs	r1, #0
 8005b6e:	4d45      	ldr	r5, [pc, #276]	@ (8005c84 <HAL_RCC_OscConfig+0x320>)
 8005b70:	0552      	lsls	r2, r2, #21
 8005b72:	69eb      	ldr	r3, [r5, #28]
 8005b74:	9100      	str	r1, [sp, #0]
 8005b76:	4213      	tst	r3, r2
 8005b78:	d108      	bne.n	8005b8c <HAL_RCC_OscConfig+0x228>
 8005b7a:	69eb      	ldr	r3, [r5, #28]
 8005b7c:	4313      	orrs	r3, r2
 8005b7e:	61eb      	str	r3, [r5, #28]
 8005b80:	69eb      	ldr	r3, [r5, #28]
 8005b82:	4013      	ands	r3, r2
 8005b84:	9303      	str	r3, [sp, #12]
 8005b86:	9b03      	ldr	r3, [sp, #12]
 8005b88:	2301      	movs	r3, #1
 8005b8a:	9300      	str	r3, [sp, #0]
 8005b8c:	2780      	movs	r7, #128	@ 0x80
 8005b8e:	4e40      	ldr	r6, [pc, #256]	@ (8005c90 <HAL_RCC_OscConfig+0x32c>)
 8005b90:	007f      	lsls	r7, r7, #1
 8005b92:	6833      	ldr	r3, [r6, #0]
 8005b94:	423b      	tst	r3, r7
 8005b96:	d015      	beq.n	8005bc4 <HAL_RCC_OscConfig+0x260>
 8005b98:	68a3      	ldr	r3, [r4, #8]
 8005b9a:	2b01      	cmp	r3, #1
 8005b9c:	d122      	bne.n	8005be4 <HAL_RCC_OscConfig+0x280>
 8005b9e:	6a2a      	ldr	r2, [r5, #32]
 8005ba0:	4313      	orrs	r3, r2
 8005ba2:	622b      	str	r3, [r5, #32]
 8005ba4:	f7fe f818 	bl	8003bd8 <HAL_GetTick>
 8005ba8:	2702      	movs	r7, #2
 8005baa:	0006      	movs	r6, r0
 8005bac:	6a2b      	ldr	r3, [r5, #32]
 8005bae:	423b      	tst	r3, r7
 8005bb0:	d03f      	beq.n	8005c32 <HAL_RCC_OscConfig+0x2ce>
 8005bb2:	9b00      	ldr	r3, [sp, #0]
 8005bb4:	2b01      	cmp	r3, #1
 8005bb6:	d000      	beq.n	8005bba <HAL_RCC_OscConfig+0x256>
 8005bb8:	e6eb      	b.n	8005992 <HAL_RCC_OscConfig+0x2e>
 8005bba:	69eb      	ldr	r3, [r5, #28]
 8005bbc:	4a35      	ldr	r2, [pc, #212]	@ (8005c94 <HAL_RCC_OscConfig+0x330>)
 8005bbe:	4013      	ands	r3, r2
 8005bc0:	61eb      	str	r3, [r5, #28]
 8005bc2:	e6e6      	b.n	8005992 <HAL_RCC_OscConfig+0x2e>
 8005bc4:	6833      	ldr	r3, [r6, #0]
 8005bc6:	433b      	orrs	r3, r7
 8005bc8:	6033      	str	r3, [r6, #0]
 8005bca:	f7fe f805 	bl	8003bd8 <HAL_GetTick>
 8005bce:	9001      	str	r0, [sp, #4]
 8005bd0:	6833      	ldr	r3, [r6, #0]
 8005bd2:	423b      	tst	r3, r7
 8005bd4:	d1e0      	bne.n	8005b98 <HAL_RCC_OscConfig+0x234>
 8005bd6:	f7fd ffff 	bl	8003bd8 <HAL_GetTick>
 8005bda:	9b01      	ldr	r3, [sp, #4]
 8005bdc:	1ac0      	subs	r0, r0, r3
 8005bde:	2864      	cmp	r0, #100	@ 0x64
 8005be0:	d9f6      	bls.n	8005bd0 <HAL_RCC_OscConfig+0x26c>
 8005be2:	e72c      	b.n	8005a3e <HAL_RCC_OscConfig+0xda>
 8005be4:	2201      	movs	r2, #1
 8005be6:	2b00      	cmp	r3, #0
 8005be8:	d114      	bne.n	8005c14 <HAL_RCC_OscConfig+0x2b0>
 8005bea:	6a2b      	ldr	r3, [r5, #32]
 8005bec:	2702      	movs	r7, #2
 8005bee:	4393      	bics	r3, r2
 8005bf0:	622b      	str	r3, [r5, #32]
 8005bf2:	6a2b      	ldr	r3, [r5, #32]
 8005bf4:	3203      	adds	r2, #3
 8005bf6:	4393      	bics	r3, r2
 8005bf8:	622b      	str	r3, [r5, #32]
 8005bfa:	f7fd ffed 	bl	8003bd8 <HAL_GetTick>
 8005bfe:	0006      	movs	r6, r0
 8005c00:	6a2b      	ldr	r3, [r5, #32]
 8005c02:	423b      	tst	r3, r7
 8005c04:	d0d5      	beq.n	8005bb2 <HAL_RCC_OscConfig+0x24e>
 8005c06:	f7fd ffe7 	bl	8003bd8 <HAL_GetTick>
 8005c0a:	4b23      	ldr	r3, [pc, #140]	@ (8005c98 <HAL_RCC_OscConfig+0x334>)
 8005c0c:	1b80      	subs	r0, r0, r6
 8005c0e:	4298      	cmp	r0, r3
 8005c10:	d9f6      	bls.n	8005c00 <HAL_RCC_OscConfig+0x29c>
 8005c12:	e714      	b.n	8005a3e <HAL_RCC_OscConfig+0xda>
 8005c14:	2b05      	cmp	r3, #5
 8005c16:	d105      	bne.n	8005c24 <HAL_RCC_OscConfig+0x2c0>
 8005c18:	6a29      	ldr	r1, [r5, #32]
 8005c1a:	3b01      	subs	r3, #1
 8005c1c:	430b      	orrs	r3, r1
 8005c1e:	622b      	str	r3, [r5, #32]
 8005c20:	6a2b      	ldr	r3, [r5, #32]
 8005c22:	e7bd      	b.n	8005ba0 <HAL_RCC_OscConfig+0x23c>
 8005c24:	6a2b      	ldr	r3, [r5, #32]
 8005c26:	4393      	bics	r3, r2
 8005c28:	2204      	movs	r2, #4
 8005c2a:	622b      	str	r3, [r5, #32]
 8005c2c:	6a2b      	ldr	r3, [r5, #32]
 8005c2e:	4393      	bics	r3, r2
 8005c30:	e7b7      	b.n	8005ba2 <HAL_RCC_OscConfig+0x23e>
 8005c32:	f7fd ffd1 	bl	8003bd8 <HAL_GetTick>
 8005c36:	4b18      	ldr	r3, [pc, #96]	@ (8005c98 <HAL_RCC_OscConfig+0x334>)
 8005c38:	1b80      	subs	r0, r0, r6
 8005c3a:	4298      	cmp	r0, r3
 8005c3c:	d9b6      	bls.n	8005bac <HAL_RCC_OscConfig+0x248>
 8005c3e:	e6fe      	b.n	8005a3e <HAL_RCC_OscConfig+0xda>
 8005c40:	f7fd ffca 	bl	8003bd8 <HAL_GetTick>
 8005c44:	1b80      	subs	r0, r0, r6
 8005c46:	2802      	cmp	r0, #2
 8005c48:	d800      	bhi.n	8005c4c <HAL_RCC_OscConfig+0x2e8>
 8005c4a:	e6b5      	b.n	80059b8 <HAL_RCC_OscConfig+0x54>
 8005c4c:	e6f7      	b.n	8005a3e <HAL_RCC_OscConfig+0xda>
 8005c4e:	3205      	adds	r2, #5
 8005c50:	d103      	bne.n	8005c5a <HAL_RCC_OscConfig+0x2f6>
 8005c52:	6b6a      	ldr	r2, [r5, #52]	@ 0x34
 8005c54:	439a      	bics	r2, r3
 8005c56:	636a      	str	r2, [r5, #52]	@ 0x34
 8005c58:	e6b2      	b.n	80059c0 <HAL_RCC_OscConfig+0x5c>
 8005c5a:	6b6a      	ldr	r2, [r5, #52]	@ 0x34
 8005c5c:	2702      	movs	r7, #2
 8005c5e:	4313      	orrs	r3, r2
 8005c60:	2201      	movs	r2, #1
 8005c62:	636b      	str	r3, [r5, #52]	@ 0x34
 8005c64:	6b6b      	ldr	r3, [r5, #52]	@ 0x34
 8005c66:	4393      	bics	r3, r2
 8005c68:	636b      	str	r3, [r5, #52]	@ 0x34
 8005c6a:	f7fd ffb5 	bl	8003bd8 <HAL_GetTick>
 8005c6e:	0006      	movs	r6, r0
 8005c70:	6b6b      	ldr	r3, [r5, #52]	@ 0x34
 8005c72:	423b      	tst	r3, r7
 8005c74:	d100      	bne.n	8005c78 <HAL_RCC_OscConfig+0x314>
 8005c76:	e6aa      	b.n	80059ce <HAL_RCC_OscConfig+0x6a>
 8005c78:	f7fd ffae 	bl	8003bd8 <HAL_GetTick>
 8005c7c:	1b80      	subs	r0, r0, r6
 8005c7e:	2802      	cmp	r0, #2
 8005c80:	d9f6      	bls.n	8005c70 <HAL_RCC_OscConfig+0x30c>
 8005c82:	e6dc      	b.n	8005a3e <HAL_RCC_OscConfig+0xda>
 8005c84:	40021000 	.word	0x40021000
 8005c88:	fffeffff 	.word	0xfffeffff
 8005c8c:	fffbffff 	.word	0xfffbffff
 8005c90:	40007000 	.word	0x40007000
 8005c94:	efffffff 	.word	0xefffffff
 8005c98:	00001388 	.word	0x00001388
 8005c9c:	220c      	movs	r2, #12
 8005c9e:	4d55      	ldr	r5, [pc, #340]	@ (8005df4 <HAL_RCC_OscConfig+0x490>)
 8005ca0:	686b      	ldr	r3, [r5, #4]
 8005ca2:	4013      	ands	r3, r2
 8005ca4:	4293      	cmp	r3, r2
 8005ca6:	d009      	beq.n	8005cbc <HAL_RCC_OscConfig+0x358>
 8005ca8:	686b      	ldr	r3, [r5, #4]
 8005caa:	4013      	ands	r3, r2
 8005cac:	2b08      	cmp	r3, #8
 8005cae:	d10e      	bne.n	8005cce <HAL_RCC_OscConfig+0x36a>
 8005cb0:	22c0      	movs	r2, #192	@ 0xc0
 8005cb2:	686b      	ldr	r3, [r5, #4]
 8005cb4:	0252      	lsls	r2, r2, #9
 8005cb6:	4013      	ands	r3, r2
 8005cb8:	4293      	cmp	r3, r2
 8005cba:	d108      	bne.n	8005cce <HAL_RCC_OscConfig+0x36a>
 8005cbc:	6b6b      	ldr	r3, [r5, #52]	@ 0x34
 8005cbe:	039b      	lsls	r3, r3, #14
 8005cc0:	d400      	bmi.n	8005cc4 <HAL_RCC_OscConfig+0x360>
 8005cc2:	e688      	b.n	80059d6 <HAL_RCC_OscConfig+0x72>
 8005cc4:	6a23      	ldr	r3, [r4, #32]
 8005cc6:	2b01      	cmp	r3, #1
 8005cc8:	d000      	beq.n	8005ccc <HAL_RCC_OscConfig+0x368>
 8005cca:	e650      	b.n	800596e <HAL_RCC_OscConfig+0xa>
 8005ccc:	e683      	b.n	80059d6 <HAL_RCC_OscConfig+0x72>
 8005cce:	6a23      	ldr	r3, [r4, #32]
 8005cd0:	2b00      	cmp	r3, #0
 8005cd2:	d013      	beq.n	8005cfc <HAL_RCC_OscConfig+0x398>
 8005cd4:	2380      	movs	r3, #128	@ 0x80
 8005cd6:	6b6a      	ldr	r2, [r5, #52]	@ 0x34
 8005cd8:	025b      	lsls	r3, r3, #9
 8005cda:	4313      	orrs	r3, r2
 8005cdc:	636b      	str	r3, [r5, #52]	@ 0x34
 8005cde:	f7fd ff7b 	bl	8003bd8 <HAL_GetTick>
 8005ce2:	2780      	movs	r7, #128	@ 0x80
 8005ce4:	0006      	movs	r6, r0
 8005ce6:	02bf      	lsls	r7, r7, #10
 8005ce8:	6b6b      	ldr	r3, [r5, #52]	@ 0x34
 8005cea:	423b      	tst	r3, r7
 8005cec:	d000      	beq.n	8005cf0 <HAL_RCC_OscConfig+0x38c>
 8005cee:	e672      	b.n	80059d6 <HAL_RCC_OscConfig+0x72>
 8005cf0:	f7fd ff72 	bl	8003bd8 <HAL_GetTick>
 8005cf4:	1b80      	subs	r0, r0, r6
 8005cf6:	2802      	cmp	r0, #2
 8005cf8:	d9f6      	bls.n	8005ce8 <HAL_RCC_OscConfig+0x384>
 8005cfa:	e6a0      	b.n	8005a3e <HAL_RCC_OscConfig+0xda>
 8005cfc:	6b6b      	ldr	r3, [r5, #52]	@ 0x34
 8005cfe:	4a3e      	ldr	r2, [pc, #248]	@ (8005df8 <HAL_RCC_OscConfig+0x494>)
 8005d00:	2780      	movs	r7, #128	@ 0x80
 8005d02:	4013      	ands	r3, r2
 8005d04:	636b      	str	r3, [r5, #52]	@ 0x34
 8005d06:	f7fd ff67 	bl	8003bd8 <HAL_GetTick>
 8005d0a:	0006      	movs	r6, r0
 8005d0c:	02bf      	lsls	r7, r7, #10
 8005d0e:	6b6b      	ldr	r3, [r5, #52]	@ 0x34
 8005d10:	423b      	tst	r3, r7
 8005d12:	d100      	bne.n	8005d16 <HAL_RCC_OscConfig+0x3b2>
 8005d14:	e65f      	b.n	80059d6 <HAL_RCC_OscConfig+0x72>
 8005d16:	f7fd ff5f 	bl	8003bd8 <HAL_GetTick>
 8005d1a:	1b80      	subs	r0, r0, r6
 8005d1c:	2802      	cmp	r0, #2
 8005d1e:	d9f6      	bls.n	8005d0e <HAL_RCC_OscConfig+0x3aa>
 8005d20:	e68d      	b.n	8005a3e <HAL_RCC_OscConfig+0xda>
 8005d22:	210c      	movs	r1, #12
 8005d24:	4d33      	ldr	r5, [pc, #204]	@ (8005df4 <HAL_RCC_OscConfig+0x490>)
 8005d26:	686a      	ldr	r2, [r5, #4]
 8005d28:	400a      	ands	r2, r1
 8005d2a:	2a08      	cmp	r2, #8
 8005d2c:	d047      	beq.n	8005dbe <HAL_RCC_OscConfig+0x45a>
 8005d2e:	4a33      	ldr	r2, [pc, #204]	@ (8005dfc <HAL_RCC_OscConfig+0x498>)
 8005d30:	2b02      	cmp	r3, #2
 8005d32:	d132      	bne.n	8005d9a <HAL_RCC_OscConfig+0x436>
 8005d34:	682b      	ldr	r3, [r5, #0]
 8005d36:	2780      	movs	r7, #128	@ 0x80
 8005d38:	4013      	ands	r3, r2
 8005d3a:	602b      	str	r3, [r5, #0]
 8005d3c:	f7fd ff4c 	bl	8003bd8 <HAL_GetTick>
 8005d40:	0006      	movs	r6, r0
 8005d42:	04bf      	lsls	r7, r7, #18
 8005d44:	682b      	ldr	r3, [r5, #0]
 8005d46:	423b      	tst	r3, r7
 8005d48:	d121      	bne.n	8005d8e <HAL_RCC_OscConfig+0x42a>
 8005d4a:	220f      	movs	r2, #15
 8005d4c:	6aeb      	ldr	r3, [r5, #44]	@ 0x2c
 8005d4e:	2680      	movs	r6, #128	@ 0x80
 8005d50:	4393      	bics	r3, r2
 8005d52:	6b22      	ldr	r2, [r4, #48]	@ 0x30
 8005d54:	04b6      	lsls	r6, r6, #18
 8005d56:	4313      	orrs	r3, r2
 8005d58:	62eb      	str	r3, [r5, #44]	@ 0x2c
 8005d5a:	6aa1      	ldr	r1, [r4, #40]	@ 0x28
 8005d5c:	6ae3      	ldr	r3, [r4, #44]	@ 0x2c
 8005d5e:	686a      	ldr	r2, [r5, #4]
 8005d60:	430b      	orrs	r3, r1
 8005d62:	4927      	ldr	r1, [pc, #156]	@ (8005e00 <HAL_RCC_OscConfig+0x49c>)
 8005d64:	400a      	ands	r2, r1
 8005d66:	4313      	orrs	r3, r2
 8005d68:	606b      	str	r3, [r5, #4]
 8005d6a:	2380      	movs	r3, #128	@ 0x80
 8005d6c:	682a      	ldr	r2, [r5, #0]
 8005d6e:	045b      	lsls	r3, r3, #17
 8005d70:	4313      	orrs	r3, r2
 8005d72:	602b      	str	r3, [r5, #0]
 8005d74:	f7fd ff30 	bl	8003bd8 <HAL_GetTick>
 8005d78:	0004      	movs	r4, r0
 8005d7a:	682b      	ldr	r3, [r5, #0]
 8005d7c:	4233      	tst	r3, r6
 8005d7e:	d000      	beq.n	8005d82 <HAL_RCC_OscConfig+0x41e>
 8005d80:	e62d      	b.n	80059de <HAL_RCC_OscConfig+0x7a>
 8005d82:	f7fd ff29 	bl	8003bd8 <HAL_GetTick>
 8005d86:	1b00      	subs	r0, r0, r4
 8005d88:	2802      	cmp	r0, #2
 8005d8a:	d9f6      	bls.n	8005d7a <HAL_RCC_OscConfig+0x416>
 8005d8c:	e657      	b.n	8005a3e <HAL_RCC_OscConfig+0xda>
 8005d8e:	f7fd ff23 	bl	8003bd8 <HAL_GetTick>
 8005d92:	1b80      	subs	r0, r0, r6
 8005d94:	2802      	cmp	r0, #2
 8005d96:	d9d5      	bls.n	8005d44 <HAL_RCC_OscConfig+0x3e0>
 8005d98:	e651      	b.n	8005a3e <HAL_RCC_OscConfig+0xda>
 8005d9a:	682b      	ldr	r3, [r5, #0]
 8005d9c:	2680      	movs	r6, #128	@ 0x80
 8005d9e:	4013      	ands	r3, r2
 8005da0:	602b      	str	r3, [r5, #0]
 8005da2:	f7fd ff19 	bl	8003bd8 <HAL_GetTick>
 8005da6:	0004      	movs	r4, r0
 8005da8:	04b6      	lsls	r6, r6, #18
 8005daa:	682b      	ldr	r3, [r5, #0]
 8005dac:	4233      	tst	r3, r6
 8005dae:	d100      	bne.n	8005db2 <HAL_RCC_OscConfig+0x44e>
 8005db0:	e615      	b.n	80059de <HAL_RCC_OscConfig+0x7a>
 8005db2:	f7fd ff11 	bl	8003bd8 <HAL_GetTick>
 8005db6:	1b00      	subs	r0, r0, r4
 8005db8:	2802      	cmp	r0, #2
 8005dba:	d9f6      	bls.n	8005daa <HAL_RCC_OscConfig+0x446>
 8005dbc:	e63f      	b.n	8005a3e <HAL_RCC_OscConfig+0xda>
 8005dbe:	2b01      	cmp	r3, #1
 8005dc0:	d100      	bne.n	8005dc4 <HAL_RCC_OscConfig+0x460>
 8005dc2:	e5d4      	b.n	800596e <HAL_RCC_OscConfig+0xa>
 8005dc4:	22c0      	movs	r2, #192	@ 0xc0
 8005dc6:	6868      	ldr	r0, [r5, #4]
 8005dc8:	6aa1      	ldr	r1, [r4, #40]	@ 0x28
 8005dca:	0252      	lsls	r2, r2, #9
 8005dcc:	6aeb      	ldr	r3, [r5, #44]	@ 0x2c
 8005dce:	4002      	ands	r2, r0
 8005dd0:	428a      	cmp	r2, r1
 8005dd2:	d000      	beq.n	8005dd6 <HAL_RCC_OscConfig+0x472>
 8005dd4:	e5cb      	b.n	800596e <HAL_RCC_OscConfig+0xa>
 8005dd6:	220f      	movs	r2, #15
 8005dd8:	4013      	ands	r3, r2
 8005dda:	6b22      	ldr	r2, [r4, #48]	@ 0x30
 8005ddc:	4293      	cmp	r3, r2
 8005dde:	d000      	beq.n	8005de2 <HAL_RCC_OscConfig+0x47e>
 8005de0:	e5c5      	b.n	800596e <HAL_RCC_OscConfig+0xa>
 8005de2:	23f0      	movs	r3, #240	@ 0xf0
 8005de4:	039b      	lsls	r3, r3, #14
 8005de6:	4018      	ands	r0, r3
 8005de8:	6ae3      	ldr	r3, [r4, #44]	@ 0x2c
 8005dea:	1ac0      	subs	r0, r0, r3
 8005dec:	1e43      	subs	r3, r0, #1
 8005dee:	4198      	sbcs	r0, r3
 8005df0:	b2c0      	uxtb	r0, r0
 8005df2:	e5bd      	b.n	8005970 <HAL_RCC_OscConfig+0xc>
 8005df4:	40021000 	.word	0x40021000
 8005df8:	fffeffff 	.word	0xfffeffff
 8005dfc:	feffffff 	.word	0xfeffffff
 8005e00:	ffc27fff 	.word	0xffc27fff

08005e04 <HAL_RCC_GetSysClockFreq>:
 8005e04:	200c      	movs	r0, #12
 8005e06:	b570      	push	{r4, r5, r6, lr}
 8005e08:	4d13      	ldr	r5, [pc, #76]	@ (8005e58 <HAL_RCC_GetSysClockFreq+0x54>)
 8005e0a:	686b      	ldr	r3, [r5, #4]
 8005e0c:	4018      	ands	r0, r3
 8005e0e:	2808      	cmp	r0, #8
 8005e10:	d008      	beq.n	8005e24 <HAL_RCC_GetSysClockFreq+0x20>
 8005e12:	380c      	subs	r0, #12
 8005e14:	4243      	negs	r3, r0
 8005e16:	4158      	adcs	r0, r3
 8005e18:	4b10      	ldr	r3, [pc, #64]	@ (8005e5c <HAL_RCC_GetSysClockFreq+0x58>)
 8005e1a:	4240      	negs	r0, r0
 8005e1c:	4018      	ands	r0, r3
 8005e1e:	4b10      	ldr	r3, [pc, #64]	@ (8005e60 <HAL_RCC_GetSysClockFreq+0x5c>)
 8005e20:	18c0      	adds	r0, r0, r3
 8005e22:	bd70      	pop	{r4, r5, r6, pc}
 8005e24:	200f      	movs	r0, #15
 8005e26:	490f      	ldr	r1, [pc, #60]	@ (8005e64 <HAL_RCC_GetSysClockFreq+0x60>)
 8005e28:	0c9a      	lsrs	r2, r3, #18
 8005e2a:	4002      	ands	r2, r0
 8005e2c:	5c8c      	ldrb	r4, [r1, r2]
 8005e2e:	6aea      	ldr	r2, [r5, #44]	@ 0x2c
 8005e30:	490d      	ldr	r1, [pc, #52]	@ (8005e68 <HAL_RCC_GetSysClockFreq+0x64>)
 8005e32:	4002      	ands	r2, r0
 8005e34:	5c89      	ldrb	r1, [r1, r2]
 8005e36:	22c0      	movs	r2, #192	@ 0xc0
 8005e38:	2080      	movs	r0, #128	@ 0x80
 8005e3a:	0252      	lsls	r2, r2, #9
 8005e3c:	4013      	ands	r3, r2
 8005e3e:	0240      	lsls	r0, r0, #9
 8005e40:	4283      	cmp	r3, r0
 8005e42:	d101      	bne.n	8005e48 <HAL_RCC_GetSysClockFreq+0x44>
 8005e44:	4806      	ldr	r0, [pc, #24]	@ (8005e60 <HAL_RCC_GetSysClockFreq+0x5c>)
 8005e46:	e002      	b.n	8005e4e <HAL_RCC_GetSysClockFreq+0x4a>
 8005e48:	4293      	cmp	r3, r2
 8005e4a:	d1fb      	bne.n	8005e44 <HAL_RCC_GetSysClockFreq+0x40>
 8005e4c:	4807      	ldr	r0, [pc, #28]	@ (8005e6c <HAL_RCC_GetSysClockFreq+0x68>)
 8005e4e:	f7fa f981 	bl	8000154 <__udivsi3>
 8005e52:	4360      	muls	r0, r4
 8005e54:	e7e5      	b.n	8005e22 <HAL_RCC_GetSysClockFreq+0x1e>
 8005e56:	46c0      	nop			@ (mov r8, r8)
 8005e58:	40021000 	.word	0x40021000
 8005e5c:	02625a00 	.word	0x02625a00
 8005e60:	007a1200 	.word	0x007a1200
 8005e64:	0800868c 	.word	0x0800868c
 8005e68:	0800867c 	.word	0x0800867c
 8005e6c:	02dc6c00 	.word	0x02dc6c00

08005e70 <HAL_RCC_ClockConfig>:
 8005e70:	b5f7      	push	{r0, r1, r2, r4, r5, r6, r7, lr}
 8005e72:	0004      	movs	r4, r0
 8005e74:	000f      	movs	r7, r1
 8005e76:	2800      	cmp	r0, #0
 8005e78:	d101      	bne.n	8005e7e <HAL_RCC_ClockConfig+0xe>
 8005e7a:	2001      	movs	r0, #1
 8005e7c:	bdfe      	pop	{r1, r2, r3, r4, r5, r6, r7, pc}
 8005e7e:	2201      	movs	r2, #1
 8005e80:	4d3a      	ldr	r5, [pc, #232]	@ (8005f6c <HAL_RCC_ClockConfig+0xfc>)
 8005e82:	682b      	ldr	r3, [r5, #0]
 8005e84:	4013      	ands	r3, r2
 8005e86:	428b      	cmp	r3, r1
 8005e88:	d31c      	bcc.n	8005ec4 <HAL_RCC_ClockConfig+0x54>
 8005e8a:	6822      	ldr	r2, [r4, #0]
 8005e8c:	0793      	lsls	r3, r2, #30
 8005e8e:	d422      	bmi.n	8005ed6 <HAL_RCC_ClockConfig+0x66>
 8005e90:	07d2      	lsls	r2, r2, #31
 8005e92:	d42f      	bmi.n	8005ef4 <HAL_RCC_ClockConfig+0x84>
 8005e94:	2301      	movs	r3, #1
 8005e96:	682a      	ldr	r2, [r5, #0]
 8005e98:	401a      	ands	r2, r3
 8005e9a:	42ba      	cmp	r2, r7
 8005e9c:	d857      	bhi.n	8005f4e <HAL_RCC_ClockConfig+0xde>
 8005e9e:	6823      	ldr	r3, [r4, #0]
 8005ea0:	4d33      	ldr	r5, [pc, #204]	@ (8005f70 <HAL_RCC_ClockConfig+0x100>)
 8005ea2:	075b      	lsls	r3, r3, #29
 8005ea4:	d45a      	bmi.n	8005f5c <HAL_RCC_ClockConfig+0xec>
 8005ea6:	f7ff ffad 	bl	8005e04 <HAL_RCC_GetSysClockFreq>
 8005eaa:	686b      	ldr	r3, [r5, #4]
 8005eac:	4a31      	ldr	r2, [pc, #196]	@ (8005f74 <HAL_RCC_ClockConfig+0x104>)
 8005eae:	061b      	lsls	r3, r3, #24
 8005eb0:	0f1b      	lsrs	r3, r3, #28
 8005eb2:	5cd3      	ldrb	r3, [r2, r3]
 8005eb4:	4930      	ldr	r1, [pc, #192]	@ (8005f78 <HAL_RCC_ClockConfig+0x108>)
 8005eb6:	40d8      	lsrs	r0, r3
 8005eb8:	6008      	str	r0, [r1, #0]
 8005eba:	2003      	movs	r0, #3
 8005ebc:	f7fd fe4c 	bl	8003b58 <HAL_InitTick>
 8005ec0:	2000      	movs	r0, #0
 8005ec2:	e7db      	b.n	8005e7c <HAL_RCC_ClockConfig+0xc>
 8005ec4:	682b      	ldr	r3, [r5, #0]
 8005ec6:	4393      	bics	r3, r2
 8005ec8:	430b      	orrs	r3, r1
 8005eca:	602b      	str	r3, [r5, #0]
 8005ecc:	682b      	ldr	r3, [r5, #0]
 8005ece:	4013      	ands	r3, r2
 8005ed0:	428b      	cmp	r3, r1
 8005ed2:	d1d2      	bne.n	8005e7a <HAL_RCC_ClockConfig+0xa>
 8005ed4:	e7d9      	b.n	8005e8a <HAL_RCC_ClockConfig+0x1a>
 8005ed6:	4926      	ldr	r1, [pc, #152]	@ (8005f70 <HAL_RCC_ClockConfig+0x100>)
 8005ed8:	0753      	lsls	r3, r2, #29
 8005eda:	d504      	bpl.n	8005ee6 <HAL_RCC_ClockConfig+0x76>
 8005edc:	23e0      	movs	r3, #224	@ 0xe0
 8005ede:	6848      	ldr	r0, [r1, #4]
 8005ee0:	00db      	lsls	r3, r3, #3
 8005ee2:	4303      	orrs	r3, r0
 8005ee4:	604b      	str	r3, [r1, #4]
 8005ee6:	20f0      	movs	r0, #240	@ 0xf0
 8005ee8:	684b      	ldr	r3, [r1, #4]
 8005eea:	4383      	bics	r3, r0
 8005eec:	68a0      	ldr	r0, [r4, #8]
 8005eee:	4303      	orrs	r3, r0
 8005ef0:	604b      	str	r3, [r1, #4]
 8005ef2:	e7cd      	b.n	8005e90 <HAL_RCC_ClockConfig+0x20>
 8005ef4:	6862      	ldr	r2, [r4, #4]
 8005ef6:	4e1e      	ldr	r6, [pc, #120]	@ (8005f70 <HAL_RCC_ClockConfig+0x100>)
 8005ef8:	2a01      	cmp	r2, #1
 8005efa:	d103      	bne.n	8005f04 <HAL_RCC_ClockConfig+0x94>
 8005efc:	6833      	ldr	r3, [r6, #0]
 8005efe:	039b      	lsls	r3, r3, #14
 8005f00:	d405      	bmi.n	8005f0e <HAL_RCC_ClockConfig+0x9e>
 8005f02:	e7ba      	b.n	8005e7a <HAL_RCC_ClockConfig+0xa>
 8005f04:	2a02      	cmp	r2, #2
 8005f06:	d11a      	bne.n	8005f3e <HAL_RCC_ClockConfig+0xce>
 8005f08:	6833      	ldr	r3, [r6, #0]
 8005f0a:	019b      	lsls	r3, r3, #6
 8005f0c:	d5b5      	bpl.n	8005e7a <HAL_RCC_ClockConfig+0xa>
 8005f0e:	2103      	movs	r1, #3
 8005f10:	6873      	ldr	r3, [r6, #4]
 8005f12:	438b      	bics	r3, r1
 8005f14:	4313      	orrs	r3, r2
 8005f16:	6073      	str	r3, [r6, #4]
 8005f18:	f7fd fe5e 	bl	8003bd8 <HAL_GetTick>
 8005f1c:	9001      	str	r0, [sp, #4]
 8005f1e:	230c      	movs	r3, #12
 8005f20:	6872      	ldr	r2, [r6, #4]
 8005f22:	401a      	ands	r2, r3
 8005f24:	6863      	ldr	r3, [r4, #4]
 8005f26:	009b      	lsls	r3, r3, #2
 8005f28:	429a      	cmp	r2, r3
 8005f2a:	d0b3      	beq.n	8005e94 <HAL_RCC_ClockConfig+0x24>
 8005f2c:	f7fd fe54 	bl	8003bd8 <HAL_GetTick>
 8005f30:	9b01      	ldr	r3, [sp, #4]
 8005f32:	1ac0      	subs	r0, r0, r3
 8005f34:	4b11      	ldr	r3, [pc, #68]	@ (8005f7c <HAL_RCC_ClockConfig+0x10c>)
 8005f36:	4298      	cmp	r0, r3
 8005f38:	d9f1      	bls.n	8005f1e <HAL_RCC_ClockConfig+0xae>
 8005f3a:	2003      	movs	r0, #3
 8005f3c:	e79e      	b.n	8005e7c <HAL_RCC_ClockConfig+0xc>
 8005f3e:	2a03      	cmp	r2, #3
 8005f40:	d101      	bne.n	8005f46 <HAL_RCC_ClockConfig+0xd6>
 8005f42:	6b73      	ldr	r3, [r6, #52]	@ 0x34
 8005f44:	e7db      	b.n	8005efe <HAL_RCC_ClockConfig+0x8e>
 8005f46:	6833      	ldr	r3, [r6, #0]
 8005f48:	079b      	lsls	r3, r3, #30
 8005f4a:	d4e0      	bmi.n	8005f0e <HAL_RCC_ClockConfig+0x9e>
 8005f4c:	e795      	b.n	8005e7a <HAL_RCC_ClockConfig+0xa>
 8005f4e:	682a      	ldr	r2, [r5, #0]
 8005f50:	439a      	bics	r2, r3
 8005f52:	602a      	str	r2, [r5, #0]
 8005f54:	682a      	ldr	r2, [r5, #0]
 8005f56:	421a      	tst	r2, r3
 8005f58:	d0a1      	beq.n	8005e9e <HAL_RCC_ClockConfig+0x2e>
 8005f5a:	e78e      	b.n	8005e7a <HAL_RCC_ClockConfig+0xa>
 8005f5c:	686b      	ldr	r3, [r5, #4]
 8005f5e:	4a08      	ldr	r2, [pc, #32]	@ (8005f80 <HAL_RCC_ClockConfig+0x110>)
 8005f60:	4013      	ands	r3, r2
 8005f62:	68e2      	ldr	r2, [r4, #12]
 8005f64:	4313      	orrs	r3, r2
 8005f66:	606b      	str	r3, [r5, #4]
 8005f68:	e79d      	b.n	8005ea6 <HAL_RCC_ClockConfig+0x36>
 8005f6a:	46c0      	nop			@ (mov r8, r8)
 8005f6c:	40022000 	.word	0x40022000
 8005f70:	40021000 	.word	0x40021000
 8005f74:	0800866c 	.word	0x0800866c
 8005f78:	200001f8 	.word	0x200001f8
 8005f7c:	00001388 	.word	0x00001388
 8005f80:	fffff8ff 	.word	0xfffff8ff

08005f84 <HAL_RCC_GetPCLK1Freq>:
 8005f84:	4b04      	ldr	r3, [pc, #16]	@ (8005f98 <HAL_RCC_GetPCLK1Freq+0x14>)
 8005f86:	4a05      	ldr	r2, [pc, #20]	@ (8005f9c <HAL_RCC_GetPCLK1Freq+0x18>)
 8005f88:	685b      	ldr	r3, [r3, #4]
 8005f8a:	4905      	ldr	r1, [pc, #20]	@ (8005fa0 <HAL_RCC_GetPCLK1Freq+0x1c>)
 8005f8c:	055b      	lsls	r3, r3, #21
 8005f8e:	0f5b      	lsrs	r3, r3, #29
 8005f90:	5ccb      	ldrb	r3, [r1, r3]
 8005f92:	6810      	ldr	r0, [r2, #0]
 8005f94:	40d8      	lsrs	r0, r3
 8005f96:	4770      	bx	lr
 8005f98:	40021000 	.word	0x40021000
 8005f9c:	200001f8 	.word	0x200001f8
 8005fa0:	08008664 	.word	0x08008664

08005fa4 <HAL_RCCEx_PeriphCLKConfig>:
 8005fa4:	b5f0      	push	{r4, r5, r6, r7, lr}
 8005fa6:	6803      	ldr	r3, [r0, #0]
 8005fa8:	0005      	movs	r5, r0
 8005faa:	b085      	sub	sp, #20
 8005fac:	03db      	lsls	r3, r3, #15
 8005fae:	d52b      	bpl.n	8006008 <HAL_RCCEx_PeriphCLKConfig+0x64>
 8005fb0:	2280      	movs	r2, #128	@ 0x80
 8005fb2:	2100      	movs	r1, #0
 8005fb4:	4c46      	ldr	r4, [pc, #280]	@ (80060d0 <HAL_RCCEx_PeriphCLKConfig+0x12c>)
 8005fb6:	0552      	lsls	r2, r2, #21
 8005fb8:	69e3      	ldr	r3, [r4, #28]
 8005fba:	9100      	str	r1, [sp, #0]
 8005fbc:	4213      	tst	r3, r2
 8005fbe:	d108      	bne.n	8005fd2 <HAL_RCCEx_PeriphCLKConfig+0x2e>
 8005fc0:	69e3      	ldr	r3, [r4, #28]
 8005fc2:	4313      	orrs	r3, r2
 8005fc4:	61e3      	str	r3, [r4, #28]
 8005fc6:	69e3      	ldr	r3, [r4, #28]
 8005fc8:	4013      	ands	r3, r2
 8005fca:	9303      	str	r3, [sp, #12]
 8005fcc:	9b03      	ldr	r3, [sp, #12]
 8005fce:	2301      	movs	r3, #1
 8005fd0:	9300      	str	r3, [sp, #0]
 8005fd2:	2780      	movs	r7, #128	@ 0x80
 8005fd4:	4e3f      	ldr	r6, [pc, #252]	@ (80060d4 <HAL_RCCEx_PeriphCLKConfig+0x130>)
 8005fd6:	007f      	lsls	r7, r7, #1
 8005fd8:	6833      	ldr	r3, [r6, #0]
 8005fda:	423b      	tst	r3, r7
 8005fdc:	d03d      	beq.n	800605a <HAL_RCCEx_PeriphCLKConfig+0xb6>
 8005fde:	6a21      	ldr	r1, [r4, #32]
 8005fe0:	22c0      	movs	r2, #192	@ 0xc0
 8005fe2:	0008      	movs	r0, r1
 8005fe4:	0092      	lsls	r2, r2, #2
 8005fe6:	686b      	ldr	r3, [r5, #4]
 8005fe8:	4e3b      	ldr	r6, [pc, #236]	@ (80060d8 <HAL_RCCEx_PeriphCLKConfig+0x134>)
 8005fea:	4010      	ands	r0, r2
 8005fec:	4211      	tst	r1, r2
 8005fee:	d146      	bne.n	800607e <HAL_RCCEx_PeriphCLKConfig+0xda>
 8005ff0:	6a23      	ldr	r3, [r4, #32]
 8005ff2:	686a      	ldr	r2, [r5, #4]
 8005ff4:	4033      	ands	r3, r6
 8005ff6:	4313      	orrs	r3, r2
 8005ff8:	6223      	str	r3, [r4, #32]
 8005ffa:	9b00      	ldr	r3, [sp, #0]
 8005ffc:	2b01      	cmp	r3, #1
 8005ffe:	d103      	bne.n	8006008 <HAL_RCCEx_PeriphCLKConfig+0x64>
 8006000:	69e3      	ldr	r3, [r4, #28]
 8006002:	4a36      	ldr	r2, [pc, #216]	@ (80060dc <HAL_RCCEx_PeriphCLKConfig+0x138>)
 8006004:	4013      	ands	r3, r2
 8006006:	61e3      	str	r3, [r4, #28]
 8006008:	682b      	ldr	r3, [r5, #0]
 800600a:	07da      	lsls	r2, r3, #31
 800600c:	d506      	bpl.n	800601c <HAL_RCCEx_PeriphCLKConfig+0x78>
 800600e:	2003      	movs	r0, #3
 8006010:	492f      	ldr	r1, [pc, #188]	@ (80060d0 <HAL_RCCEx_PeriphCLKConfig+0x12c>)
 8006012:	6b0a      	ldr	r2, [r1, #48]	@ 0x30
 8006014:	4382      	bics	r2, r0
 8006016:	68a8      	ldr	r0, [r5, #8]
 8006018:	4302      	orrs	r2, r0
 800601a:	630a      	str	r2, [r1, #48]	@ 0x30
 800601c:	079a      	lsls	r2, r3, #30
 800601e:	d506      	bpl.n	800602e <HAL_RCCEx_PeriphCLKConfig+0x8a>
 8006020:	492b      	ldr	r1, [pc, #172]	@ (80060d0 <HAL_RCCEx_PeriphCLKConfig+0x12c>)
 8006022:	482f      	ldr	r0, [pc, #188]	@ (80060e0 <HAL_RCCEx_PeriphCLKConfig+0x13c>)
 8006024:	6b0a      	ldr	r2, [r1, #48]	@ 0x30
 8006026:	4002      	ands	r2, r0
 8006028:	68e8      	ldr	r0, [r5, #12]
 800602a:	4302      	orrs	r2, r0
 800602c:	630a      	str	r2, [r1, #48]	@ 0x30
 800602e:	069a      	lsls	r2, r3, #26
 8006030:	d506      	bpl.n	8006040 <HAL_RCCEx_PeriphCLKConfig+0x9c>
 8006032:	2010      	movs	r0, #16
 8006034:	4926      	ldr	r1, [pc, #152]	@ (80060d0 <HAL_RCCEx_PeriphCLKConfig+0x12c>)
 8006036:	6b0a      	ldr	r2, [r1, #48]	@ 0x30
 8006038:	4382      	bics	r2, r0
 800603a:	6928      	ldr	r0, [r5, #16]
 800603c:	4302      	orrs	r2, r0
 800603e:	630a      	str	r2, [r1, #48]	@ 0x30
 8006040:	039a      	lsls	r2, r3, #14
 8006042:	d506      	bpl.n	8006052 <HAL_RCCEx_PeriphCLKConfig+0xae>
 8006044:	2080      	movs	r0, #128	@ 0x80
 8006046:	4922      	ldr	r1, [pc, #136]	@ (80060d0 <HAL_RCCEx_PeriphCLKConfig+0x12c>)
 8006048:	6b0a      	ldr	r2, [r1, #48]	@ 0x30
 800604a:	4382      	bics	r2, r0
 800604c:	69a8      	ldr	r0, [r5, #24]
 800604e:	4302      	orrs	r2, r0
 8006050:	630a      	str	r2, [r1, #48]	@ 0x30
 8006052:	055b      	lsls	r3, r3, #21
 8006054:	d433      	bmi.n	80060be <HAL_RCCEx_PeriphCLKConfig+0x11a>
 8006056:	2000      	movs	r0, #0
 8006058:	e00f      	b.n	800607a <HAL_RCCEx_PeriphCLKConfig+0xd6>
 800605a:	6833      	ldr	r3, [r6, #0]
 800605c:	433b      	orrs	r3, r7
 800605e:	6033      	str	r3, [r6, #0]
 8006060:	f7fd fdba 	bl	8003bd8 <HAL_GetTick>
 8006064:	9001      	str	r0, [sp, #4]
 8006066:	6833      	ldr	r3, [r6, #0]
 8006068:	423b      	tst	r3, r7
 800606a:	d1b8      	bne.n	8005fde <HAL_RCCEx_PeriphCLKConfig+0x3a>
 800606c:	f7fd fdb4 	bl	8003bd8 <HAL_GetTick>
 8006070:	9b01      	ldr	r3, [sp, #4]
 8006072:	1ac0      	subs	r0, r0, r3
 8006074:	2864      	cmp	r0, #100	@ 0x64
 8006076:	d9f6      	bls.n	8006066 <HAL_RCCEx_PeriphCLKConfig+0xc2>
 8006078:	2003      	movs	r0, #3
 800607a:	b005      	add	sp, #20
 800607c:	bdf0      	pop	{r4, r5, r6, r7, pc}
 800607e:	4013      	ands	r3, r2
 8006080:	4283      	cmp	r3, r0
 8006082:	d0b5      	beq.n	8005ff0 <HAL_RCCEx_PeriphCLKConfig+0x4c>
 8006084:	2280      	movs	r2, #128	@ 0x80
 8006086:	6a23      	ldr	r3, [r4, #32]
 8006088:	6a20      	ldr	r0, [r4, #32]
 800608a:	0019      	movs	r1, r3
 800608c:	0252      	lsls	r2, r2, #9
 800608e:	4302      	orrs	r2, r0
 8006090:	6222      	str	r2, [r4, #32]
 8006092:	6a22      	ldr	r2, [r4, #32]
 8006094:	4813      	ldr	r0, [pc, #76]	@ (80060e4 <HAL_RCCEx_PeriphCLKConfig+0x140>)
 8006096:	4031      	ands	r1, r6
 8006098:	4002      	ands	r2, r0
 800609a:	6222      	str	r2, [r4, #32]
 800609c:	6221      	str	r1, [r4, #32]
 800609e:	07db      	lsls	r3, r3, #31
 80060a0:	d5a6      	bpl.n	8005ff0 <HAL_RCCEx_PeriphCLKConfig+0x4c>
 80060a2:	f7fd fd99 	bl	8003bd8 <HAL_GetTick>
 80060a6:	0007      	movs	r7, r0
 80060a8:	2202      	movs	r2, #2
 80060aa:	6a23      	ldr	r3, [r4, #32]
 80060ac:	4213      	tst	r3, r2
 80060ae:	d19f      	bne.n	8005ff0 <HAL_RCCEx_PeriphCLKConfig+0x4c>
 80060b0:	f7fd fd92 	bl	8003bd8 <HAL_GetTick>
 80060b4:	4b0c      	ldr	r3, [pc, #48]	@ (80060e8 <HAL_RCCEx_PeriphCLKConfig+0x144>)
 80060b6:	1bc0      	subs	r0, r0, r7
 80060b8:	4298      	cmp	r0, r3
 80060ba:	d9f5      	bls.n	80060a8 <HAL_RCCEx_PeriphCLKConfig+0x104>
 80060bc:	e7dc      	b.n	8006078 <HAL_RCCEx_PeriphCLKConfig+0xd4>
 80060be:	2140      	movs	r1, #64	@ 0x40
 80060c0:	4a03      	ldr	r2, [pc, #12]	@ (80060d0 <HAL_RCCEx_PeriphCLKConfig+0x12c>)
 80060c2:	6b13      	ldr	r3, [r2, #48]	@ 0x30
 80060c4:	438b      	bics	r3, r1
 80060c6:	6969      	ldr	r1, [r5, #20]
 80060c8:	430b      	orrs	r3, r1
 80060ca:	6313      	str	r3, [r2, #48]	@ 0x30
 80060cc:	e7c3      	b.n	8006056 <HAL_RCCEx_PeriphCLKConfig+0xb2>
 80060ce:	46c0      	nop			@ (mov r8, r8)
 80060d0:	40021000 	.word	0x40021000
 80060d4:	40007000 	.word	0x40007000
 80060d8:	fffffcff 	.word	0xfffffcff
 80060dc:	efffffff 	.word	0xefffffff
 80060e0:	fffcffff 	.word	0xfffcffff
 80060e4:	fffeffff 	.word	0xfffeffff
 80060e8:	00001388 	.word	0x00001388

080060ec <HAL_SPI_Init>:
 80060ec:	b5f8      	push	{r3, r4, r5, r6, r7, lr}
 80060ee:	0004      	movs	r4, r0
 80060f0:	2001      	movs	r0, #1
 80060f2:	2c00      	cmp	r4, #0
 80060f4:	d067      	beq.n	80061c6 <HAL_SPI_Init+0xda>
 80060f6:	6a63      	ldr	r3, [r4, #36]	@ 0x24
 80060f8:	2b00      	cmp	r3, #0
 80060fa:	d165      	bne.n	80061c8 <HAL_SPI_Init+0xdc>
 80060fc:	2282      	movs	r2, #130	@ 0x82
 80060fe:	6861      	ldr	r1, [r4, #4]
 8006100:	0052      	lsls	r2, r2, #1
 8006102:	4291      	cmp	r1, r2
 8006104:	d000      	beq.n	8006108 <HAL_SPI_Init+0x1c>
 8006106:	61e3      	str	r3, [r4, #28]
 8006108:	2300      	movs	r3, #0
 800610a:	0025      	movs	r5, r4
 800610c:	62a3      	str	r3, [r4, #40]	@ 0x28
 800610e:	355d      	adds	r5, #93	@ 0x5d
 8006110:	782b      	ldrb	r3, [r5, #0]
 8006112:	b2da      	uxtb	r2, r3
 8006114:	2b00      	cmp	r3, #0
 8006116:	d105      	bne.n	8006124 <HAL_SPI_Init+0x38>
 8006118:	0023      	movs	r3, r4
 800611a:	335c      	adds	r3, #92	@ 0x5c
 800611c:	0020      	movs	r0, r4
 800611e:	701a      	strb	r2, [r3, #0]
 8006120:	f7fd fa50 	bl	80035c4 <HAL_SPI_MspInit>
 8006124:	2302      	movs	r3, #2
 8006126:	2240      	movs	r2, #64	@ 0x40
 8006128:	702b      	strb	r3, [r5, #0]
 800612a:	6821      	ldr	r1, [r4, #0]
 800612c:	68e6      	ldr	r6, [r4, #12]
 800612e:	680b      	ldr	r3, [r1, #0]
 8006130:	4393      	bics	r3, r2
 8006132:	22e0      	movs	r2, #224	@ 0xe0
 8006134:	600b      	str	r3, [r1, #0]
 8006136:	00d2      	lsls	r2, r2, #3
 8006138:	2300      	movs	r3, #0
 800613a:	4296      	cmp	r6, r2
 800613c:	d948      	bls.n	80061d0 <HAL_SPI_Init+0xe4>
 800613e:	22f0      	movs	r2, #240	@ 0xf0
 8006140:	0018      	movs	r0, r3
 8006142:	0112      	lsls	r2, r2, #4
 8006144:	4296      	cmp	r6, r2
 8006146:	d000      	beq.n	800614a <HAL_SPI_Init+0x5e>
 8006148:	62a3      	str	r3, [r4, #40]	@ 0x28
 800614a:	2282      	movs	r2, #130	@ 0x82
 800614c:	2784      	movs	r7, #132	@ 0x84
 800614e:	6863      	ldr	r3, [r4, #4]
 8006150:	0052      	lsls	r2, r2, #1
 8006152:	4013      	ands	r3, r2
 8006154:	68a2      	ldr	r2, [r4, #8]
 8006156:	023f      	lsls	r7, r7, #8
 8006158:	403a      	ands	r2, r7
 800615a:	2702      	movs	r7, #2
 800615c:	4313      	orrs	r3, r2
 800615e:	6922      	ldr	r2, [r4, #16]
 8006160:	69a5      	ldr	r5, [r4, #24]
 8006162:	403a      	ands	r2, r7
 8006164:	4313      	orrs	r3, r2
 8006166:	2201      	movs	r2, #1
 8006168:	6967      	ldr	r7, [r4, #20]
 800616a:	4017      	ands	r7, r2
 800616c:	433b      	orrs	r3, r7
 800616e:	2780      	movs	r7, #128	@ 0x80
 8006170:	00bf      	lsls	r7, r7, #2
 8006172:	402f      	ands	r7, r5
 8006174:	433b      	orrs	r3, r7
 8006176:	69e7      	ldr	r7, [r4, #28]
 8006178:	3237      	adds	r2, #55	@ 0x37
 800617a:	4017      	ands	r7, r2
 800617c:	433b      	orrs	r3, r7
 800617e:	6a27      	ldr	r7, [r4, #32]
 8006180:	3248      	adds	r2, #72	@ 0x48
 8006182:	4017      	ands	r7, r2
 8006184:	2280      	movs	r2, #128	@ 0x80
 8006186:	433b      	orrs	r3, r7
 8006188:	6aa7      	ldr	r7, [r4, #40]	@ 0x28
 800618a:	0192      	lsls	r2, r2, #6
 800618c:	4017      	ands	r7, r2
 800618e:	433b      	orrs	r3, r7
 8006190:	2710      	movs	r7, #16
 8006192:	2208      	movs	r2, #8
 8006194:	600b      	str	r3, [r1, #0]
 8006196:	6a63      	ldr	r3, [r4, #36]	@ 0x24
 8006198:	0c2d      	lsrs	r5, r5, #16
 800619a:	403b      	ands	r3, r7
 800619c:	6b67      	ldr	r7, [r4, #52]	@ 0x34
 800619e:	4017      	ands	r7, r2
 80061a0:	433b      	orrs	r3, r7
 80061a2:	27f0      	movs	r7, #240	@ 0xf0
 80061a4:	013f      	lsls	r7, r7, #4
 80061a6:	403e      	ands	r6, r7
 80061a8:	4333      	orrs	r3, r6
 80061aa:	2604      	movs	r6, #4
 80061ac:	4035      	ands	r5, r6
 80061ae:	432b      	orrs	r3, r5
 80061b0:	4303      	orrs	r3, r0
 80061b2:	604b      	str	r3, [r1, #4]
 80061b4:	69cb      	ldr	r3, [r1, #28]
 80061b6:	4808      	ldr	r0, [pc, #32]	@ (80061d8 <HAL_SPI_Init+0xec>)
 80061b8:	4003      	ands	r3, r0
 80061ba:	2000      	movs	r0, #0
 80061bc:	61cb      	str	r3, [r1, #28]
 80061be:	2301      	movs	r3, #1
 80061c0:	6620      	str	r0, [r4, #96]	@ 0x60
 80061c2:	345d      	adds	r4, #93	@ 0x5d
 80061c4:	7023      	strb	r3, [r4, #0]
 80061c6:	bdf8      	pop	{r3, r4, r5, r6, r7, pc}
 80061c8:	2300      	movs	r3, #0
 80061ca:	6123      	str	r3, [r4, #16]
 80061cc:	6163      	str	r3, [r4, #20]
 80061ce:	e79b      	b.n	8006108 <HAL_SPI_Init+0x1c>
 80061d0:	2080      	movs	r0, #128	@ 0x80
 80061d2:	0140      	lsls	r0, r0, #5
 80061d4:	e7b6      	b.n	8006144 <HAL_SPI_Init+0x58>
 80061d6:	46c0      	nop			@ (mov r8, r8)
 80061d8:	fffff7ff 	.word	0xfffff7ff

080061dc <TIM_OC1_SetConfig>:
 80061dc:	b570      	push	{r4, r5, r6, lr}
 80061de:	2401      	movs	r4, #1
 80061e0:	6a03      	ldr	r3, [r0, #32]
 80061e2:	6a02      	ldr	r2, [r0, #32]
 80061e4:	43a2      	bics	r2, r4
 80061e6:	6202      	str	r2, [r0, #32]
 80061e8:	2273      	movs	r2, #115	@ 0x73
 80061ea:	6844      	ldr	r4, [r0, #4]
 80061ec:	6985      	ldr	r5, [r0, #24]
 80061ee:	4395      	bics	r5, r2
 80061f0:	680a      	ldr	r2, [r1, #0]
 80061f2:	4315      	orrs	r5, r2
 80061f4:	2202      	movs	r2, #2
 80061f6:	4393      	bics	r3, r2
 80061f8:	688a      	ldr	r2, [r1, #8]
 80061fa:	4313      	orrs	r3, r2
 80061fc:	4a0e      	ldr	r2, [pc, #56]	@ (8006238 <TIM_OC1_SetConfig+0x5c>)
 80061fe:	4290      	cmp	r0, r2
 8006200:	d008      	beq.n	8006214 <TIM_OC1_SetConfig+0x38>
 8006202:	4a0e      	ldr	r2, [pc, #56]	@ (800623c <TIM_OC1_SetConfig+0x60>)
 8006204:	4290      	cmp	r0, r2
 8006206:	d005      	beq.n	8006214 <TIM_OC1_SetConfig+0x38>
 8006208:	4a0d      	ldr	r2, [pc, #52]	@ (8006240 <TIM_OC1_SetConfig+0x64>)
 800620a:	4290      	cmp	r0, r2
 800620c:	d002      	beq.n	8006214 <TIM_OC1_SetConfig+0x38>
 800620e:	4a0d      	ldr	r2, [pc, #52]	@ (8006244 <TIM_OC1_SetConfig+0x68>)
 8006210:	4290      	cmp	r0, r2
 8006212:	d10b      	bne.n	800622c <TIM_OC1_SetConfig+0x50>
 8006214:	2208      	movs	r2, #8
 8006216:	4393      	bics	r3, r2
 8006218:	68ca      	ldr	r2, [r1, #12]
 800621a:	698e      	ldr	r6, [r1, #24]
 800621c:	4313      	orrs	r3, r2
 800621e:	2204      	movs	r2, #4
 8006220:	4393      	bics	r3, r2
 8006222:	4a09      	ldr	r2, [pc, #36]	@ (8006248 <TIM_OC1_SetConfig+0x6c>)
 8006224:	4022      	ands	r2, r4
 8006226:	694c      	ldr	r4, [r1, #20]
 8006228:	4334      	orrs	r4, r6
 800622a:	4314      	orrs	r4, r2
 800622c:	684a      	ldr	r2, [r1, #4]
 800622e:	6044      	str	r4, [r0, #4]
 8006230:	6185      	str	r5, [r0, #24]
 8006232:	6342      	str	r2, [r0, #52]	@ 0x34
 8006234:	6203      	str	r3, [r0, #32]
 8006236:	bd70      	pop	{r4, r5, r6, pc}
 8006238:	40012c00 	.word	0x40012c00
 800623c:	40014000 	.word	0x40014000
 8006240:	40014400 	.word	0x40014400
 8006244:	40014800 	.word	0x40014800
 8006248:	fffffcff 	.word	0xfffffcff

0800624c <TIM_OC3_SetConfig>:
 800624c:	b570      	push	{r4, r5, r6, lr}
 800624e:	4a18      	ldr	r2, [pc, #96]	@ (80062b0 <TIM_OC3_SetConfig+0x64>)
 8006250:	6a05      	ldr	r5, [r0, #32]
 8006252:	6a03      	ldr	r3, [r0, #32]
 8006254:	4013      	ands	r3, r2
 8006256:	6203      	str	r3, [r0, #32]
 8006258:	2373      	movs	r3, #115	@ 0x73
 800625a:	6842      	ldr	r2, [r0, #4]
 800625c:	69c4      	ldr	r4, [r0, #28]
 800625e:	439c      	bics	r4, r3
 8006260:	680b      	ldr	r3, [r1, #0]
 8006262:	431c      	orrs	r4, r3
 8006264:	4b13      	ldr	r3, [pc, #76]	@ (80062b4 <TIM_OC3_SetConfig+0x68>)
 8006266:	401d      	ands	r5, r3
 8006268:	688b      	ldr	r3, [r1, #8]
 800626a:	021b      	lsls	r3, r3, #8
 800626c:	432b      	orrs	r3, r5
 800626e:	4d12      	ldr	r5, [pc, #72]	@ (80062b8 <TIM_OC3_SetConfig+0x6c>)
 8006270:	42a8      	cmp	r0, r5
 8006272:	d10e      	bne.n	8006292 <TIM_OC3_SetConfig+0x46>
 8006274:	4d11      	ldr	r5, [pc, #68]	@ (80062bc <TIM_OC3_SetConfig+0x70>)
 8006276:	401d      	ands	r5, r3
 8006278:	68cb      	ldr	r3, [r1, #12]
 800627a:	021b      	lsls	r3, r3, #8
 800627c:	432b      	orrs	r3, r5
 800627e:	4d10      	ldr	r5, [pc, #64]	@ (80062c0 <TIM_OC3_SetConfig+0x74>)
 8006280:	402b      	ands	r3, r5
 8006282:	4d10      	ldr	r5, [pc, #64]	@ (80062c4 <TIM_OC3_SetConfig+0x78>)
 8006284:	698e      	ldr	r6, [r1, #24]
 8006286:	4015      	ands	r5, r2
 8006288:	694a      	ldr	r2, [r1, #20]
 800628a:	4332      	orrs	r2, r6
 800628c:	0112      	lsls	r2, r2, #4
 800628e:	432a      	orrs	r2, r5
 8006290:	e008      	b.n	80062a4 <TIM_OC3_SetConfig+0x58>
 8006292:	4d0d      	ldr	r5, [pc, #52]	@ (80062c8 <TIM_OC3_SetConfig+0x7c>)
 8006294:	42a8      	cmp	r0, r5
 8006296:	d0f4      	beq.n	8006282 <TIM_OC3_SetConfig+0x36>
 8006298:	4d0c      	ldr	r5, [pc, #48]	@ (80062cc <TIM_OC3_SetConfig+0x80>)
 800629a:	42a8      	cmp	r0, r5
 800629c:	d0f1      	beq.n	8006282 <TIM_OC3_SetConfig+0x36>
 800629e:	4d0c      	ldr	r5, [pc, #48]	@ (80062d0 <TIM_OC3_SetConfig+0x84>)
 80062a0:	42a8      	cmp	r0, r5
 80062a2:	d0ee      	beq.n	8006282 <TIM_OC3_SetConfig+0x36>
 80062a4:	6042      	str	r2, [r0, #4]
 80062a6:	684a      	ldr	r2, [r1, #4]
 80062a8:	61c4      	str	r4, [r0, #28]
 80062aa:	63c2      	str	r2, [r0, #60]	@ 0x3c
 80062ac:	6203      	str	r3, [r0, #32]
 80062ae:	bd70      	pop	{r4, r5, r6, pc}
 80062b0:	fffffeff 	.word	0xfffffeff
 80062b4:	fffffdff 	.word	0xfffffdff
 80062b8:	40012c00 	.word	0x40012c00
 80062bc:	fffff7ff 	.word	0xfffff7ff
 80062c0:	fffffbff 	.word	0xfffffbff
 80062c4:	ffffcfff 	.word	0xffffcfff
 80062c8:	40014000 	.word	0x40014000
 80062cc:	40014400 	.word	0x40014400
 80062d0:	40014800 	.word	0x40014800

080062d4 <TIM_OC4_SetConfig>:
 80062d4:	b530      	push	{r4, r5, lr}
 80062d6:	4a14      	ldr	r2, [pc, #80]	@ (8006328 <TIM_OC4_SetConfig+0x54>)
 80062d8:	6a04      	ldr	r4, [r0, #32]
 80062da:	6a03      	ldr	r3, [r0, #32]
 80062dc:	4d13      	ldr	r5, [pc, #76]	@ (800632c <TIM_OC4_SetConfig+0x58>)
 80062de:	4013      	ands	r3, r2
 80062e0:	6203      	str	r3, [r0, #32]
 80062e2:	6843      	ldr	r3, [r0, #4]
 80062e4:	69c2      	ldr	r2, [r0, #28]
 80062e6:	402a      	ands	r2, r5
 80062e8:	680d      	ldr	r5, [r1, #0]
 80062ea:	022d      	lsls	r5, r5, #8
 80062ec:	4315      	orrs	r5, r2
 80062ee:	4a10      	ldr	r2, [pc, #64]	@ (8006330 <TIM_OC4_SetConfig+0x5c>)
 80062f0:	4014      	ands	r4, r2
 80062f2:	688a      	ldr	r2, [r1, #8]
 80062f4:	0312      	lsls	r2, r2, #12
 80062f6:	4322      	orrs	r2, r4
 80062f8:	4c0e      	ldr	r4, [pc, #56]	@ (8006334 <TIM_OC4_SetConfig+0x60>)
 80062fa:	42a0      	cmp	r0, r4
 80062fc:	d008      	beq.n	8006310 <TIM_OC4_SetConfig+0x3c>
 80062fe:	4c0e      	ldr	r4, [pc, #56]	@ (8006338 <TIM_OC4_SetConfig+0x64>)
 8006300:	42a0      	cmp	r0, r4
 8006302:	d005      	beq.n	8006310 <TIM_OC4_SetConfig+0x3c>
 8006304:	4c0d      	ldr	r4, [pc, #52]	@ (800633c <TIM_OC4_SetConfig+0x68>)
 8006306:	42a0      	cmp	r0, r4
 8006308:	d002      	beq.n	8006310 <TIM_OC4_SetConfig+0x3c>
 800630a:	4c0d      	ldr	r4, [pc, #52]	@ (8006340 <TIM_OC4_SetConfig+0x6c>)
 800630c:	42a0      	cmp	r0, r4
 800630e:	d104      	bne.n	800631a <TIM_OC4_SetConfig+0x46>
 8006310:	4c0c      	ldr	r4, [pc, #48]	@ (8006344 <TIM_OC4_SetConfig+0x70>)
 8006312:	401c      	ands	r4, r3
 8006314:	694b      	ldr	r3, [r1, #20]
 8006316:	019b      	lsls	r3, r3, #6
 8006318:	4323      	orrs	r3, r4
 800631a:	6043      	str	r3, [r0, #4]
 800631c:	684b      	ldr	r3, [r1, #4]
 800631e:	61c5      	str	r5, [r0, #28]
 8006320:	6403      	str	r3, [r0, #64]	@ 0x40
 8006322:	6202      	str	r2, [r0, #32]
 8006324:	bd30      	pop	{r4, r5, pc}
 8006326:	46c0      	nop			@ (mov r8, r8)
 8006328:	ffffefff 	.word	0xffffefff
 800632c:	ffff8cff 	.word	0xffff8cff
 8006330:	ffffdfff 	.word	0xffffdfff
 8006334:	40012c00 	.word	0x40012c00
 8006338:	40014000 	.word	0x40014000
 800633c:	40014400 	.word	0x40014400
 8006340:	40014800 	.word	0x40014800
 8006344:	ffffbfff 	.word	0xffffbfff

08006348 <HAL_TIM_Base_Start>:
 8006348:	0001      	movs	r1, r0
 800634a:	0003      	movs	r3, r0
 800634c:	2001      	movs	r0, #1
 800634e:	b510      	push	{r4, lr}
 8006350:	313d      	adds	r1, #61	@ 0x3d
 8006352:	780c      	ldrb	r4, [r1, #0]
 8006354:	b2e2      	uxtb	r2, r4
 8006356:	4284      	cmp	r4, r0
 8006358:	d119      	bne.n	800638e <HAL_TIM_Base_Start+0x46>
 800635a:	1800      	adds	r0, r0, r0
 800635c:	7008      	strb	r0, [r1, #0]
 800635e:	681b      	ldr	r3, [r3, #0]
 8006360:	490c      	ldr	r1, [pc, #48]	@ (8006394 <HAL_TIM_Base_Start+0x4c>)
 8006362:	428b      	cmp	r3, r1
 8006364:	d009      	beq.n	800637a <HAL_TIM_Base_Start+0x32>
 8006366:	2180      	movs	r1, #128	@ 0x80
 8006368:	05c9      	lsls	r1, r1, #23
 800636a:	428b      	cmp	r3, r1
 800636c:	d005      	beq.n	800637a <HAL_TIM_Base_Start+0x32>
 800636e:	490a      	ldr	r1, [pc, #40]	@ (8006398 <HAL_TIM_Base_Start+0x50>)
 8006370:	428b      	cmp	r3, r1
 8006372:	d002      	beq.n	800637a <HAL_TIM_Base_Start+0x32>
 8006374:	4909      	ldr	r1, [pc, #36]	@ (800639c <HAL_TIM_Base_Start+0x54>)
 8006376:	428b      	cmp	r3, r1
 8006378:	d10a      	bne.n	8006390 <HAL_TIM_Base_Start+0x48>
 800637a:	2107      	movs	r1, #7
 800637c:	689a      	ldr	r2, [r3, #8]
 800637e:	400a      	ands	r2, r1
 8006380:	2a06      	cmp	r2, #6
 8006382:	d003      	beq.n	800638c <HAL_TIM_Base_Start+0x44>
 8006384:	2201      	movs	r2, #1
 8006386:	6819      	ldr	r1, [r3, #0]
 8006388:	430a      	orrs	r2, r1
 800638a:	601a      	str	r2, [r3, #0]
 800638c:	2000      	movs	r0, #0
 800638e:	bd10      	pop	{r4, pc}
 8006390:	6819      	ldr	r1, [r3, #0]
 8006392:	e7f9      	b.n	8006388 <HAL_TIM_Base_Start+0x40>
 8006394:	40012c00 	.word	0x40012c00
 8006398:	40000400 	.word	0x40000400
 800639c:	40014000 	.word	0x40014000

080063a0 <HAL_TIM_PWM_MspInit>:
 80063a0:	4770      	bx	lr
	...

080063a4 <TIM_Base_SetConfig>:
 80063a4:	b510      	push	{r4, lr}
 80063a6:	4c1f      	ldr	r4, [pc, #124]	@ (8006424 <TIM_Base_SetConfig+0x80>)
 80063a8:	6803      	ldr	r3, [r0, #0]
 80063aa:	42a0      	cmp	r0, r4
 80063ac:	d006      	beq.n	80063bc <TIM_Base_SetConfig+0x18>
 80063ae:	2280      	movs	r2, #128	@ 0x80
 80063b0:	05d2      	lsls	r2, r2, #23
 80063b2:	4290      	cmp	r0, r2
 80063b4:	d002      	beq.n	80063bc <TIM_Base_SetConfig+0x18>
 80063b6:	4a1c      	ldr	r2, [pc, #112]	@ (8006428 <TIM_Base_SetConfig+0x84>)
 80063b8:	4290      	cmp	r0, r2
 80063ba:	d108      	bne.n	80063ce <TIM_Base_SetConfig+0x2a>
 80063bc:	2270      	movs	r2, #112	@ 0x70
 80063be:	4393      	bics	r3, r2
 80063c0:	684a      	ldr	r2, [r1, #4]
 80063c2:	4313      	orrs	r3, r2
 80063c4:	4a19      	ldr	r2, [pc, #100]	@ (800642c <TIM_Base_SetConfig+0x88>)
 80063c6:	401a      	ands	r2, r3
 80063c8:	68cb      	ldr	r3, [r1, #12]
 80063ca:	4313      	orrs	r3, r2
 80063cc:	e00b      	b.n	80063e6 <TIM_Base_SetConfig+0x42>
 80063ce:	4a18      	ldr	r2, [pc, #96]	@ (8006430 <TIM_Base_SetConfig+0x8c>)
 80063d0:	4290      	cmp	r0, r2
 80063d2:	d0f7      	beq.n	80063c4 <TIM_Base_SetConfig+0x20>
 80063d4:	4a17      	ldr	r2, [pc, #92]	@ (8006434 <TIM_Base_SetConfig+0x90>)
 80063d6:	4290      	cmp	r0, r2
 80063d8:	d0f4      	beq.n	80063c4 <TIM_Base_SetConfig+0x20>
 80063da:	4a17      	ldr	r2, [pc, #92]	@ (8006438 <TIM_Base_SetConfig+0x94>)
 80063dc:	4290      	cmp	r0, r2
 80063de:	d0f1      	beq.n	80063c4 <TIM_Base_SetConfig+0x20>
 80063e0:	4a16      	ldr	r2, [pc, #88]	@ (800643c <TIM_Base_SetConfig+0x98>)
 80063e2:	4290      	cmp	r0, r2
 80063e4:	d0ee      	beq.n	80063c4 <TIM_Base_SetConfig+0x20>
 80063e6:	2280      	movs	r2, #128	@ 0x80
 80063e8:	4393      	bics	r3, r2
 80063ea:	694a      	ldr	r2, [r1, #20]
 80063ec:	4313      	orrs	r3, r2
 80063ee:	6003      	str	r3, [r0, #0]
 80063f0:	688b      	ldr	r3, [r1, #8]
 80063f2:	62c3      	str	r3, [r0, #44]	@ 0x2c
 80063f4:	680b      	ldr	r3, [r1, #0]
 80063f6:	6283      	str	r3, [r0, #40]	@ 0x28
 80063f8:	42a0      	cmp	r0, r4
 80063fa:	d008      	beq.n	800640e <TIM_Base_SetConfig+0x6a>
 80063fc:	4b0d      	ldr	r3, [pc, #52]	@ (8006434 <TIM_Base_SetConfig+0x90>)
 80063fe:	4298      	cmp	r0, r3
 8006400:	d005      	beq.n	800640e <TIM_Base_SetConfig+0x6a>
 8006402:	4b0d      	ldr	r3, [pc, #52]	@ (8006438 <TIM_Base_SetConfig+0x94>)
 8006404:	4298      	cmp	r0, r3
 8006406:	d002      	beq.n	800640e <TIM_Base_SetConfig+0x6a>
 8006408:	4b0c      	ldr	r3, [pc, #48]	@ (800643c <TIM_Base_SetConfig+0x98>)
 800640a:	4298      	cmp	r0, r3
 800640c:	d101      	bne.n	8006412 <TIM_Base_SetConfig+0x6e>
 800640e:	690b      	ldr	r3, [r1, #16]
 8006410:	6303      	str	r3, [r0, #48]	@ 0x30
 8006412:	2201      	movs	r2, #1
 8006414:	6142      	str	r2, [r0, #20]
 8006416:	6903      	ldr	r3, [r0, #16]
 8006418:	4213      	tst	r3, r2
 800641a:	d002      	beq.n	8006422 <TIM_Base_SetConfig+0x7e>
 800641c:	6903      	ldr	r3, [r0, #16]
 800641e:	4393      	bics	r3, r2
 8006420:	6103      	str	r3, [r0, #16]
 8006422:	bd10      	pop	{r4, pc}
 8006424:	40012c00 	.word	0x40012c00
 8006428:	40000400 	.word	0x40000400
 800642c:	fffffcff 	.word	0xfffffcff
 8006430:	40002000 	.word	0x40002000
 8006434:	40014000 	.word	0x40014000
 8006438:	40014400 	.word	0x40014400
 800643c:	40014800 	.word	0x40014800

08006440 <HAL_TIM_Base_Init>:
 8006440:	b570      	push	{r4, r5, r6, lr}
 8006442:	0004      	movs	r4, r0
 8006444:	2001      	movs	r0, #1
 8006446:	2c00      	cmp	r4, #0
 8006448:	d021      	beq.n	800648e <HAL_TIM_Base_Init+0x4e>
 800644a:	0025      	movs	r5, r4
 800644c:	353d      	adds	r5, #61	@ 0x3d
 800644e:	782b      	ldrb	r3, [r5, #0]
 8006450:	b2da      	uxtb	r2, r3
 8006452:	2b00      	cmp	r3, #0
 8006454:	d105      	bne.n	8006462 <HAL_TIM_Base_Init+0x22>
 8006456:	0023      	movs	r3, r4
 8006458:	333c      	adds	r3, #60	@ 0x3c
 800645a:	0020      	movs	r0, r4
 800645c:	701a      	strb	r2, [r3, #0]
 800645e:	f7fd f9a7 	bl	80037b0 <HAL_TIM_Base_MspInit>
 8006462:	2302      	movs	r3, #2
 8006464:	702b      	strb	r3, [r5, #0]
 8006466:	6820      	ldr	r0, [r4, #0]
 8006468:	1d21      	adds	r1, r4, #4
 800646a:	f7ff ff9b 	bl	80063a4 <TIM_Base_SetConfig>
 800646e:	0022      	movs	r2, r4
 8006470:	2301      	movs	r3, #1
 8006472:	2000      	movs	r0, #0
 8006474:	3246      	adds	r2, #70	@ 0x46
 8006476:	7013      	strb	r3, [r2, #0]
 8006478:	3445      	adds	r4, #69	@ 0x45
 800647a:	3a08      	subs	r2, #8
 800647c:	7013      	strb	r3, [r2, #0]
 800647e:	7053      	strb	r3, [r2, #1]
 8006480:	7093      	strb	r3, [r2, #2]
 8006482:	70d3      	strb	r3, [r2, #3]
 8006484:	7113      	strb	r3, [r2, #4]
 8006486:	7153      	strb	r3, [r2, #5]
 8006488:	7193      	strb	r3, [r2, #6]
 800648a:	7023      	strb	r3, [r4, #0]
 800648c:	702b      	strb	r3, [r5, #0]
 800648e:	bd70      	pop	{r4, r5, r6, pc}

08006490 <HAL_TIM_PWM_Init>:
 8006490:	b570      	push	{r4, r5, r6, lr}
 8006492:	0004      	movs	r4, r0
 8006494:	2001      	movs	r0, #1
 8006496:	2c00      	cmp	r4, #0
 8006498:	d021      	beq.n	80064de <HAL_TIM_PWM_Init+0x4e>
 800649a:	0025      	movs	r5, r4
 800649c:	353d      	adds	r5, #61	@ 0x3d
 800649e:	782b      	ldrb	r3, [r5, #0]
 80064a0:	b2da      	uxtb	r2, r3
 80064a2:	2b00      	cmp	r3, #0
 80064a4:	d105      	bne.n	80064b2 <HAL_TIM_PWM_Init+0x22>
 80064a6:	0023      	movs	r3, r4
 80064a8:	333c      	adds	r3, #60	@ 0x3c
 80064aa:	0020      	movs	r0, r4
 80064ac:	701a      	strb	r2, [r3, #0]
 80064ae:	f7ff ff77 	bl	80063a0 <HAL_TIM_PWM_MspInit>
 80064b2:	2302      	movs	r3, #2
 80064b4:	702b      	strb	r3, [r5, #0]
 80064b6:	6820      	ldr	r0, [r4, #0]
 80064b8:	1d21      	adds	r1, r4, #4
 80064ba:	f7ff ff73 	bl	80063a4 <TIM_Base_SetConfig>
 80064be:	0022      	movs	r2, r4
 80064c0:	2301      	movs	r3, #1
 80064c2:	2000      	movs	r0, #0
 80064c4:	3246      	adds	r2, #70	@ 0x46
 80064c6:	7013      	strb	r3, [r2, #0]
 80064c8:	3445      	adds	r4, #69	@ 0x45
 80064ca:	3a08      	subs	r2, #8
 80064cc:	7013      	strb	r3, [r2, #0]
 80064ce:	7053      	strb	r3, [r2, #1]
 80064d0:	7093      	strb	r3, [r2, #2]
 80064d2:	70d3      	strb	r3, [r2, #3]
 80064d4:	7113      	strb	r3, [r2, #4]
 80064d6:	7153      	strb	r3, [r2, #5]
 80064d8:	7193      	strb	r3, [r2, #6]
 80064da:	7023      	strb	r3, [r4, #0]
 80064dc:	702b      	strb	r3, [r5, #0]
 80064de:	bd70      	pop	{r4, r5, r6, pc}

080064e0 <TIM_OC2_SetConfig>:
 80064e0:	2210      	movs	r2, #16
 80064e2:	b570      	push	{r4, r5, r6, lr}
 80064e4:	6a05      	ldr	r5, [r0, #32]
 80064e6:	6a03      	ldr	r3, [r0, #32]
 80064e8:	4c17      	ldr	r4, [pc, #92]	@ (8006548 <TIM_OC2_SetConfig+0x68>)
 80064ea:	4393      	bics	r3, r2
 80064ec:	6203      	str	r3, [r0, #32]
 80064ee:	6842      	ldr	r2, [r0, #4]
 80064f0:	6983      	ldr	r3, [r0, #24]
 80064f2:	4023      	ands	r3, r4
 80064f4:	680c      	ldr	r4, [r1, #0]
 80064f6:	0224      	lsls	r4, r4, #8
 80064f8:	431c      	orrs	r4, r3
 80064fa:	2320      	movs	r3, #32
 80064fc:	439d      	bics	r5, r3
 80064fe:	688b      	ldr	r3, [r1, #8]
 8006500:	011b      	lsls	r3, r3, #4
 8006502:	432b      	orrs	r3, r5
 8006504:	4d11      	ldr	r5, [pc, #68]	@ (800654c <TIM_OC2_SetConfig+0x6c>)
 8006506:	42a8      	cmp	r0, r5
 8006508:	d10f      	bne.n	800652a <TIM_OC2_SetConfig+0x4a>
 800650a:	2580      	movs	r5, #128	@ 0x80
 800650c:	43ab      	bics	r3, r5
 800650e:	001e      	movs	r6, r3
 8006510:	68cb      	ldr	r3, [r1, #12]
 8006512:	3d40      	subs	r5, #64	@ 0x40
 8006514:	011b      	lsls	r3, r3, #4
 8006516:	4333      	orrs	r3, r6
 8006518:	43ab      	bics	r3, r5
 800651a:	4d0d      	ldr	r5, [pc, #52]	@ (8006550 <TIM_OC2_SetConfig+0x70>)
 800651c:	698e      	ldr	r6, [r1, #24]
 800651e:	4015      	ands	r5, r2
 8006520:	694a      	ldr	r2, [r1, #20]
 8006522:	4332      	orrs	r2, r6
 8006524:	0092      	lsls	r2, r2, #2
 8006526:	432a      	orrs	r2, r5
 8006528:	e008      	b.n	800653c <TIM_OC2_SetConfig+0x5c>
 800652a:	4d0a      	ldr	r5, [pc, #40]	@ (8006554 <TIM_OC2_SetConfig+0x74>)
 800652c:	42a8      	cmp	r0, r5
 800652e:	d0f4      	beq.n	800651a <TIM_OC2_SetConfig+0x3a>
 8006530:	4d09      	ldr	r5, [pc, #36]	@ (8006558 <TIM_OC2_SetConfig+0x78>)
 8006532:	42a8      	cmp	r0, r5
 8006534:	d0f1      	beq.n	800651a <TIM_OC2_SetConfig+0x3a>
 8006536:	4d09      	ldr	r5, [pc, #36]	@ (800655c <TIM_OC2_SetConfig+0x7c>)
 8006538:	42a8      	cmp	r0, r5
 800653a:	d0ee      	beq.n	800651a <TIM_OC2_SetConfig+0x3a>
 800653c:	6042      	str	r2, [r0, #4]
 800653e:	684a      	ldr	r2, [r1, #4]
 8006540:	6184      	str	r4, [r0, #24]
 8006542:	6382      	str	r2, [r0, #56]	@ 0x38
 8006544:	6203      	str	r3, [r0, #32]
 8006546:	bd70      	pop	{r4, r5, r6, pc}
 8006548:	ffff8cff 	.word	0xffff8cff
 800654c:	40012c00 	.word	0x40012c00
 8006550:	fffff3ff 	.word	0xfffff3ff
 8006554:	40014000 	.word	0x40014000
 8006558:	40014400 	.word	0x40014400
 800655c:	40014800 	.word	0x40014800

08006560 <HAL_TIM_PWM_ConfigChannel>:
 8006560:	b5f8      	push	{r3, r4, r5, r6, r7, lr}
 8006562:	0006      	movs	r6, r0
 8006564:	363c      	adds	r6, #60	@ 0x3c
 8006566:	0015      	movs	r5, r2
 8006568:	7832      	ldrb	r2, [r6, #0]
 800656a:	0003      	movs	r3, r0
 800656c:	000c      	movs	r4, r1
 800656e:	2002      	movs	r0, #2
 8006570:	2a01      	cmp	r2, #1
 8006572:	d00a      	beq.n	800658a <HAL_TIM_PWM_ConfigChannel+0x2a>
 8006574:	3801      	subs	r0, #1
 8006576:	7030      	strb	r0, [r6, #0]
 8006578:	2d08      	cmp	r5, #8
 800657a:	d03f      	beq.n	80065fc <HAL_TIM_PWM_ConfigChannel+0x9c>
 800657c:	d806      	bhi.n	800658c <HAL_TIM_PWM_ConfigChannel+0x2c>
 800657e:	2d00      	cmp	r5, #0
 8006580:	d019      	beq.n	80065b6 <HAL_TIM_PWM_ConfigChannel+0x56>
 8006582:	2d04      	cmp	r5, #4
 8006584:	d029      	beq.n	80065da <HAL_TIM_PWM_ConfigChannel+0x7a>
 8006586:	2300      	movs	r3, #0
 8006588:	7033      	strb	r3, [r6, #0]
 800658a:	bdf8      	pop	{r3, r4, r5, r6, r7, pc}
 800658c:	2d0c      	cmp	r5, #12
 800658e:	d1fa      	bne.n	8006586 <HAL_TIM_PWM_ConfigChannel+0x26>
 8006590:	681d      	ldr	r5, [r3, #0]
 8006592:	0028      	movs	r0, r5
 8006594:	f7ff fe9e 	bl	80062d4 <TIM_OC4_SetConfig>
 8006598:	2380      	movs	r3, #128	@ 0x80
 800659a:	69ea      	ldr	r2, [r5, #28]
 800659c:	011b      	lsls	r3, r3, #4
 800659e:	4313      	orrs	r3, r2
 80065a0:	61eb      	str	r3, [r5, #28]
 80065a2:	69eb      	ldr	r3, [r5, #28]
 80065a4:	4a1d      	ldr	r2, [pc, #116]	@ (800661c <HAL_TIM_PWM_ConfigChannel+0xbc>)
 80065a6:	4013      	ands	r3, r2
 80065a8:	61eb      	str	r3, [r5, #28]
 80065aa:	6923      	ldr	r3, [r4, #16]
 80065ac:	69ea      	ldr	r2, [r5, #28]
 80065ae:	021b      	lsls	r3, r3, #8
 80065b0:	4313      	orrs	r3, r2
 80065b2:	61eb      	str	r3, [r5, #28]
 80065b4:	e00f      	b.n	80065d6 <HAL_TIM_PWM_ConfigChannel+0x76>
 80065b6:	681d      	ldr	r5, [r3, #0]
 80065b8:	0028      	movs	r0, r5
 80065ba:	f7ff fe0f 	bl	80061dc <TIM_OC1_SetConfig>
 80065be:	2308      	movs	r3, #8
 80065c0:	69aa      	ldr	r2, [r5, #24]
 80065c2:	4313      	orrs	r3, r2
 80065c4:	2204      	movs	r2, #4
 80065c6:	61ab      	str	r3, [r5, #24]
 80065c8:	69ab      	ldr	r3, [r5, #24]
 80065ca:	4393      	bics	r3, r2
 80065cc:	61ab      	str	r3, [r5, #24]
 80065ce:	69ab      	ldr	r3, [r5, #24]
 80065d0:	6922      	ldr	r2, [r4, #16]
 80065d2:	4313      	orrs	r3, r2
 80065d4:	61ab      	str	r3, [r5, #24]
 80065d6:	2000      	movs	r0, #0
 80065d8:	e7d5      	b.n	8006586 <HAL_TIM_PWM_ConfigChannel+0x26>
 80065da:	681d      	ldr	r5, [r3, #0]
 80065dc:	0028      	movs	r0, r5
 80065de:	f7ff ff7f 	bl	80064e0 <TIM_OC2_SetConfig>
 80065e2:	2380      	movs	r3, #128	@ 0x80
 80065e4:	69aa      	ldr	r2, [r5, #24]
 80065e6:	011b      	lsls	r3, r3, #4
 80065e8:	4313      	orrs	r3, r2
 80065ea:	61ab      	str	r3, [r5, #24]
 80065ec:	69ab      	ldr	r3, [r5, #24]
 80065ee:	4a0b      	ldr	r2, [pc, #44]	@ (800661c <HAL_TIM_PWM_ConfigChannel+0xbc>)
 80065f0:	4013      	ands	r3, r2
 80065f2:	61ab      	str	r3, [r5, #24]
 80065f4:	6923      	ldr	r3, [r4, #16]
 80065f6:	69aa      	ldr	r2, [r5, #24]
 80065f8:	021b      	lsls	r3, r3, #8
 80065fa:	e7ea      	b.n	80065d2 <HAL_TIM_PWM_ConfigChannel+0x72>
 80065fc:	681f      	ldr	r7, [r3, #0]
 80065fe:	0038      	movs	r0, r7
 8006600:	f7ff fe24 	bl	800624c <TIM_OC3_SetConfig>
 8006604:	2204      	movs	r2, #4
 8006606:	69fb      	ldr	r3, [r7, #28]
 8006608:	431d      	orrs	r5, r3
 800660a:	61fd      	str	r5, [r7, #28]
 800660c:	69fb      	ldr	r3, [r7, #28]
 800660e:	4393      	bics	r3, r2
 8006610:	61fb      	str	r3, [r7, #28]
 8006612:	69fb      	ldr	r3, [r7, #28]
 8006614:	6922      	ldr	r2, [r4, #16]
 8006616:	4313      	orrs	r3, r2
 8006618:	61fb      	str	r3, [r7, #28]
 800661a:	e7dc      	b.n	80065d6 <HAL_TIM_PWM_ConfigChannel+0x76>
 800661c:	fffffbff 	.word	0xfffffbff

08006620 <TIM_ETR_SetConfig>:
 8006620:	b530      	push	{r4, r5, lr}
 8006622:	6884      	ldr	r4, [r0, #8]
 8006624:	4d03      	ldr	r5, [pc, #12]	@ (8006634 <TIM_ETR_SetConfig+0x14>)
 8006626:	430a      	orrs	r2, r1
 8006628:	021b      	lsls	r3, r3, #8
 800662a:	402c      	ands	r4, r5
 800662c:	4313      	orrs	r3, r2
 800662e:	4323      	orrs	r3, r4
 8006630:	6083      	str	r3, [r0, #8]
 8006632:	bd30      	pop	{r4, r5, pc}
 8006634:	ffff00ff 	.word	0xffff00ff

08006638 <HAL_TIM_ConfigClockSource>:
 8006638:	b5f8      	push	{r3, r4, r5, r6, r7, lr}
 800663a:	0005      	movs	r5, r0
 800663c:	2202      	movs	r2, #2
 800663e:	353c      	adds	r5, #60	@ 0x3c
 8006640:	782c      	ldrb	r4, [r5, #0]
 8006642:	0003      	movs	r3, r0
 8006644:	0010      	movs	r0, r2
 8006646:	2c01      	cmp	r4, #1
 8006648:	d01b      	beq.n	8006682 <HAL_TIM_ConfigClockSource+0x4a>
 800664a:	001e      	movs	r6, r3
 800664c:	3801      	subs	r0, #1
 800664e:	363d      	adds	r6, #61	@ 0x3d
 8006650:	7028      	strb	r0, [r5, #0]
 8006652:	7032      	strb	r2, [r6, #0]
 8006654:	681c      	ldr	r4, [r3, #0]
 8006656:	4a41      	ldr	r2, [pc, #260]	@ (800675c <HAL_TIM_ConfigClockSource+0x124>)
 8006658:	68a3      	ldr	r3, [r4, #8]
 800665a:	4013      	ands	r3, r2
 800665c:	60a3      	str	r3, [r4, #8]
 800665e:	680b      	ldr	r3, [r1, #0]
 8006660:	2b60      	cmp	r3, #96	@ 0x60
 8006662:	d04e      	beq.n	8006702 <HAL_TIM_ConfigClockSource+0xca>
 8006664:	d82d      	bhi.n	80066c2 <HAL_TIM_ConfigClockSource+0x8a>
 8006666:	2b40      	cmp	r3, #64	@ 0x40
 8006668:	d062      	beq.n	8006730 <HAL_TIM_ConfigClockSource+0xf8>
 800666a:	d813      	bhi.n	8006694 <HAL_TIM_ConfigClockSource+0x5c>
 800666c:	2b20      	cmp	r3, #32
 800666e:	d00b      	beq.n	8006688 <HAL_TIM_ConfigClockSource+0x50>
 8006670:	d808      	bhi.n	8006684 <HAL_TIM_ConfigClockSource+0x4c>
 8006672:	2210      	movs	r2, #16
 8006674:	0019      	movs	r1, r3
 8006676:	4391      	bics	r1, r2
 8006678:	d006      	beq.n	8006688 <HAL_TIM_ConfigClockSource+0x50>
 800667a:	2301      	movs	r3, #1
 800667c:	7033      	strb	r3, [r6, #0]
 800667e:	2300      	movs	r3, #0
 8006680:	702b      	strb	r3, [r5, #0]
 8006682:	bdf8      	pop	{r3, r4, r5, r6, r7, pc}
 8006684:	2b30      	cmp	r3, #48	@ 0x30
 8006686:	d1f8      	bne.n	800667a <HAL_TIM_ConfigClockSource+0x42>
 8006688:	2170      	movs	r1, #112	@ 0x70
 800668a:	68a2      	ldr	r2, [r4, #8]
 800668c:	438a      	bics	r2, r1
 800668e:	4313      	orrs	r3, r2
 8006690:	2207      	movs	r2, #7
 8006692:	e028      	b.n	80066e6 <HAL_TIM_ConfigClockSource+0xae>
 8006694:	2b50      	cmp	r3, #80	@ 0x50
 8006696:	d1f0      	bne.n	800667a <HAL_TIM_ConfigClockSource+0x42>
 8006698:	684a      	ldr	r2, [r1, #4]
 800669a:	68cb      	ldr	r3, [r1, #12]
 800669c:	6a21      	ldr	r1, [r4, #32]
 800669e:	6a27      	ldr	r7, [r4, #32]
 80066a0:	011b      	lsls	r3, r3, #4
 80066a2:	4387      	bics	r7, r0
 80066a4:	6227      	str	r7, [r4, #32]
 80066a6:	27f0      	movs	r7, #240	@ 0xf0
 80066a8:	69a0      	ldr	r0, [r4, #24]
 80066aa:	43b8      	bics	r0, r7
 80066ac:	4303      	orrs	r3, r0
 80066ae:	200a      	movs	r0, #10
 80066b0:	61a3      	str	r3, [r4, #24]
 80066b2:	2370      	movs	r3, #112	@ 0x70
 80066b4:	4381      	bics	r1, r0
 80066b6:	430a      	orrs	r2, r1
 80066b8:	6222      	str	r2, [r4, #32]
 80066ba:	68a2      	ldr	r2, [r4, #8]
 80066bc:	439a      	bics	r2, r3
 80066be:	3b19      	subs	r3, #25
 80066c0:	e011      	b.n	80066e6 <HAL_TIM_ConfigClockSource+0xae>
 80066c2:	2280      	movs	r2, #128	@ 0x80
 80066c4:	0152      	lsls	r2, r2, #5
 80066c6:	4293      	cmp	r3, r2
 80066c8:	d00f      	beq.n	80066ea <HAL_TIM_ConfigClockSource+0xb2>
 80066ca:	2280      	movs	r2, #128	@ 0x80
 80066cc:	0192      	lsls	r2, r2, #6
 80066ce:	4293      	cmp	r3, r2
 80066d0:	d00d      	beq.n	80066ee <HAL_TIM_ConfigClockSource+0xb6>
 80066d2:	2b70      	cmp	r3, #112	@ 0x70
 80066d4:	d1d1      	bne.n	800667a <HAL_TIM_ConfigClockSource+0x42>
 80066d6:	68cb      	ldr	r3, [r1, #12]
 80066d8:	684a      	ldr	r2, [r1, #4]
 80066da:	0020      	movs	r0, r4
 80066dc:	6889      	ldr	r1, [r1, #8]
 80066de:	f7ff ff9f 	bl	8006620 <TIM_ETR_SetConfig>
 80066e2:	2377      	movs	r3, #119	@ 0x77
 80066e4:	68a2      	ldr	r2, [r4, #8]
 80066e6:	4313      	orrs	r3, r2
 80066e8:	60a3      	str	r3, [r4, #8]
 80066ea:	2000      	movs	r0, #0
 80066ec:	e7c5      	b.n	800667a <HAL_TIM_ConfigClockSource+0x42>
 80066ee:	68cb      	ldr	r3, [r1, #12]
 80066f0:	684a      	ldr	r2, [r1, #4]
 80066f2:	0020      	movs	r0, r4
 80066f4:	6889      	ldr	r1, [r1, #8]
 80066f6:	f7ff ff93 	bl	8006620 <TIM_ETR_SetConfig>
 80066fa:	2380      	movs	r3, #128	@ 0x80
 80066fc:	68a2      	ldr	r2, [r4, #8]
 80066fe:	01db      	lsls	r3, r3, #7
 8006700:	e7f1      	b.n	80066e6 <HAL_TIM_ConfigClockSource+0xae>
 8006702:	2710      	movs	r7, #16
 8006704:	684b      	ldr	r3, [r1, #4]
 8006706:	68ca      	ldr	r2, [r1, #12]
 8006708:	6a21      	ldr	r1, [r4, #32]
 800670a:	6a20      	ldr	r0, [r4, #32]
 800670c:	0312      	lsls	r2, r2, #12
 800670e:	43b8      	bics	r0, r7
 8006710:	6220      	str	r0, [r4, #32]
 8006712:	69a0      	ldr	r0, [r4, #24]
 8006714:	4f12      	ldr	r7, [pc, #72]	@ (8006760 <HAL_TIM_ConfigClockSource+0x128>)
 8006716:	011b      	lsls	r3, r3, #4
 8006718:	4038      	ands	r0, r7
 800671a:	4302      	orrs	r2, r0
 800671c:	20a0      	movs	r0, #160	@ 0xa0
 800671e:	4381      	bics	r1, r0
 8006720:	430b      	orrs	r3, r1
 8006722:	61a2      	str	r2, [r4, #24]
 8006724:	6223      	str	r3, [r4, #32]
 8006726:	2370      	movs	r3, #112	@ 0x70
 8006728:	68a2      	ldr	r2, [r4, #8]
 800672a:	439a      	bics	r2, r3
 800672c:	3b09      	subs	r3, #9
 800672e:	e7da      	b.n	80066e6 <HAL_TIM_ConfigClockSource+0xae>
 8006730:	684a      	ldr	r2, [r1, #4]
 8006732:	68cb      	ldr	r3, [r1, #12]
 8006734:	6a21      	ldr	r1, [r4, #32]
 8006736:	6a27      	ldr	r7, [r4, #32]
 8006738:	011b      	lsls	r3, r3, #4
 800673a:	4387      	bics	r7, r0
 800673c:	6227      	str	r7, [r4, #32]
 800673e:	27f0      	movs	r7, #240	@ 0xf0
 8006740:	69a0      	ldr	r0, [r4, #24]
 8006742:	43b8      	bics	r0, r7
 8006744:	4303      	orrs	r3, r0
 8006746:	200a      	movs	r0, #10
 8006748:	61a3      	str	r3, [r4, #24]
 800674a:	2370      	movs	r3, #112	@ 0x70
 800674c:	4381      	bics	r1, r0
 800674e:	430a      	orrs	r2, r1
 8006750:	6222      	str	r2, [r4, #32]
 8006752:	68a2      	ldr	r2, [r4, #8]
 8006754:	439a      	bics	r2, r3
 8006756:	3b29      	subs	r3, #41	@ 0x29
 8006758:	e7c5      	b.n	80066e6 <HAL_TIM_ConfigClockSource+0xae>
 800675a:	46c0      	nop			@ (mov r8, r8)
 800675c:	ffff0088 	.word	0xffff0088
 8006760:	ffff0fff 	.word	0xffff0fff

08006764 <TIM_CCxChannelCmd>:
 8006764:	231f      	movs	r3, #31
 8006766:	b510      	push	{r4, lr}
 8006768:	2401      	movs	r4, #1
 800676a:	4019      	ands	r1, r3
 800676c:	408c      	lsls	r4, r1
 800676e:	408a      	lsls	r2, r1
 8006770:	6a03      	ldr	r3, [r0, #32]
 8006772:	43a3      	bics	r3, r4
 8006774:	6203      	str	r3, [r0, #32]
 8006776:	6a03      	ldr	r3, [r0, #32]
 8006778:	431a      	orrs	r2, r3
 800677a:	6202      	str	r2, [r0, #32]
 800677c:	bd10      	pop	{r4, pc}
	...

08006780 <HAL_TIM_OC_Start>:
 8006780:	0002      	movs	r2, r0
 8006782:	0003      	movs	r3, r0
 8006784:	b510      	push	{r4, lr}
 8006786:	2900      	cmp	r1, #0
 8006788:	d109      	bne.n	800679e <HAL_TIM_OC_Start+0x1e>
 800678a:	333e      	adds	r3, #62	@ 0x3e
 800678c:	781b      	ldrb	r3, [r3, #0]
 800678e:	3b01      	subs	r3, #1
 8006790:	1e58      	subs	r0, r3, #1
 8006792:	4183      	sbcs	r3, r0
 8006794:	b2db      	uxtb	r3, r3
 8006796:	2001      	movs	r0, #1
 8006798:	2b00      	cmp	r3, #0
 800679a:	d00a      	beq.n	80067b2 <HAL_TIM_OC_Start+0x32>
 800679c:	bd10      	pop	{r4, pc}
 800679e:	2904      	cmp	r1, #4
 80067a0:	d101      	bne.n	80067a6 <HAL_TIM_OC_Start+0x26>
 80067a2:	333f      	adds	r3, #63	@ 0x3f
 80067a4:	e7f2      	b.n	800678c <HAL_TIM_OC_Start+0xc>
 80067a6:	2908      	cmp	r1, #8
 80067a8:	d101      	bne.n	80067ae <HAL_TIM_OC_Start+0x2e>
 80067aa:	3340      	adds	r3, #64	@ 0x40
 80067ac:	e7ee      	b.n	800678c <HAL_TIM_OC_Start+0xc>
 80067ae:	3341      	adds	r3, #65	@ 0x41
 80067b0:	e7ec      	b.n	800678c <HAL_TIM_OC_Start+0xc>
 80067b2:	2302      	movs	r3, #2
 80067b4:	0010      	movs	r0, r2
 80067b6:	2900      	cmp	r1, #0
 80067b8:	d123      	bne.n	8006802 <HAL_TIM_OC_Start+0x82>
 80067ba:	303e      	adds	r0, #62	@ 0x3e
 80067bc:	7003      	strb	r3, [r0, #0]
 80067be:	6814      	ldr	r4, [r2, #0]
 80067c0:	2201      	movs	r2, #1
 80067c2:	0020      	movs	r0, r4
 80067c4:	f7ff ffce 	bl	8006764 <TIM_CCxChannelCmd>
 80067c8:	4a18      	ldr	r2, [pc, #96]	@ (800682c <HAL_TIM_OC_Start+0xac>)
 80067ca:	4294      	cmp	r4, r2
 80067cc:	d008      	beq.n	80067e0 <HAL_TIM_OC_Start+0x60>
 80067ce:	4b18      	ldr	r3, [pc, #96]	@ (8006830 <HAL_TIM_OC_Start+0xb0>)
 80067d0:	429c      	cmp	r4, r3
 80067d2:	d005      	beq.n	80067e0 <HAL_TIM_OC_Start+0x60>
 80067d4:	4b17      	ldr	r3, [pc, #92]	@ (8006834 <HAL_TIM_OC_Start+0xb4>)
 80067d6:	429c      	cmp	r4, r3
 80067d8:	d002      	beq.n	80067e0 <HAL_TIM_OC_Start+0x60>
 80067da:	4b17      	ldr	r3, [pc, #92]	@ (8006838 <HAL_TIM_OC_Start+0xb8>)
 80067dc:	429c      	cmp	r4, r3
 80067de:	d11a      	bne.n	8006816 <HAL_TIM_OC_Start+0x96>
 80067e0:	2380      	movs	r3, #128	@ 0x80
 80067e2:	6c61      	ldr	r1, [r4, #68]	@ 0x44
 80067e4:	021b      	lsls	r3, r3, #8
 80067e6:	430b      	orrs	r3, r1
 80067e8:	6463      	str	r3, [r4, #68]	@ 0x44
 80067ea:	4294      	cmp	r4, r2
 80067ec:	d002      	beq.n	80067f4 <HAL_TIM_OC_Start+0x74>
 80067ee:	4b10      	ldr	r3, [pc, #64]	@ (8006830 <HAL_TIM_OC_Start+0xb0>)
 80067f0:	429c      	cmp	r4, r3
 80067f2:	d116      	bne.n	8006822 <HAL_TIM_OC_Start+0xa2>
 80067f4:	2207      	movs	r2, #7
 80067f6:	68a3      	ldr	r3, [r4, #8]
 80067f8:	4013      	ands	r3, r2
 80067fa:	2b06      	cmp	r3, #6
 80067fc:	d111      	bne.n	8006822 <HAL_TIM_OC_Start+0xa2>
 80067fe:	2000      	movs	r0, #0
 8006800:	e7cc      	b.n	800679c <HAL_TIM_OC_Start+0x1c>
 8006802:	2904      	cmp	r1, #4
 8006804:	d101      	bne.n	800680a <HAL_TIM_OC_Start+0x8a>
 8006806:	303f      	adds	r0, #63	@ 0x3f
 8006808:	e7d8      	b.n	80067bc <HAL_TIM_OC_Start+0x3c>
 800680a:	2908      	cmp	r1, #8
 800680c:	d101      	bne.n	8006812 <HAL_TIM_OC_Start+0x92>
 800680e:	3040      	adds	r0, #64	@ 0x40
 8006810:	e7d4      	b.n	80067bc <HAL_TIM_OC_Start+0x3c>
 8006812:	3041      	adds	r0, #65	@ 0x41
 8006814:	e7d2      	b.n	80067bc <HAL_TIM_OC_Start+0x3c>
 8006816:	2380      	movs	r3, #128	@ 0x80
 8006818:	05db      	lsls	r3, r3, #23
 800681a:	429c      	cmp	r4, r3
 800681c:	d0ea      	beq.n	80067f4 <HAL_TIM_OC_Start+0x74>
 800681e:	4b07      	ldr	r3, [pc, #28]	@ (800683c <HAL_TIM_OC_Start+0xbc>)
 8006820:	e7e6      	b.n	80067f0 <HAL_TIM_OC_Start+0x70>
 8006822:	2301      	movs	r3, #1
 8006824:	6822      	ldr	r2, [r4, #0]
 8006826:	4313      	orrs	r3, r2
 8006828:	6023      	str	r3, [r4, #0]
 800682a:	e7e8      	b.n	80067fe <HAL_TIM_OC_Start+0x7e>
 800682c:	40012c00 	.word	0x40012c00
 8006830:	40014000 	.word	0x40014000
 8006834:	40014400 	.word	0x40014400
 8006838:	40014800 	.word	0x40014800
 800683c:	40000400 	.word	0x40000400

08006840 <HAL_TIM_PWM_Start>:
 8006840:	b510      	push	{r4, lr}
 8006842:	f7ff ff9d 	bl	8006780 <HAL_TIM_OC_Start>
 8006846:	bd10      	pop	{r4, pc}

08006848 <HAL_TIMEx_MasterConfigSynchronization>:
 8006848:	b570      	push	{r4, r5, r6, lr}
 800684a:	0004      	movs	r4, r0
 800684c:	2202      	movs	r2, #2
 800684e:	343c      	adds	r4, #60	@ 0x3c
 8006850:	7825      	ldrb	r5, [r4, #0]
 8006852:	0003      	movs	r3, r0
 8006854:	0010      	movs	r0, r2
 8006856:	2d01      	cmp	r5, #1
 8006858:	d020      	beq.n	800689c <HAL_TIMEx_MasterConfigSynchronization+0x54>
 800685a:	001d      	movs	r5, r3
 800685c:	2670      	movs	r6, #112	@ 0x70
 800685e:	353d      	adds	r5, #61	@ 0x3d
 8006860:	702a      	strb	r2, [r5, #0]
 8006862:	681b      	ldr	r3, [r3, #0]
 8006864:	6858      	ldr	r0, [r3, #4]
 8006866:	689a      	ldr	r2, [r3, #8]
 8006868:	43b0      	bics	r0, r6
 800686a:	680e      	ldr	r6, [r1, #0]
 800686c:	4330      	orrs	r0, r6
 800686e:	6058      	str	r0, [r3, #4]
 8006870:	480b      	ldr	r0, [pc, #44]	@ (80068a0 <HAL_TIMEx_MasterConfigSynchronization+0x58>)
 8006872:	4283      	cmp	r3, r0
 8006874:	d009      	beq.n	800688a <HAL_TIMEx_MasterConfigSynchronization+0x42>
 8006876:	2080      	movs	r0, #128	@ 0x80
 8006878:	05c0      	lsls	r0, r0, #23
 800687a:	4283      	cmp	r3, r0
 800687c:	d005      	beq.n	800688a <HAL_TIMEx_MasterConfigSynchronization+0x42>
 800687e:	4809      	ldr	r0, [pc, #36]	@ (80068a4 <HAL_TIMEx_MasterConfigSynchronization+0x5c>)
 8006880:	4283      	cmp	r3, r0
 8006882:	d002      	beq.n	800688a <HAL_TIMEx_MasterConfigSynchronization+0x42>
 8006884:	4808      	ldr	r0, [pc, #32]	@ (80068a8 <HAL_TIMEx_MasterConfigSynchronization+0x60>)
 8006886:	4283      	cmp	r3, r0
 8006888:	d104      	bne.n	8006894 <HAL_TIMEx_MasterConfigSynchronization+0x4c>
 800688a:	2080      	movs	r0, #128	@ 0x80
 800688c:	6849      	ldr	r1, [r1, #4]
 800688e:	4382      	bics	r2, r0
 8006890:	430a      	orrs	r2, r1
 8006892:	609a      	str	r2, [r3, #8]
 8006894:	2301      	movs	r3, #1
 8006896:	2000      	movs	r0, #0
 8006898:	702b      	strb	r3, [r5, #0]
 800689a:	7020      	strb	r0, [r4, #0]
 800689c:	bd70      	pop	{r4, r5, r6, pc}
 800689e:	46c0      	nop			@ (mov r8, r8)
 80068a0:	40012c00 	.word	0x40012c00
 80068a4:	40000400 	.word	0x40000400
 80068a8:	40014000 	.word	0x40014000

080068ac <UART_EndRxTransfer>:
 80068ac:	b530      	push	{r4, r5, lr}
 80068ae:	f3ef 8410 	mrs	r4, PRIMASK
 80068b2:	2201      	movs	r2, #1
 80068b4:	f382 8810 	msr	PRIMASK, r2
 80068b8:	6801      	ldr	r1, [r0, #0]
 80068ba:	4d12      	ldr	r5, [pc, #72]	@ (8006904 <UART_EndRxTransfer+0x58>)
 80068bc:	680b      	ldr	r3, [r1, #0]
 80068be:	402b      	ands	r3, r5
 80068c0:	600b      	str	r3, [r1, #0]
 80068c2:	f384 8810 	msr	PRIMASK, r4
 80068c6:	f3ef 8410 	mrs	r4, PRIMASK
 80068ca:	f382 8810 	msr	PRIMASK, r2
 80068ce:	6801      	ldr	r1, [r0, #0]
 80068d0:	688b      	ldr	r3, [r1, #8]
 80068d2:	4393      	bics	r3, r2
 80068d4:	608b      	str	r3, [r1, #8]
 80068d6:	f384 8810 	msr	PRIMASK, r4
 80068da:	6e03      	ldr	r3, [r0, #96]	@ 0x60
 80068dc:	4293      	cmp	r3, r2
 80068de:	d10a      	bne.n	80068f6 <UART_EndRxTransfer+0x4a>
 80068e0:	f3ef 8110 	mrs	r1, PRIMASK
 80068e4:	f383 8810 	msr	PRIMASK, r3
 80068e8:	2410      	movs	r4, #16
 80068ea:	6802      	ldr	r2, [r0, #0]
 80068ec:	6813      	ldr	r3, [r2, #0]
 80068ee:	43a3      	bics	r3, r4
 80068f0:	6013      	str	r3, [r2, #0]
 80068f2:	f381 8810 	msr	PRIMASK, r1
 80068f6:	2220      	movs	r2, #32
 80068f8:	1d03      	adds	r3, r0, #4
 80068fa:	67da      	str	r2, [r3, #124]	@ 0x7c
 80068fc:	2300      	movs	r3, #0
 80068fe:	6603      	str	r3, [r0, #96]	@ 0x60
 8006900:	6683      	str	r3, [r0, #104]	@ 0x68
 8006902:	bd30      	pop	{r4, r5, pc}
 8006904:	fffffedf 	.word	0xfffffedf

08006908 <UART_SetConfig>:
 8006908:	b570      	push	{r4, r5, r6, lr}
 800690a:	0004      	movs	r4, r0
 800690c:	6925      	ldr	r5, [r4, #16]
 800690e:	68a1      	ldr	r1, [r4, #8]
 8006910:	6802      	ldr	r2, [r0, #0]
 8006912:	4329      	orrs	r1, r5
 8006914:	6965      	ldr	r5, [r4, #20]
 8006916:	69c3      	ldr	r3, [r0, #28]
 8006918:	4329      	orrs	r1, r5
 800691a:	6810      	ldr	r0, [r2, #0]
 800691c:	4d51      	ldr	r5, [pc, #324]	@ (8006a64 <UART_SetConfig+0x15c>)
 800691e:	4319      	orrs	r1, r3
 8006920:	4028      	ands	r0, r5
 8006922:	4301      	orrs	r1, r0
 8006924:	6011      	str	r1, [r2, #0]
 8006926:	6851      	ldr	r1, [r2, #4]
 8006928:	484f      	ldr	r0, [pc, #316]	@ (8006a68 <UART_SetConfig+0x160>)
 800692a:	6a25      	ldr	r5, [r4, #32]
 800692c:	4001      	ands	r1, r0
 800692e:	68e0      	ldr	r0, [r4, #12]
 8006930:	4301      	orrs	r1, r0
 8006932:	6051      	str	r1, [r2, #4]
 8006934:	69a1      	ldr	r1, [r4, #24]
 8006936:	6890      	ldr	r0, [r2, #8]
 8006938:	4329      	orrs	r1, r5
 800693a:	4d4c      	ldr	r5, [pc, #304]	@ (8006a6c <UART_SetConfig+0x164>)
 800693c:	4028      	ands	r0, r5
 800693e:	4301      	orrs	r1, r0
 8006940:	6091      	str	r1, [r2, #8]
 8006942:	494b      	ldr	r1, [pc, #300]	@ (8006a70 <UART_SetConfig+0x168>)
 8006944:	428a      	cmp	r2, r1
 8006946:	d116      	bne.n	8006976 <UART_SetConfig+0x6e>
 8006948:	2103      	movs	r1, #3
 800694a:	4a4a      	ldr	r2, [pc, #296]	@ (8006a74 <UART_SetConfig+0x16c>)
 800694c:	6b12      	ldr	r2, [r2, #48]	@ 0x30
 800694e:	400a      	ands	r2, r1
 8006950:	2a02      	cmp	r2, #2
 8006952:	d100      	bne.n	8006956 <UART_SetConfig+0x4e>
 8006954:	e081      	b.n	8006a5a <UART_SetConfig+0x152>
 8006956:	428a      	cmp	r2, r1
 8006958:	d100      	bne.n	800695c <UART_SetConfig+0x54>
 800695a:	e078      	b.n	8006a4e <UART_SetConfig+0x146>
 800695c:	2a01      	cmp	r2, #1
 800695e:	d019      	beq.n	8006994 <UART_SetConfig+0x8c>
 8006960:	2280      	movs	r2, #128	@ 0x80
 8006962:	0212      	lsls	r2, r2, #8
 8006964:	4293      	cmp	r3, r2
 8006966:	d100      	bne.n	800696a <UART_SetConfig+0x62>
 8006968:	e06b      	b.n	8006a42 <UART_SetConfig+0x13a>
 800696a:	f7ff fb0b 	bl	8005f84 <HAL_RCC_GetPCLK1Freq>
 800696e:	2800      	cmp	r0, #0
 8006970:	d100      	bne.n	8006974 <UART_SetConfig+0x6c>
 8006972:	e06a      	b.n	8006a4a <UART_SetConfig+0x142>
 8006974:	e052      	b.n	8006a1c <UART_SetConfig+0x114>
 8006976:	4940      	ldr	r1, [pc, #256]	@ (8006a78 <UART_SetConfig+0x170>)
 8006978:	428a      	cmp	r2, r1
 800697a:	d119      	bne.n	80069b0 <UART_SetConfig+0xa8>
 800697c:	21c0      	movs	r1, #192	@ 0xc0
 800697e:	2080      	movs	r0, #128	@ 0x80
 8006980:	4a3c      	ldr	r2, [pc, #240]	@ (8006a74 <UART_SetConfig+0x16c>)
 8006982:	0289      	lsls	r1, r1, #10
 8006984:	6b12      	ldr	r2, [r2, #48]	@ 0x30
 8006986:	0280      	lsls	r0, r0, #10
 8006988:	400a      	ands	r2, r1
 800698a:	4282      	cmp	r2, r0
 800698c:	d065      	beq.n	8006a5a <UART_SetConfig+0x152>
 800698e:	d808      	bhi.n	80069a2 <UART_SetConfig+0x9a>
 8006990:	2a00      	cmp	r2, #0
 8006992:	d0e5      	beq.n	8006960 <UART_SetConfig+0x58>
 8006994:	2280      	movs	r2, #128	@ 0x80
 8006996:	0212      	lsls	r2, r2, #8
 8006998:	4293      	cmp	r3, r2
 800699a:	d14c      	bne.n	8006a36 <UART_SetConfig+0x12e>
 800699c:	f7ff fa32 	bl	8005e04 <HAL_RCC_GetSysClockFreq>
 80069a0:	e051      	b.n	8006a46 <UART_SetConfig+0x13e>
 80069a2:	428a      	cmp	r2, r1
 80069a4:	d053      	beq.n	8006a4e <UART_SetConfig+0x146>
 80069a6:	2001      	movs	r0, #1
 80069a8:	2300      	movs	r3, #0
 80069aa:	66a3      	str	r3, [r4, #104]	@ 0x68
 80069ac:	66e3      	str	r3, [r4, #108]	@ 0x6c
 80069ae:	bd70      	pop	{r4, r5, r6, pc}
 80069b0:	2180      	movs	r1, #128	@ 0x80
 80069b2:	4832      	ldr	r0, [pc, #200]	@ (8006a7c <UART_SetConfig+0x174>)
 80069b4:	0209      	lsls	r1, r1, #8
 80069b6:	4282      	cmp	r2, r0
 80069b8:	d040      	beq.n	8006a3c <UART_SetConfig+0x134>
 80069ba:	4831      	ldr	r0, [pc, #196]	@ (8006a80 <UART_SetConfig+0x178>)
 80069bc:	1812      	adds	r2, r2, r0
 80069be:	1e50      	subs	r0, r2, #1
 80069c0:	4182      	sbcs	r2, r0
 80069c2:	0110      	lsls	r0, r2, #4
 80069c4:	428b      	cmp	r3, r1
 80069c6:	d11e      	bne.n	8006a06 <UART_SetConfig+0xfe>
 80069c8:	2808      	cmp	r0, #8
 80069ca:	d8ec      	bhi.n	80069a6 <UART_SetConfig+0x9e>
 80069cc:	f7f9 fba4 	bl	8000118 <__gnu_thumb1_case_sqi>
 80069d0:	eb05eb39 	.word	0xeb05eb39
 80069d4:	ebebebe6 	.word	0xebebebe6
 80069d8:	06          	.byte	0x06
 80069d9:	00          	.byte	0x00
 80069da:	4b2a      	ldr	r3, [pc, #168]	@ (8006a84 <UART_SetConfig+0x17c>)
 80069dc:	6861      	ldr	r1, [r4, #4]
 80069de:	005b      	lsls	r3, r3, #1
 80069e0:	0848      	lsrs	r0, r1, #1
 80069e2:	1818      	adds	r0, r3, r0
 80069e4:	f7f9 fbb6 	bl	8000154 <__udivsi3>
 80069e8:	0002      	movs	r2, r0
 80069ea:	4b27      	ldr	r3, [pc, #156]	@ (8006a88 <UART_SetConfig+0x180>)
 80069ec:	3a10      	subs	r2, #16
 80069ee:	429a      	cmp	r2, r3
 80069f0:	d8d9      	bhi.n	80069a6 <UART_SetConfig+0x9e>
 80069f2:	230f      	movs	r3, #15
 80069f4:	0002      	movs	r2, r0
 80069f6:	0700      	lsls	r0, r0, #28
 80069f8:	439a      	bics	r2, r3
 80069fa:	b293      	uxth	r3, r2
 80069fc:	0f40      	lsrs	r0, r0, #29
 80069fe:	6822      	ldr	r2, [r4, #0]
 8006a00:	4303      	orrs	r3, r0
 8006a02:	60d3      	str	r3, [r2, #12]
 8006a04:	e021      	b.n	8006a4a <UART_SetConfig+0x142>
 8006a06:	2808      	cmp	r0, #8
 8006a08:	d8cd      	bhi.n	80069a6 <UART_SetConfig+0x9e>
 8006a0a:	f7f9 fb85 	bl	8000118 <__gnu_thumb1_case_sqi>
 8006a0e:	ccae      	.short	0xccae
 8006a10:	cc14cc24 	.word	0xcc14cc24
 8006a14:	cccc      	.short	0xcccc
 8006a16:	05          	.byte	0x05
 8006a17:	00          	.byte	0x00
 8006a18:	2080      	movs	r0, #128	@ 0x80
 8006a1a:	0200      	lsls	r0, r0, #8
 8006a1c:	6861      	ldr	r1, [r4, #4]
 8006a1e:	084b      	lsrs	r3, r1, #1
 8006a20:	1818      	adds	r0, r3, r0
 8006a22:	f7f9 fb97 	bl	8000154 <__udivsi3>
 8006a26:	0002      	movs	r2, r0
 8006a28:	4b17      	ldr	r3, [pc, #92]	@ (8006a88 <UART_SetConfig+0x180>)
 8006a2a:	3a10      	subs	r2, #16
 8006a2c:	429a      	cmp	r2, r3
 8006a2e:	d8ba      	bhi.n	80069a6 <UART_SetConfig+0x9e>
 8006a30:	6823      	ldr	r3, [r4, #0]
 8006a32:	60d8      	str	r0, [r3, #12]
 8006a34:	e009      	b.n	8006a4a <UART_SetConfig+0x142>
 8006a36:	f7ff f9e5 	bl	8005e04 <HAL_RCC_GetSysClockFreq>
 8006a3a:	e798      	b.n	800696e <UART_SetConfig+0x66>
 8006a3c:	428b      	cmp	r3, r1
 8006a3e:	d000      	beq.n	8006a42 <UART_SetConfig+0x13a>
 8006a40:	e793      	b.n	800696a <UART_SetConfig+0x62>
 8006a42:	f7ff fa9f 	bl	8005f84 <HAL_RCC_GetPCLK1Freq>
 8006a46:	1e03      	subs	r3, r0, #0
 8006a48:	d1c8      	bne.n	80069dc <UART_SetConfig+0xd4>
 8006a4a:	2000      	movs	r0, #0
 8006a4c:	e7ac      	b.n	80069a8 <UART_SetConfig+0xa0>
 8006a4e:	2280      	movs	r2, #128	@ 0x80
 8006a50:	0212      	lsls	r2, r2, #8
 8006a52:	4293      	cmp	r3, r2
 8006a54:	d0c1      	beq.n	80069da <UART_SetConfig+0xd2>
 8006a56:	480b      	ldr	r0, [pc, #44]	@ (8006a84 <UART_SetConfig+0x17c>)
 8006a58:	e7e0      	b.n	8006a1c <UART_SetConfig+0x114>
 8006a5a:	2080      	movs	r0, #128	@ 0x80
 8006a5c:	0200      	lsls	r0, r0, #8
 8006a5e:	4283      	cmp	r3, r0
 8006a60:	d1dc      	bne.n	8006a1c <UART_SetConfig+0x114>
 8006a62:	e7bb      	b.n	80069dc <UART_SetConfig+0xd4>
 8006a64:	efff69f3 	.word	0xefff69f3
 8006a68:	ffffcfff 	.word	0xffffcfff
 8006a6c:	fffff4ff 	.word	0xfffff4ff
 8006a70:	40013800 	.word	0x40013800
 8006a74:	40021000 	.word	0x40021000
 8006a78:	40004400 	.word	0x40004400
 8006a7c:	40004800 	.word	0x40004800
 8006a80:	bfffb400 	.word	0xbfffb400
 8006a84:	007a1200 	.word	0x007a1200
 8006a88:	0000ffef 	.word	0x0000ffef

08006a8c <UART_AdvFeatureConfig>:
 8006a8c:	6a43      	ldr	r3, [r0, #36]	@ 0x24
 8006a8e:	b530      	push	{r4, r5, lr}
 8006a90:	071a      	lsls	r2, r3, #28
 8006a92:	d506      	bpl.n	8006aa2 <UART_AdvFeatureConfig+0x16>
 8006a94:	6801      	ldr	r1, [r0, #0]
 8006a96:	4c28      	ldr	r4, [pc, #160]	@ (8006b38 <UART_AdvFeatureConfig+0xac>)
 8006a98:	684a      	ldr	r2, [r1, #4]
 8006a9a:	4022      	ands	r2, r4
 8006a9c:	6b44      	ldr	r4, [r0, #52]	@ 0x34
 8006a9e:	4322      	orrs	r2, r4
 8006aa0:	604a      	str	r2, [r1, #4]
 8006aa2:	07da      	lsls	r2, r3, #31
 8006aa4:	d506      	bpl.n	8006ab4 <UART_AdvFeatureConfig+0x28>
 8006aa6:	6801      	ldr	r1, [r0, #0]
 8006aa8:	4c24      	ldr	r4, [pc, #144]	@ (8006b3c <UART_AdvFeatureConfig+0xb0>)
 8006aaa:	684a      	ldr	r2, [r1, #4]
 8006aac:	4022      	ands	r2, r4
 8006aae:	6a84      	ldr	r4, [r0, #40]	@ 0x28
 8006ab0:	4322      	orrs	r2, r4
 8006ab2:	604a      	str	r2, [r1, #4]
 8006ab4:	079a      	lsls	r2, r3, #30
 8006ab6:	d506      	bpl.n	8006ac6 <UART_AdvFeatureConfig+0x3a>
 8006ab8:	6801      	ldr	r1, [r0, #0]
 8006aba:	4c21      	ldr	r4, [pc, #132]	@ (8006b40 <UART_AdvFeatureConfig+0xb4>)
 8006abc:	684a      	ldr	r2, [r1, #4]
 8006abe:	4022      	ands	r2, r4
 8006ac0:	6ac4      	ldr	r4, [r0, #44]	@ 0x2c
 8006ac2:	4322      	orrs	r2, r4
 8006ac4:	604a      	str	r2, [r1, #4]
 8006ac6:	075a      	lsls	r2, r3, #29
 8006ac8:	d506      	bpl.n	8006ad8 <UART_AdvFeatureConfig+0x4c>
 8006aca:	6801      	ldr	r1, [r0, #0]
 8006acc:	4c1d      	ldr	r4, [pc, #116]	@ (8006b44 <UART_AdvFeatureConfig+0xb8>)
 8006ace:	684a      	ldr	r2, [r1, #4]
 8006ad0:	4022      	ands	r2, r4
 8006ad2:	6b04      	ldr	r4, [r0, #48]	@ 0x30
 8006ad4:	4322      	orrs	r2, r4
 8006ad6:	604a      	str	r2, [r1, #4]
 8006ad8:	06da      	lsls	r2, r3, #27
 8006ada:	d506      	bpl.n	8006aea <UART_AdvFeatureConfig+0x5e>
 8006adc:	6801      	ldr	r1, [r0, #0]
 8006ade:	4c1a      	ldr	r4, [pc, #104]	@ (8006b48 <UART_AdvFeatureConfig+0xbc>)
 8006ae0:	688a      	ldr	r2, [r1, #8]
 8006ae2:	4022      	ands	r2, r4
 8006ae4:	6b84      	ldr	r4, [r0, #56]	@ 0x38
 8006ae6:	4322      	orrs	r2, r4
 8006ae8:	608a      	str	r2, [r1, #8]
 8006aea:	069a      	lsls	r2, r3, #26
 8006aec:	d506      	bpl.n	8006afc <UART_AdvFeatureConfig+0x70>
 8006aee:	6801      	ldr	r1, [r0, #0]
 8006af0:	4c16      	ldr	r4, [pc, #88]	@ (8006b4c <UART_AdvFeatureConfig+0xc0>)
 8006af2:	688a      	ldr	r2, [r1, #8]
 8006af4:	4022      	ands	r2, r4
 8006af6:	6bc4      	ldr	r4, [r0, #60]	@ 0x3c
 8006af8:	4322      	orrs	r2, r4
 8006afa:	608a      	str	r2, [r1, #8]
 8006afc:	065a      	lsls	r2, r3, #25
 8006afe:	d510      	bpl.n	8006b22 <UART_AdvFeatureConfig+0x96>
 8006b00:	6801      	ldr	r1, [r0, #0]
 8006b02:	4d13      	ldr	r5, [pc, #76]	@ (8006b50 <UART_AdvFeatureConfig+0xc4>)
 8006b04:	684a      	ldr	r2, [r1, #4]
 8006b06:	6c04      	ldr	r4, [r0, #64]	@ 0x40
 8006b08:	402a      	ands	r2, r5
 8006b0a:	4322      	orrs	r2, r4
 8006b0c:	604a      	str	r2, [r1, #4]
 8006b0e:	2280      	movs	r2, #128	@ 0x80
 8006b10:	0352      	lsls	r2, r2, #13
 8006b12:	4294      	cmp	r4, r2
 8006b14:	d105      	bne.n	8006b22 <UART_AdvFeatureConfig+0x96>
 8006b16:	684a      	ldr	r2, [r1, #4]
 8006b18:	4c0e      	ldr	r4, [pc, #56]	@ (8006b54 <UART_AdvFeatureConfig+0xc8>)
 8006b1a:	4022      	ands	r2, r4
 8006b1c:	6c44      	ldr	r4, [r0, #68]	@ 0x44
 8006b1e:	4322      	orrs	r2, r4
 8006b20:	604a      	str	r2, [r1, #4]
 8006b22:	061b      	lsls	r3, r3, #24
 8006b24:	d506      	bpl.n	8006b34 <UART_AdvFeatureConfig+0xa8>
 8006b26:	6802      	ldr	r2, [r0, #0]
 8006b28:	490b      	ldr	r1, [pc, #44]	@ (8006b58 <UART_AdvFeatureConfig+0xcc>)
 8006b2a:	6853      	ldr	r3, [r2, #4]
 8006b2c:	400b      	ands	r3, r1
 8006b2e:	6c81      	ldr	r1, [r0, #72]	@ 0x48
 8006b30:	430b      	orrs	r3, r1
 8006b32:	6053      	str	r3, [r2, #4]
 8006b34:	bd30      	pop	{r4, r5, pc}
 8006b36:	46c0      	nop			@ (mov r8, r8)
 8006b38:	ffff7fff 	.word	0xffff7fff
 8006b3c:	fffdffff 	.word	0xfffdffff
 8006b40:	fffeffff 	.word	0xfffeffff
 8006b44:	fffbffff 	.word	0xfffbffff
 8006b48:	ffffefff 	.word	0xffffefff
 8006b4c:	ffffdfff 	.word	0xffffdfff
 8006b50:	ffefffff 	.word	0xffefffff
 8006b54:	ff9fffff 	.word	0xff9fffff
 8006b58:	fff7ffff 	.word	0xfff7ffff

08006b5c <UART_WaitOnFlagUntilTimeout>:
 8006b5c:	b5f7      	push	{r0, r1, r2, r4, r5, r6, r7, lr}
 8006b5e:	0004      	movs	r4, r0
 8006b60:	000d      	movs	r5, r1
 8006b62:	0017      	movs	r7, r2
 8006b64:	9300      	str	r3, [sp, #0]
 8006b66:	6822      	ldr	r2, [r4, #0]
 8006b68:	69d3      	ldr	r3, [r2, #28]
 8006b6a:	402b      	ands	r3, r5
 8006b6c:	1b5b      	subs	r3, r3, r5
 8006b6e:	4259      	negs	r1, r3
 8006b70:	414b      	adcs	r3, r1
 8006b72:	42bb      	cmp	r3, r7
 8006b74:	d001      	beq.n	8006b7a <UART_WaitOnFlagUntilTimeout+0x1e>
 8006b76:	2000      	movs	r0, #0
 8006b78:	e025      	b.n	8006bc6 <UART_WaitOnFlagUntilTimeout+0x6a>
 8006b7a:	9b08      	ldr	r3, [sp, #32]
 8006b7c:	3301      	adds	r3, #1
 8006b7e:	d0f3      	beq.n	8006b68 <UART_WaitOnFlagUntilTimeout+0xc>
 8006b80:	f7fd f82a 	bl	8003bd8 <HAL_GetTick>
 8006b84:	9b00      	ldr	r3, [sp, #0]
 8006b86:	1ac0      	subs	r0, r0, r3
 8006b88:	9b08      	ldr	r3, [sp, #32]
 8006b8a:	4298      	cmp	r0, r3
 8006b8c:	d82c      	bhi.n	8006be8 <UART_WaitOnFlagUntilTimeout+0x8c>
 8006b8e:	2b00      	cmp	r3, #0
 8006b90:	d02a      	beq.n	8006be8 <UART_WaitOnFlagUntilTimeout+0x8c>
 8006b92:	6823      	ldr	r3, [r4, #0]
 8006b94:	681a      	ldr	r2, [r3, #0]
 8006b96:	0752      	lsls	r2, r2, #29
 8006b98:	d5e5      	bpl.n	8006b66 <UART_WaitOnFlagUntilTimeout+0xa>
 8006b9a:	002a      	movs	r2, r5
 8006b9c:	2140      	movs	r1, #64	@ 0x40
 8006b9e:	3a40      	subs	r2, #64	@ 0x40
 8006ba0:	438a      	bics	r2, r1
 8006ba2:	d0e0      	beq.n	8006b66 <UART_WaitOnFlagUntilTimeout+0xa>
 8006ba4:	69da      	ldr	r2, [r3, #28]
 8006ba6:	2608      	movs	r6, #8
 8006ba8:	0011      	movs	r1, r2
 8006baa:	4031      	ands	r1, r6
 8006bac:	9101      	str	r1, [sp, #4]
 8006bae:	4232      	tst	r2, r6
 8006bb0:	d00a      	beq.n	8006bc8 <UART_WaitOnFlagUntilTimeout+0x6c>
 8006bb2:	0020      	movs	r0, r4
 8006bb4:	621e      	str	r6, [r3, #32]
 8006bb6:	f7ff fe79 	bl	80068ac <UART_EndRxTransfer>
 8006bba:	19a3      	adds	r3, r4, r6
 8006bbc:	67de      	str	r6, [r3, #124]	@ 0x7c
 8006bbe:	2300      	movs	r3, #0
 8006bc0:	2001      	movs	r0, #1
 8006bc2:	3478      	adds	r4, #120	@ 0x78
 8006bc4:	7023      	strb	r3, [r4, #0]
 8006bc6:	bdfe      	pop	{r1, r2, r3, r4, r5, r6, r7, pc}
 8006bc8:	2280      	movs	r2, #128	@ 0x80
 8006bca:	69d9      	ldr	r1, [r3, #28]
 8006bcc:	0112      	lsls	r2, r2, #4
 8006bce:	4211      	tst	r1, r2
 8006bd0:	d0c9      	beq.n	8006b66 <UART_WaitOnFlagUntilTimeout+0xa>
 8006bd2:	621a      	str	r2, [r3, #32]
 8006bd4:	0020      	movs	r0, r4
 8006bd6:	f7ff fe69 	bl	80068ac <UART_EndRxTransfer>
 8006bda:	0023      	movs	r3, r4
 8006bdc:	2220      	movs	r2, #32
 8006bde:	3308      	adds	r3, #8
 8006be0:	67da      	str	r2, [r3, #124]	@ 0x7c
 8006be2:	9b01      	ldr	r3, [sp, #4]
 8006be4:	3478      	adds	r4, #120	@ 0x78
 8006be6:	7023      	strb	r3, [r4, #0]
 8006be8:	2003      	movs	r0, #3
 8006bea:	e7ec      	b.n	8006bc6 <UART_WaitOnFlagUntilTimeout+0x6a>

08006bec <UART_CheckIdleState>:
 8006bec:	0003      	movs	r3, r0
 8006bee:	b573      	push	{r0, r1, r4, r5, r6, lr}
 8006bf0:	2500      	movs	r5, #0
 8006bf2:	0004      	movs	r4, r0
 8006bf4:	3308      	adds	r3, #8
 8006bf6:	67dd      	str	r5, [r3, #124]	@ 0x7c
 8006bf8:	f7fc ffee 	bl	8003bd8 <HAL_GetTick>
 8006bfc:	6823      	ldr	r3, [r4, #0]
 8006bfe:	0006      	movs	r6, r0
 8006c00:	681b      	ldr	r3, [r3, #0]
 8006c02:	071b      	lsls	r3, r3, #28
 8006c04:	d51d      	bpl.n	8006c42 <UART_CheckIdleState+0x56>
 8006c06:	2180      	movs	r1, #128	@ 0x80
 8006c08:	4b26      	ldr	r3, [pc, #152]	@ (8006ca4 <UART_CheckIdleState+0xb8>)
 8006c0a:	002a      	movs	r2, r5
 8006c0c:	9300      	str	r3, [sp, #0]
 8006c0e:	0389      	lsls	r1, r1, #14
 8006c10:	0003      	movs	r3, r0
 8006c12:	0020      	movs	r0, r4
 8006c14:	f7ff ffa2 	bl	8006b5c <UART_WaitOnFlagUntilTimeout>
 8006c18:	42a8      	cmp	r0, r5
 8006c1a:	d012      	beq.n	8006c42 <UART_CheckIdleState+0x56>
 8006c1c:	f3ef 8110 	mrs	r1, PRIMASK
 8006c20:	2301      	movs	r3, #1
 8006c22:	f383 8810 	msr	PRIMASK, r3
 8006c26:	2080      	movs	r0, #128	@ 0x80
 8006c28:	6822      	ldr	r2, [r4, #0]
 8006c2a:	6813      	ldr	r3, [r2, #0]
 8006c2c:	4383      	bics	r3, r0
 8006c2e:	6013      	str	r3, [r2, #0]
 8006c30:	f381 8810 	msr	PRIMASK, r1
 8006c34:	2320      	movs	r3, #32
 8006c36:	67e3      	str	r3, [r4, #124]	@ 0x7c
 8006c38:	2003      	movs	r0, #3
 8006c3a:	2300      	movs	r3, #0
 8006c3c:	3478      	adds	r4, #120	@ 0x78
 8006c3e:	7023      	strb	r3, [r4, #0]
 8006c40:	bd76      	pop	{r1, r2, r4, r5, r6, pc}
 8006c42:	0025      	movs	r5, r4
 8006c44:	cd08      	ldmia	r5!, {r3}
 8006c46:	681b      	ldr	r3, [r3, #0]
 8006c48:	075b      	lsls	r3, r3, #29
 8006c4a:	d523      	bpl.n	8006c94 <UART_CheckIdleState+0xa8>
 8006c4c:	2180      	movs	r1, #128	@ 0x80
 8006c4e:	4b15      	ldr	r3, [pc, #84]	@ (8006ca4 <UART_CheckIdleState+0xb8>)
 8006c50:	2200      	movs	r2, #0
 8006c52:	9300      	str	r3, [sp, #0]
 8006c54:	0020      	movs	r0, r4
 8006c56:	0033      	movs	r3, r6
 8006c58:	03c9      	lsls	r1, r1, #15
 8006c5a:	f7ff ff7f 	bl	8006b5c <UART_WaitOnFlagUntilTimeout>
 8006c5e:	2800      	cmp	r0, #0
 8006c60:	d018      	beq.n	8006c94 <UART_CheckIdleState+0xa8>
 8006c62:	f3ef 8010 	mrs	r0, PRIMASK
 8006c66:	2201      	movs	r2, #1
 8006c68:	f382 8810 	msr	PRIMASK, r2
 8006c6c:	6821      	ldr	r1, [r4, #0]
 8006c6e:	4e0e      	ldr	r6, [pc, #56]	@ (8006ca8 <UART_CheckIdleState+0xbc>)
 8006c70:	680b      	ldr	r3, [r1, #0]
 8006c72:	4033      	ands	r3, r6
 8006c74:	600b      	str	r3, [r1, #0]
 8006c76:	f380 8810 	msr	PRIMASK, r0
 8006c7a:	f3ef 8010 	mrs	r0, PRIMASK
 8006c7e:	f382 8810 	msr	PRIMASK, r2
 8006c82:	6821      	ldr	r1, [r4, #0]
 8006c84:	688b      	ldr	r3, [r1, #8]
 8006c86:	4393      	bics	r3, r2
 8006c88:	608b      	str	r3, [r1, #8]
 8006c8a:	f380 8810 	msr	PRIMASK, r0
 8006c8e:	2320      	movs	r3, #32
 8006c90:	67eb      	str	r3, [r5, #124]	@ 0x7c
 8006c92:	e7d1      	b.n	8006c38 <UART_CheckIdleState+0x4c>
 8006c94:	2320      	movs	r3, #32
 8006c96:	2000      	movs	r0, #0
 8006c98:	67e3      	str	r3, [r4, #124]	@ 0x7c
 8006c9a:	67eb      	str	r3, [r5, #124]	@ 0x7c
 8006c9c:	6620      	str	r0, [r4, #96]	@ 0x60
 8006c9e:	6660      	str	r0, [r4, #100]	@ 0x64
 8006ca0:	e7cb      	b.n	8006c3a <UART_CheckIdleState+0x4e>
 8006ca2:	46c0      	nop			@ (mov r8, r8)
 8006ca4:	01ffffff 	.word	0x01ffffff
 8006ca8:	fffffedf 	.word	0xfffffedf

08006cac <HAL_UART_Init>:
 8006cac:	b510      	push	{r4, lr}
 8006cae:	1e04      	subs	r4, r0, #0
 8006cb0:	d101      	bne.n	8006cb6 <HAL_UART_Init+0xa>
 8006cb2:	2001      	movs	r0, #1
 8006cb4:	bd10      	pop	{r4, pc}
 8006cb6:	6fc3      	ldr	r3, [r0, #124]	@ 0x7c
 8006cb8:	2b00      	cmp	r3, #0
 8006cba:	d104      	bne.n	8006cc6 <HAL_UART_Init+0x1a>
 8006cbc:	0002      	movs	r2, r0
 8006cbe:	3278      	adds	r2, #120	@ 0x78
 8006cc0:	7013      	strb	r3, [r2, #0]
 8006cc2:	f7fc fe77 	bl	80039b4 <HAL_UART_MspInit>
 8006cc6:	2324      	movs	r3, #36	@ 0x24
 8006cc8:	2101      	movs	r1, #1
 8006cca:	6822      	ldr	r2, [r4, #0]
 8006ccc:	67e3      	str	r3, [r4, #124]	@ 0x7c
 8006cce:	6813      	ldr	r3, [r2, #0]
 8006cd0:	438b      	bics	r3, r1
 8006cd2:	6013      	str	r3, [r2, #0]
 8006cd4:	6a63      	ldr	r3, [r4, #36]	@ 0x24
 8006cd6:	2b00      	cmp	r3, #0
 8006cd8:	d002      	beq.n	8006ce0 <HAL_UART_Init+0x34>
 8006cda:	0020      	movs	r0, r4
 8006cdc:	f7ff fed6 	bl	8006a8c <UART_AdvFeatureConfig>
 8006ce0:	0020      	movs	r0, r4
 8006ce2:	f7ff fe11 	bl	8006908 <UART_SetConfig>
 8006ce6:	2801      	cmp	r0, #1
 8006ce8:	d0e3      	beq.n	8006cb2 <HAL_UART_Init+0x6>
 8006cea:	6823      	ldr	r3, [r4, #0]
 8006cec:	4907      	ldr	r1, [pc, #28]	@ (8006d0c <HAL_UART_Init+0x60>)
 8006cee:	685a      	ldr	r2, [r3, #4]
 8006cf0:	0020      	movs	r0, r4
 8006cf2:	400a      	ands	r2, r1
 8006cf4:	212a      	movs	r1, #42	@ 0x2a
 8006cf6:	605a      	str	r2, [r3, #4]
 8006cf8:	689a      	ldr	r2, [r3, #8]
 8006cfa:	438a      	bics	r2, r1
 8006cfc:	609a      	str	r2, [r3, #8]
 8006cfe:	2201      	movs	r2, #1
 8006d00:	6819      	ldr	r1, [r3, #0]
 8006d02:	430a      	orrs	r2, r1
 8006d04:	601a      	str	r2, [r3, #0]
 8006d06:	f7ff ff71 	bl	8006bec <UART_CheckIdleState>
 8006d0a:	e7d3      	b.n	8006cb4 <HAL_UART_Init+0x8>
 8006d0c:	ffffb7ff 	.word	0xffffb7ff

08006d10 <USB_EnableGlobalInt>:
 8006d10:	1d82      	adds	r2, r0, #6
 8006d12:	0003      	movs	r3, r0
 8006d14:	2000      	movs	r0, #0
 8006d16:	87d0      	strh	r0, [r2, #62]	@ 0x3e
 8006d18:	4a01      	ldr	r2, [pc, #4]	@ (8006d20 <USB_EnableGlobalInt+0x10>)
 8006d1a:	3302      	adds	r3, #2
 8006d1c:	87da      	strh	r2, [r3, #62]	@ 0x3e
 8006d1e:	4770      	bx	lr
 8006d20:	ffffbf80 	.word	0xffffbf80

08006d24 <USB_DisableGlobalInt>:
 8006d24:	3002      	adds	r0, #2
 8006d26:	8fc3      	ldrh	r3, [r0, #62]	@ 0x3e
 8006d28:	4a02      	ldr	r2, [pc, #8]	@ (8006d34 <USB_DisableGlobalInt+0x10>)
 8006d2a:	4013      	ands	r3, r2
 8006d2c:	87c3      	strh	r3, [r0, #62]	@ 0x3e
 8006d2e:	2000      	movs	r0, #0
 8006d30:	4770      	bx	lr
 8006d32:	46c0      	nop			@ (mov r8, r8)
 8006d34:	0000407f 	.word	0x0000407f

08006d38 <USB_DevInit>:
 8006d38:	1c82      	adds	r2, r0, #2
 8006d3a:	0003      	movs	r3, r0
 8006d3c:	2101      	movs	r1, #1
 8006d3e:	2000      	movs	r0, #0
 8006d40:	b082      	sub	sp, #8
 8006d42:	87d1      	strh	r1, [r2, #62]	@ 0x3e
 8006d44:	87d0      	strh	r0, [r2, #62]	@ 0x3e
 8006d46:	1d9a      	adds	r2, r3, #6
 8006d48:	3350      	adds	r3, #80	@ 0x50
 8006d4a:	87d0      	strh	r0, [r2, #62]	@ 0x3e
 8006d4c:	8018      	strh	r0, [r3, #0]
 8006d4e:	b002      	add	sp, #8
 8006d50:	4770      	bx	lr
	...

08006d54 <USB_ActivateEndpoint>:
 8006d54:	b5f7      	push	{r0, r1, r2, r4, r5, r6, r7, lr}
 8006d56:	780e      	ldrb	r6, [r1, #0]
 8006d58:	4a7a      	ldr	r2, [pc, #488]	@ (8006f44 <USB_ActivateEndpoint+0x1f0>)
 8006d5a:	00b3      	lsls	r3, r6, #2
 8006d5c:	18c3      	adds	r3, r0, r3
 8006d5e:	881c      	ldrh	r4, [r3, #0]
 8006d60:	78cf      	ldrb	r7, [r1, #3]
 8006d62:	4014      	ands	r4, r2
 8006d64:	2201      	movs	r2, #1
 8006d66:	0005      	movs	r5, r0
 8006d68:	9200      	str	r2, [sp, #0]
 8006d6a:	2f03      	cmp	r7, #3
 8006d6c:	d808      	bhi.n	8006d80 <USB_ActivateEndpoint+0x2c>
 8006d6e:	0038      	movs	r0, r7
 8006d70:	f7f9 f9dc 	bl	800012c <__gnu_thumb1_case_uqi>
 8006d74:	3c3f4202 	.word	0x3c3f4202
 8006d78:	2280      	movs	r2, #128	@ 0x80
 8006d7a:	0092      	lsls	r2, r2, #2
 8006d7c:	4314      	orrs	r4, r2
 8006d7e:	9700      	str	r7, [sp, #0]
 8006d80:	4a71      	ldr	r2, [pc, #452]	@ (8006f48 <USB_ActivateEndpoint+0x1f4>)
 8006d82:	4314      	orrs	r4, r2
 8006d84:	b2a4      	uxth	r4, r4
 8006d86:	801c      	strh	r4, [r3, #0]
 8006d88:	8818      	ldrh	r0, [r3, #0]
 8006d8a:	4c70      	ldr	r4, [pc, #448]	@ (8006f4c <USB_ActivateEndpoint+0x1f8>)
 8006d8c:	4020      	ands	r0, r4
 8006d8e:	4330      	orrs	r0, r6
 8006d90:	4310      	orrs	r0, r2
 8006d92:	b280      	uxth	r0, r0
 8006d94:	8018      	strh	r0, [r3, #0]
 8006d96:	00f0      	lsls	r0, r6, #3
 8006d98:	4684      	mov	ip, r0
 8006d9a:	7b08      	ldrb	r0, [r1, #12]
 8006d9c:	44ac      	add	ip, r5
 8006d9e:	3550      	adds	r5, #80	@ 0x50
 8006da0:	9501      	str	r5, [sp, #4]
 8006da2:	2800      	cmp	r0, #0
 8006da4:	d000      	beq.n	8006da8 <USB_ActivateEndpoint+0x54>
 8006da6:	e06b      	b.n	8006e80 <USB_ActivateEndpoint+0x12c>
 8006da8:	88cd      	ldrh	r5, [r1, #6]
 8006daa:	7848      	ldrb	r0, [r1, #1]
 8006dac:	086d      	lsrs	r5, r5, #1
 8006dae:	006d      	lsls	r5, r5, #1
 8006db0:	2800      	cmp	r0, #0
 8006db2:	d023      	beq.n	8006dfc <USB_ActivateEndpoint+0xa8>
 8006db4:	2080      	movs	r0, #128	@ 0x80
 8006db6:	9901      	ldr	r1, [sp, #4]
 8006db8:	00c0      	lsls	r0, r0, #3
 8006dba:	8809      	ldrh	r1, [r1, #0]
 8006dbc:	4461      	add	r1, ip
 8006dbe:	1809      	adds	r1, r1, r0
 8006dc0:	800d      	strh	r5, [r1, #0]
 8006dc2:	8819      	ldrh	r1, [r3, #0]
 8006dc4:	0649      	lsls	r1, r1, #25
 8006dc6:	d504      	bpl.n	8006dd2 <USB_ActivateEndpoint+0x7e>
 8006dc8:	8819      	ldrh	r1, [r3, #0]
 8006dca:	4021      	ands	r1, r4
 8006dcc:	4c60      	ldr	r4, [pc, #384]	@ (8006f50 <USB_ActivateEndpoint+0x1fc>)
 8006dce:	4321      	orrs	r1, r4
 8006dd0:	8019      	strh	r1, [r3, #0]
 8006dd2:	4d60      	ldr	r5, [pc, #384]	@ (8006f54 <USB_ActivateEndpoint+0x200>)
 8006dd4:	2f01      	cmp	r7, #1
 8006dd6:	d100      	bne.n	8006dda <USB_ActivateEndpoint+0x86>
 8006dd8:	e0ae      	b.n	8006f38 <USB_ActivateEndpoint+0x1e4>
 8006dda:	2120      	movs	r1, #32
 8006ddc:	881c      	ldrh	r4, [r3, #0]
 8006dde:	402c      	ands	r4, r5
 8006de0:	4061      	eors	r1, r4
 8006de2:	430a      	orrs	r2, r1
 8006de4:	b292      	uxth	r2, r2
 8006de6:	9800      	ldr	r0, [sp, #0]
 8006de8:	801a      	strh	r2, [r3, #0]
 8006dea:	bdfe      	pop	{r1, r2, r3, r4, r5, r6, r7, pc}
 8006dec:	22c0      	movs	r2, #192	@ 0xc0
 8006dee:	00d2      	lsls	r2, r2, #3
 8006df0:	4314      	orrs	r4, r2
 8006df2:	2200      	movs	r2, #0
 8006df4:	9200      	str	r2, [sp, #0]
 8006df6:	e7c3      	b.n	8006d80 <USB_ActivateEndpoint+0x2c>
 8006df8:	2280      	movs	r2, #128	@ 0x80
 8006dfa:	e7f8      	b.n	8006dee <USB_ActivateEndpoint+0x9a>
 8006dfc:	9801      	ldr	r0, [sp, #4]
 8006dfe:	6909      	ldr	r1, [r1, #16]
 8006e00:	8807      	ldrh	r7, [r0, #0]
 8006e02:	4855      	ldr	r0, [pc, #340]	@ (8006f58 <USB_ActivateEndpoint+0x204>)
 8006e04:	4467      	add	r7, ip
 8006e06:	183f      	adds	r7, r7, r0
 8006e08:	9801      	ldr	r0, [sp, #4]
 8006e0a:	803d      	strh	r5, [r7, #0]
 8006e0c:	8805      	ldrh	r5, [r0, #0]
 8006e0e:	4853      	ldr	r0, [pc, #332]	@ (8006f5c <USB_ActivateEndpoint+0x208>)
 8006e10:	4465      	add	r5, ip
 8006e12:	182d      	adds	r5, r5, r0
 8006e14:	882f      	ldrh	r7, [r5, #0]
 8006e16:	05bf      	lsls	r7, r7, #22
 8006e18:	0dbf      	lsrs	r7, r7, #22
 8006e1a:	802f      	strh	r7, [r5, #0]
 8006e1c:	2900      	cmp	r1, #0
 8006e1e:	d115      	bne.n	8006e4c <USB_ActivateEndpoint+0xf8>
 8006e20:	2780      	movs	r7, #128	@ 0x80
 8006e22:	8829      	ldrh	r1, [r5, #0]
 8006e24:	023f      	lsls	r7, r7, #8
 8006e26:	4339      	orrs	r1, r7
 8006e28:	8029      	strh	r1, [r5, #0]
 8006e2a:	8819      	ldrh	r1, [r3, #0]
 8006e2c:	0449      	lsls	r1, r1, #17
 8006e2e:	d504      	bpl.n	8006e3a <USB_ActivateEndpoint+0xe6>
 8006e30:	8819      	ldrh	r1, [r3, #0]
 8006e32:	4021      	ands	r1, r4
 8006e34:	4c4a      	ldr	r4, [pc, #296]	@ (8006f60 <USB_ActivateEndpoint+0x20c>)
 8006e36:	4321      	orrs	r1, r4
 8006e38:	8019      	strh	r1, [r3, #0]
 8006e3a:	494a      	ldr	r1, [pc, #296]	@ (8006f64 <USB_ActivateEndpoint+0x210>)
 8006e3c:	881c      	ldrh	r4, [r3, #0]
 8006e3e:	400c      	ands	r4, r1
 8006e40:	21c0      	movs	r1, #192	@ 0xc0
 8006e42:	2e00      	cmp	r6, #0
 8006e44:	d000      	beq.n	8006e48 <USB_ActivateEndpoint+0xf4>
 8006e46:	2180      	movs	r1, #128	@ 0x80
 8006e48:	0189      	lsls	r1, r1, #6
 8006e4a:	e7c9      	b.n	8006de0 <USB_ActivateEndpoint+0x8c>
 8006e4c:	293e      	cmp	r1, #62	@ 0x3e
 8006e4e:	d808      	bhi.n	8006e62 <USB_ActivateEndpoint+0x10e>
 8006e50:	2001      	movs	r0, #1
 8006e52:	084f      	lsrs	r7, r1, #1
 8006e54:	4001      	ands	r1, r0
 8006e56:	187f      	adds	r7, r7, r1
 8006e58:	8829      	ldrh	r1, [r5, #0]
 8006e5a:	02bf      	lsls	r7, r7, #10
 8006e5c:	4339      	orrs	r1, r7
 8006e5e:	b289      	uxth	r1, r1
 8006e60:	e7e2      	b.n	8006e28 <USB_ActivateEndpoint+0xd4>
 8006e62:	201f      	movs	r0, #31
 8006e64:	094f      	lsrs	r7, r1, #5
 8006e66:	4001      	ands	r1, r0
 8006e68:	0008      	movs	r0, r1
 8006e6a:	4241      	negs	r1, r0
 8006e6c:	4141      	adcs	r1, r0
 8006e6e:	1a7f      	subs	r7, r7, r1
 8006e70:	8829      	ldrh	r1, [r5, #0]
 8006e72:	02bf      	lsls	r7, r7, #10
 8006e74:	4339      	orrs	r1, r7
 8006e76:	4f3c      	ldr	r7, [pc, #240]	@ (8006f68 <USB_ActivateEndpoint+0x214>)
 8006e78:	430f      	orrs	r7, r1
 8006e7a:	b2bf      	uxth	r7, r7
 8006e7c:	802f      	strh	r7, [r5, #0]
 8006e7e:	e7d4      	b.n	8006e2a <USB_ActivateEndpoint+0xd6>
 8006e80:	881d      	ldrh	r5, [r3, #0]
 8006e82:	2f02      	cmp	r7, #2
 8006e84:	d13a      	bne.n	8006efc <USB_ActivateEndpoint+0x1a8>
 8006e86:	4e39      	ldr	r6, [pc, #228]	@ (8006f6c <USB_ActivateEndpoint+0x218>)
 8006e88:	4025      	ands	r5, r4
 8006e8a:	4335      	orrs	r5, r6
 8006e8c:	9801      	ldr	r0, [sp, #4]
 8006e8e:	801d      	strh	r5, [r3, #0]
 8006e90:	8805      	ldrh	r5, [r0, #0]
 8006e92:	2080      	movs	r0, #128	@ 0x80
 8006e94:	890e      	ldrh	r6, [r1, #8]
 8006e96:	4465      	add	r5, ip
 8006e98:	00c0      	lsls	r0, r0, #3
 8006e9a:	0876      	lsrs	r6, r6, #1
 8006e9c:	182d      	adds	r5, r5, r0
 8006e9e:	0076      	lsls	r6, r6, #1
 8006ea0:	9801      	ldr	r0, [sp, #4]
 8006ea2:	802e      	strh	r6, [r5, #0]
 8006ea4:	8805      	ldrh	r5, [r0, #0]
 8006ea6:	894e      	ldrh	r6, [r1, #10]
 8006ea8:	482b      	ldr	r0, [pc, #172]	@ (8006f58 <USB_ActivateEndpoint+0x204>)
 8006eaa:	4465      	add	r5, ip
 8006eac:	0876      	lsrs	r6, r6, #1
 8006eae:	182d      	adds	r5, r5, r0
 8006eb0:	0076      	lsls	r6, r6, #1
 8006eb2:	802e      	strh	r6, [r5, #0]
 8006eb4:	7849      	ldrb	r1, [r1, #1]
 8006eb6:	4e27      	ldr	r6, [pc, #156]	@ (8006f54 <USB_ActivateEndpoint+0x200>)
 8006eb8:	468c      	mov	ip, r1
 8006eba:	2180      	movs	r1, #128	@ 0x80
 8006ebc:	4660      	mov	r0, ip
 8006ebe:	4d29      	ldr	r5, [pc, #164]	@ (8006f64 <USB_ActivateEndpoint+0x210>)
 8006ec0:	01c9      	lsls	r1, r1, #7
 8006ec2:	2800      	cmp	r0, #0
 8006ec4:	d11f      	bne.n	8006f06 <USB_ActivateEndpoint+0x1b2>
 8006ec6:	881f      	ldrh	r7, [r3, #0]
 8006ec8:	420f      	tst	r7, r1
 8006eca:	d004      	beq.n	8006ed6 <USB_ActivateEndpoint+0x182>
 8006ecc:	8819      	ldrh	r1, [r3, #0]
 8006ece:	4f24      	ldr	r7, [pc, #144]	@ (8006f60 <USB_ActivateEndpoint+0x20c>)
 8006ed0:	4021      	ands	r1, r4
 8006ed2:	4339      	orrs	r1, r7
 8006ed4:	8019      	strh	r1, [r3, #0]
 8006ed6:	8819      	ldrh	r1, [r3, #0]
 8006ed8:	0649      	lsls	r1, r1, #25
 8006eda:	d504      	bpl.n	8006ee6 <USB_ActivateEndpoint+0x192>
 8006edc:	8819      	ldrh	r1, [r3, #0]
 8006ede:	4021      	ands	r1, r4
 8006ee0:	4c1b      	ldr	r4, [pc, #108]	@ (8006f50 <USB_ActivateEndpoint+0x1fc>)
 8006ee2:	4321      	orrs	r1, r4
 8006ee4:	8019      	strh	r1, [r3, #0]
 8006ee6:	21c0      	movs	r1, #192	@ 0xc0
 8006ee8:	881c      	ldrh	r4, [r3, #0]
 8006eea:	0189      	lsls	r1, r1, #6
 8006eec:	402c      	ands	r4, r5
 8006eee:	4061      	eors	r1, r4
 8006ef0:	4311      	orrs	r1, r2
 8006ef2:	b289      	uxth	r1, r1
 8006ef4:	8019      	strh	r1, [r3, #0]
 8006ef6:	8819      	ldrh	r1, [r3, #0]
 8006ef8:	4031      	ands	r1, r6
 8006efa:	e772      	b.n	8006de2 <USB_ActivateEndpoint+0x8e>
 8006efc:	4e1c      	ldr	r6, [pc, #112]	@ (8006f70 <USB_ActivateEndpoint+0x21c>)
 8006efe:	4035      	ands	r5, r6
 8006f00:	4315      	orrs	r5, r2
 8006f02:	b2ad      	uxth	r5, r5
 8006f04:	e7c2      	b.n	8006e8c <USB_ActivateEndpoint+0x138>
 8006f06:	8818      	ldrh	r0, [r3, #0]
 8006f08:	4208      	tst	r0, r1
 8006f0a:	d004      	beq.n	8006f16 <USB_ActivateEndpoint+0x1c2>
 8006f0c:	8819      	ldrh	r1, [r3, #0]
 8006f0e:	4814      	ldr	r0, [pc, #80]	@ (8006f60 <USB_ActivateEndpoint+0x20c>)
 8006f10:	4021      	ands	r1, r4
 8006f12:	4301      	orrs	r1, r0
 8006f14:	8019      	strh	r1, [r3, #0]
 8006f16:	8819      	ldrh	r1, [r3, #0]
 8006f18:	0649      	lsls	r1, r1, #25
 8006f1a:	d504      	bpl.n	8006f26 <USB_ActivateEndpoint+0x1d2>
 8006f1c:	8819      	ldrh	r1, [r3, #0]
 8006f1e:	4021      	ands	r1, r4
 8006f20:	4c0b      	ldr	r4, [pc, #44]	@ (8006f50 <USB_ActivateEndpoint+0x1fc>)
 8006f22:	4321      	orrs	r1, r4
 8006f24:	8019      	strh	r1, [r3, #0]
 8006f26:	2f01      	cmp	r7, #1
 8006f28:	d009      	beq.n	8006f3e <USB_ActivateEndpoint+0x1ea>
 8006f2a:	2120      	movs	r1, #32
 8006f2c:	881c      	ldrh	r4, [r3, #0]
 8006f2e:	4034      	ands	r4, r6
 8006f30:	4061      	eors	r1, r4
 8006f32:	4311      	orrs	r1, r2
 8006f34:	b289      	uxth	r1, r1
 8006f36:	8019      	strh	r1, [r3, #0]
 8006f38:	8819      	ldrh	r1, [r3, #0]
 8006f3a:	4029      	ands	r1, r5
 8006f3c:	e751      	b.n	8006de2 <USB_ActivateEndpoint+0x8e>
 8006f3e:	8819      	ldrh	r1, [r3, #0]
 8006f40:	4031      	ands	r1, r6
 8006f42:	e7f6      	b.n	8006f32 <USB_ActivateEndpoint+0x1de>
 8006f44:	ffff898f 	.word	0xffff898f
 8006f48:	ffff8080 	.word	0xffff8080
 8006f4c:	ffff8f8f 	.word	0xffff8f8f
 8006f50:	000080c0 	.word	0x000080c0
 8006f54:	ffff8fbf 	.word	0xffff8fbf
 8006f58:	00000404 	.word	0x00000404
 8006f5c:	00000406 	.word	0x00000406
 8006f60:	0000c080 	.word	0x0000c080
 8006f64:	ffffbf8f 	.word	0xffffbf8f
 8006f68:	ffff8000 	.word	0xffff8000
 8006f6c:	00008180 	.word	0x00008180
 8006f70:	ffff8e8f 	.word	0xffff8e8f

08006f74 <USB_DeactivateEndpoint>:
 8006f74:	b5f0      	push	{r4, r5, r6, r7, lr}
 8006f76:	780b      	ldrb	r3, [r1, #0]
 8006f78:	784a      	ldrb	r2, [r1, #1]
 8006f7a:	7b09      	ldrb	r1, [r1, #12]
 8006f7c:	009b      	lsls	r3, r3, #2
 8006f7e:	18c0      	adds	r0, r0, r3
 8006f80:	4b31      	ldr	r3, [pc, #196]	@ (8007048 <USB_DeactivateEndpoint+0xd4>)
 8006f82:	2900      	cmp	r1, #0
 8006f84:	d11a      	bne.n	8006fbc <USB_DeactivateEndpoint+0x48>
 8006f86:	2a00      	cmp	r2, #0
 8006f88:	d00c      	beq.n	8006fa4 <USB_DeactivateEndpoint+0x30>
 8006f8a:	8802      	ldrh	r2, [r0, #0]
 8006f8c:	0652      	lsls	r2, r2, #25
 8006f8e:	d505      	bpl.n	8006f9c <USB_DeactivateEndpoint+0x28>
 8006f90:	8802      	ldrh	r2, [r0, #0]
 8006f92:	492e      	ldr	r1, [pc, #184]	@ (800704c <USB_DeactivateEndpoint+0xd8>)
 8006f94:	400a      	ands	r2, r1
 8006f96:	492e      	ldr	r1, [pc, #184]	@ (8007050 <USB_DeactivateEndpoint+0xdc>)
 8006f98:	430a      	orrs	r2, r1
 8006f9a:	8002      	strh	r2, [r0, #0]
 8006f9c:	8802      	ldrh	r2, [r0, #0]
 8006f9e:	492d      	ldr	r1, [pc, #180]	@ (8007054 <USB_DeactivateEndpoint+0xe0>)
 8006fa0:	400a      	ands	r2, r1
 8006fa2:	e02f      	b.n	8007004 <USB_DeactivateEndpoint+0x90>
 8006fa4:	8802      	ldrh	r2, [r0, #0]
 8006fa6:	0452      	lsls	r2, r2, #17
 8006fa8:	d505      	bpl.n	8006fb6 <USB_DeactivateEndpoint+0x42>
 8006faa:	8802      	ldrh	r2, [r0, #0]
 8006fac:	4927      	ldr	r1, [pc, #156]	@ (800704c <USB_DeactivateEndpoint+0xd8>)
 8006fae:	400a      	ands	r2, r1
 8006fb0:	4929      	ldr	r1, [pc, #164]	@ (8007058 <USB_DeactivateEndpoint+0xe4>)
 8006fb2:	430a      	orrs	r2, r1
 8006fb4:	8002      	strh	r2, [r0, #0]
 8006fb6:	8802      	ldrh	r2, [r0, #0]
 8006fb8:	4928      	ldr	r1, [pc, #160]	@ (800705c <USB_DeactivateEndpoint+0xe8>)
 8006fba:	e7f1      	b.n	8006fa0 <USB_DeactivateEndpoint+0x2c>
 8006fbc:	2780      	movs	r7, #128	@ 0x80
 8006fbe:	4e23      	ldr	r6, [pc, #140]	@ (800704c <USB_DeactivateEndpoint+0xd8>)
 8006fc0:	4d24      	ldr	r5, [pc, #144]	@ (8007054 <USB_DeactivateEndpoint+0xe0>)
 8006fc2:	4926      	ldr	r1, [pc, #152]	@ (800705c <USB_DeactivateEndpoint+0xe8>)
 8006fc4:	01ff      	lsls	r7, r7, #7
 8006fc6:	2a00      	cmp	r2, #0
 8006fc8:	d121      	bne.n	800700e <USB_DeactivateEndpoint+0x9a>
 8006fca:	8802      	ldrh	r2, [r0, #0]
 8006fcc:	423a      	tst	r2, r7
 8006fce:	d004      	beq.n	8006fda <USB_DeactivateEndpoint+0x66>
 8006fd0:	8802      	ldrh	r2, [r0, #0]
 8006fd2:	4c21      	ldr	r4, [pc, #132]	@ (8007058 <USB_DeactivateEndpoint+0xe4>)
 8006fd4:	4032      	ands	r2, r6
 8006fd6:	4322      	orrs	r2, r4
 8006fd8:	8002      	strh	r2, [r0, #0]
 8006fda:	8802      	ldrh	r2, [r0, #0]
 8006fdc:	4c20      	ldr	r4, [pc, #128]	@ (8007060 <USB_DeactivateEndpoint+0xec>)
 8006fde:	0652      	lsls	r2, r2, #25
 8006fe0:	d504      	bpl.n	8006fec <USB_DeactivateEndpoint+0x78>
 8006fe2:	8802      	ldrh	r2, [r0, #0]
 8006fe4:	4032      	ands	r2, r6
 8006fe6:	4322      	orrs	r2, r4
 8006fe8:	b292      	uxth	r2, r2
 8006fea:	8002      	strh	r2, [r0, #0]
 8006fec:	8802      	ldrh	r2, [r0, #0]
 8006fee:	4032      	ands	r2, r6
 8006ff0:	4314      	orrs	r4, r2
 8006ff2:	b2a4      	uxth	r4, r4
 8006ff4:	8004      	strh	r4, [r0, #0]
 8006ff6:	8802      	ldrh	r2, [r0, #0]
 8006ff8:	400a      	ands	r2, r1
 8006ffa:	431a      	orrs	r2, r3
 8006ffc:	b292      	uxth	r2, r2
 8006ffe:	8002      	strh	r2, [r0, #0]
 8007000:	8802      	ldrh	r2, [r0, #0]
 8007002:	402a      	ands	r2, r5
 8007004:	4313      	orrs	r3, r2
 8007006:	b29b      	uxth	r3, r3
 8007008:	8003      	strh	r3, [r0, #0]
 800700a:	2000      	movs	r0, #0
 800700c:	bdf0      	pop	{r4, r5, r6, r7, pc}
 800700e:	8802      	ldrh	r2, [r0, #0]
 8007010:	4c14      	ldr	r4, [pc, #80]	@ (8007064 <USB_DeactivateEndpoint+0xf0>)
 8007012:	423a      	tst	r2, r7
 8007014:	d004      	beq.n	8007020 <USB_DeactivateEndpoint+0xac>
 8007016:	8802      	ldrh	r2, [r0, #0]
 8007018:	4032      	ands	r2, r6
 800701a:	4322      	orrs	r2, r4
 800701c:	b292      	uxth	r2, r2
 800701e:	8002      	strh	r2, [r0, #0]
 8007020:	8802      	ldrh	r2, [r0, #0]
 8007022:	0652      	lsls	r2, r2, #25
 8007024:	d504      	bpl.n	8007030 <USB_DeactivateEndpoint+0xbc>
 8007026:	8802      	ldrh	r2, [r0, #0]
 8007028:	4f09      	ldr	r7, [pc, #36]	@ (8007050 <USB_DeactivateEndpoint+0xdc>)
 800702a:	4032      	ands	r2, r6
 800702c:	433a      	orrs	r2, r7
 800702e:	8002      	strh	r2, [r0, #0]
 8007030:	8802      	ldrh	r2, [r0, #0]
 8007032:	4032      	ands	r2, r6
 8007034:	4314      	orrs	r4, r2
 8007036:	b2a4      	uxth	r4, r4
 8007038:	8004      	strh	r4, [r0, #0]
 800703a:	8802      	ldrh	r2, [r0, #0]
 800703c:	402a      	ands	r2, r5
 800703e:	431a      	orrs	r2, r3
 8007040:	b292      	uxth	r2, r2
 8007042:	8002      	strh	r2, [r0, #0]
 8007044:	8802      	ldrh	r2, [r0, #0]
 8007046:	e7ab      	b.n	8006fa0 <USB_DeactivateEndpoint+0x2c>
 8007048:	ffff8080 	.word	0xffff8080
 800704c:	ffff8f8f 	.word	0xffff8f8f
 8007050:	000080c0 	.word	0x000080c0
 8007054:	ffff8fbf 	.word	0xffff8fbf
 8007058:	0000c080 	.word	0x0000c080
 800705c:	ffffbf8f 	.word	0xffffbf8f
 8007060:	ffff80c0 	.word	0xffff80c0
 8007064:	ffffc080 	.word	0xffffc080

08007068 <USB_EPSetStall>:
 8007068:	780b      	ldrb	r3, [r1, #0]
 800706a:	7849      	ldrb	r1, [r1, #1]
 800706c:	009b      	lsls	r3, r3, #2
 800706e:	4a0c      	ldr	r2, [pc, #48]	@ (80070a0 <USB_EPSetStall+0x38>)
 8007070:	18c0      	adds	r0, r0, r3
 8007072:	2900      	cmp	r1, #0
 8007074:	d009      	beq.n	800708a <USB_EPSetStall+0x22>
 8007076:	8801      	ldrh	r1, [r0, #0]
 8007078:	4b0a      	ldr	r3, [pc, #40]	@ (80070a4 <USB_EPSetStall+0x3c>)
 800707a:	4019      	ands	r1, r3
 800707c:	2310      	movs	r3, #16
 800707e:	404b      	eors	r3, r1
 8007080:	4313      	orrs	r3, r2
 8007082:	b29b      	uxth	r3, r3
 8007084:	8003      	strh	r3, [r0, #0]
 8007086:	2000      	movs	r0, #0
 8007088:	4770      	bx	lr
 800708a:	8801      	ldrh	r1, [r0, #0]
 800708c:	4b06      	ldr	r3, [pc, #24]	@ (80070a8 <USB_EPSetStall+0x40>)
 800708e:	4019      	ands	r1, r3
 8007090:	2380      	movs	r3, #128	@ 0x80
 8007092:	015b      	lsls	r3, r3, #5
 8007094:	404b      	eors	r3, r1
 8007096:	431a      	orrs	r2, r3
 8007098:	b292      	uxth	r2, r2
 800709a:	8002      	strh	r2, [r0, #0]
 800709c:	e7f3      	b.n	8007086 <USB_EPSetStall+0x1e>
 800709e:	46c0      	nop			@ (mov r8, r8)
 80070a0:	ffff8080 	.word	0xffff8080
 80070a4:	ffff8fbf 	.word	0xffff8fbf
 80070a8:	ffffbf8f 	.word	0xffffbf8f

080070ac <USB_EPClearStall>:
 80070ac:	7b0b      	ldrb	r3, [r1, #12]
 80070ae:	2b00      	cmp	r3, #0
 80070b0:	d119      	bne.n	80070e6 <USB_EPClearStall+0x3a>
 80070b2:	780b      	ldrb	r3, [r1, #0]
 80070b4:	784a      	ldrb	r2, [r1, #1]
 80070b6:	009b      	lsls	r3, r3, #2
 80070b8:	18c0      	adds	r0, r0, r3
 80070ba:	8803      	ldrh	r3, [r0, #0]
 80070bc:	2a00      	cmp	r2, #0
 80070be:	d014      	beq.n	80070ea <USB_EPClearStall+0x3e>
 80070c0:	065b      	lsls	r3, r3, #25
 80070c2:	d505      	bpl.n	80070d0 <USB_EPClearStall+0x24>
 80070c4:	8803      	ldrh	r3, [r0, #0]
 80070c6:	4a10      	ldr	r2, [pc, #64]	@ (8007108 <USB_EPClearStall+0x5c>)
 80070c8:	4013      	ands	r3, r2
 80070ca:	4a10      	ldr	r2, [pc, #64]	@ (800710c <USB_EPClearStall+0x60>)
 80070cc:	4313      	orrs	r3, r2
 80070ce:	8003      	strh	r3, [r0, #0]
 80070d0:	78cb      	ldrb	r3, [r1, #3]
 80070d2:	2b01      	cmp	r3, #1
 80070d4:	d007      	beq.n	80070e6 <USB_EPClearStall+0x3a>
 80070d6:	4b0e      	ldr	r3, [pc, #56]	@ (8007110 <USB_EPClearStall+0x64>)
 80070d8:	8802      	ldrh	r2, [r0, #0]
 80070da:	401a      	ands	r2, r3
 80070dc:	2320      	movs	r3, #32
 80070de:	4053      	eors	r3, r2
 80070e0:	4a0c      	ldr	r2, [pc, #48]	@ (8007114 <USB_EPClearStall+0x68>)
 80070e2:	4313      	orrs	r3, r2
 80070e4:	8003      	strh	r3, [r0, #0]
 80070e6:	2000      	movs	r0, #0
 80070e8:	4770      	bx	lr
 80070ea:	045b      	lsls	r3, r3, #17
 80070ec:	d505      	bpl.n	80070fa <USB_EPClearStall+0x4e>
 80070ee:	8803      	ldrh	r3, [r0, #0]
 80070f0:	4a05      	ldr	r2, [pc, #20]	@ (8007108 <USB_EPClearStall+0x5c>)
 80070f2:	4013      	ands	r3, r2
 80070f4:	4a08      	ldr	r2, [pc, #32]	@ (8007118 <USB_EPClearStall+0x6c>)
 80070f6:	4313      	orrs	r3, r2
 80070f8:	8003      	strh	r3, [r0, #0]
 80070fa:	4b08      	ldr	r3, [pc, #32]	@ (800711c <USB_EPClearStall+0x70>)
 80070fc:	8802      	ldrh	r2, [r0, #0]
 80070fe:	401a      	ands	r2, r3
 8007100:	23c0      	movs	r3, #192	@ 0xc0
 8007102:	019b      	lsls	r3, r3, #6
 8007104:	e7eb      	b.n	80070de <USB_EPClearStall+0x32>
 8007106:	46c0      	nop			@ (mov r8, r8)
 8007108:	ffff8f8f 	.word	0xffff8f8f
 800710c:	000080c0 	.word	0x000080c0
 8007110:	ffff8fbf 	.word	0xffff8fbf
 8007114:	00008080 	.word	0x00008080
 8007118:	0000c080 	.word	0x0000c080
 800711c:	ffffbf8f 	.word	0xffffbf8f

08007120 <USB_SetDevAddress>:
 8007120:	2900      	cmp	r1, #0
 8007122:	d102      	bne.n	800712a <USB_SetDevAddress+0xa>
 8007124:	2380      	movs	r3, #128	@ 0x80
 8007126:	304c      	adds	r0, #76	@ 0x4c
 8007128:	8003      	strh	r3, [r0, #0]
 800712a:	2000      	movs	r0, #0
 800712c:	4770      	bx	lr

0800712e <USB_DevConnect>:
 800712e:	2280      	movs	r2, #128	@ 0x80
 8007130:	3058      	adds	r0, #88	@ 0x58
 8007132:	8803      	ldrh	r3, [r0, #0]
 8007134:	0212      	lsls	r2, r2, #8
 8007136:	4313      	orrs	r3, r2
 8007138:	8003      	strh	r3, [r0, #0]
 800713a:	2000      	movs	r0, #0
 800713c:	4770      	bx	lr

0800713e <USB_ReadInterrupts>:
 800713e:	3006      	adds	r0, #6
 8007140:	8fc0      	ldrh	r0, [r0, #62]	@ 0x3e
 8007142:	b280      	uxth	r0, r0
 8007144:	4770      	bx	lr

08007146 <USB_WritePMA>:
 8007146:	b530      	push	{r4, r5, lr}
 8007148:	2480      	movs	r4, #128	@ 0x80
 800714a:	3301      	adds	r3, #1
 800714c:	00e4      	lsls	r4, r4, #3
 800714e:	1912      	adds	r2, r2, r4
 8007150:	085b      	lsrs	r3, r3, #1
 8007152:	1880      	adds	r0, r0, r2
 8007154:	005b      	lsls	r3, r3, #1
 8007156:	18cb      	adds	r3, r1, r3
 8007158:	1a40      	subs	r0, r0, r1
 800715a:	180c      	adds	r4, r1, r0
 800715c:	428b      	cmp	r3, r1
 800715e:	d100      	bne.n	8007162 <USB_WritePMA+0x1c>
 8007160:	bd30      	pop	{r4, r5, pc}
 8007162:	784a      	ldrb	r2, [r1, #1]
 8007164:	780d      	ldrb	r5, [r1, #0]
 8007166:	0212      	lsls	r2, r2, #8
 8007168:	432a      	orrs	r2, r5
 800716a:	8022      	strh	r2, [r4, #0]
 800716c:	3102      	adds	r1, #2
 800716e:	e7f4      	b.n	800715a <USB_WritePMA+0x14>

08007170 <USB_EPStartXfer>:
 8007170:	b5f0      	push	{r4, r5, r6, r7, lr}
 8007172:	000c      	movs	r4, r1
 8007174:	7849      	ldrb	r1, [r1, #1]
 8007176:	0005      	movs	r5, r0
 8007178:	7b22      	ldrb	r2, [r4, #12]
 800717a:	b087      	sub	sp, #28
 800717c:	2901      	cmp	r1, #1
 800717e:	d000      	beq.n	8007182 <USB_EPStartXfer+0x12>
 8007180:	e11b      	b.n	80073ba <USB_EPStartXfer+0x24a>
 8007182:	6923      	ldr	r3, [r4, #16]
 8007184:	69a7      	ldr	r7, [r4, #24]
 8007186:	9302      	str	r3, [sp, #8]
 8007188:	429f      	cmp	r7, r3
 800718a:	d900      	bls.n	800718e <USB_EPStartXfer+0x1e>
 800718c:	001f      	movs	r7, r3
 800718e:	002b      	movs	r3, r5
 8007190:	3350      	adds	r3, #80	@ 0x50
 8007192:	6961      	ldr	r1, [r4, #20]
 8007194:	9301      	str	r3, [sp, #4]
 8007196:	2a00      	cmp	r2, #0
 8007198:	d11d      	bne.n	80071d6 <USB_EPStartXfer+0x66>
 800719a:	b2bf      	uxth	r7, r7
 800719c:	003b      	movs	r3, r7
 800719e:	88e2      	ldrh	r2, [r4, #6]
 80071a0:	0028      	movs	r0, r5
 80071a2:	f7ff ffd0 	bl	8007146 <USB_WritePMA>
 80071a6:	9b01      	ldr	r3, [sp, #4]
 80071a8:	4abe      	ldr	r2, [pc, #760]	@ (80074a4 <USB_EPStartXfer+0x334>)
 80071aa:	8819      	ldrh	r1, [r3, #0]
 80071ac:	7823      	ldrb	r3, [r4, #0]
 80071ae:	18aa      	adds	r2, r5, r2
 80071b0:	00db      	lsls	r3, r3, #3
 80071b2:	1852      	adds	r2, r2, r1
 80071b4:	189b      	adds	r3, r3, r2
 80071b6:	801f      	strh	r7, [r3, #0]
 80071b8:	7823      	ldrb	r3, [r4, #0]
 80071ba:	4abb      	ldr	r2, [pc, #748]	@ (80074a8 <USB_EPStartXfer+0x338>)
 80071bc:	009b      	lsls	r3, r3, #2
 80071be:	18eb      	adds	r3, r5, r3
 80071c0:	8819      	ldrh	r1, [r3, #0]
 80071c2:	4011      	ands	r1, r2
 80071c4:	2230      	movs	r2, #48	@ 0x30
 80071c6:	404a      	eors	r2, r1
 80071c8:	49b8      	ldr	r1, [pc, #736]	@ (80074ac <USB_EPStartXfer+0x33c>)
 80071ca:	430a      	orrs	r2, r1
 80071cc:	b292      	uxth	r2, r2
 80071ce:	801a      	strh	r2, [r3, #0]
 80071d0:	2000      	movs	r0, #0
 80071d2:	b007      	add	sp, #28
 80071d4:	bdf0      	pop	{r4, r5, r6, r7, pc}
 80071d6:	7822      	ldrb	r2, [r4, #0]
 80071d8:	6a26      	ldr	r6, [r4, #32]
 80071da:	0093      	lsls	r3, r2, #2
 80071dc:	00d2      	lsls	r2, r2, #3
 80071de:	9203      	str	r2, [sp, #12]
 80071e0:	78e0      	ldrb	r0, [r4, #3]
 80071e2:	18eb      	adds	r3, r5, r3
 80071e4:	2802      	cmp	r0, #2
 80071e6:	d000      	beq.n	80071ea <USB_EPStartXfer+0x7a>
 80071e8:	e0d1      	b.n	800738e <USB_EPStartXfer+0x21e>
 80071ea:	9a02      	ldr	r2, [sp, #8]
 80071ec:	42b2      	cmp	r2, r6
 80071ee:	d300      	bcc.n	80071f2 <USB_EPStartXfer+0x82>
 80071f0:	e0bb      	b.n	800736a <USB_EPStartXfer+0x1fa>
 80071f2:	881a      	ldrh	r2, [r3, #0]
 80071f4:	48ae      	ldr	r0, [pc, #696]	@ (80074b0 <USB_EPStartXfer+0x340>)
 80071f6:	1bf6      	subs	r6, r6, r7
 80071f8:	4010      	ands	r0, r2
 80071fa:	4aae      	ldr	r2, [pc, #696]	@ (80074b4 <USB_EPStartXfer+0x344>)
 80071fc:	4310      	orrs	r0, r2
 80071fe:	8018      	strh	r0, [r3, #0]
 8007200:	881b      	ldrh	r3, [r3, #0]
 8007202:	2040      	movs	r0, #64	@ 0x40
 8007204:	469c      	mov	ip, r3
 8007206:	4662      	mov	r2, ip
 8007208:	4002      	ands	r2, r0
 800720a:	9205      	str	r2, [sp, #20]
 800720c:	4662      	mov	r2, ip
 800720e:	19cb      	adds	r3, r1, r7
 8007210:	9304      	str	r3, [sp, #16]
 8007212:	6226      	str	r6, [r4, #32]
 8007214:	b2bb      	uxth	r3, r7
 8007216:	4202      	tst	r2, r0
 8007218:	d055      	beq.n	80072c6 <USB_EPStartXfer+0x156>
 800721a:	9a01      	ldr	r2, [sp, #4]
 800721c:	8812      	ldrh	r2, [r2, #0]
 800721e:	4694      	mov	ip, r2
 8007220:	4aa5      	ldr	r2, [pc, #660]	@ (80074b8 <USB_EPStartXfer+0x348>)
 8007222:	18a8      	adds	r0, r5, r2
 8007224:	9a03      	ldr	r2, [sp, #12]
 8007226:	4460      	add	r0, ip
 8007228:	1882      	adds	r2, r0, r2
 800722a:	8013      	strh	r3, [r2, #0]
 800722c:	8962      	ldrh	r2, [r4, #10]
 800722e:	0028      	movs	r0, r5
 8007230:	f7ff ff89 	bl	8007146 <USB_WritePMA>
 8007234:	9b04      	ldr	r3, [sp, #16]
 8007236:	9a02      	ldr	r2, [sp, #8]
 8007238:	6163      	str	r3, [r4, #20]
 800723a:	2300      	movs	r3, #0
 800723c:	42b2      	cmp	r2, r6
 800723e:	d201      	bcs.n	8007244 <USB_EPStartXfer+0xd4>
 8007240:	1bf3      	subs	r3, r6, r7
 8007242:	003e      	movs	r6, r7
 8007244:	7862      	ldrb	r2, [r4, #1]
 8007246:	6223      	str	r3, [r4, #32]
 8007248:	b2b3      	uxth	r3, r6
 800724a:	2a00      	cmp	r2, #0
 800724c:	d12e      	bne.n	80072ac <USB_EPStartXfer+0x13c>
 800724e:	9a01      	ldr	r2, [sp, #4]
 8007250:	4994      	ldr	r1, [pc, #592]	@ (80074a4 <USB_EPStartXfer+0x334>)
 8007252:	8810      	ldrh	r0, [r2, #0]
 8007254:	7822      	ldrb	r2, [r4, #0]
 8007256:	1869      	adds	r1, r5, r1
 8007258:	1809      	adds	r1, r1, r0
 800725a:	00d2      	lsls	r2, r2, #3
 800725c:	1852      	adds	r2, r2, r1
 800725e:	8811      	ldrh	r1, [r2, #0]
 8007260:	0589      	lsls	r1, r1, #22
 8007262:	0d89      	lsrs	r1, r1, #22
 8007264:	8011      	strh	r1, [r2, #0]
 8007266:	2e00      	cmp	r6, #0
 8007268:	d10a      	bne.n	8007280 <USB_EPStartXfer+0x110>
 800726a:	2080      	movs	r0, #128	@ 0x80
 800726c:	8811      	ldrh	r1, [r2, #0]
 800726e:	0200      	lsls	r0, r0, #8
 8007270:	4301      	orrs	r1, r0
 8007272:	8011      	strh	r1, [r2, #0]
 8007274:	8922      	ldrh	r2, [r4, #8]
 8007276:	9904      	ldr	r1, [sp, #16]
 8007278:	0028      	movs	r0, r5
 800727a:	f7ff ff64 	bl	8007146 <USB_WritePMA>
 800727e:	e79b      	b.n	80071b8 <USB_EPStartXfer+0x48>
 8007280:	2e3e      	cmp	r6, #62	@ 0x3e
 8007282:	d808      	bhi.n	8007296 <USB_EPStartXfer+0x126>
 8007284:	2101      	movs	r1, #1
 8007286:	0870      	lsrs	r0, r6, #1
 8007288:	4031      	ands	r1, r6
 800728a:	1840      	adds	r0, r0, r1
 800728c:	8811      	ldrh	r1, [r2, #0]
 800728e:	0280      	lsls	r0, r0, #10
 8007290:	4301      	orrs	r1, r0
 8007292:	b289      	uxth	r1, r1
 8007294:	e7ed      	b.n	8007272 <USB_EPStartXfer+0x102>
 8007296:	201f      	movs	r0, #31
 8007298:	4030      	ands	r0, r6
 800729a:	0971      	lsrs	r1, r6, #5
 800729c:	4246      	negs	r6, r0
 800729e:	4170      	adcs	r0, r6
 80072a0:	1a09      	subs	r1, r1, r0
 80072a2:	8810      	ldrh	r0, [r2, #0]
 80072a4:	0289      	lsls	r1, r1, #10
 80072a6:	4308      	orrs	r0, r1
 80072a8:	4984      	ldr	r1, [pc, #528]	@ (80074bc <USB_EPStartXfer+0x34c>)
 80072aa:	e7f1      	b.n	8007290 <USB_EPStartXfer+0x120>
 80072ac:	2a01      	cmp	r2, #1
 80072ae:	d1e1      	bne.n	8007274 <USB_EPStartXfer+0x104>
 80072b0:	002a      	movs	r2, r5
 80072b2:	497c      	ldr	r1, [pc, #496]	@ (80074a4 <USB_EPStartXfer+0x334>)
 80072b4:	3250      	adds	r2, #80	@ 0x50
 80072b6:	8810      	ldrh	r0, [r2, #0]
 80072b8:	7822      	ldrb	r2, [r4, #0]
 80072ba:	1869      	adds	r1, r5, r1
 80072bc:	00d2      	lsls	r2, r2, #3
 80072be:	1809      	adds	r1, r1, r0
 80072c0:	1852      	adds	r2, r2, r1
 80072c2:	8013      	strh	r3, [r2, #0]
 80072c4:	e7d6      	b.n	8007274 <USB_EPStartXfer+0x104>
 80072c6:	9a01      	ldr	r2, [sp, #4]
 80072c8:	8812      	ldrh	r2, [r2, #0]
 80072ca:	4694      	mov	ip, r2
 80072cc:	4a75      	ldr	r2, [pc, #468]	@ (80074a4 <USB_EPStartXfer+0x334>)
 80072ce:	18a8      	adds	r0, r5, r2
 80072d0:	9a03      	ldr	r2, [sp, #12]
 80072d2:	4460      	add	r0, ip
 80072d4:	1882      	adds	r2, r0, r2
 80072d6:	8013      	strh	r3, [r2, #0]
 80072d8:	8922      	ldrh	r2, [r4, #8]
 80072da:	0028      	movs	r0, r5
 80072dc:	f7ff ff33 	bl	8007146 <USB_WritePMA>
 80072e0:	9b04      	ldr	r3, [sp, #16]
 80072e2:	9a02      	ldr	r2, [sp, #8]
 80072e4:	6163      	str	r3, [r4, #20]
 80072e6:	9b05      	ldr	r3, [sp, #20]
 80072e8:	42b2      	cmp	r2, r6
 80072ea:	d201      	bcs.n	80072f0 <USB_EPStartXfer+0x180>
 80072ec:	1bf3      	subs	r3, r6, r7
 80072ee:	003e      	movs	r6, r7
 80072f0:	7862      	ldrb	r2, [r4, #1]
 80072f2:	6223      	str	r3, [r4, #32]
 80072f4:	b2b3      	uxth	r3, r6
 80072f6:	2a00      	cmp	r2, #0
 80072f8:	d12a      	bne.n	8007350 <USB_EPStartXfer+0x1e0>
 80072fa:	9a01      	ldr	r2, [sp, #4]
 80072fc:	496e      	ldr	r1, [pc, #440]	@ (80074b8 <USB_EPStartXfer+0x348>)
 80072fe:	8810      	ldrh	r0, [r2, #0]
 8007300:	7822      	ldrb	r2, [r4, #0]
 8007302:	1869      	adds	r1, r5, r1
 8007304:	1809      	adds	r1, r1, r0
 8007306:	00d2      	lsls	r2, r2, #3
 8007308:	1852      	adds	r2, r2, r1
 800730a:	8811      	ldrh	r1, [r2, #0]
 800730c:	0589      	lsls	r1, r1, #22
 800730e:	0d89      	lsrs	r1, r1, #22
 8007310:	8011      	strh	r1, [r2, #0]
 8007312:	2e00      	cmp	r6, #0
 8007314:	d106      	bne.n	8007324 <USB_EPStartXfer+0x1b4>
 8007316:	2080      	movs	r0, #128	@ 0x80
 8007318:	8811      	ldrh	r1, [r2, #0]
 800731a:	0200      	lsls	r0, r0, #8
 800731c:	4301      	orrs	r1, r0
 800731e:	8011      	strh	r1, [r2, #0]
 8007320:	8962      	ldrh	r2, [r4, #10]
 8007322:	e7a8      	b.n	8007276 <USB_EPStartXfer+0x106>
 8007324:	2e3e      	cmp	r6, #62	@ 0x3e
 8007326:	d808      	bhi.n	800733a <USB_EPStartXfer+0x1ca>
 8007328:	2101      	movs	r1, #1
 800732a:	0870      	lsrs	r0, r6, #1
 800732c:	4031      	ands	r1, r6
 800732e:	1840      	adds	r0, r0, r1
 8007330:	8811      	ldrh	r1, [r2, #0]
 8007332:	0280      	lsls	r0, r0, #10
 8007334:	4301      	orrs	r1, r0
 8007336:	b289      	uxth	r1, r1
 8007338:	e7f1      	b.n	800731e <USB_EPStartXfer+0x1ae>
 800733a:	201f      	movs	r0, #31
 800733c:	0971      	lsrs	r1, r6, #5
 800733e:	4006      	ands	r6, r0
 8007340:	4270      	negs	r0, r6
 8007342:	4146      	adcs	r6, r0
 8007344:	8810      	ldrh	r0, [r2, #0]
 8007346:	1b89      	subs	r1, r1, r6
 8007348:	0289      	lsls	r1, r1, #10
 800734a:	4308      	orrs	r0, r1
 800734c:	495b      	ldr	r1, [pc, #364]	@ (80074bc <USB_EPStartXfer+0x34c>)
 800734e:	e7f1      	b.n	8007334 <USB_EPStartXfer+0x1c4>
 8007350:	2a01      	cmp	r2, #1
 8007352:	d1e5      	bne.n	8007320 <USB_EPStartXfer+0x1b0>
 8007354:	002a      	movs	r2, r5
 8007356:	4958      	ldr	r1, [pc, #352]	@ (80074b8 <USB_EPStartXfer+0x348>)
 8007358:	3250      	adds	r2, #80	@ 0x50
 800735a:	8810      	ldrh	r0, [r2, #0]
 800735c:	7822      	ldrb	r2, [r4, #0]
 800735e:	1869      	adds	r1, r5, r1
 8007360:	00d2      	lsls	r2, r2, #3
 8007362:	1809      	adds	r1, r1, r0
 8007364:	1852      	adds	r2, r2, r1
 8007366:	8013      	strh	r3, [r2, #0]
 8007368:	e7da      	b.n	8007320 <USB_EPStartXfer+0x1b0>
 800736a:	8818      	ldrh	r0, [r3, #0]
 800736c:	4f54      	ldr	r7, [pc, #336]	@ (80074c0 <USB_EPStartXfer+0x350>)
 800736e:	4a4f      	ldr	r2, [pc, #316]	@ (80074ac <USB_EPStartXfer+0x33c>)
 8007370:	4038      	ands	r0, r7
 8007372:	4310      	orrs	r0, r2
 8007374:	b280      	uxth	r0, r0
 8007376:	8018      	strh	r0, [r3, #0]
 8007378:	9b01      	ldr	r3, [sp, #4]
 800737a:	9a03      	ldr	r2, [sp, #12]
 800737c:	8818      	ldrh	r0, [r3, #0]
 800737e:	4b49      	ldr	r3, [pc, #292]	@ (80074a4 <USB_EPStartXfer+0x334>)
 8007380:	18eb      	adds	r3, r5, r3
 8007382:	181b      	adds	r3, r3, r0
 8007384:	189a      	adds	r2, r3, r2
 8007386:	b2b3      	uxth	r3, r6
 8007388:	8013      	strh	r3, [r2, #0]
 800738a:	8922      	ldrh	r2, [r4, #8]
 800738c:	e774      	b.n	8007278 <USB_EPStartXfer+0x108>
 800738e:	8818      	ldrh	r0, [r3, #0]
 8007390:	1bf6      	subs	r6, r6, r7
 8007392:	9a01      	ldr	r2, [sp, #4]
 8007394:	6226      	str	r6, [r4, #32]
 8007396:	8816      	ldrh	r6, [r2, #0]
 8007398:	b2bb      	uxth	r3, r7
 800739a:	0640      	lsls	r0, r0, #25
 800739c:	d507      	bpl.n	80073ae <USB_EPStartXfer+0x23e>
 800739e:	4a46      	ldr	r2, [pc, #280]	@ (80074b8 <USB_EPStartXfer+0x348>)
 80073a0:	18a8      	adds	r0, r5, r2
 80073a2:	9a03      	ldr	r2, [sp, #12]
 80073a4:	1980      	adds	r0, r0, r6
 80073a6:	1882      	adds	r2, r0, r2
 80073a8:	8013      	strh	r3, [r2, #0]
 80073aa:	8962      	ldrh	r2, [r4, #10]
 80073ac:	e764      	b.n	8007278 <USB_EPStartXfer+0x108>
 80073ae:	4a3d      	ldr	r2, [pc, #244]	@ (80074a4 <USB_EPStartXfer+0x334>)
 80073b0:	18a8      	adds	r0, r5, r2
 80073b2:	9a03      	ldr	r2, [sp, #12]
 80073b4:	1980      	adds	r0, r0, r6
 80073b6:	1882      	adds	r2, r0, r2
 80073b8:	e7e6      	b.n	8007388 <USB_EPStartXfer+0x218>
 80073ba:	2a00      	cmp	r2, #0
 80073bc:	d11c      	bne.n	80073f8 <USB_EPStartXfer+0x288>
 80073be:	69a3      	ldr	r3, [r4, #24]
 80073c0:	6921      	ldr	r1, [r4, #16]
 80073c2:	428b      	cmp	r3, r1
 80073c4:	d901      	bls.n	80073ca <USB_EPStartXfer+0x25a>
 80073c6:	1a5a      	subs	r2, r3, r1
 80073c8:	000b      	movs	r3, r1
 80073ca:	61a2      	str	r2, [r4, #24]
 80073cc:	002a      	movs	r2, r5
 80073ce:	493a      	ldr	r1, [pc, #232]	@ (80074b8 <USB_EPStartXfer+0x348>)
 80073d0:	3250      	adds	r2, #80	@ 0x50
 80073d2:	8810      	ldrh	r0, [r2, #0]
 80073d4:	7822      	ldrb	r2, [r4, #0]
 80073d6:	1869      	adds	r1, r5, r1
 80073d8:	00d2      	lsls	r2, r2, #3
 80073da:	1809      	adds	r1, r1, r0
 80073dc:	1852      	adds	r2, r2, r1
 80073de:	8811      	ldrh	r1, [r2, #0]
 80073e0:	0589      	lsls	r1, r1, #22
 80073e2:	0d89      	lsrs	r1, r1, #22
 80073e4:	8011      	strh	r1, [r2, #0]
 80073e6:	2b00      	cmp	r3, #0
 80073e8:	d000      	beq.n	80073ec <USB_EPStartXfer+0x27c>
 80073ea:	e0d6      	b.n	800759a <USB_EPStartXfer+0x42a>
 80073ec:	2180      	movs	r1, #128	@ 0x80
 80073ee:	8813      	ldrh	r3, [r2, #0]
 80073f0:	0209      	lsls	r1, r1, #8
 80073f2:	430b      	orrs	r3, r1
 80073f4:	8013      	strh	r3, [r2, #0]
 80073f6:	e03d      	b.n	8007474 <USB_EPStartXfer+0x304>
 80073f8:	78e3      	ldrb	r3, [r4, #3]
 80073fa:	2b02      	cmp	r3, #2
 80073fc:	d000      	beq.n	8007400 <USB_EPStartXfer+0x290>
 80073fe:	e08c      	b.n	800751a <USB_EPStartXfer+0x3aa>
 8007400:	2900      	cmp	r1, #0
 8007402:	d124      	bne.n	800744e <USB_EPStartXfer+0x2de>
 8007404:	0006      	movs	r6, r0
 8007406:	4a27      	ldr	r2, [pc, #156]	@ (80074a4 <USB_EPStartXfer+0x334>)
 8007408:	3650      	adds	r6, #80	@ 0x50
 800740a:	8833      	ldrh	r3, [r6, #0]
 800740c:	7820      	ldrb	r0, [r4, #0]
 800740e:	18aa      	adds	r2, r5, r2
 8007410:	18d2      	adds	r2, r2, r3
 8007412:	00c0      	lsls	r0, r0, #3
 8007414:	1812      	adds	r2, r2, r0
 8007416:	8813      	ldrh	r3, [r2, #0]
 8007418:	059b      	lsls	r3, r3, #22
 800741a:	0d9b      	lsrs	r3, r3, #22
 800741c:	8013      	strh	r3, [r2, #0]
 800741e:	6923      	ldr	r3, [r4, #16]
 8007420:	2b00      	cmp	r3, #0
 8007422:	d134      	bne.n	800748e <USB_EPStartXfer+0x31e>
 8007424:	2780      	movs	r7, #128	@ 0x80
 8007426:	8811      	ldrh	r1, [r2, #0]
 8007428:	023f      	lsls	r7, r7, #8
 800742a:	4339      	orrs	r1, r7
 800742c:	8011      	strh	r1, [r2, #0]
 800742e:	4a22      	ldr	r2, [pc, #136]	@ (80074b8 <USB_EPStartXfer+0x348>)
 8007430:	8831      	ldrh	r1, [r6, #0]
 8007432:	18aa      	adds	r2, r5, r2
 8007434:	1852      	adds	r2, r2, r1
 8007436:	1812      	adds	r2, r2, r0
 8007438:	8811      	ldrh	r1, [r2, #0]
 800743a:	0589      	lsls	r1, r1, #22
 800743c:	0d89      	lsrs	r1, r1, #22
 800743e:	8011      	strh	r1, [r2, #0]
 8007440:	2b00      	cmp	r3, #0
 8007442:	d154      	bne.n	80074ee <USB_EPStartXfer+0x37e>
 8007444:	2180      	movs	r1, #128	@ 0x80
 8007446:	8813      	ldrh	r3, [r2, #0]
 8007448:	0209      	lsls	r1, r1, #8
 800744a:	430b      	orrs	r3, r1
 800744c:	8013      	strh	r3, [r2, #0]
 800744e:	69e3      	ldr	r3, [r4, #28]
 8007450:	2b00      	cmp	r3, #0
 8007452:	d00f      	beq.n	8007474 <USB_EPStartXfer+0x304>
 8007454:	7823      	ldrb	r3, [r4, #0]
 8007456:	491b      	ldr	r1, [pc, #108]	@ (80074c4 <USB_EPStartXfer+0x354>)
 8007458:	009b      	lsls	r3, r3, #2
 800745a:	18eb      	adds	r3, r5, r3
 800745c:	881a      	ldrh	r2, [r3, #0]
 800745e:	400a      	ands	r2, r1
 8007460:	428a      	cmp	r2, r1
 8007462:	d001      	beq.n	8007468 <USB_EPStartXfer+0x2f8>
 8007464:	2a00      	cmp	r2, #0
 8007466:	d105      	bne.n	8007474 <USB_EPStartXfer+0x304>
 8007468:	881a      	ldrh	r2, [r3, #0]
 800746a:	4911      	ldr	r1, [pc, #68]	@ (80074b0 <USB_EPStartXfer+0x340>)
 800746c:	400a      	ands	r2, r1
 800746e:	4916      	ldr	r1, [pc, #88]	@ (80074c8 <USB_EPStartXfer+0x358>)
 8007470:	430a      	orrs	r2, r1
 8007472:	801a      	strh	r2, [r3, #0]
 8007474:	7823      	ldrb	r3, [r4, #0]
 8007476:	009b      	lsls	r3, r3, #2
 8007478:	18ed      	adds	r5, r5, r3
 800747a:	882a      	ldrh	r2, [r5, #0]
 800747c:	4b13      	ldr	r3, [pc, #76]	@ (80074cc <USB_EPStartXfer+0x35c>)
 800747e:	401a      	ands	r2, r3
 8007480:	23c0      	movs	r3, #192	@ 0xc0
 8007482:	019b      	lsls	r3, r3, #6
 8007484:	4053      	eors	r3, r2
 8007486:	4a12      	ldr	r2, [pc, #72]	@ (80074d0 <USB_EPStartXfer+0x360>)
 8007488:	4313      	orrs	r3, r2
 800748a:	802b      	strh	r3, [r5, #0]
 800748c:	e6a0      	b.n	80071d0 <USB_EPStartXfer+0x60>
 800748e:	2b3e      	cmp	r3, #62	@ 0x3e
 8007490:	d820      	bhi.n	80074d4 <USB_EPStartXfer+0x364>
 8007492:	2101      	movs	r1, #1
 8007494:	085f      	lsrs	r7, r3, #1
 8007496:	4019      	ands	r1, r3
 8007498:	187f      	adds	r7, r7, r1
 800749a:	8811      	ldrh	r1, [r2, #0]
 800749c:	02bf      	lsls	r7, r7, #10
 800749e:	4339      	orrs	r1, r7
 80074a0:	b289      	uxth	r1, r1
 80074a2:	e7c3      	b.n	800742c <USB_EPStartXfer+0x2bc>
 80074a4:	00000402 	.word	0x00000402
 80074a8:	ffff8fbf 	.word	0xffff8fbf
 80074ac:	ffff8080 	.word	0xffff8080
 80074b0:	ffff8f8f 	.word	0xffff8f8f
 80074b4:	00008180 	.word	0x00008180
 80074b8:	00000406 	.word	0x00000406
 80074bc:	ffff8000 	.word	0xffff8000
 80074c0:	ffff8e8f 	.word	0xffff8e8f
 80074c4:	00004040 	.word	0x00004040
 80074c8:	000080c0 	.word	0x000080c0
 80074cc:	ffffbf8f 	.word	0xffffbf8f
 80074d0:	00008080 	.word	0x00008080
 80074d4:	271f      	movs	r7, #31
 80074d6:	401f      	ands	r7, r3
 80074d8:	0039      	movs	r1, r7
 80074da:	424f      	negs	r7, r1
 80074dc:	414f      	adcs	r7, r1
 80074de:	0959      	lsrs	r1, r3, #5
 80074e0:	1bc9      	subs	r1, r1, r7
 80074e2:	8817      	ldrh	r7, [r2, #0]
 80074e4:	9101      	str	r1, [sp, #4]
 80074e6:	0289      	lsls	r1, r1, #10
 80074e8:	430f      	orrs	r7, r1
 80074ea:	4937      	ldr	r1, [pc, #220]	@ (80075c8 <USB_EPStartXfer+0x458>)
 80074ec:	e7d7      	b.n	800749e <USB_EPStartXfer+0x32e>
 80074ee:	2b3e      	cmp	r3, #62	@ 0x3e
 80074f0:	d808      	bhi.n	8007504 <USB_EPStartXfer+0x394>
 80074f2:	2001      	movs	r0, #1
 80074f4:	0859      	lsrs	r1, r3, #1
 80074f6:	4003      	ands	r3, r0
 80074f8:	18c9      	adds	r1, r1, r3
 80074fa:	8813      	ldrh	r3, [r2, #0]
 80074fc:	0289      	lsls	r1, r1, #10
 80074fe:	430b      	orrs	r3, r1
 8007500:	b29b      	uxth	r3, r3
 8007502:	e7a3      	b.n	800744c <USB_EPStartXfer+0x2dc>
 8007504:	201f      	movs	r0, #31
 8007506:	0959      	lsrs	r1, r3, #5
 8007508:	4003      	ands	r3, r0
 800750a:	4258      	negs	r0, r3
 800750c:	4143      	adcs	r3, r0
 800750e:	1ac9      	subs	r1, r1, r3
 8007510:	8813      	ldrh	r3, [r2, #0]
 8007512:	0289      	lsls	r1, r1, #10
 8007514:	4319      	orrs	r1, r3
 8007516:	4b2c      	ldr	r3, [pc, #176]	@ (80075c8 <USB_EPStartXfer+0x458>)
 8007518:	e7f1      	b.n	80074fe <USB_EPStartXfer+0x38e>
 800751a:	2001      	movs	r0, #1
 800751c:	4283      	cmp	r3, r0
 800751e:	d000      	beq.n	8007522 <USB_EPStartXfer+0x3b2>
 8007520:	e657      	b.n	80071d2 <USB_EPStartXfer+0x62>
 8007522:	69a3      	ldr	r3, [r4, #24]
 8007524:	6922      	ldr	r2, [r4, #16]
 8007526:	2000      	movs	r0, #0
 8007528:	4293      	cmp	r3, r2
 800752a:	d901      	bls.n	8007530 <USB_EPStartXfer+0x3c0>
 800752c:	1a98      	subs	r0, r3, r2
 800752e:	0013      	movs	r3, r2
 8007530:	61a0      	str	r0, [r4, #24]
 8007532:	2900      	cmp	r1, #0
 8007534:	d19e      	bne.n	8007474 <USB_EPStartXfer+0x304>
 8007536:	002e      	movs	r6, r5
 8007538:	4a24      	ldr	r2, [pc, #144]	@ (80075cc <USB_EPStartXfer+0x45c>)
 800753a:	3650      	adds	r6, #80	@ 0x50
 800753c:	8831      	ldrh	r1, [r6, #0]
 800753e:	7820      	ldrb	r0, [r4, #0]
 8007540:	18aa      	adds	r2, r5, r2
 8007542:	1852      	adds	r2, r2, r1
 8007544:	00c0      	lsls	r0, r0, #3
 8007546:	1812      	adds	r2, r2, r0
 8007548:	8811      	ldrh	r1, [r2, #0]
 800754a:	0589      	lsls	r1, r1, #22
 800754c:	0d89      	lsrs	r1, r1, #22
 800754e:	8011      	strh	r1, [r2, #0]
 8007550:	2b00      	cmp	r3, #0
 8007552:	d10a      	bne.n	800756a <USB_EPStartXfer+0x3fa>
 8007554:	2780      	movs	r7, #128	@ 0x80
 8007556:	8811      	ldrh	r1, [r2, #0]
 8007558:	023f      	lsls	r7, r7, #8
 800755a:	4339      	orrs	r1, r7
 800755c:	8011      	strh	r1, [r2, #0]
 800755e:	4a1c      	ldr	r2, [pc, #112]	@ (80075d0 <USB_EPStartXfer+0x460>)
 8007560:	8831      	ldrh	r1, [r6, #0]
 8007562:	18aa      	adds	r2, r5, r2
 8007564:	1852      	adds	r2, r2, r1
 8007566:	1812      	adds	r2, r2, r0
 8007568:	e739      	b.n	80073de <USB_EPStartXfer+0x26e>
 800756a:	2b3e      	cmp	r3, #62	@ 0x3e
 800756c:	d808      	bhi.n	8007580 <USB_EPStartXfer+0x410>
 800756e:	2101      	movs	r1, #1
 8007570:	085f      	lsrs	r7, r3, #1
 8007572:	4019      	ands	r1, r3
 8007574:	187f      	adds	r7, r7, r1
 8007576:	8811      	ldrh	r1, [r2, #0]
 8007578:	02bf      	lsls	r7, r7, #10
 800757a:	4339      	orrs	r1, r7
 800757c:	b289      	uxth	r1, r1
 800757e:	e7ed      	b.n	800755c <USB_EPStartXfer+0x3ec>
 8007580:	271f      	movs	r7, #31
 8007582:	401f      	ands	r7, r3
 8007584:	0039      	movs	r1, r7
 8007586:	424f      	negs	r7, r1
 8007588:	414f      	adcs	r7, r1
 800758a:	0959      	lsrs	r1, r3, #5
 800758c:	1bc9      	subs	r1, r1, r7
 800758e:	8817      	ldrh	r7, [r2, #0]
 8007590:	9101      	str	r1, [sp, #4]
 8007592:	0289      	lsls	r1, r1, #10
 8007594:	430f      	orrs	r7, r1
 8007596:	490c      	ldr	r1, [pc, #48]	@ (80075c8 <USB_EPStartXfer+0x458>)
 8007598:	e7ef      	b.n	800757a <USB_EPStartXfer+0x40a>
 800759a:	2b3e      	cmp	r3, #62	@ 0x3e
 800759c:	d808      	bhi.n	80075b0 <USB_EPStartXfer+0x440>
 800759e:	2001      	movs	r0, #1
 80075a0:	0859      	lsrs	r1, r3, #1
 80075a2:	4003      	ands	r3, r0
 80075a4:	18c9      	adds	r1, r1, r3
 80075a6:	8813      	ldrh	r3, [r2, #0]
 80075a8:	0289      	lsls	r1, r1, #10
 80075aa:	430b      	orrs	r3, r1
 80075ac:	b29b      	uxth	r3, r3
 80075ae:	e721      	b.n	80073f4 <USB_EPStartXfer+0x284>
 80075b0:	201f      	movs	r0, #31
 80075b2:	0959      	lsrs	r1, r3, #5
 80075b4:	4003      	ands	r3, r0
 80075b6:	4258      	negs	r0, r3
 80075b8:	4143      	adcs	r3, r0
 80075ba:	1ac9      	subs	r1, r1, r3
 80075bc:	8813      	ldrh	r3, [r2, #0]
 80075be:	0289      	lsls	r1, r1, #10
 80075c0:	4319      	orrs	r1, r3
 80075c2:	4b01      	ldr	r3, [pc, #4]	@ (80075c8 <USB_EPStartXfer+0x458>)
 80075c4:	e7f1      	b.n	80075aa <USB_EPStartXfer+0x43a>
 80075c6:	46c0      	nop			@ (mov r8, r8)
 80075c8:	ffff8000 	.word	0xffff8000
 80075cc:	00000402 	.word	0x00000402
 80075d0:	00000406 	.word	0x00000406

080075d4 <USB_ReadPMA>:
 80075d4:	b5f0      	push	{r4, r5, r6, r7, lr}
 80075d6:	2580      	movs	r5, #128	@ 0x80
 80075d8:	085c      	lsrs	r4, r3, #1
 80075da:	00ed      	lsls	r5, r5, #3
 80075dc:	1952      	adds	r2, r2, r5
 80075de:	0026      	movs	r6, r4
 80075e0:	000d      	movs	r5, r1
 80075e2:	1880      	adds	r0, r0, r2
 80075e4:	1a47      	subs	r7, r0, r1
 80075e6:	19ea      	adds	r2, r5, r7
 80075e8:	2e00      	cmp	r6, #0
 80075ea:	d106      	bne.n	80075fa <USB_ReadPMA+0x26>
 80075ec:	07db      	lsls	r3, r3, #31
 80075ee:	d503      	bpl.n	80075f8 <USB_ReadPMA+0x24>
 80075f0:	0064      	lsls	r4, r4, #1
 80075f2:	1900      	adds	r0, r0, r4
 80075f4:	8803      	ldrh	r3, [r0, #0]
 80075f6:	550b      	strb	r3, [r1, r4]
 80075f8:	bdf0      	pop	{r4, r5, r6, r7, pc}
 80075fa:	8812      	ldrh	r2, [r2, #0]
 80075fc:	3e01      	subs	r6, #1
 80075fe:	b292      	uxth	r2, r2
 8007600:	702a      	strb	r2, [r5, #0]
 8007602:	0a12      	lsrs	r2, r2, #8
 8007604:	706a      	strb	r2, [r5, #1]
 8007606:	3502      	adds	r5, #2
 8007608:	e7ed      	b.n	80075e6 <USB_ReadPMA+0x12>
	...

0800760c <USBD_CDC_EP0_RxReady>:
 800760c:	23af      	movs	r3, #175	@ 0xaf
 800760e:	009b      	lsls	r3, r3, #2
 8007610:	58c3      	ldr	r3, [r0, r3]
 8007612:	b570      	push	{r4, r5, r6, lr}
 8007614:	2b00      	cmp	r3, #0
 8007616:	d00e      	beq.n	8007636 <USBD_CDC_EP0_RxReady+0x2a>
 8007618:	22ae      	movs	r2, #174	@ 0xae
 800761a:	2580      	movs	r5, #128	@ 0x80
 800761c:	0092      	lsls	r2, r2, #2
 800761e:	5884      	ldr	r4, [r0, r2]
 8007620:	00ad      	lsls	r5, r5, #2
 8007622:	5d60      	ldrb	r0, [r4, r5]
 8007624:	28ff      	cmp	r0, #255	@ 0xff
 8007626:	d006      	beq.n	8007636 <USBD_CDC_EP0_RxReady+0x2a>
 8007628:	4a04      	ldr	r2, [pc, #16]	@ (800763c <USBD_CDC_EP0_RxReady+0x30>)
 800762a:	689b      	ldr	r3, [r3, #8]
 800762c:	0021      	movs	r1, r4
 800762e:	5ca2      	ldrb	r2, [r4, r2]
 8007630:	4798      	blx	r3
 8007632:	23ff      	movs	r3, #255	@ 0xff
 8007634:	5563      	strb	r3, [r4, r5]
 8007636:	2000      	movs	r0, #0
 8007638:	bd70      	pop	{r4, r5, r6, pc}
 800763a:	46c0      	nop			@ (mov r8, r8)
 800763c:	00000201 	.word	0x00000201

08007640 <USBD_CDC_GetFSCfgDesc>:
 8007640:	2343      	movs	r3, #67	@ 0x43
 8007642:	8003      	strh	r3, [r0, #0]
 8007644:	4800      	ldr	r0, [pc, #0]	@ (8007648 <USBD_CDC_GetFSCfgDesc+0x8>)
 8007646:	4770      	bx	lr
 8007648:	20000248 	.word	0x20000248

0800764c <USBD_CDC_GetHSCfgDesc>:
 800764c:	2343      	movs	r3, #67	@ 0x43
 800764e:	8003      	strh	r3, [r0, #0]
 8007650:	4800      	ldr	r0, [pc, #0]	@ (8007654 <USBD_CDC_GetHSCfgDesc+0x8>)
 8007652:	4770      	bx	lr
 8007654:	2000028c 	.word	0x2000028c

08007658 <USBD_CDC_GetOtherSpeedCfgDesc>:
 8007658:	2343      	movs	r3, #67	@ 0x43
 800765a:	8003      	strh	r3, [r0, #0]
 800765c:	4800      	ldr	r0, [pc, #0]	@ (8007660 <USBD_CDC_GetOtherSpeedCfgDesc+0x8>)
 800765e:	4770      	bx	lr
 8007660:	20000204 	.word	0x20000204

08007664 <USBD_CDC_GetDeviceQualifierDescriptor>:
 8007664:	230a      	movs	r3, #10
 8007666:	8003      	strh	r3, [r0, #0]
 8007668:	4800      	ldr	r0, [pc, #0]	@ (800766c <USBD_CDC_GetDeviceQualifierDescriptor+0x8>)
 800766a:	4770      	bx	lr
 800766c:	20000308 	.word	0x20000308

08007670 <USBD_CDC_DataOut>:
 8007670:	b570      	push	{r4, r5, r6, lr}
 8007672:	26ae      	movs	r6, #174	@ 0xae
 8007674:	00b6      	lsls	r6, r6, #2
 8007676:	0004      	movs	r4, r0
 8007678:	5985      	ldr	r5, [r0, r6]
 800767a:	f000 ff63 	bl	8008544 <USBD_LL_GetRxDataSize>
 800767e:	2383      	movs	r3, #131	@ 0x83
 8007680:	009b      	lsls	r3, r3, #2
 8007682:	50e8      	str	r0, [r5, r3]
 8007684:	59a3      	ldr	r3, [r4, r6]
 8007686:	2002      	movs	r0, #2
 8007688:	2b00      	cmp	r3, #0
 800768a:	d00a      	beq.n	80076a2 <USBD_CDC_DataOut+0x32>
 800768c:	2383      	movs	r3, #131	@ 0x83
 800768e:	2281      	movs	r2, #129	@ 0x81
 8007690:	009b      	lsls	r3, r3, #2
 8007692:	18e9      	adds	r1, r5, r3
 8007694:	33b0      	adds	r3, #176	@ 0xb0
 8007696:	58e3      	ldr	r3, [r4, r3]
 8007698:	0092      	lsls	r2, r2, #2
 800769a:	68db      	ldr	r3, [r3, #12]
 800769c:	58a8      	ldr	r0, [r5, r2]
 800769e:	4798      	blx	r3
 80076a0:	2000      	movs	r0, #0
 80076a2:	bd70      	pop	{r4, r5, r6, pc}

080076a4 <USBD_CDC_DataIn>:
 80076a4:	b5f8      	push	{r3, r4, r5, r6, r7, lr}
 80076a6:	23ae      	movs	r3, #174	@ 0xae
 80076a8:	009b      	lsls	r3, r3, #2
 80076aa:	58c7      	ldr	r7, [r0, r3]
 80076ac:	0004      	movs	r4, r0
 80076ae:	000e      	movs	r6, r1
 80076b0:	2002      	movs	r0, #2
 80076b2:	2f00      	cmp	r7, #0
 80076b4:	d016      	beq.n	80076e4 <USBD_CDC_DataIn+0x40>
 80076b6:	2514      	movs	r5, #20
 80076b8:	434d      	muls	r5, r1
 80076ba:	1965      	adds	r5, r4, r5
 80076bc:	69e8      	ldr	r0, [r5, #28]
 80076be:	3308      	adds	r3, #8
 80076c0:	58e3      	ldr	r3, [r4, r3]
 80076c2:	2800      	cmp	r0, #0
 80076c4:	d00f      	beq.n	80076e6 <USBD_CDC_DataIn+0x42>
 80076c6:	2228      	movs	r2, #40	@ 0x28
 80076c8:	434a      	muls	r2, r1
 80076ca:	189b      	adds	r3, r3, r2
 80076cc:	6a19      	ldr	r1, [r3, #32]
 80076ce:	f7f8 fdc7 	bl	8000260 <__aeabi_uidivmod>
 80076d2:	1e0a      	subs	r2, r1, #0
 80076d4:	d107      	bne.n	80076e6 <USBD_CDC_DataIn+0x42>
 80076d6:	000b      	movs	r3, r1
 80076d8:	61e9      	str	r1, [r5, #28]
 80076da:	0020      	movs	r0, r4
 80076dc:	0031      	movs	r1, r6
 80076de:	f000 ff1f 	bl	8008520 <USBD_LL_Transmit>
 80076e2:	2000      	movs	r0, #0
 80076e4:	bdf8      	pop	{r3, r4, r5, r6, r7, pc}
 80076e6:	2385      	movs	r3, #133	@ 0x85
 80076e8:	2200      	movs	r2, #0
 80076ea:	009b      	lsls	r3, r3, #2
 80076ec:	50fa      	str	r2, [r7, r3]
 80076ee:	e7f8      	b.n	80076e2 <USBD_CDC_DataIn+0x3e>

080076f0 <USBD_CDC_Setup>:
 80076f0:	23ae      	movs	r3, #174	@ 0xae
 80076f2:	b5f7      	push	{r0, r1, r2, r4, r5, r6, r7, lr}
 80076f4:	009b      	lsls	r3, r3, #2
 80076f6:	58c6      	ldr	r6, [r0, r3]
 80076f8:	466b      	mov	r3, sp
 80076fa:	466a      	mov	r2, sp
 80076fc:	000d      	movs	r5, r1
 80076fe:	1d59      	adds	r1, r3, #5
 8007700:	2300      	movs	r3, #0
 8007702:	0004      	movs	r4, r0
 8007704:	700b      	strb	r3, [r1, #0]
 8007706:	80d3      	strh	r3, [r2, #6]
 8007708:	782b      	ldrb	r3, [r5, #0]
 800770a:	1d90      	adds	r0, r2, #6
 800770c:	001f      	movs	r7, r3
 800770e:	2260      	movs	r2, #96	@ 0x60
 8007710:	4017      	ands	r7, r2
 8007712:	4213      	tst	r3, r2
 8007714:	d026      	beq.n	8007764 <USBD_CDC_Setup+0x74>
 8007716:	2f20      	cmp	r7, #32
 8007718:	d13f      	bne.n	800779a <USBD_CDC_Setup+0xaa>
 800771a:	88ea      	ldrh	r2, [r5, #6]
 800771c:	7868      	ldrb	r0, [r5, #1]
 800771e:	2a00      	cmp	r2, #0
 8007720:	d019      	beq.n	8007756 <USBD_CDC_Setup+0x66>
 8007722:	b25b      	sxtb	r3, r3
 8007724:	2b00      	cmp	r3, #0
 8007726:	da0b      	bge.n	8007740 <USBD_CDC_Setup+0x50>
 8007728:	23af      	movs	r3, #175	@ 0xaf
 800772a:	009b      	lsls	r3, r3, #2
 800772c:	58e3      	ldr	r3, [r4, r3]
 800772e:	0031      	movs	r1, r6
 8007730:	689b      	ldr	r3, [r3, #8]
 8007732:	4798      	blx	r3
 8007734:	0031      	movs	r1, r6
 8007736:	88ea      	ldrh	r2, [r5, #6]
 8007738:	0020      	movs	r0, r4
 800773a:	f000 fca0 	bl	800807e <USBD_CtlSendData>
 800773e:	e008      	b.n	8007752 <USBD_CDC_Setup+0x62>
 8007740:	2380      	movs	r3, #128	@ 0x80
 8007742:	009b      	lsls	r3, r3, #2
 8007744:	54f0      	strb	r0, [r6, r3]
 8007746:	4b18      	ldr	r3, [pc, #96]	@ (80077a8 <USBD_CDC_Setup+0xb8>)
 8007748:	0031      	movs	r1, r6
 800774a:	0020      	movs	r0, r4
 800774c:	54f2      	strb	r2, [r6, r3]
 800774e:	f000 fcac 	bl	80080aa <USBD_CtlPrepareRx>
 8007752:	2000      	movs	r0, #0
 8007754:	bdfe      	pop	{r1, r2, r3, r4, r5, r6, r7, pc}
 8007756:	23af      	movs	r3, #175	@ 0xaf
 8007758:	009b      	lsls	r3, r3, #2
 800775a:	58e3      	ldr	r3, [r4, r3]
 800775c:	0029      	movs	r1, r5
 800775e:	689b      	ldr	r3, [r3, #8]
 8007760:	4798      	blx	r3
 8007762:	e7f6      	b.n	8007752 <USBD_CDC_Setup+0x62>
 8007764:	786b      	ldrb	r3, [r5, #1]
 8007766:	2b0a      	cmp	r3, #10
 8007768:	d00b      	beq.n	8007782 <USBD_CDC_Setup+0x92>
 800776a:	2b0b      	cmp	r3, #11
 800776c:	d010      	beq.n	8007790 <USBD_CDC_Setup+0xa0>
 800776e:	2b00      	cmp	r3, #0
 8007770:	d113      	bne.n	800779a <USBD_CDC_Setup+0xaa>
 8007772:	23a7      	movs	r3, #167	@ 0xa7
 8007774:	009b      	lsls	r3, r3, #2
 8007776:	5ce3      	ldrb	r3, [r4, r3]
 8007778:	2b03      	cmp	r3, #3
 800777a:	d10e      	bne.n	800779a <USBD_CDC_Setup+0xaa>
 800777c:	2202      	movs	r2, #2
 800777e:	0001      	movs	r1, r0
 8007780:	e7da      	b.n	8007738 <USBD_CDC_Setup+0x48>
 8007782:	23a7      	movs	r3, #167	@ 0xa7
 8007784:	009b      	lsls	r3, r3, #2
 8007786:	5ce3      	ldrb	r3, [r4, r3]
 8007788:	2b03      	cmp	r3, #3
 800778a:	d106      	bne.n	800779a <USBD_CDC_Setup+0xaa>
 800778c:	2201      	movs	r2, #1
 800778e:	e7d3      	b.n	8007738 <USBD_CDC_Setup+0x48>
 8007790:	23a7      	movs	r3, #167	@ 0xa7
 8007792:	009b      	lsls	r3, r3, #2
 8007794:	5ce3      	ldrb	r3, [r4, r3]
 8007796:	2b03      	cmp	r3, #3
 8007798:	d0db      	beq.n	8007752 <USBD_CDC_Setup+0x62>
 800779a:	0020      	movs	r0, r4
 800779c:	0029      	movs	r1, r5
 800779e:	f000 fc47 	bl	8008030 <USBD_CtlError>
 80077a2:	2002      	movs	r0, #2
 80077a4:	e7d6      	b.n	8007754 <USBD_CDC_Setup+0x64>
 80077a6:	46c0      	nop			@ (mov r8, r8)
 80077a8:	00000201 	.word	0x00000201

080077ac <USBD_CDC_DeInit>:
 80077ac:	b570      	push	{r4, r5, r6, lr}
 80077ae:	0004      	movs	r4, r0
 80077b0:	2500      	movs	r5, #0
 80077b2:	2181      	movs	r1, #129	@ 0x81
 80077b4:	f000 fe7d 	bl	80084b2 <USBD_LL_CloseEP>
 80077b8:	2101      	movs	r1, #1
 80077ba:	0020      	movs	r0, r4
 80077bc:	62e5      	str	r5, [r4, #44]	@ 0x2c
 80077be:	f000 fe78 	bl	80084b2 <USBD_LL_CloseEP>
 80077c2:	0023      	movs	r3, r4
 80077c4:	26ae      	movs	r6, #174	@ 0xae
 80077c6:	33fc      	adds	r3, #252	@ 0xfc
 80077c8:	671d      	str	r5, [r3, #112]	@ 0x70
 80077ca:	2182      	movs	r1, #130	@ 0x82
 80077cc:	0020      	movs	r0, r4
 80077ce:	00b6      	lsls	r6, r6, #2
 80077d0:	f000 fe6f 	bl	80084b2 <USBD_LL_CloseEP>
 80077d4:	59a3      	ldr	r3, [r4, r6]
 80077d6:	6425      	str	r5, [r4, #64]	@ 0x40
 80077d8:	42ab      	cmp	r3, r5
 80077da:	d008      	beq.n	80077ee <USBD_CDC_DeInit+0x42>
 80077dc:	23af      	movs	r3, #175	@ 0xaf
 80077de:	009b      	lsls	r3, r3, #2
 80077e0:	58e3      	ldr	r3, [r4, r3]
 80077e2:	685b      	ldr	r3, [r3, #4]
 80077e4:	4798      	blx	r3
 80077e6:	59a0      	ldr	r0, [r4, r6]
 80077e8:	f000 feb8 	bl	800855c <USBD_static_free>
 80077ec:	51a5      	str	r5, [r4, r6]
 80077ee:	2000      	movs	r0, #0
 80077f0:	bd70      	pop	{r4, r5, r6, pc}

080077f2 <USBD_CDC_Init>:
 80077f2:	b570      	push	{r4, r5, r6, lr}
 80077f4:	7c03      	ldrb	r3, [r0, #16]
 80077f6:	0004      	movs	r4, r0
 80077f8:	2b00      	cmp	r3, #0
 80077fa:	d13a      	bne.n	8007872 <USBD_CDC_Init+0x80>
 80077fc:	2380      	movs	r3, #128	@ 0x80
 80077fe:	2181      	movs	r1, #129	@ 0x81
 8007800:	009b      	lsls	r3, r3, #2
 8007802:	2202      	movs	r2, #2
 8007804:	f000 fe49 	bl	800849a <USBD_LL_OpenEP>
 8007808:	2101      	movs	r1, #1
 800780a:	2380      	movs	r3, #128	@ 0x80
 800780c:	62e1      	str	r1, [r4, #44]	@ 0x2c
 800780e:	009b      	lsls	r3, r3, #2
 8007810:	2202      	movs	r2, #2
 8007812:	0020      	movs	r0, r4
 8007814:	f000 fe41 	bl	800849a <USBD_LL_OpenEP>
 8007818:	0023      	movs	r3, r4
 800781a:	2601      	movs	r6, #1
 800781c:	33fc      	adds	r3, #252	@ 0xfc
 800781e:	2203      	movs	r2, #3
 8007820:	2182      	movs	r1, #130	@ 0x82
 8007822:	671e      	str	r6, [r3, #112]	@ 0x70
 8007824:	0020      	movs	r0, r4
 8007826:	2308      	movs	r3, #8
 8007828:	f000 fe37 	bl	800849a <USBD_LL_OpenEP>
 800782c:	2087      	movs	r0, #135	@ 0x87
 800782e:	6426      	str	r6, [r4, #64]	@ 0x40
 8007830:	0080      	lsls	r0, r0, #2
 8007832:	f000 fe8f 	bl	8008554 <USBD_static_malloc>
 8007836:	23ae      	movs	r3, #174	@ 0xae
 8007838:	009b      	lsls	r3, r3, #2
 800783a:	0005      	movs	r5, r0
 800783c:	50e0      	str	r0, [r4, r3]
 800783e:	0030      	movs	r0, r6
 8007840:	2d00      	cmp	r5, #0
 8007842:	d015      	beq.n	8007870 <USBD_CDC_Init+0x7e>
 8007844:	3304      	adds	r3, #4
 8007846:	58e3      	ldr	r3, [r4, r3]
 8007848:	681b      	ldr	r3, [r3, #0]
 800784a:	4798      	blx	r3
 800784c:	2285      	movs	r2, #133	@ 0x85
 800784e:	2300      	movs	r3, #0
 8007850:	0092      	lsls	r2, r2, #2
 8007852:	50ab      	str	r3, [r5, r2]
 8007854:	3204      	adds	r2, #4
 8007856:	50ab      	str	r3, [r5, r2]
 8007858:	7c23      	ldrb	r3, [r4, #16]
 800785a:	3a14      	subs	r2, #20
 800785c:	2b00      	cmp	r3, #0
 800785e:	d111      	bne.n	8007884 <USBD_CDC_Init+0x92>
 8007860:	2380      	movs	r3, #128	@ 0x80
 8007862:	009b      	lsls	r3, r3, #2
 8007864:	0031      	movs	r1, r6
 8007866:	0020      	movs	r0, r4
 8007868:	58aa      	ldr	r2, [r5, r2]
 800786a:	f000 fe62 	bl	8008532 <USBD_LL_PrepareReceive>
 800786e:	2000      	movs	r0, #0
 8007870:	bd70      	pop	{r4, r5, r6, pc}
 8007872:	2340      	movs	r3, #64	@ 0x40
 8007874:	2181      	movs	r1, #129	@ 0x81
 8007876:	2202      	movs	r2, #2
 8007878:	f000 fe0f 	bl	800849a <USBD_LL_OpenEP>
 800787c:	2101      	movs	r1, #1
 800787e:	2340      	movs	r3, #64	@ 0x40
 8007880:	62e1      	str	r1, [r4, #44]	@ 0x2c
 8007882:	e7c5      	b.n	8007810 <USBD_CDC_Init+0x1e>
 8007884:	2340      	movs	r3, #64	@ 0x40
 8007886:	e7ed      	b.n	8007864 <USBD_CDC_Init+0x72>

08007888 <USBD_CDC_RegisterInterface>:
 8007888:	0003      	movs	r3, r0
 800788a:	2002      	movs	r0, #2
 800788c:	2900      	cmp	r1, #0
 800788e:	d003      	beq.n	8007898 <USBD_CDC_RegisterInterface+0x10>
 8007890:	22af      	movs	r2, #175	@ 0xaf
 8007892:	2000      	movs	r0, #0
 8007894:	0092      	lsls	r2, r2, #2
 8007896:	5099      	str	r1, [r3, r2]
 8007898:	4770      	bx	lr

0800789a <USBD_CDC_SetTxBuffer>:
 800789a:	23ae      	movs	r3, #174	@ 0xae
 800789c:	009b      	lsls	r3, r3, #2
 800789e:	58c3      	ldr	r3, [r0, r3]
 80078a0:	2082      	movs	r0, #130	@ 0x82
 80078a2:	0080      	lsls	r0, r0, #2
 80078a4:	5019      	str	r1, [r3, r0]
 80078a6:	2184      	movs	r1, #132	@ 0x84
 80078a8:	0089      	lsls	r1, r1, #2
 80078aa:	2000      	movs	r0, #0
 80078ac:	505a      	str	r2, [r3, r1]
 80078ae:	4770      	bx	lr

080078b0 <USBD_CDC_SetRxBuffer>:
 80078b0:	23ae      	movs	r3, #174	@ 0xae
 80078b2:	009b      	lsls	r3, r3, #2
 80078b4:	58c2      	ldr	r2, [r0, r3]
 80078b6:	3bb4      	subs	r3, #180	@ 0xb4
 80078b8:	2000      	movs	r0, #0
 80078ba:	50d1      	str	r1, [r2, r3]
 80078bc:	4770      	bx	lr

080078be <USBD_CDC_TransmitPacket>:
 80078be:	23ae      	movs	r3, #174	@ 0xae
 80078c0:	009b      	lsls	r3, r3, #2
 80078c2:	58c2      	ldr	r2, [r0, r3]
 80078c4:	b510      	push	{r4, lr}
 80078c6:	2302      	movs	r3, #2
 80078c8:	2a00      	cmp	r2, #0
 80078ca:	d012      	beq.n	80078f2 <USBD_CDC_TransmitPacket+0x34>
 80078cc:	2185      	movs	r1, #133	@ 0x85
 80078ce:	0089      	lsls	r1, r1, #2
 80078d0:	5854      	ldr	r4, [r2, r1]
 80078d2:	3b01      	subs	r3, #1
 80078d4:	2c00      	cmp	r4, #0
 80078d6:	d10c      	bne.n	80078f2 <USBD_CDC_TransmitPacket+0x34>
 80078d8:	5053      	str	r3, [r2, r1]
 80078da:	2384      	movs	r3, #132	@ 0x84
 80078dc:	009b      	lsls	r3, r3, #2
 80078de:	58d3      	ldr	r3, [r2, r3]
 80078e0:	390c      	subs	r1, #12
 80078e2:	5852      	ldr	r2, [r2, r1]
 80078e4:	3988      	subs	r1, #136	@ 0x88
 80078e6:	6303      	str	r3, [r0, #48]	@ 0x30
 80078e8:	39ff      	subs	r1, #255	@ 0xff
 80078ea:	b29b      	uxth	r3, r3
 80078ec:	f000 fe18 	bl	8008520 <USBD_LL_Transmit>
 80078f0:	0023      	movs	r3, r4
 80078f2:	0018      	movs	r0, r3
 80078f4:	bd10      	pop	{r4, pc}

080078f6 <USBD_CDC_ReceivePacket>:
 80078f6:	23ae      	movs	r3, #174	@ 0xae
 80078f8:	009b      	lsls	r3, r3, #2
 80078fa:	58c2      	ldr	r2, [r0, r3]
 80078fc:	b510      	push	{r4, lr}
 80078fe:	2302      	movs	r3, #2
 8007900:	2a00      	cmp	r2, #0
 8007902:	d00b      	beq.n	800791c <USBD_CDC_ReceivePacket+0x26>
 8007904:	2381      	movs	r3, #129	@ 0x81
 8007906:	009b      	lsls	r3, r3, #2
 8007908:	58d2      	ldr	r2, [r2, r3]
 800790a:	7c03      	ldrb	r3, [r0, #16]
 800790c:	2b00      	cmp	r3, #0
 800790e:	d107      	bne.n	8007920 <USBD_CDC_ReceivePacket+0x2a>
 8007910:	2380      	movs	r3, #128	@ 0x80
 8007912:	009b      	lsls	r3, r3, #2
 8007914:	2101      	movs	r1, #1
 8007916:	f000 fe0c 	bl	8008532 <USBD_LL_PrepareReceive>
 800791a:	2300      	movs	r3, #0
 800791c:	0018      	movs	r0, r3
 800791e:	bd10      	pop	{r4, pc}
 8007920:	2340      	movs	r3, #64	@ 0x40
 8007922:	e7f7      	b.n	8007914 <USBD_CDC_ReceivePacket+0x1e>

08007924 <USBD_Init>:
 8007924:	2302      	movs	r3, #2
 8007926:	b510      	push	{r4, lr}
 8007928:	2800      	cmp	r0, #0
 800792a:	d013      	beq.n	8007954 <USBD_Init+0x30>
 800792c:	23ad      	movs	r3, #173	@ 0xad
 800792e:	009b      	lsls	r3, r3, #2
 8007930:	58c4      	ldr	r4, [r0, r3]
 8007932:	2c00      	cmp	r4, #0
 8007934:	d001      	beq.n	800793a <USBD_Init+0x16>
 8007936:	2400      	movs	r4, #0
 8007938:	50c4      	str	r4, [r0, r3]
 800793a:	2900      	cmp	r1, #0
 800793c:	d002      	beq.n	8007944 <USBD_Init+0x20>
 800793e:	23ac      	movs	r3, #172	@ 0xac
 8007940:	009b      	lsls	r3, r3, #2
 8007942:	50c1      	str	r1, [r0, r3]
 8007944:	23a7      	movs	r3, #167	@ 0xa7
 8007946:	2101      	movs	r1, #1
 8007948:	009b      	lsls	r3, r3, #2
 800794a:	54c1      	strb	r1, [r0, r3]
 800794c:	7002      	strb	r2, [r0, #0]
 800794e:	f000 fd5b 	bl	8008408 <USBD_LL_Init>
 8007952:	2300      	movs	r3, #0
 8007954:	0018      	movs	r0, r3
 8007956:	bd10      	pop	{r4, pc}

08007958 <USBD_RegisterClass>:
 8007958:	0003      	movs	r3, r0
 800795a:	2002      	movs	r0, #2
 800795c:	2900      	cmp	r1, #0
 800795e:	d003      	beq.n	8007968 <USBD_RegisterClass+0x10>
 8007960:	22ad      	movs	r2, #173	@ 0xad
 8007962:	2000      	movs	r0, #0
 8007964:	0092      	lsls	r2, r2, #2
 8007966:	5099      	str	r1, [r3, r2]
 8007968:	4770      	bx	lr

0800796a <USBD_Start>:
 800796a:	b510      	push	{r4, lr}
 800796c:	f000 fd8c 	bl	8008488 <USBD_LL_Start>
 8007970:	2000      	movs	r0, #0
 8007972:	bd10      	pop	{r4, pc}

08007974 <USBD_SetClassConfig>:
 8007974:	23ad      	movs	r3, #173	@ 0xad
 8007976:	009b      	lsls	r3, r3, #2
 8007978:	58c2      	ldr	r2, [r0, r3]
 800797a:	b510      	push	{r4, lr}
 800797c:	2302      	movs	r3, #2
 800797e:	2a00      	cmp	r2, #0
 8007980:	d004      	beq.n	800798c <USBD_SetClassConfig+0x18>
 8007982:	6813      	ldr	r3, [r2, #0]
 8007984:	4798      	blx	r3
 8007986:	1e43      	subs	r3, r0, #1
 8007988:	4198      	sbcs	r0, r3
 800798a:	0043      	lsls	r3, r0, #1
 800798c:	0018      	movs	r0, r3
 800798e:	bd10      	pop	{r4, pc}

08007990 <USBD_ClrClassConfig>:
 8007990:	23ad      	movs	r3, #173	@ 0xad
 8007992:	b510      	push	{r4, lr}
 8007994:	009b      	lsls	r3, r3, #2
 8007996:	58c3      	ldr	r3, [r0, r3]
 8007998:	685b      	ldr	r3, [r3, #4]
 800799a:	4798      	blx	r3
 800799c:	2000      	movs	r0, #0
 800799e:	bd10      	pop	{r4, pc}

080079a0 <USBD_LL_SetupStage>:
 80079a0:	23aa      	movs	r3, #170	@ 0xaa
 80079a2:	009b      	lsls	r3, r3, #2
 80079a4:	b570      	push	{r4, r5, r6, lr}
 80079a6:	18c5      	adds	r5, r0, r3
 80079a8:	0004      	movs	r4, r0
 80079aa:	0028      	movs	r0, r5
 80079ac:	f000 fb2c 	bl	8008008 <USBD_ParseSetupRequest>
 80079b0:	23a5      	movs	r3, #165	@ 0xa5
 80079b2:	2201      	movs	r2, #1
 80079b4:	009b      	lsls	r3, r3, #2
 80079b6:	50e2      	str	r2, [r4, r3]
 80079b8:	4b11      	ldr	r3, [pc, #68]	@ (8007a00 <USBD_LL_SetupStage+0x60>)
 80079ba:	5ae2      	ldrh	r2, [r4, r3]
 80079bc:	3b16      	subs	r3, #22
 80079be:	50e2      	str	r2, [r4, r3]
 80079c0:	3310      	adds	r3, #16
 80079c2:	5ce1      	ldrb	r1, [r4, r3]
 80079c4:	231f      	movs	r3, #31
 80079c6:	400b      	ands	r3, r1
 80079c8:	2b01      	cmp	r3, #1
 80079ca:	d009      	beq.n	80079e0 <USBD_LL_SetupStage+0x40>
 80079cc:	2b02      	cmp	r3, #2
 80079ce:	d00c      	beq.n	80079ea <USBD_LL_SetupStage+0x4a>
 80079d0:	2b00      	cmp	r3, #0
 80079d2:	d10f      	bne.n	80079f4 <USBD_LL_SetupStage+0x54>
 80079d4:	0029      	movs	r1, r5
 80079d6:	0020      	movs	r0, r4
 80079d8:	f000 f91a 	bl	8007c10 <USBD_StdDevReq>
 80079dc:	2000      	movs	r0, #0
 80079de:	bd70      	pop	{r4, r5, r6, pc}
 80079e0:	0029      	movs	r1, r5
 80079e2:	0020      	movs	r0, r4
 80079e4:	f000 fa54 	bl	8007e90 <USBD_StdItfReq>
 80079e8:	e7f8      	b.n	80079dc <USBD_LL_SetupStage+0x3c>
 80079ea:	0029      	movs	r1, r5
 80079ec:	0020      	movs	r0, r4
 80079ee:	f000 fa77 	bl	8007ee0 <USBD_StdEPReq>
 80079f2:	e7f3      	b.n	80079dc <USBD_LL_SetupStage+0x3c>
 80079f4:	237f      	movs	r3, #127	@ 0x7f
 80079f6:	0020      	movs	r0, r4
 80079f8:	4399      	bics	r1, r3
 80079fa:	f000 fd63 	bl	80084c4 <USBD_LL_StallEP>
 80079fe:	e7ed      	b.n	80079dc <USBD_LL_SetupStage+0x3c>
 8007a00:	000002ae 	.word	0x000002ae

08007a04 <USBD_LL_DataOutStage>:
 8007a04:	b570      	push	{r4, r5, r6, lr}
 8007a06:	0004      	movs	r4, r0
 8007a08:	0015      	movs	r5, r2
 8007a0a:	2900      	cmp	r1, #0
 8007a0c:	d12e      	bne.n	8007a6c <USBD_LL_DataOutStage+0x68>
 8007a0e:	23a5      	movs	r3, #165	@ 0xa5
 8007a10:	009b      	lsls	r3, r3, #2
 8007a12:	58c2      	ldr	r2, [r0, r3]
 8007a14:	2a03      	cmp	r2, #3
 8007a16:	d123      	bne.n	8007a60 <USBD_LL_DataOutStage+0x5c>
 8007a18:	0002      	movs	r2, r0
 8007a1a:	3255      	adds	r2, #85	@ 0x55
 8007a1c:	32ff      	adds	r2, #255	@ 0xff
 8007a1e:	68d3      	ldr	r3, [r2, #12]
 8007a20:	6910      	ldr	r0, [r2, #16]
 8007a22:	4283      	cmp	r3, r0
 8007a24:	d90b      	bls.n	8007a3e <USBD_LL_DataOutStage+0x3a>
 8007a26:	1a1b      	subs	r3, r3, r0
 8007a28:	60d3      	str	r3, [r2, #12]
 8007a2a:	b282      	uxth	r2, r0
 8007a2c:	4298      	cmp	r0, r3
 8007a2e:	d900      	bls.n	8007a32 <USBD_LL_DataOutStage+0x2e>
 8007a30:	b29a      	uxth	r2, r3
 8007a32:	0029      	movs	r1, r5
 8007a34:	0020      	movs	r0, r4
 8007a36:	f000 fb48 	bl	80080ca <USBD_CtlContinueRx>
 8007a3a:	2000      	movs	r0, #0
 8007a3c:	bd70      	pop	{r4, r5, r6, pc}
 8007a3e:	23ad      	movs	r3, #173	@ 0xad
 8007a40:	009b      	lsls	r3, r3, #2
 8007a42:	58e3      	ldr	r3, [r4, r3]
 8007a44:	691b      	ldr	r3, [r3, #16]
 8007a46:	2b00      	cmp	r3, #0
 8007a48:	d006      	beq.n	8007a58 <USBD_LL_DataOutStage+0x54>
 8007a4a:	22a7      	movs	r2, #167	@ 0xa7
 8007a4c:	0092      	lsls	r2, r2, #2
 8007a4e:	5ca2      	ldrb	r2, [r4, r2]
 8007a50:	2a03      	cmp	r2, #3
 8007a52:	d101      	bne.n	8007a58 <USBD_LL_DataOutStage+0x54>
 8007a54:	0020      	movs	r0, r4
 8007a56:	4798      	blx	r3
 8007a58:	0020      	movs	r0, r4
 8007a5a:	f000 fb3e 	bl	80080da <USBD_CtlSendStatus>
 8007a5e:	e7ec      	b.n	8007a3a <USBD_LL_DataOutStage+0x36>
 8007a60:	2a05      	cmp	r2, #5
 8007a62:	d1ea      	bne.n	8007a3a <USBD_LL_DataOutStage+0x36>
 8007a64:	50c1      	str	r1, [r0, r3]
 8007a66:	f000 fd2d 	bl	80084c4 <USBD_LL_StallEP>
 8007a6a:	e7e6      	b.n	8007a3a <USBD_LL_DataOutStage+0x36>
 8007a6c:	23ad      	movs	r3, #173	@ 0xad
 8007a6e:	009b      	lsls	r3, r3, #2
 8007a70:	58c3      	ldr	r3, [r0, r3]
 8007a72:	2002      	movs	r0, #2
 8007a74:	699b      	ldr	r3, [r3, #24]
 8007a76:	2b00      	cmp	r3, #0
 8007a78:	d0e0      	beq.n	8007a3c <USBD_LL_DataOutStage+0x38>
 8007a7a:	22a7      	movs	r2, #167	@ 0xa7
 8007a7c:	0092      	lsls	r2, r2, #2
 8007a7e:	5ca2      	ldrb	r2, [r4, r2]
 8007a80:	2a03      	cmp	r2, #3
 8007a82:	d1db      	bne.n	8007a3c <USBD_LL_DataOutStage+0x38>
 8007a84:	0020      	movs	r0, r4
 8007a86:	4798      	blx	r3
 8007a88:	e7d7      	b.n	8007a3a <USBD_LL_DataOutStage+0x36>

08007a8a <USBD_LL_DataInStage>:
 8007a8a:	b5f8      	push	{r3, r4, r5, r6, r7, lr}
 8007a8c:	000d      	movs	r5, r1
 8007a8e:	0004      	movs	r4, r0
 8007a90:	0011      	movs	r1, r2
 8007a92:	2d00      	cmp	r5, #0
 8007a94:	d14d      	bne.n	8007b32 <USBD_LL_DataInStage+0xa8>
 8007a96:	23a5      	movs	r3, #165	@ 0xa5
 8007a98:	009b      	lsls	r3, r3, #2
 8007a9a:	58c3      	ldr	r3, [r0, r3]
 8007a9c:	2b02      	cmp	r3, #2
 8007a9e:	d13e      	bne.n	8007b1e <USBD_LL_DataInStage+0x94>
 8007aa0:	6a03      	ldr	r3, [r0, #32]
 8007aa2:	6a46      	ldr	r6, [r0, #36]	@ 0x24
 8007aa4:	42b3      	cmp	r3, r6
 8007aa6:	d911      	bls.n	8007acc <USBD_LL_DataInStage+0x42>
 8007aa8:	1b9b      	subs	r3, r3, r6
 8007aaa:	6203      	str	r3, [r0, #32]
 8007aac:	b29a      	uxth	r2, r3
 8007aae:	f000 faf4 	bl	800809a <USBD_CtlContinueSendData>
 8007ab2:	002b      	movs	r3, r5
 8007ab4:	002a      	movs	r2, r5
 8007ab6:	0029      	movs	r1, r5
 8007ab8:	0020      	movs	r0, r4
 8007aba:	f000 fd3a 	bl	8008532 <USBD_LL_PrepareReceive>
 8007abe:	23a8      	movs	r3, #168	@ 0xa8
 8007ac0:	009b      	lsls	r3, r3, #2
 8007ac2:	5ce2      	ldrb	r2, [r4, r3]
 8007ac4:	2a01      	cmp	r2, #1
 8007ac6:	d031      	beq.n	8007b2c <USBD_LL_DataInStage+0xa2>
 8007ac8:	2000      	movs	r0, #0
 8007aca:	bdf8      	pop	{r3, r4, r5, r6, r7, pc}
 8007acc:	69c7      	ldr	r7, [r0, #28]
 8007ace:	0031      	movs	r1, r6
 8007ad0:	0038      	movs	r0, r7
 8007ad2:	f7f8 fbc5 	bl	8000260 <__aeabi_uidivmod>
 8007ad6:	1e0d      	subs	r5, r1, #0
 8007ad8:	d10c      	bne.n	8007af4 <USBD_LL_DataInStage+0x6a>
 8007ada:	42be      	cmp	r6, r7
 8007adc:	d80a      	bhi.n	8007af4 <USBD_LL_DataInStage+0x6a>
 8007ade:	26a6      	movs	r6, #166	@ 0xa6
 8007ae0:	00b6      	lsls	r6, r6, #2
 8007ae2:	59a3      	ldr	r3, [r4, r6]
 8007ae4:	429f      	cmp	r7, r3
 8007ae6:	d205      	bcs.n	8007af4 <USBD_LL_DataInStage+0x6a>
 8007ae8:	000a      	movs	r2, r1
 8007aea:	0020      	movs	r0, r4
 8007aec:	f000 fad5 	bl	800809a <USBD_CtlContinueSendData>
 8007af0:	51a5      	str	r5, [r4, r6]
 8007af2:	e7de      	b.n	8007ab2 <USBD_LL_DataInStage+0x28>
 8007af4:	23ad      	movs	r3, #173	@ 0xad
 8007af6:	009b      	lsls	r3, r3, #2
 8007af8:	58e3      	ldr	r3, [r4, r3]
 8007afa:	68db      	ldr	r3, [r3, #12]
 8007afc:	2b00      	cmp	r3, #0
 8007afe:	d006      	beq.n	8007b0e <USBD_LL_DataInStage+0x84>
 8007b00:	22a7      	movs	r2, #167	@ 0xa7
 8007b02:	0092      	lsls	r2, r2, #2
 8007b04:	5ca2      	ldrb	r2, [r4, r2]
 8007b06:	2a03      	cmp	r2, #3
 8007b08:	d101      	bne.n	8007b0e <USBD_LL_DataInStage+0x84>
 8007b0a:	0020      	movs	r0, r4
 8007b0c:	4798      	blx	r3
 8007b0e:	2180      	movs	r1, #128	@ 0x80
 8007b10:	0020      	movs	r0, r4
 8007b12:	f000 fcd7 	bl	80084c4 <USBD_LL_StallEP>
 8007b16:	0020      	movs	r0, r4
 8007b18:	f000 faeb 	bl	80080f2 <USBD_CtlReceiveStatus>
 8007b1c:	e7cf      	b.n	8007abe <USBD_LL_DataInStage+0x34>
 8007b1e:	2204      	movs	r2, #4
 8007b20:	4393      	bics	r3, r2
 8007b22:	d1cc      	bne.n	8007abe <USBD_LL_DataInStage+0x34>
 8007b24:	2180      	movs	r1, #128	@ 0x80
 8007b26:	f000 fccd 	bl	80084c4 <USBD_LL_StallEP>
 8007b2a:	e7c8      	b.n	8007abe <USBD_LL_DataInStage+0x34>
 8007b2c:	2200      	movs	r2, #0
 8007b2e:	54e2      	strb	r2, [r4, r3]
 8007b30:	e7ca      	b.n	8007ac8 <USBD_LL_DataInStage+0x3e>
 8007b32:	23ad      	movs	r3, #173	@ 0xad
 8007b34:	009b      	lsls	r3, r3, #2
 8007b36:	58c3      	ldr	r3, [r0, r3]
 8007b38:	2002      	movs	r0, #2
 8007b3a:	695b      	ldr	r3, [r3, #20]
 8007b3c:	2b00      	cmp	r3, #0
 8007b3e:	d0c4      	beq.n	8007aca <USBD_LL_DataInStage+0x40>
 8007b40:	22a7      	movs	r2, #167	@ 0xa7
 8007b42:	0092      	lsls	r2, r2, #2
 8007b44:	5ca2      	ldrb	r2, [r4, r2]
 8007b46:	2a03      	cmp	r2, #3
 8007b48:	d1bf      	bne.n	8007aca <USBD_LL_DataInStage+0x40>
 8007b4a:	0029      	movs	r1, r5
 8007b4c:	0020      	movs	r0, r4
 8007b4e:	4798      	blx	r3
 8007b50:	e7ba      	b.n	8007ac8 <USBD_LL_DataInStage+0x3e>

08007b52 <USBD_LL_Reset>:
 8007b52:	2200      	movs	r2, #0
 8007b54:	b570      	push	{r4, r5, r6, lr}
 8007b56:	0004      	movs	r4, r0
 8007b58:	0011      	movs	r1, r2
 8007b5a:	2340      	movs	r3, #64	@ 0x40
 8007b5c:	f000 fc9d 	bl	800849a <USBD_LL_OpenEP>
 8007b60:	0023      	movs	r3, r4
 8007b62:	2501      	movs	r5, #1
 8007b64:	2640      	movs	r6, #64	@ 0x40
 8007b66:	33fc      	adds	r3, #252	@ 0xfc
 8007b68:	2180      	movs	r1, #128	@ 0x80
 8007b6a:	65dd      	str	r5, [r3, #92]	@ 0x5c
 8007b6c:	669e      	str	r6, [r3, #104]	@ 0x68
 8007b6e:	2200      	movs	r2, #0
 8007b70:	0033      	movs	r3, r6
 8007b72:	0020      	movs	r0, r4
 8007b74:	f000 fc91 	bl	800849a <USBD_LL_OpenEP>
 8007b78:	23a7      	movs	r3, #167	@ 0xa7
 8007b7a:	2100      	movs	r1, #0
 8007b7c:	009b      	lsls	r3, r3, #2
 8007b7e:	61a5      	str	r5, [r4, #24]
 8007b80:	6266      	str	r6, [r4, #36]	@ 0x24
 8007b82:	54e5      	strb	r5, [r4, r3]
 8007b84:	3b08      	subs	r3, #8
 8007b86:	50e1      	str	r1, [r4, r3]
 8007b88:	3310      	adds	r3, #16
 8007b8a:	6061      	str	r1, [r4, #4]
 8007b8c:	50e1      	str	r1, [r4, r3]
 8007b8e:	3314      	adds	r3, #20
 8007b90:	58e3      	ldr	r3, [r4, r3]
 8007b92:	428b      	cmp	r3, r1
 8007b94:	d005      	beq.n	8007ba2 <USBD_LL_Reset+0x50>
 8007b96:	23ad      	movs	r3, #173	@ 0xad
 8007b98:	009b      	lsls	r3, r3, #2
 8007b9a:	58e3      	ldr	r3, [r4, r3]
 8007b9c:	0020      	movs	r0, r4
 8007b9e:	685b      	ldr	r3, [r3, #4]
 8007ba0:	4798      	blx	r3
 8007ba2:	2000      	movs	r0, #0
 8007ba4:	bd70      	pop	{r4, r5, r6, pc}

08007ba6 <USBD_LL_SetSpeed>:
 8007ba6:	7401      	strb	r1, [r0, #16]
 8007ba8:	2000      	movs	r0, #0
 8007baa:	4770      	bx	lr

08007bac <USBD_LL_Suspend>:
 8007bac:	23a7      	movs	r3, #167	@ 0xa7
 8007bae:	009b      	lsls	r3, r3, #2
 8007bb0:	5cc1      	ldrb	r1, [r0, r3]
 8007bb2:	4a03      	ldr	r2, [pc, #12]	@ (8007bc0 <USBD_LL_Suspend+0x14>)
 8007bb4:	5481      	strb	r1, [r0, r2]
 8007bb6:	2204      	movs	r2, #4
 8007bb8:	54c2      	strb	r2, [r0, r3]
 8007bba:	2000      	movs	r0, #0
 8007bbc:	4770      	bx	lr
 8007bbe:	46c0      	nop			@ (mov r8, r8)
 8007bc0:	0000029d 	.word	0x0000029d

08007bc4 <USBD_LL_Resume>:
 8007bc4:	23a7      	movs	r3, #167	@ 0xa7
 8007bc6:	009b      	lsls	r3, r3, #2
 8007bc8:	5cc2      	ldrb	r2, [r0, r3]
 8007bca:	2a04      	cmp	r2, #4
 8007bcc:	d102      	bne.n	8007bd4 <USBD_LL_Resume+0x10>
 8007bce:	4a02      	ldr	r2, [pc, #8]	@ (8007bd8 <USBD_LL_Resume+0x14>)
 8007bd0:	5c82      	ldrb	r2, [r0, r2]
 8007bd2:	54c2      	strb	r2, [r0, r3]
 8007bd4:	2000      	movs	r0, #0
 8007bd6:	4770      	bx	lr
 8007bd8:	0000029d 	.word	0x0000029d

08007bdc <USBD_LL_SOF>:
 8007bdc:	23a7      	movs	r3, #167	@ 0xa7
 8007bde:	b510      	push	{r4, lr}
 8007be0:	009b      	lsls	r3, r3, #2
 8007be2:	5cc3      	ldrb	r3, [r0, r3]
 8007be4:	2b03      	cmp	r3, #3
 8007be6:	d106      	bne.n	8007bf6 <USBD_LL_SOF+0x1a>
 8007be8:	23ad      	movs	r3, #173	@ 0xad
 8007bea:	009b      	lsls	r3, r3, #2
 8007bec:	58c3      	ldr	r3, [r0, r3]
 8007bee:	69db      	ldr	r3, [r3, #28]
 8007bf0:	2b00      	cmp	r3, #0
 8007bf2:	d000      	beq.n	8007bf6 <USBD_LL_SOF+0x1a>
 8007bf4:	4798      	blx	r3
 8007bf6:	2000      	movs	r0, #0
 8007bf8:	bd10      	pop	{r4, pc}

08007bfa <USBD_CtlError.constprop.0>:
 8007bfa:	b510      	push	{r4, lr}
 8007bfc:	0004      	movs	r4, r0
 8007bfe:	2180      	movs	r1, #128	@ 0x80
 8007c00:	f000 fc60 	bl	80084c4 <USBD_LL_StallEP>
 8007c04:	2100      	movs	r1, #0
 8007c06:	0020      	movs	r0, r4
 8007c08:	f000 fc5c 	bl	80084c4 <USBD_LL_StallEP>
 8007c0c:	bd10      	pop	{r4, pc}
	...

08007c10 <USBD_StdDevReq>:
 8007c10:	2260      	movs	r2, #96	@ 0x60
 8007c12:	780b      	ldrb	r3, [r1, #0]
 8007c14:	b573      	push	{r0, r1, r4, r5, r6, lr}
 8007c16:	4013      	ands	r3, r2
 8007c18:	000d      	movs	r5, r1
 8007c1a:	0019      	movs	r1, r3
 8007c1c:	1892      	adds	r2, r2, r2
 8007c1e:	3920      	subs	r1, #32
 8007c20:	0004      	movs	r4, r0
 8007c22:	4211      	tst	r1, r2
 8007c24:	d005      	beq.n	8007c32 <USBD_StdDevReq+0x22>
 8007c26:	2b00      	cmp	r3, #0
 8007c28:	d00b      	beq.n	8007c42 <USBD_StdDevReq+0x32>
 8007c2a:	0020      	movs	r0, r4
 8007c2c:	f7ff ffe5 	bl	8007bfa <USBD_CtlError.constprop.0>
 8007c30:	e005      	b.n	8007c3e <USBD_StdDevReq+0x2e>
 8007c32:	23ad      	movs	r3, #173	@ 0xad
 8007c34:	009b      	lsls	r3, r3, #2
 8007c36:	58c3      	ldr	r3, [r0, r3]
 8007c38:	0029      	movs	r1, r5
 8007c3a:	689b      	ldr	r3, [r3, #8]
 8007c3c:	4798      	blx	r3
 8007c3e:	2000      	movs	r0, #0
 8007c40:	bd76      	pop	{r1, r2, r4, r5, r6, pc}
 8007c42:	7868      	ldrb	r0, [r5, #1]
 8007c44:	2809      	cmp	r0, #9
 8007c46:	d8f0      	bhi.n	8007c2a <USBD_StdDevReq+0x1a>
 8007c48:	f7f8 fa7a 	bl	8000140 <__gnu_thumb1_case_shi>
 8007c4c:	010e00ef 	.word	0x010e00ef
 8007c50:	0106ffef 	.word	0x0106ffef
 8007c54:	007dffef 	.word	0x007dffef
 8007c58:	ffef000a 	.word	0xffef000a
 8007c5c:	009f00d6 	.word	0x009f00d6
 8007c60:	2300      	movs	r3, #0
 8007c62:	466a      	mov	r2, sp
 8007c64:	80d3      	strh	r3, [r2, #6]
 8007c66:	886b      	ldrh	r3, [r5, #2]
 8007c68:	0a18      	lsrs	r0, r3, #8
 8007c6a:	3801      	subs	r0, #1
 8007c6c:	2806      	cmp	r0, #6
 8007c6e:	d8dc      	bhi.n	8007c2a <USBD_StdDevReq+0x1a>
 8007c70:	f7f8 fa52 	bl	8000118 <__gnu_thumb1_case_sqi>
 8007c74:	db261704 	.word	0xdb261704
 8007c78:	40db      	.short	0x40db
 8007c7a:	4c          	.byte	0x4c
 8007c7b:	00          	.byte	0x00
 8007c7c:	23ac      	movs	r3, #172	@ 0xac
 8007c7e:	009b      	lsls	r3, r3, #2
 8007c80:	58e3      	ldr	r3, [r4, r3]
 8007c82:	7c20      	ldrb	r0, [r4, #16]
 8007c84:	681b      	ldr	r3, [r3, #0]
 8007c86:	466a      	mov	r2, sp
 8007c88:	1d91      	adds	r1, r2, #6
 8007c8a:	4798      	blx	r3
 8007c8c:	466b      	mov	r3, sp
 8007c8e:	88d9      	ldrh	r1, [r3, #6]
 8007c90:	88ea      	ldrh	r2, [r5, #6]
 8007c92:	2900      	cmp	r1, #0
 8007c94:	d052      	beq.n	8007d3c <USBD_StdDevReq+0x12c>
 8007c96:	2a00      	cmp	r2, #0
 8007c98:	d145      	bne.n	8007d26 <USBD_StdDevReq+0x116>
 8007c9a:	0020      	movs	r0, r4
 8007c9c:	f000 fa1d 	bl	80080da <USBD_CtlSendStatus>
 8007ca0:	e7cd      	b.n	8007c3e <USBD_StdDevReq+0x2e>
 8007ca2:	23ad      	movs	r3, #173	@ 0xad
 8007ca4:	7c22      	ldrb	r2, [r4, #16]
 8007ca6:	009b      	lsls	r3, r3, #2
 8007ca8:	58e3      	ldr	r3, [r4, r3]
 8007caa:	2a00      	cmp	r2, #0
 8007cac:	d106      	bne.n	8007cbc <USBD_StdDevReq+0xac>
 8007cae:	6a9b      	ldr	r3, [r3, #40]	@ 0x28
 8007cb0:	466a      	mov	r2, sp
 8007cb2:	1d90      	adds	r0, r2, #6
 8007cb4:	4798      	blx	r3
 8007cb6:	2302      	movs	r3, #2
 8007cb8:	7043      	strb	r3, [r0, #1]
 8007cba:	e7e7      	b.n	8007c8c <USBD_StdDevReq+0x7c>
 8007cbc:	6adb      	ldr	r3, [r3, #44]	@ 0x2c
 8007cbe:	e7f7      	b.n	8007cb0 <USBD_StdDevReq+0xa0>
 8007cc0:	b2d8      	uxtb	r0, r3
 8007cc2:	2805      	cmp	r0, #5
 8007cc4:	d8b1      	bhi.n	8007c2a <USBD_StdDevReq+0x1a>
 8007cc6:	23ac      	movs	r3, #172	@ 0xac
 8007cc8:	009b      	lsls	r3, r3, #2
 8007cca:	58e3      	ldr	r3, [r4, r3]
 8007ccc:	f7f8 fa2e 	bl	800012c <__gnu_thumb1_case_uqi>
 8007cd0:	0c0a0803 	.word	0x0c0a0803
 8007cd4:	100e      	.short	0x100e
 8007cd6:	685b      	ldr	r3, [r3, #4]
 8007cd8:	2b00      	cmp	r3, #0
 8007cda:	d0a6      	beq.n	8007c2a <USBD_StdDevReq+0x1a>
 8007cdc:	7c20      	ldrb	r0, [r4, #16]
 8007cde:	e7d2      	b.n	8007c86 <USBD_StdDevReq+0x76>
 8007ce0:	689b      	ldr	r3, [r3, #8]
 8007ce2:	e7f9      	b.n	8007cd8 <USBD_StdDevReq+0xc8>
 8007ce4:	68db      	ldr	r3, [r3, #12]
 8007ce6:	e7f7      	b.n	8007cd8 <USBD_StdDevReq+0xc8>
 8007ce8:	691b      	ldr	r3, [r3, #16]
 8007cea:	e7f5      	b.n	8007cd8 <USBD_StdDevReq+0xc8>
 8007cec:	695b      	ldr	r3, [r3, #20]
 8007cee:	e7f3      	b.n	8007cd8 <USBD_StdDevReq+0xc8>
 8007cf0:	699b      	ldr	r3, [r3, #24]
 8007cf2:	e7f1      	b.n	8007cd8 <USBD_StdDevReq+0xc8>
 8007cf4:	7c23      	ldrb	r3, [r4, #16]
 8007cf6:	2b00      	cmp	r3, #0
 8007cf8:	d000      	beq.n	8007cfc <USBD_StdDevReq+0xec>
 8007cfa:	e796      	b.n	8007c2a <USBD_StdDevReq+0x1a>
 8007cfc:	23ad      	movs	r3, #173	@ 0xad
 8007cfe:	466a      	mov	r2, sp
 8007d00:	009b      	lsls	r3, r3, #2
 8007d02:	58e3      	ldr	r3, [r4, r3]
 8007d04:	1d90      	adds	r0, r2, #6
 8007d06:	6b5b      	ldr	r3, [r3, #52]	@ 0x34
 8007d08:	4798      	blx	r3
 8007d0a:	e7bf      	b.n	8007c8c <USBD_StdDevReq+0x7c>
 8007d0c:	7c23      	ldrb	r3, [r4, #16]
 8007d0e:	2b00      	cmp	r3, #0
 8007d10:	d000      	beq.n	8007d14 <USBD_StdDevReq+0x104>
 8007d12:	e78a      	b.n	8007c2a <USBD_StdDevReq+0x1a>
 8007d14:	23ad      	movs	r3, #173	@ 0xad
 8007d16:	466a      	mov	r2, sp
 8007d18:	009b      	lsls	r3, r3, #2
 8007d1a:	58e3      	ldr	r3, [r4, r3]
 8007d1c:	1d90      	adds	r0, r2, #6
 8007d1e:	6b1b      	ldr	r3, [r3, #48]	@ 0x30
 8007d20:	4798      	blx	r3
 8007d22:	2307      	movs	r3, #7
 8007d24:	e7c8      	b.n	8007cb8 <USBD_StdDevReq+0xa8>
 8007d26:	1c0b      	adds	r3, r1, #0
 8007d28:	4291      	cmp	r1, r2
 8007d2a:	d900      	bls.n	8007d2e <USBD_StdDevReq+0x11e>
 8007d2c:	1c13      	adds	r3, r2, #0
 8007d2e:	4669      	mov	r1, sp
 8007d30:	b29a      	uxth	r2, r3
 8007d32:	80cb      	strh	r3, [r1, #6]
 8007d34:	0001      	movs	r1, r0
 8007d36:	0020      	movs	r0, r4
 8007d38:	f000 f9a1 	bl	800807e <USBD_CtlSendData>
 8007d3c:	88eb      	ldrh	r3, [r5, #6]
 8007d3e:	2b00      	cmp	r3, #0
 8007d40:	d000      	beq.n	8007d44 <USBD_StdDevReq+0x134>
 8007d42:	e77c      	b.n	8007c3e <USBD_StdDevReq+0x2e>
 8007d44:	e7a9      	b.n	8007c9a <USBD_StdDevReq+0x8a>
 8007d46:	88ab      	ldrh	r3, [r5, #4]
 8007d48:	2b00      	cmp	r3, #0
 8007d4a:	d000      	beq.n	8007d4e <USBD_StdDevReq+0x13e>
 8007d4c:	e76d      	b.n	8007c2a <USBD_StdDevReq+0x1a>
 8007d4e:	88eb      	ldrh	r3, [r5, #6]
 8007d50:	2b00      	cmp	r3, #0
 8007d52:	d000      	beq.n	8007d56 <USBD_StdDevReq+0x146>
 8007d54:	e769      	b.n	8007c2a <USBD_StdDevReq+0x1a>
 8007d56:	886d      	ldrh	r5, [r5, #2]
 8007d58:	2d7f      	cmp	r5, #127	@ 0x7f
 8007d5a:	d900      	bls.n	8007d5e <USBD_StdDevReq+0x14e>
 8007d5c:	e765      	b.n	8007c2a <USBD_StdDevReq+0x1a>
 8007d5e:	26a7      	movs	r6, #167	@ 0xa7
 8007d60:	00b6      	lsls	r6, r6, #2
 8007d62:	5da3      	ldrb	r3, [r4, r6]
 8007d64:	2b03      	cmp	r3, #3
 8007d66:	d100      	bne.n	8007d6a <USBD_StdDevReq+0x15a>
 8007d68:	e75f      	b.n	8007c2a <USBD_StdDevReq+0x1a>
 8007d6a:	4b47      	ldr	r3, [pc, #284]	@ (8007e88 <USBD_StdDevReq+0x278>)
 8007d6c:	b2ed      	uxtb	r5, r5
 8007d6e:	54e5      	strb	r5, [r4, r3]
 8007d70:	0029      	movs	r1, r5
 8007d72:	0020      	movs	r0, r4
 8007d74:	f000 fbcb 	bl	800850e <USBD_LL_SetUSBAddress>
 8007d78:	0020      	movs	r0, r4
 8007d7a:	f000 f9ae 	bl	80080da <USBD_CtlSendStatus>
 8007d7e:	2302      	movs	r3, #2
 8007d80:	2d00      	cmp	r5, #0
 8007d82:	d100      	bne.n	8007d86 <USBD_StdDevReq+0x176>
 8007d84:	2301      	movs	r3, #1
 8007d86:	55a3      	strb	r3, [r4, r6]
 8007d88:	e759      	b.n	8007c3e <USBD_StdDevReq+0x2e>
 8007d8a:	78a9      	ldrb	r1, [r5, #2]
 8007d8c:	4d3f      	ldr	r5, [pc, #252]	@ (8007e8c <USBD_StdDevReq+0x27c>)
 8007d8e:	7029      	strb	r1, [r5, #0]
 8007d90:	2901      	cmp	r1, #1
 8007d92:	d900      	bls.n	8007d96 <USBD_StdDevReq+0x186>
 8007d94:	e749      	b.n	8007c2a <USBD_StdDevReq+0x1a>
 8007d96:	23a7      	movs	r3, #167	@ 0xa7
 8007d98:	009b      	lsls	r3, r3, #2
 8007d9a:	5ce2      	ldrb	r2, [r4, r3]
 8007d9c:	2a02      	cmp	r2, #2
 8007d9e:	d009      	beq.n	8007db4 <USBD_StdDevReq+0x1a4>
 8007da0:	2a03      	cmp	r2, #3
 8007da2:	d015      	beq.n	8007dd0 <USBD_StdDevReq+0x1c0>
 8007da4:	0020      	movs	r0, r4
 8007da6:	f7ff ff28 	bl	8007bfa <USBD_CtlError.constprop.0>
 8007daa:	0020      	movs	r0, r4
 8007dac:	7829      	ldrb	r1, [r5, #0]
 8007dae:	f7ff fdef 	bl	8007990 <USBD_ClrClassConfig>
 8007db2:	e744      	b.n	8007c3e <USBD_StdDevReq+0x2e>
 8007db4:	2900      	cmp	r1, #0
 8007db6:	d100      	bne.n	8007dba <USBD_StdDevReq+0x1aa>
 8007db8:	e76f      	b.n	8007c9a <USBD_StdDevReq+0x8a>
 8007dba:	2101      	movs	r1, #1
 8007dbc:	2203      	movs	r2, #3
 8007dbe:	6061      	str	r1, [r4, #4]
 8007dc0:	54e2      	strb	r2, [r4, r3]
 8007dc2:	0020      	movs	r0, r4
 8007dc4:	f7ff fdd6 	bl	8007974 <USBD_SetClassConfig>
 8007dc8:	2802      	cmp	r0, #2
 8007dca:	d000      	beq.n	8007dce <USBD_StdDevReq+0x1be>
 8007dcc:	e765      	b.n	8007c9a <USBD_StdDevReq+0x8a>
 8007dce:	e72c      	b.n	8007c2a <USBD_StdDevReq+0x1a>
 8007dd0:	2900      	cmp	r1, #0
 8007dd2:	d106      	bne.n	8007de2 <USBD_StdDevReq+0x1d2>
 8007dd4:	2202      	movs	r2, #2
 8007dd6:	0020      	movs	r0, r4
 8007dd8:	54e2      	strb	r2, [r4, r3]
 8007dda:	6061      	str	r1, [r4, #4]
 8007ddc:	f7ff fdd8 	bl	8007990 <USBD_ClrClassConfig>
 8007de0:	e75b      	b.n	8007c9a <USBD_StdDevReq+0x8a>
 8007de2:	6861      	ldr	r1, [r4, #4]
 8007de4:	2901      	cmp	r1, #1
 8007de6:	d100      	bne.n	8007dea <USBD_StdDevReq+0x1da>
 8007de8:	e757      	b.n	8007c9a <USBD_StdDevReq+0x8a>
 8007dea:	b2c9      	uxtb	r1, r1
 8007dec:	0020      	movs	r0, r4
 8007dee:	f7ff fdcf 	bl	8007990 <USBD_ClrClassConfig>
 8007df2:	7829      	ldrb	r1, [r5, #0]
 8007df4:	6061      	str	r1, [r4, #4]
 8007df6:	e7e4      	b.n	8007dc2 <USBD_StdDevReq+0x1b2>
 8007df8:	88ea      	ldrh	r2, [r5, #6]
 8007dfa:	2a01      	cmp	r2, #1
 8007dfc:	d000      	beq.n	8007e00 <USBD_StdDevReq+0x1f0>
 8007dfe:	e714      	b.n	8007c2a <USBD_StdDevReq+0x1a>
 8007e00:	23a7      	movs	r3, #167	@ 0xa7
 8007e02:	009b      	lsls	r3, r3, #2
 8007e04:	5ce3      	ldrb	r3, [r4, r3]
 8007e06:	2b02      	cmp	r3, #2
 8007e08:	d807      	bhi.n	8007e1a <USBD_StdDevReq+0x20a>
 8007e0a:	2b00      	cmp	r3, #0
 8007e0c:	d100      	bne.n	8007e10 <USBD_StdDevReq+0x200>
 8007e0e:	e70c      	b.n	8007c2a <USBD_StdDevReq+0x1a>
 8007e10:	2300      	movs	r3, #0
 8007e12:	0021      	movs	r1, r4
 8007e14:	60a3      	str	r3, [r4, #8]
 8007e16:	3108      	adds	r1, #8
 8007e18:	e003      	b.n	8007e22 <USBD_StdDevReq+0x212>
 8007e1a:	1d21      	adds	r1, r4, #4
 8007e1c:	2b03      	cmp	r3, #3
 8007e1e:	d000      	beq.n	8007e22 <USBD_StdDevReq+0x212>
 8007e20:	e703      	b.n	8007c2a <USBD_StdDevReq+0x1a>
 8007e22:	0020      	movs	r0, r4
 8007e24:	f000 f92b 	bl	800807e <USBD_CtlSendData>
 8007e28:	e709      	b.n	8007c3e <USBD_StdDevReq+0x2e>
 8007e2a:	23a7      	movs	r3, #167	@ 0xa7
 8007e2c:	009b      	lsls	r3, r3, #2
 8007e2e:	5ce3      	ldrb	r3, [r4, r3]
 8007e30:	3b01      	subs	r3, #1
 8007e32:	2b02      	cmp	r3, #2
 8007e34:	d900      	bls.n	8007e38 <USBD_StdDevReq+0x228>
 8007e36:	e6f8      	b.n	8007c2a <USBD_StdDevReq+0x1a>
 8007e38:	88eb      	ldrh	r3, [r5, #6]
 8007e3a:	2b02      	cmp	r3, #2
 8007e3c:	d000      	beq.n	8007e40 <USBD_StdDevReq+0x230>
 8007e3e:	e6f4      	b.n	8007c2a <USBD_StdDevReq+0x1a>
 8007e40:	23a9      	movs	r3, #169	@ 0xa9
 8007e42:	009b      	lsls	r3, r3, #2
 8007e44:	58e2      	ldr	r2, [r4, r3]
 8007e46:	2301      	movs	r3, #1
 8007e48:	2a00      	cmp	r2, #0
 8007e4a:	d000      	beq.n	8007e4e <USBD_StdDevReq+0x23e>
 8007e4c:	3302      	adds	r3, #2
 8007e4e:	0021      	movs	r1, r4
 8007e50:	2202      	movs	r2, #2
 8007e52:	60e3      	str	r3, [r4, #12]
 8007e54:	310c      	adds	r1, #12
 8007e56:	e7e4      	b.n	8007e22 <USBD_StdDevReq+0x212>
 8007e58:	886b      	ldrh	r3, [r5, #2]
 8007e5a:	2b01      	cmp	r3, #1
 8007e5c:	d000      	beq.n	8007e60 <USBD_StdDevReq+0x250>
 8007e5e:	e6ee      	b.n	8007c3e <USBD_StdDevReq+0x2e>
 8007e60:	22a9      	movs	r2, #169	@ 0xa9
 8007e62:	0092      	lsls	r2, r2, #2
 8007e64:	50a3      	str	r3, [r4, r2]
 8007e66:	e718      	b.n	8007c9a <USBD_StdDevReq+0x8a>
 8007e68:	23a7      	movs	r3, #167	@ 0xa7
 8007e6a:	009b      	lsls	r3, r3, #2
 8007e6c:	5ce3      	ldrb	r3, [r4, r3]
 8007e6e:	3b01      	subs	r3, #1
 8007e70:	2b02      	cmp	r3, #2
 8007e72:	d900      	bls.n	8007e76 <USBD_StdDevReq+0x266>
 8007e74:	e6d9      	b.n	8007c2a <USBD_StdDevReq+0x1a>
 8007e76:	886b      	ldrh	r3, [r5, #2]
 8007e78:	2b01      	cmp	r3, #1
 8007e7a:	d000      	beq.n	8007e7e <USBD_StdDevReq+0x26e>
 8007e7c:	e6df      	b.n	8007c3e <USBD_StdDevReq+0x2e>
 8007e7e:	23a9      	movs	r3, #169	@ 0xa9
 8007e80:	2200      	movs	r2, #0
 8007e82:	009b      	lsls	r3, r3, #2
 8007e84:	50e2      	str	r2, [r4, r3]
 8007e86:	e708      	b.n	8007c9a <USBD_StdDevReq+0x8a>
 8007e88:	0000029e 	.word	0x0000029e
 8007e8c:	20001864 	.word	0x20001864

08007e90 <USBD_StdItfReq>:
 8007e90:	2360      	movs	r3, #96	@ 0x60
 8007e92:	780a      	ldrb	r2, [r1, #0]
 8007e94:	b570      	push	{r4, r5, r6, lr}
 8007e96:	4013      	ands	r3, r2
 8007e98:	0004      	movs	r4, r0
 8007e9a:	000d      	movs	r5, r1
 8007e9c:	0652      	lsls	r2, r2, #25
 8007e9e:	d501      	bpl.n	8007ea4 <USBD_StdItfReq+0x14>
 8007ea0:	2b40      	cmp	r3, #64	@ 0x40
 8007ea2:	d119      	bne.n	8007ed8 <USBD_StdItfReq+0x48>
 8007ea4:	23a7      	movs	r3, #167	@ 0xa7
 8007ea6:	009b      	lsls	r3, r3, #2
 8007ea8:	5ce3      	ldrb	r3, [r4, r3]
 8007eaa:	3b01      	subs	r3, #1
 8007eac:	2b02      	cmp	r3, #2
 8007eae:	d813      	bhi.n	8007ed8 <USBD_StdItfReq+0x48>
 8007eb0:	792b      	ldrb	r3, [r5, #4]
 8007eb2:	2b01      	cmp	r3, #1
 8007eb4:	d810      	bhi.n	8007ed8 <USBD_StdItfReq+0x48>
 8007eb6:	23ad      	movs	r3, #173	@ 0xad
 8007eb8:	009b      	lsls	r3, r3, #2
 8007eba:	58e3      	ldr	r3, [r4, r3]
 8007ebc:	0029      	movs	r1, r5
 8007ebe:	689b      	ldr	r3, [r3, #8]
 8007ec0:	0020      	movs	r0, r4
 8007ec2:	4798      	blx	r3
 8007ec4:	88eb      	ldrh	r3, [r5, #6]
 8007ec6:	2b00      	cmp	r3, #0
 8007ec8:	d104      	bne.n	8007ed4 <USBD_StdItfReq+0x44>
 8007eca:	2800      	cmp	r0, #0
 8007ecc:	d102      	bne.n	8007ed4 <USBD_StdItfReq+0x44>
 8007ece:	0020      	movs	r0, r4
 8007ed0:	f000 f903 	bl	80080da <USBD_CtlSendStatus>
 8007ed4:	2000      	movs	r0, #0
 8007ed6:	bd70      	pop	{r4, r5, r6, pc}
 8007ed8:	0020      	movs	r0, r4
 8007eda:	f7ff fe8e 	bl	8007bfa <USBD_CtlError.constprop.0>
 8007ede:	e7f9      	b.n	8007ed4 <USBD_StdItfReq+0x44>

08007ee0 <USBD_StdEPReq>:
 8007ee0:	b570      	push	{r4, r5, r6, lr}
 8007ee2:	0004      	movs	r4, r0
 8007ee4:	2060      	movs	r0, #96	@ 0x60
 8007ee6:	000b      	movs	r3, r1
 8007ee8:	888a      	ldrh	r2, [r1, #4]
 8007eea:	7809      	ldrb	r1, [r1, #0]
 8007eec:	4001      	ands	r1, r0
 8007eee:	000d      	movs	r5, r1
 8007ef0:	1800      	adds	r0, r0, r0
 8007ef2:	3d20      	subs	r5, #32
 8007ef4:	4205      	tst	r5, r0
 8007ef6:	d005      	beq.n	8007f04 <USBD_StdEPReq+0x24>
 8007ef8:	2900      	cmp	r1, #0
 8007efa:	d00c      	beq.n	8007f16 <USBD_StdEPReq+0x36>
 8007efc:	0020      	movs	r0, r4
 8007efe:	f7ff fe7c 	bl	8007bfa <USBD_CtlError.constprop.0>
 8007f02:	e006      	b.n	8007f12 <USBD_StdEPReq+0x32>
 8007f04:	22ad      	movs	r2, #173	@ 0xad
 8007f06:	0092      	lsls	r2, r2, #2
 8007f08:	58a2      	ldr	r2, [r4, r2]
 8007f0a:	0019      	movs	r1, r3
 8007f0c:	0020      	movs	r0, r4
 8007f0e:	6892      	ldr	r2, [r2, #8]
 8007f10:	4790      	blx	r2
 8007f12:	2000      	movs	r0, #0
 8007f14:	bd70      	pop	{r4, r5, r6, pc}
 8007f16:	7858      	ldrb	r0, [r3, #1]
 8007f18:	b2d1      	uxtb	r1, r2
 8007f1a:	2801      	cmp	r0, #1
 8007f1c:	d038      	beq.n	8007f90 <USBD_StdEPReq+0xb0>
 8007f1e:	2803      	cmp	r0, #3
 8007f20:	d020      	beq.n	8007f64 <USBD_StdEPReq+0x84>
 8007f22:	2800      	cmp	r0, #0
 8007f24:	d1ea      	bne.n	8007efc <USBD_StdEPReq+0x1c>
 8007f26:	23a7      	movs	r3, #167	@ 0xa7
 8007f28:	009b      	lsls	r3, r3, #2
 8007f2a:	5ce3      	ldrb	r3, [r4, r3]
 8007f2c:	2b02      	cmp	r3, #2
 8007f2e:	d049      	beq.n	8007fc4 <USBD_StdEPReq+0xe4>
 8007f30:	2b03      	cmp	r3, #3
 8007f32:	d1e3      	bne.n	8007efc <USBD_StdEPReq+0x1c>
 8007f34:	230f      	movs	r3, #15
 8007f36:	2514      	movs	r5, #20
 8007f38:	400b      	ands	r3, r1
 8007f3a:	436b      	muls	r3, r5
 8007f3c:	18e3      	adds	r3, r4, r3
 8007f3e:	0612      	lsls	r2, r2, #24
 8007f40:	d550      	bpl.n	8007fe4 <USBD_StdEPReq+0x104>
 8007f42:	699b      	ldr	r3, [r3, #24]
 8007f44:	2b00      	cmp	r3, #0
 8007f46:	d0d9      	beq.n	8007efc <USBD_StdEPReq+0x1c>
 8007f48:	237f      	movs	r3, #127	@ 0x7f
 8007f4a:	400b      	ands	r3, r1
 8007f4c:	3301      	adds	r3, #1
 8007f4e:	435d      	muls	r5, r3
 8007f50:	1965      	adds	r5, r4, r5
 8007f52:	2980      	cmp	r1, #128	@ 0x80
 8007f54:	d051      	beq.n	8007ffa <USBD_StdEPReq+0x11a>
 8007f56:	0020      	movs	r0, r4
 8007f58:	f000 fac6 	bl	80084e8 <USBD_LL_IsStallEP>
 8007f5c:	2800      	cmp	r0, #0
 8007f5e:	d051      	beq.n	8008004 <USBD_StdEPReq+0x124>
 8007f60:	2301      	movs	r3, #1
 8007f62:	e04b      	b.n	8007ffc <USBD_StdEPReq+0x11c>
 8007f64:	22a7      	movs	r2, #167	@ 0xa7
 8007f66:	0092      	lsls	r2, r2, #2
 8007f68:	5ca2      	ldrb	r2, [r4, r2]
 8007f6a:	2a02      	cmp	r2, #2
 8007f6c:	d020      	beq.n	8007fb0 <USBD_StdEPReq+0xd0>
 8007f6e:	2a03      	cmp	r2, #3
 8007f70:	d1c4      	bne.n	8007efc <USBD_StdEPReq+0x1c>
 8007f72:	885a      	ldrh	r2, [r3, #2]
 8007f74:	2a00      	cmp	r2, #0
 8007f76:	d107      	bne.n	8007f88 <USBD_StdEPReq+0xa8>
 8007f78:	064a      	lsls	r2, r1, #25
 8007f7a:	d005      	beq.n	8007f88 <USBD_StdEPReq+0xa8>
 8007f7c:	88db      	ldrh	r3, [r3, #6]
 8007f7e:	2b00      	cmp	r3, #0
 8007f80:	d102      	bne.n	8007f88 <USBD_StdEPReq+0xa8>
 8007f82:	0020      	movs	r0, r4
 8007f84:	f000 fa9e 	bl	80084c4 <USBD_LL_StallEP>
 8007f88:	0020      	movs	r0, r4
 8007f8a:	f000 f8a6 	bl	80080da <USBD_CtlSendStatus>
 8007f8e:	e7c0      	b.n	8007f12 <USBD_StdEPReq+0x32>
 8007f90:	22a7      	movs	r2, #167	@ 0xa7
 8007f92:	0092      	lsls	r2, r2, #2
 8007f94:	5ca2      	ldrb	r2, [r4, r2]
 8007f96:	2a02      	cmp	r2, #2
 8007f98:	d00a      	beq.n	8007fb0 <USBD_StdEPReq+0xd0>
 8007f9a:	2a03      	cmp	r2, #3
 8007f9c:	d1ae      	bne.n	8007efc <USBD_StdEPReq+0x1c>
 8007f9e:	885b      	ldrh	r3, [r3, #2]
 8007fa0:	2b00      	cmp	r3, #0
 8007fa2:	d1b6      	bne.n	8007f12 <USBD_StdEPReq+0x32>
 8007fa4:	064b      	lsls	r3, r1, #25
 8007fa6:	d0ef      	beq.n	8007f88 <USBD_StdEPReq+0xa8>
 8007fa8:	0020      	movs	r0, r4
 8007faa:	f000 fa94 	bl	80084d6 <USBD_LL_ClearStallEP>
 8007fae:	e7eb      	b.n	8007f88 <USBD_StdEPReq+0xa8>
 8007fb0:	064b      	lsls	r3, r1, #25
 8007fb2:	d0a3      	beq.n	8007efc <USBD_StdEPReq+0x1c>
 8007fb4:	0020      	movs	r0, r4
 8007fb6:	f000 fa85 	bl	80084c4 <USBD_LL_StallEP>
 8007fba:	2180      	movs	r1, #128	@ 0x80
 8007fbc:	0020      	movs	r0, r4
 8007fbe:	f000 fa81 	bl	80084c4 <USBD_LL_StallEP>
 8007fc2:	e7a6      	b.n	8007f12 <USBD_StdEPReq+0x32>
 8007fc4:	0649      	lsls	r1, r1, #25
 8007fc6:	d199      	bne.n	8007efc <USBD_StdEPReq+0x1c>
 8007fc8:	0021      	movs	r1, r4
 8007fca:	3155      	adds	r1, #85	@ 0x55
 8007fcc:	31ff      	adds	r1, #255	@ 0xff
 8007fce:	0612      	lsls	r2, r2, #24
 8007fd0:	d501      	bpl.n	8007fd6 <USBD_StdEPReq+0xf6>
 8007fd2:	3941      	subs	r1, #65	@ 0x41
 8007fd4:	39ff      	subs	r1, #255	@ 0xff
 8007fd6:	2300      	movs	r3, #0
 8007fd8:	2202      	movs	r2, #2
 8007fda:	600b      	str	r3, [r1, #0]
 8007fdc:	0020      	movs	r0, r4
 8007fde:	f000 f84e 	bl	800807e <USBD_CtlSendData>
 8007fe2:	e796      	b.n	8007f12 <USBD_StdEPReq+0x32>
 8007fe4:	33fc      	adds	r3, #252	@ 0xfc
 8007fe6:	6ddb      	ldr	r3, [r3, #92]	@ 0x5c
 8007fe8:	2b00      	cmp	r3, #0
 8007fea:	d100      	bne.n	8007fee <USBD_StdEPReq+0x10e>
 8007fec:	e786      	b.n	8007efc <USBD_StdEPReq+0x1c>
 8007fee:	434d      	muls	r5, r1
 8007ff0:	3555      	adds	r5, #85	@ 0x55
 8007ff2:	35ff      	adds	r5, #255	@ 0xff
 8007ff4:	1965      	adds	r5, r4, r5
 8007ff6:	2900      	cmp	r1, #0
 8007ff8:	d1ad      	bne.n	8007f56 <USBD_StdEPReq+0x76>
 8007ffa:	2300      	movs	r3, #0
 8007ffc:	602b      	str	r3, [r5, #0]
 8007ffe:	2202      	movs	r2, #2
 8008000:	0029      	movs	r1, r5
 8008002:	e7eb      	b.n	8007fdc <USBD_StdEPReq+0xfc>
 8008004:	6028      	str	r0, [r5, #0]
 8008006:	e7fa      	b.n	8007ffe <USBD_StdEPReq+0x11e>

08008008 <USBD_ParseSetupRequest>:
 8008008:	780b      	ldrb	r3, [r1, #0]
 800800a:	7003      	strb	r3, [r0, #0]
 800800c:	784b      	ldrb	r3, [r1, #1]
 800800e:	7043      	strb	r3, [r0, #1]
 8008010:	78cb      	ldrb	r3, [r1, #3]
 8008012:	788a      	ldrb	r2, [r1, #2]
 8008014:	021b      	lsls	r3, r3, #8
 8008016:	4313      	orrs	r3, r2
 8008018:	8043      	strh	r3, [r0, #2]
 800801a:	794b      	ldrb	r3, [r1, #5]
 800801c:	790a      	ldrb	r2, [r1, #4]
 800801e:	021b      	lsls	r3, r3, #8
 8008020:	4313      	orrs	r3, r2
 8008022:	8083      	strh	r3, [r0, #4]
 8008024:	79cb      	ldrb	r3, [r1, #7]
 8008026:	798a      	ldrb	r2, [r1, #6]
 8008028:	021b      	lsls	r3, r3, #8
 800802a:	4313      	orrs	r3, r2
 800802c:	80c3      	strh	r3, [r0, #6]
 800802e:	4770      	bx	lr

08008030 <USBD_CtlError>:
 8008030:	b510      	push	{r4, lr}
 8008032:	0004      	movs	r4, r0
 8008034:	2180      	movs	r1, #128	@ 0x80
 8008036:	f000 fa45 	bl	80084c4 <USBD_LL_StallEP>
 800803a:	2100      	movs	r1, #0
 800803c:	0020      	movs	r0, r4
 800803e:	f000 fa41 	bl	80084c4 <USBD_LL_StallEP>
 8008042:	bd10      	pop	{r4, pc}

08008044 <USBD_GetString>:
 8008044:	b570      	push	{r4, r5, r6, lr}
 8008046:	0004      	movs	r4, r0
 8008048:	000d      	movs	r5, r1
 800804a:	0016      	movs	r6, r2
 800804c:	2800      	cmp	r0, #0
 800804e:	d00d      	beq.n	800806c <USBD_GetString+0x28>
 8008050:	f7f8 f85a 	bl	8000108 <strlen>
 8008054:	b2c3      	uxtb	r3, r0
 8008056:	3301      	adds	r3, #1
 8008058:	005b      	lsls	r3, r3, #1
 800805a:	8033      	strh	r3, [r6, #0]
 800805c:	702b      	strb	r3, [r5, #0]
 800805e:	2303      	movs	r3, #3
 8008060:	2000      	movs	r0, #0
 8008062:	706b      	strb	r3, [r5, #1]
 8008064:	3b01      	subs	r3, #1
 8008066:	7821      	ldrb	r1, [r4, #0]
 8008068:	2900      	cmp	r1, #0
 800806a:	d100      	bne.n	800806e <USBD_GetString+0x2a>
 800806c:	bd70      	pop	{r4, r5, r6, pc}
 800806e:	1c5a      	adds	r2, r3, #1
 8008070:	54e9      	strb	r1, [r5, r3]
 8008072:	b2d2      	uxtb	r2, r2
 8008074:	3302      	adds	r3, #2
 8008076:	3401      	adds	r4, #1
 8008078:	b2db      	uxtb	r3, r3
 800807a:	54a8      	strb	r0, [r5, r2]
 800807c:	e7f3      	b.n	8008066 <USBD_GetString+0x22>

0800807e <USBD_CtlSendData>:
 800807e:	0013      	movs	r3, r2
 8008080:	22a5      	movs	r2, #165	@ 0xa5
 8008082:	b510      	push	{r4, lr}
 8008084:	2402      	movs	r4, #2
 8008086:	0092      	lsls	r2, r2, #2
 8008088:	5084      	str	r4, [r0, r2]
 800808a:	000a      	movs	r2, r1
 800808c:	61c3      	str	r3, [r0, #28]
 800808e:	2100      	movs	r1, #0
 8008090:	6203      	str	r3, [r0, #32]
 8008092:	f000 fa45 	bl	8008520 <USBD_LL_Transmit>
 8008096:	2000      	movs	r0, #0
 8008098:	bd10      	pop	{r4, pc}

0800809a <USBD_CtlContinueSendData>:
 800809a:	b510      	push	{r4, lr}
 800809c:	0013      	movs	r3, r2
 800809e:	000a      	movs	r2, r1
 80080a0:	2100      	movs	r1, #0
 80080a2:	f000 fa3d 	bl	8008520 <USBD_LL_Transmit>
 80080a6:	2000      	movs	r0, #0
 80080a8:	bd10      	pop	{r4, pc}

080080aa <USBD_CtlPrepareRx>:
 80080aa:	0013      	movs	r3, r2
 80080ac:	22a5      	movs	r2, #165	@ 0xa5
 80080ae:	b510      	push	{r4, lr}
 80080b0:	2403      	movs	r4, #3
 80080b2:	0092      	lsls	r2, r2, #2
 80080b4:	5084      	str	r4, [r0, r2]
 80080b6:	0002      	movs	r2, r0
 80080b8:	32fc      	adds	r2, #252	@ 0xfc
 80080ba:	6613      	str	r3, [r2, #96]	@ 0x60
 80080bc:	6653      	str	r3, [r2, #100]	@ 0x64
 80080be:	000a      	movs	r2, r1
 80080c0:	2100      	movs	r1, #0
 80080c2:	f000 fa36 	bl	8008532 <USBD_LL_PrepareReceive>
 80080c6:	2000      	movs	r0, #0
 80080c8:	bd10      	pop	{r4, pc}

080080ca <USBD_CtlContinueRx>:
 80080ca:	b510      	push	{r4, lr}
 80080cc:	0013      	movs	r3, r2
 80080ce:	000a      	movs	r2, r1
 80080d0:	2100      	movs	r1, #0
 80080d2:	f000 fa2e 	bl	8008532 <USBD_LL_PrepareReceive>
 80080d6:	2000      	movs	r0, #0
 80080d8:	bd10      	pop	{r4, pc}

080080da <USBD_CtlSendStatus>:
 80080da:	23a5      	movs	r3, #165	@ 0xa5
 80080dc:	2204      	movs	r2, #4
 80080de:	009b      	lsls	r3, r3, #2
 80080e0:	b510      	push	{r4, lr}
 80080e2:	50c2      	str	r2, [r0, r3]
 80080e4:	2300      	movs	r3, #0
 80080e6:	001a      	movs	r2, r3
 80080e8:	0019      	movs	r1, r3
 80080ea:	f000 fa19 	bl	8008520 <USBD_LL_Transmit>
 80080ee:	2000      	movs	r0, #0
 80080f0:	bd10      	pop	{r4, pc}

080080f2 <USBD_CtlReceiveStatus>:
 80080f2:	23a5      	movs	r3, #165	@ 0xa5
 80080f4:	2205      	movs	r2, #5
 80080f6:	009b      	lsls	r3, r3, #2
 80080f8:	b510      	push	{r4, lr}
 80080fa:	50c2      	str	r2, [r0, r3]
 80080fc:	2300      	movs	r3, #0
 80080fe:	001a      	movs	r2, r3
 8008100:	0019      	movs	r1, r3
 8008102:	f000 fa16 	bl	8008532 <USBD_LL_PrepareReceive>
 8008106:	2000      	movs	r0, #0
 8008108:	bd10      	pop	{r4, pc}
	...

0800810c <MX_USB_DEVICE_Init>:
 800810c:	b510      	push	{r4, lr}
 800810e:	4c11      	ldr	r4, [pc, #68]	@ (8008154 <MX_USB_DEVICE_Init+0x48>)
 8008110:	2200      	movs	r2, #0
 8008112:	0020      	movs	r0, r4
 8008114:	4910      	ldr	r1, [pc, #64]	@ (8008158 <MX_USB_DEVICE_Init+0x4c>)
 8008116:	f7ff fc05 	bl	8007924 <USBD_Init>
 800811a:	2800      	cmp	r0, #0
 800811c:	d001      	beq.n	8008122 <MX_USB_DEVICE_Init+0x16>
 800811e:	f7fb fa29 	bl	8003574 <Error_Handler>
 8008122:	0020      	movs	r0, r4
 8008124:	490d      	ldr	r1, [pc, #52]	@ (800815c <MX_USB_DEVICE_Init+0x50>)
 8008126:	f7ff fc17 	bl	8007958 <USBD_RegisterClass>
 800812a:	2800      	cmp	r0, #0
 800812c:	d001      	beq.n	8008132 <MX_USB_DEVICE_Init+0x26>
 800812e:	f7fb fa21 	bl	8003574 <Error_Handler>
 8008132:	0020      	movs	r0, r4
 8008134:	490a      	ldr	r1, [pc, #40]	@ (8008160 <MX_USB_DEVICE_Init+0x54>)
 8008136:	f7ff fba7 	bl	8007888 <USBD_CDC_RegisterInterface>
 800813a:	2800      	cmp	r0, #0
 800813c:	d001      	beq.n	8008142 <MX_USB_DEVICE_Init+0x36>
 800813e:	f7fb fa19 	bl	8003574 <Error_Handler>
 8008142:	0020      	movs	r0, r4
 8008144:	f7ff fc11 	bl	800796a <USBD_Start>
 8008148:	2800      	cmp	r0, #0
 800814a:	d001      	beq.n	8008150 <MX_USB_DEVICE_Init+0x44>
 800814c:	f7fb fa12 	bl	8003574 <Error_Handler>
 8008150:	bd10      	pop	{r4, pc}
 8008152:	46c0      	nop			@ (mov r8, r8)
 8008154:	20001868 	.word	0x20001868
 8008158:	20000358 	.word	0x20000358
 800815c:	200002d0 	.word	0x200002d0
 8008160:	20000314 	.word	0x20000314

08008164 <CDC_DeInit_FS>:
 8008164:	2000      	movs	r0, #0
 8008166:	4770      	bx	lr

08008168 <CDC_Control_FS>:
 8008168:	2000      	movs	r0, #0
 800816a:	4770      	bx	lr

0800816c <CDC_Receive_FS>:
 800816c:	b5f8      	push	{r3, r4, r5, r6, r7, lr}
 800816e:	000f      	movs	r7, r1
 8008170:	0004      	movs	r4, r0
 8008172:	4d0f      	ldr	r5, [pc, #60]	@ (80081b0 <CDC_Receive_FS+0x44>)
 8008174:	0001      	movs	r1, r0
 8008176:	0028      	movs	r0, r5
 8008178:	f7ff fb9a 	bl	80078b0 <USBD_CDC_SetRxBuffer>
 800817c:	0028      	movs	r0, r5
 800817e:	f7ff fbba 	bl	80078f6 <USBD_CDC_ReceivePacket>
 8008182:	4e0c      	ldr	r6, [pc, #48]	@ (80081b4 <CDC_Receive_FS+0x48>)
 8008184:	2240      	movs	r2, #64	@ 0x40
 8008186:	0030      	movs	r0, r6
 8008188:	2100      	movs	r1, #0
 800818a:	f000 f9e8 	bl	800855e <memset>
 800818e:	683d      	ldr	r5, [r7, #0]
 8008190:	0021      	movs	r1, r4
 8008192:	b2ed      	uxtb	r5, r5
 8008194:	002a      	movs	r2, r5
 8008196:	0030      	movs	r0, r6
 8008198:	f000 fa0e 	bl	80085b8 <memcpy>
 800819c:	002a      	movs	r2, r5
 800819e:	2100      	movs	r1, #0
 80081a0:	0020      	movs	r0, r4
 80081a2:	f000 f9dc 	bl	800855e <memset>
 80081a6:	2201      	movs	r2, #1
 80081a8:	4b03      	ldr	r3, [pc, #12]	@ (80081b8 <CDC_Receive_FS+0x4c>)
 80081aa:	2000      	movs	r0, #0
 80081ac:	701a      	strb	r2, [r3, #0]
 80081ae:	bdf8      	pop	{r3, r4, r5, r6, r7, pc}
 80081b0:	20001868 	.word	0x20001868
 80081b4:	2000046c 	.word	0x2000046c
 80081b8:	200003b8 	.word	0x200003b8

080081bc <CDC_Init_FS>:
 80081bc:	b510      	push	{r4, lr}
 80081be:	4c06      	ldr	r4, [pc, #24]	@ (80081d8 <CDC_Init_FS+0x1c>)
 80081c0:	2200      	movs	r2, #0
 80081c2:	0020      	movs	r0, r4
 80081c4:	4905      	ldr	r1, [pc, #20]	@ (80081dc <CDC_Init_FS+0x20>)
 80081c6:	f7ff fb68 	bl	800789a <USBD_CDC_SetTxBuffer>
 80081ca:	0020      	movs	r0, r4
 80081cc:	4904      	ldr	r1, [pc, #16]	@ (80081e0 <CDC_Init_FS+0x24>)
 80081ce:	f7ff fb6f 	bl	80078b0 <USBD_CDC_SetRxBuffer>
 80081d2:	2000      	movs	r0, #0
 80081d4:	bd10      	pop	{r4, pc}
 80081d6:	46c0      	nop			@ (mov r8, r8)
 80081d8:	20001868 	.word	0x20001868
 80081dc:	20001b2c 	.word	0x20001b2c
 80081e0:	20001f2c 	.word	0x20001f2c

080081e4 <CDC_Transmit_FS>:
 80081e4:	000a      	movs	r2, r1
 80081e6:	21ae      	movs	r1, #174	@ 0xae
 80081e8:	b510      	push	{r4, lr}
 80081ea:	4c08      	ldr	r4, [pc, #32]	@ (800820c <CDC_Transmit_FS+0x28>)
 80081ec:	0089      	lsls	r1, r1, #2
 80081ee:	0003      	movs	r3, r0
 80081f0:	5860      	ldr	r0, [r4, r1]
 80081f2:	39a4      	subs	r1, #164	@ 0xa4
 80081f4:	5841      	ldr	r1, [r0, r1]
 80081f6:	2001      	movs	r0, #1
 80081f8:	2900      	cmp	r1, #0
 80081fa:	d106      	bne.n	800820a <CDC_Transmit_FS+0x26>
 80081fc:	0019      	movs	r1, r3
 80081fe:	0020      	movs	r0, r4
 8008200:	f7ff fb4b 	bl	800789a <USBD_CDC_SetTxBuffer>
 8008204:	0020      	movs	r0, r4
 8008206:	f7ff fb5a 	bl	80078be <USBD_CDC_TransmitPacket>
 800820a:	bd10      	pop	{r4, pc}
 800820c:	20001868 	.word	0x20001868

08008210 <USBD_FS_DeviceDescriptor>:
 8008210:	2312      	movs	r3, #18
 8008212:	4801      	ldr	r0, [pc, #4]	@ (8008218 <USBD_FS_DeviceDescriptor+0x8>)
 8008214:	800b      	strh	r3, [r1, #0]
 8008216:	4770      	bx	lr
 8008218:	20000344 	.word	0x20000344

0800821c <USBD_FS_LangIDStrDescriptor>:
 800821c:	2304      	movs	r3, #4
 800821e:	4801      	ldr	r0, [pc, #4]	@ (8008224 <USBD_FS_LangIDStrDescriptor+0x8>)
 8008220:	800b      	strh	r3, [r1, #0]
 8008222:	4770      	bx	lr
 8008224:	20000340 	.word	0x20000340

08008228 <IntToUnicode>:
 8008228:	b570      	push	{r4, r5, r6, lr}
 800822a:	2600      	movs	r6, #0
 800822c:	0052      	lsls	r2, r2, #1
 800822e:	188a      	adds	r2, r1, r2
 8008230:	0f05      	lsrs	r5, r0, #28
 8008232:	b2ec      	uxtb	r4, r5
 8008234:	0023      	movs	r3, r4
 8008236:	3337      	adds	r3, #55	@ 0x37
 8008238:	2d09      	cmp	r5, #9
 800823a:	d800      	bhi.n	800823e <IntToUnicode+0x16>
 800823c:	3b07      	subs	r3, #7
 800823e:	700b      	strb	r3, [r1, #0]
 8008240:	704e      	strb	r6, [r1, #1]
 8008242:	3102      	adds	r1, #2
 8008244:	0100      	lsls	r0, r0, #4
 8008246:	428a      	cmp	r2, r1
 8008248:	d1f2      	bne.n	8008230 <IntToUnicode+0x8>
 800824a:	bd70      	pop	{r4, r5, r6, pc}

0800824c <USBD_FS_SerialStrDescriptor>:
 800824c:	231a      	movs	r3, #26
 800824e:	b510      	push	{r4, lr}
 8008250:	800b      	strh	r3, [r1, #0]
 8008252:	4b0a      	ldr	r3, [pc, #40]	@ (800827c <USBD_FS_SerialStrDescriptor+0x30>)
 8008254:	6818      	ldr	r0, [r3, #0]
 8008256:	4b0a      	ldr	r3, [pc, #40]	@ (8008280 <USBD_FS_SerialStrDescriptor+0x34>)
 8008258:	681b      	ldr	r3, [r3, #0]
 800825a:	18c0      	adds	r0, r0, r3
 800825c:	2800      	cmp	r0, #0
 800825e:	d00a      	beq.n	8008276 <USBD_FS_SerialStrDescriptor+0x2a>
 8008260:	4b08      	ldr	r3, [pc, #32]	@ (8008284 <USBD_FS_SerialStrDescriptor+0x38>)
 8008262:	2208      	movs	r2, #8
 8008264:	681c      	ldr	r4, [r3, #0]
 8008266:	4908      	ldr	r1, [pc, #32]	@ (8008288 <USBD_FS_SerialStrDescriptor+0x3c>)
 8008268:	f7ff ffde 	bl	8008228 <IntToUnicode>
 800826c:	2204      	movs	r2, #4
 800826e:	0020      	movs	r0, r4
 8008270:	4906      	ldr	r1, [pc, #24]	@ (800828c <USBD_FS_SerialStrDescriptor+0x40>)
 8008272:	f7ff ffd9 	bl	8008228 <IntToUnicode>
 8008276:	4806      	ldr	r0, [pc, #24]	@ (8008290 <USBD_FS_SerialStrDescriptor+0x44>)
 8008278:	bd10      	pop	{r4, pc}
 800827a:	46c0      	nop			@ (mov r8, r8)
 800827c:	1ffff7ac 	.word	0x1ffff7ac
 8008280:	1ffff7b4 	.word	0x1ffff7b4
 8008284:	1ffff7b0 	.word	0x1ffff7b0
 8008288:	20000326 	.word	0x20000326
 800828c:	20000336 	.word	0x20000336
 8008290:	20000324 	.word	0x20000324

08008294 <USBD_FS_ManufacturerStrDescriptor>:
 8008294:	b510      	push	{r4, lr}
 8008296:	4c04      	ldr	r4, [pc, #16]	@ (80082a8 <USBD_FS_ManufacturerStrDescriptor+0x14>)
 8008298:	000a      	movs	r2, r1
 800829a:	0021      	movs	r1, r4
 800829c:	4803      	ldr	r0, [pc, #12]	@ (80082ac <USBD_FS_ManufacturerStrDescriptor+0x18>)
 800829e:	f7ff fed1 	bl	8008044 <USBD_GetString>
 80082a2:	0020      	movs	r0, r4
 80082a4:	bd10      	pop	{r4, pc}
 80082a6:	46c0      	nop			@ (mov r8, r8)
 80082a8:	2000232c 	.word	0x2000232c
 80082ac:	0800869c 	.word	0x0800869c

080082b0 <USBD_FS_ProductStrDescriptor>:
 80082b0:	b510      	push	{r4, lr}
 80082b2:	4c04      	ldr	r4, [pc, #16]	@ (80082c4 <USBD_FS_ProductStrDescriptor+0x14>)
 80082b4:	000a      	movs	r2, r1
 80082b6:	0021      	movs	r1, r4
 80082b8:	4803      	ldr	r0, [pc, #12]	@ (80082c8 <USBD_FS_ProductStrDescriptor+0x18>)
 80082ba:	f7ff fec3 	bl	8008044 <USBD_GetString>
 80082be:	0020      	movs	r0, r4
 80082c0:	bd10      	pop	{r4, pc}
 80082c2:	46c0      	nop			@ (mov r8, r8)
 80082c4:	2000232c 	.word	0x2000232c
 80082c8:	080086a7 	.word	0x080086a7

080082cc <USBD_FS_ConfigStrDescriptor>:
 80082cc:	b510      	push	{r4, lr}
 80082ce:	4c04      	ldr	r4, [pc, #16]	@ (80082e0 <USBD_FS_ConfigStrDescriptor+0x14>)
 80082d0:	000a      	movs	r2, r1
 80082d2:	0021      	movs	r1, r4
 80082d4:	4803      	ldr	r0, [pc, #12]	@ (80082e4 <USBD_FS_ConfigStrDescriptor+0x18>)
 80082d6:	f7ff feb5 	bl	8008044 <USBD_GetString>
 80082da:	0020      	movs	r0, r4
 80082dc:	bd10      	pop	{r4, pc}
 80082de:	46c0      	nop			@ (mov r8, r8)
 80082e0:	2000232c 	.word	0x2000232c
 80082e4:	080086ae 	.word	0x080086ae

080082e8 <USBD_FS_InterfaceStrDescriptor>:
 80082e8:	b510      	push	{r4, lr}
 80082ea:	4c04      	ldr	r4, [pc, #16]	@ (80082fc <USBD_FS_InterfaceStrDescriptor+0x14>)
 80082ec:	000a      	movs	r2, r1
 80082ee:	0021      	movs	r1, r4
 80082f0:	4803      	ldr	r0, [pc, #12]	@ (8008300 <USBD_FS_InterfaceStrDescriptor+0x18>)
 80082f2:	f7ff fea7 	bl	8008044 <USBD_GetString>
 80082f6:	0020      	movs	r0, r4
 80082f8:	bd10      	pop	{r4, pc}
 80082fa:	46c0      	nop			@ (mov r8, r8)
 80082fc:	2000232c 	.word	0x2000232c
 8008300:	080086b9 	.word	0x080086b9

08008304 <USBD_Get_USB_Status>:
 8008304:	2800      	cmp	r0, #0
 8008306:	d003      	beq.n	8008310 <USBD_Get_USB_Status+0xc>
 8008308:	3802      	subs	r0, #2
 800830a:	1e43      	subs	r3, r0, #1
 800830c:	4198      	sbcs	r0, r3
 800830e:	3001      	adds	r0, #1
 8008310:	4770      	bx	lr
	...

08008314 <HAL_PCD_MspInit>:
 8008314:	b507      	push	{r0, r1, r2, lr}
 8008316:	4b0b      	ldr	r3, [pc, #44]	@ (8008344 <HAL_PCD_MspInit+0x30>)
 8008318:	6802      	ldr	r2, [r0, #0]
 800831a:	429a      	cmp	r2, r3
 800831c:	d111      	bne.n	8008342 <HAL_PCD_MspInit+0x2e>
 800831e:	2180      	movs	r1, #128	@ 0x80
 8008320:	4b09      	ldr	r3, [pc, #36]	@ (8008348 <HAL_PCD_MspInit+0x34>)
 8008322:	0409      	lsls	r1, r1, #16
 8008324:	69da      	ldr	r2, [r3, #28]
 8008326:	201f      	movs	r0, #31
 8008328:	430a      	orrs	r2, r1
 800832a:	61da      	str	r2, [r3, #28]
 800832c:	2200      	movs	r2, #0
 800832e:	69db      	ldr	r3, [r3, #28]
 8008330:	400b      	ands	r3, r1
 8008332:	9301      	str	r3, [sp, #4]
 8008334:	0011      	movs	r1, r2
 8008336:	9b01      	ldr	r3, [sp, #4]
 8008338:	f7fb fec8 	bl	80040cc <HAL_NVIC_SetPriority>
 800833c:	201f      	movs	r0, #31
 800833e:	f7fb feef 	bl	8004120 <HAL_NVIC_EnableIRQ>
 8008342:	bd07      	pop	{r0, r1, r2, pc}
 8008344:	40005c00 	.word	0x40005c00
 8008348:	40021000 	.word	0x40021000

0800834c <HAL_PCD_SetupStageCallback>:
 800834c:	23a6      	movs	r3, #166	@ 0xa6
 800834e:	b510      	push	{r4, lr}
 8008350:	009b      	lsls	r3, r3, #2
 8008352:	18c1      	adds	r1, r0, r3
 8008354:	3340      	adds	r3, #64	@ 0x40
 8008356:	58c0      	ldr	r0, [r0, r3]
 8008358:	f7ff fb22 	bl	80079a0 <USBD_LL_SetupStage>
 800835c:	bd10      	pop	{r4, pc}

0800835e <HAL_PCD_DataOutStageCallback>:
 800835e:	2328      	movs	r3, #40	@ 0x28
 8008360:	434b      	muls	r3, r1
 8008362:	18c3      	adds	r3, r0, r3
 8008364:	33fc      	adds	r3, #252	@ 0xfc
 8008366:	6e9a      	ldr	r2, [r3, #104]	@ 0x68
 8008368:	23b6      	movs	r3, #182	@ 0xb6
 800836a:	b510      	push	{r4, lr}
 800836c:	009b      	lsls	r3, r3, #2
 800836e:	58c0      	ldr	r0, [r0, r3]
 8008370:	f7ff fb48 	bl	8007a04 <USBD_LL_DataOutStage>
 8008374:	bd10      	pop	{r4, pc}

08008376 <HAL_PCD_DataInStageCallback>:
 8008376:	2328      	movs	r3, #40	@ 0x28
 8008378:	434b      	muls	r3, r1
 800837a:	18c3      	adds	r3, r0, r3
 800837c:	6a5a      	ldr	r2, [r3, #36]	@ 0x24
 800837e:	23b6      	movs	r3, #182	@ 0xb6
 8008380:	b510      	push	{r4, lr}
 8008382:	009b      	lsls	r3, r3, #2
 8008384:	58c0      	ldr	r0, [r0, r3]
 8008386:	f7ff fb80 	bl	8007a8a <USBD_LL_DataInStage>
 800838a:	bd10      	pop	{r4, pc}

0800838c <HAL_PCD_SOFCallback>:
 800838c:	23b6      	movs	r3, #182	@ 0xb6
 800838e:	b510      	push	{r4, lr}
 8008390:	009b      	lsls	r3, r3, #2
 8008392:	58c0      	ldr	r0, [r0, r3]
 8008394:	f7ff fc22 	bl	8007bdc <USBD_LL_SOF>
 8008398:	bd10      	pop	{r4, pc}

0800839a <HAL_PCD_ResetCallback>:
 800839a:	b570      	push	{r4, r5, r6, lr}
 800839c:	7943      	ldrb	r3, [r0, #5]
 800839e:	0004      	movs	r4, r0
 80083a0:	2b02      	cmp	r3, #2
 80083a2:	d001      	beq.n	80083a8 <HAL_PCD_ResetCallback+0xe>
 80083a4:	f7fb f8e6 	bl	8003574 <Error_Handler>
 80083a8:	25b6      	movs	r5, #182	@ 0xb6
 80083aa:	00ad      	lsls	r5, r5, #2
 80083ac:	2101      	movs	r1, #1
 80083ae:	5960      	ldr	r0, [r4, r5]
 80083b0:	f7ff fbf9 	bl	8007ba6 <USBD_LL_SetSpeed>
 80083b4:	5960      	ldr	r0, [r4, r5]
 80083b6:	f7ff fbcc 	bl	8007b52 <USBD_LL_Reset>
 80083ba:	bd70      	pop	{r4, r5, r6, pc}

080083bc <HAL_PCD_SuspendCallback>:
 80083bc:	23b6      	movs	r3, #182	@ 0xb6
 80083be:	b510      	push	{r4, lr}
 80083c0:	0004      	movs	r4, r0
 80083c2:	009b      	lsls	r3, r3, #2
 80083c4:	58c0      	ldr	r0, [r0, r3]
 80083c6:	f7ff fbf1 	bl	8007bac <USBD_LL_Suspend>
 80083ca:	7a63      	ldrb	r3, [r4, #9]
 80083cc:	2b00      	cmp	r3, #0
 80083ce:	d004      	beq.n	80083da <HAL_PCD_SuspendCallback+0x1e>
 80083d0:	2306      	movs	r3, #6
 80083d2:	4a02      	ldr	r2, [pc, #8]	@ (80083dc <HAL_PCD_SuspendCallback+0x20>)
 80083d4:	6911      	ldr	r1, [r2, #16]
 80083d6:	430b      	orrs	r3, r1
 80083d8:	6113      	str	r3, [r2, #16]
 80083da:	bd10      	pop	{r4, pc}
 80083dc:	e000ed00 	.word	0xe000ed00

080083e0 <HAL_PCD_ResumeCallback>:
 80083e0:	b510      	push	{r4, lr}
 80083e2:	7a43      	ldrb	r3, [r0, #9]
 80083e4:	0004      	movs	r4, r0
 80083e6:	2b00      	cmp	r3, #0
 80083e8:	d006      	beq.n	80083f8 <HAL_PCD_ResumeCallback+0x18>
 80083ea:	2106      	movs	r1, #6
 80083ec:	4a05      	ldr	r2, [pc, #20]	@ (8008404 <HAL_PCD_ResumeCallback+0x24>)
 80083ee:	6913      	ldr	r3, [r2, #16]
 80083f0:	438b      	bics	r3, r1
 80083f2:	6113      	str	r3, [r2, #16]
 80083f4:	f7fb f854 	bl	80034a0 <SystemClock_Config>
 80083f8:	23b6      	movs	r3, #182	@ 0xb6
 80083fa:	009b      	lsls	r3, r3, #2
 80083fc:	58e0      	ldr	r0, [r4, r3]
 80083fe:	f7ff fbe1 	bl	8007bc4 <USBD_LL_Resume>
 8008402:	bd10      	pop	{r4, pc}
 8008404:	e000ed00 	.word	0xe000ed00

08008408 <USBD_LL_Init>:
 8008408:	23b6      	movs	r3, #182	@ 0xb6
 800840a:	b570      	push	{r4, r5, r6, lr}
 800840c:	0004      	movs	r4, r0
 800840e:	481c      	ldr	r0, [pc, #112]	@ (8008480 <USBD_LL_Init+0x78>)
 8008410:	009b      	lsls	r3, r3, #2
 8008412:	50c4      	str	r4, [r0, r3]
 8008414:	4b1b      	ldr	r3, [pc, #108]	@ (8008484 <USBD_LL_Init+0x7c>)
 8008416:	25b0      	movs	r5, #176	@ 0xb0
 8008418:	6003      	str	r3, [r0, #0]
 800841a:	2382      	movs	r3, #130	@ 0x82
 800841c:	009b      	lsls	r3, r3, #2
 800841e:	8083      	strh	r3, [r0, #4]
 8008420:	2302      	movs	r3, #2
 8008422:	71c3      	strb	r3, [r0, #7]
 8008424:	2300      	movs	r3, #0
 8008426:	00ad      	lsls	r5, r5, #2
 8008428:	5160      	str	r0, [r4, r5]
 800842a:	7243      	strb	r3, [r0, #9]
 800842c:	8143      	strh	r3, [r0, #10]
 800842e:	f7fc fc2d 	bl	8004c8c <HAL_PCD_Init>
 8008432:	2800      	cmp	r0, #0
 8008434:	d001      	beq.n	800843a <USBD_LL_Init+0x32>
 8008436:	f7fb f89d 	bl	8003574 <Error_Handler>
 800843a:	2200      	movs	r2, #0
 800843c:	5960      	ldr	r0, [r4, r5]
 800843e:	0011      	movs	r1, r2
 8008440:	2318      	movs	r3, #24
 8008442:	f7fd fa62 	bl	800590a <HAL_PCDEx_PMAConfig>
 8008446:	5960      	ldr	r0, [r4, r5]
 8008448:	2358      	movs	r3, #88	@ 0x58
 800844a:	2200      	movs	r2, #0
 800844c:	2180      	movs	r1, #128	@ 0x80
 800844e:	f7fd fa5c 	bl	800590a <HAL_PCDEx_PMAConfig>
 8008452:	5960      	ldr	r0, [r4, r5]
 8008454:	23c0      	movs	r3, #192	@ 0xc0
 8008456:	2200      	movs	r2, #0
 8008458:	2181      	movs	r1, #129	@ 0x81
 800845a:	f7fd fa56 	bl	800590a <HAL_PCDEx_PMAConfig>
 800845e:	2388      	movs	r3, #136	@ 0x88
 8008460:	5960      	ldr	r0, [r4, r5]
 8008462:	2200      	movs	r2, #0
 8008464:	2101      	movs	r1, #1
 8008466:	005b      	lsls	r3, r3, #1
 8008468:	f7fd fa4f 	bl	800590a <HAL_PCDEx_PMAConfig>
 800846c:	2380      	movs	r3, #128	@ 0x80
 800846e:	5960      	ldr	r0, [r4, r5]
 8008470:	2200      	movs	r2, #0
 8008472:	2182      	movs	r1, #130	@ 0x82
 8008474:	005b      	lsls	r3, r3, #1
 8008476:	f7fd fa48 	bl	800590a <HAL_PCDEx_PMAConfig>
 800847a:	2000      	movs	r0, #0
 800847c:	bd70      	pop	{r4, r5, r6, pc}
 800847e:	46c0      	nop			@ (mov r8, r8)
 8008480:	2000274c 	.word	0x2000274c
 8008484:	40005c00 	.word	0x40005c00

08008488 <USBD_LL_Start>:
 8008488:	23b0      	movs	r3, #176	@ 0xb0
 800848a:	b510      	push	{r4, lr}
 800848c:	009b      	lsls	r3, r3, #2
 800848e:	58c0      	ldr	r0, [r0, r3]
 8008490:	f7fc fc48 	bl	8004d24 <HAL_PCD_Start>
 8008494:	f7ff ff36 	bl	8008304 <USBD_Get_USB_Status>
 8008498:	bd10      	pop	{r4, pc}

0800849a <USBD_LL_OpenEP>:
 800849a:	b510      	push	{r4, lr}
 800849c:	0014      	movs	r4, r2
 800849e:	001a      	movs	r2, r3
 80084a0:	0023      	movs	r3, r4
 80084a2:	24b0      	movs	r4, #176	@ 0xb0
 80084a4:	00a4      	lsls	r4, r4, #2
 80084a6:	5900      	ldr	r0, [r0, r4]
 80084a8:	f7fd f946 	bl	8005738 <HAL_PCD_EP_Open>
 80084ac:	f7ff ff2a 	bl	8008304 <USBD_Get_USB_Status>
 80084b0:	bd10      	pop	{r4, pc}

080084b2 <USBD_LL_CloseEP>:
 80084b2:	23b0      	movs	r3, #176	@ 0xb0
 80084b4:	b510      	push	{r4, lr}
 80084b6:	009b      	lsls	r3, r3, #2
 80084b8:	58c0      	ldr	r0, [r0, r3]
 80084ba:	f7fd f969 	bl	8005790 <HAL_PCD_EP_Close>
 80084be:	f7ff ff21 	bl	8008304 <USBD_Get_USB_Status>
 80084c2:	bd10      	pop	{r4, pc}

080084c4 <USBD_LL_StallEP>:
 80084c4:	23b0      	movs	r3, #176	@ 0xb0
 80084c6:	b510      	push	{r4, lr}
 80084c8:	009b      	lsls	r3, r3, #2
 80084ca:	58c0      	ldr	r0, [r0, r3]
 80084cc:	f7fd f9c1 	bl	8005852 <HAL_PCD_EP_SetStall>
 80084d0:	f7ff ff18 	bl	8008304 <USBD_Get_USB_Status>
 80084d4:	bd10      	pop	{r4, pc}

080084d6 <USBD_LL_ClearStallEP>:
 80084d6:	23b0      	movs	r3, #176	@ 0xb0
 80084d8:	b510      	push	{r4, lr}
 80084da:	009b      	lsls	r3, r3, #2
 80084dc:	58c0      	ldr	r0, [r0, r3]
 80084de:	f7fd f9e6 	bl	80058ae <HAL_PCD_EP_ClrStall>
 80084e2:	f7ff ff0f 	bl	8008304 <USBD_Get_USB_Status>
 80084e6:	bd10      	pop	{r4, pc}

080084e8 <USBD_LL_IsStallEP>:
 80084e8:	23b0      	movs	r3, #176	@ 0xb0
 80084ea:	009b      	lsls	r3, r3, #2
 80084ec:	58c3      	ldr	r3, [r0, r3]
 80084ee:	b248      	sxtb	r0, r1
 80084f0:	2228      	movs	r2, #40	@ 0x28
 80084f2:	2800      	cmp	r0, #0
 80084f4:	da05      	bge.n	8008502 <USBD_LL_IsStallEP+0x1a>
 80084f6:	207f      	movs	r0, #127	@ 0x7f
 80084f8:	4001      	ands	r1, r0
 80084fa:	434a      	muls	r2, r1
 80084fc:	189b      	adds	r3, r3, r2
 80084fe:	7c98      	ldrb	r0, [r3, #18]
 8008500:	4770      	bx	lr
 8008502:	434a      	muls	r2, r1
 8008504:	189b      	adds	r3, r3, r2
 8008506:	3353      	adds	r3, #83	@ 0x53
 8008508:	33ff      	adds	r3, #255	@ 0xff
 800850a:	7818      	ldrb	r0, [r3, #0]
 800850c:	e7f8      	b.n	8008500 <USBD_LL_IsStallEP+0x18>

0800850e <USBD_LL_SetUSBAddress>:
 800850e:	23b0      	movs	r3, #176	@ 0xb0
 8008510:	b510      	push	{r4, lr}
 8008512:	009b      	lsls	r3, r3, #2
 8008514:	58c0      	ldr	r0, [r0, r3]
 8008516:	f7fc fc18 	bl	8004d4a <HAL_PCD_SetAddress>
 800851a:	f7ff fef3 	bl	8008304 <USBD_Get_USB_Status>
 800851e:	bd10      	pop	{r4, pc}

08008520 <USBD_LL_Transmit>:
 8008520:	b510      	push	{r4, lr}
 8008522:	24b0      	movs	r4, #176	@ 0xb0
 8008524:	00a4      	lsls	r4, r4, #2
 8008526:	5900      	ldr	r0, [r0, r4]
 8008528:	f7fd f97b 	bl	8005822 <HAL_PCD_EP_Transmit>
 800852c:	f7ff feea 	bl	8008304 <USBD_Get_USB_Status>
 8008530:	bd10      	pop	{r4, pc}

08008532 <USBD_LL_PrepareReceive>:
 8008532:	b510      	push	{r4, lr}
 8008534:	24b0      	movs	r4, #176	@ 0xb0
 8008536:	00a4      	lsls	r4, r4, #2
 8008538:	5900      	ldr	r0, [r0, r4]
 800853a:	f7fd f94f 	bl	80057dc <HAL_PCD_EP_Receive>
 800853e:	f7ff fee1 	bl	8008304 <USBD_Get_USB_Status>
 8008542:	bd10      	pop	{r4, pc}

08008544 <USBD_LL_GetRxDataSize>:
 8008544:	23b0      	movs	r3, #176	@ 0xb0
 8008546:	b510      	push	{r4, lr}
 8008548:	009b      	lsls	r3, r3, #2
 800854a:	58c0      	ldr	r0, [r0, r3]
 800854c:	f7fd f961 	bl	8005812 <HAL_PCD_EP_GetRxCount>
 8008550:	bd10      	pop	{r4, pc}
	...

08008554 <USBD_static_malloc>:
 8008554:	4800      	ldr	r0, [pc, #0]	@ (8008558 <USBD_static_malloc+0x4>)
 8008556:	4770      	bx	lr
 8008558:	2000252c 	.word	0x2000252c

0800855c <USBD_static_free>:
 800855c:	4770      	bx	lr

0800855e <memset>:
 800855e:	0003      	movs	r3, r0
 8008560:	1882      	adds	r2, r0, r2
 8008562:	4293      	cmp	r3, r2
 8008564:	d100      	bne.n	8008568 <memset+0xa>
 8008566:	4770      	bx	lr
 8008568:	7019      	strb	r1, [r3, #0]
 800856a:	3301      	adds	r3, #1
 800856c:	e7f9      	b.n	8008562 <memset+0x4>
	...

08008570 <__libc_init_array>:
 8008570:	b570      	push	{r4, r5, r6, lr}
 8008572:	2600      	movs	r6, #0
 8008574:	4c0c      	ldr	r4, [pc, #48]	@ (80085a8 <__libc_init_array+0x38>)
 8008576:	4d0d      	ldr	r5, [pc, #52]	@ (80085ac <__libc_init_array+0x3c>)
 8008578:	1b64      	subs	r4, r4, r5
 800857a:	10a4      	asrs	r4, r4, #2
 800857c:	42a6      	cmp	r6, r4
 800857e:	d109      	bne.n	8008594 <__libc_init_array+0x24>
 8008580:	2600      	movs	r6, #0
 8008582:	f000 f823 	bl	80085cc <_init>
 8008586:	4c0a      	ldr	r4, [pc, #40]	@ (80085b0 <__libc_init_array+0x40>)
 8008588:	4d0a      	ldr	r5, [pc, #40]	@ (80085b4 <__libc_init_array+0x44>)
 800858a:	1b64      	subs	r4, r4, r5
 800858c:	10a4      	asrs	r4, r4, #2
 800858e:	42a6      	cmp	r6, r4
 8008590:	d105      	bne.n	800859e <__libc_init_array+0x2e>
 8008592:	bd70      	pop	{r4, r5, r6, pc}
 8008594:	00b3      	lsls	r3, r6, #2
 8008596:	58eb      	ldr	r3, [r5, r3]
 8008598:	4798      	blx	r3
 800859a:	3601      	adds	r6, #1
 800859c:	e7ee      	b.n	800857c <__libc_init_array+0xc>
 800859e:	00b3      	lsls	r3, r6, #2
 80085a0:	58eb      	ldr	r3, [r5, r3]
 80085a2:	4798      	blx	r3
 80085a4:	3601      	adds	r6, #1
 80085a6:	e7f2      	b.n	800858e <__libc_init_array+0x1e>
 80085a8:	080086d0 	.word	0x080086d0
 80085ac:	080086d0 	.word	0x080086d0
 80085b0:	080086d4 	.word	0x080086d4
 80085b4:	080086d0 	.word	0x080086d0

080085b8 <memcpy>:
 80085b8:	2300      	movs	r3, #0
 80085ba:	b510      	push	{r4, lr}
 80085bc:	429a      	cmp	r2, r3
 80085be:	d100      	bne.n	80085c2 <memcpy+0xa>
 80085c0:	bd10      	pop	{r4, pc}
 80085c2:	5ccc      	ldrb	r4, [r1, r3]
 80085c4:	54c4      	strb	r4, [r0, r3]
 80085c6:	3301      	adds	r3, #1
 80085c8:	e7f8      	b.n	80085bc <memcpy+0x4>
	...

080085cc <_init>:
 80085cc:	b5f8      	push	{r3, r4, r5, r6, r7, lr}
 80085ce:	46c0      	nop			@ (mov r8, r8)
 80085d0:	bcf8      	pop	{r3, r4, r5, r6, r7}
 80085d2:	bc08      	pop	{r3}
 80085d4:	469e      	mov	lr, r3
 80085d6:	4770      	bx	lr

080085d8 <_fini>:
 80085d8:	b5f8      	push	{r3, r4, r5, r6, r7, lr}
 80085da:	46c0      	nop			@ (mov r8, r8)
 80085dc:	bcf8      	pop	{r3, r4, r5, r6, r7}
 80085de:	bc08      	pop	{r3}
 80085e0:	469e      	mov	lr, r3
 80085e2:	4770      	bx	lr
